ARM GAS  /tmp/cchY05rl.s 			page 1


   1              		.cpu cortex-m4
   2              		.eabi_attribute 20, 1	@ Tag_ABI_FP_denormal
   3              		.eabi_attribute 21, 1	@ Tag_ABI_FP_exceptions
   4              		.eabi_attribute 23, 3	@ Tag_ABI_FP_number_model
   5              		.eabi_attribute 24, 1	@ Tag_ABI_align8_needed
   6              		.eabi_attribute 25, 1	@ Tag_ABI_align8_preserved
   7              		.eabi_attribute 26, 1	@ Tag_ABI_enum_size
   8              		.eabi_attribute 30, 4	@ Tag_ABI_optimization_goals
   9              		.eabi_attribute 34, 1	@ Tag_CPU_unaligned_access
  10              		.eabi_attribute 18, 4	@ Tag_ABI_PCS_wchar_t
  11              		.file	"tm_stm32f4_disco.c"
  12              	@ GNU C11 (GNU Tools for Arm Embedded Processors 7-2017-q4-major) version 7.2.1 20170904 (release) 
  13              	@	compiled by GNU C version 4.8.4, GMP version 6.1.0, MPFR version 3.1.4, MPC version 1.0.3, isl ve
  14              	
  15              	@ GGC heuristics: --param ggc-min-expand=100 --param ggc-min-heapsize=131072
  16              	@ options passed:  -I . -I ./inc -I ./inc/CMSIS
  17              	@ -I STM32F4xx_StdPeriph_Driver/inc -I ./inc/user_libs
  18              	@ -imultilib thumb/v7e-m
  19              	@ -iprefix /home/sticky/opt/gcc-arm-none-eabi-7-2017-q4-major/bin/../lib/gcc/arm-none-eabi/7.2.1/
  20              	@ -isysroot /home/sticky/opt/gcc-arm-none-eabi-7-2017-q4-major/bin/../arm-none-eabi
  21              	@ -D__USES_INITFINI__ -D STM32F40XX -D USE_STDPERIPH_DRIVER
  22              	@ -D RUN_FROM_FLASH=1 inc/user_libs/tm_stm32f4_disco.c -mcpu=cortex-m4
  23              	@ -mthumb -auxbase-strip inc/user_libs/tm_stm32f4_disco.o -g -gdwarf-2 -Os
  24              	@ -Wall -Wstrict-prototypes -fomit-frame-pointer -fverbose-asm
  25              	@ options enabled:  -faggressive-loop-optimizations -falign-jumps
  26              	@ -falign-labels -falign-loops -fauto-inc-dec -fbranch-count-reg
  27              	@ -fcaller-saves -fchkp-check-incomplete-type -fchkp-check-read
  28              	@ -fchkp-check-write -fchkp-instrument-calls -fchkp-narrow-bounds
  29              	@ -fchkp-optimize -fchkp-store-bounds -fchkp-use-static-bounds
  30              	@ -fchkp-use-static-const-bounds -fchkp-use-wrappers -fcode-hoisting
  31              	@ -fcombine-stack-adjustments -fcommon -fcompare-elim -fcprop-registers
  32              	@ -fcrossjumping -fcse-follow-jumps -fdefer-pop
  33              	@ -fdelete-null-pointer-checks -fdevirtualize -fdevirtualize-speculatively
  34              	@ -fdwarf2-cfi-asm -fearly-inlining -feliminate-unused-debug-types
  35              	@ -fexpensive-optimizations -fforward-propagate -ffp-int-builtin-inexact
  36              	@ -ffunction-cse -fgcse -fgcse-lm -fgnu-runtime -fgnu-unique
  37              	@ -fguess-branch-probability -fhoist-adjacent-loads -fident -fif-conversion
  38              	@ -fif-conversion2 -findirect-inlining -finline -finline-atomics
  39              	@ -finline-functions -finline-functions-called-once
  40              	@ -finline-small-functions -fipa-bit-cp -fipa-cp -fipa-icf
  41              	@ -fipa-icf-functions -fipa-icf-variables -fipa-profile -fipa-pure-const
  42              	@ -fipa-ra -fipa-reference -fipa-sra -fipa-vrp -fira-hoist-pressure
  43              	@ -fira-share-save-slots -fira-share-spill-slots
  44              	@ -fisolate-erroneous-paths-dereference -fivopts -fkeep-static-consts
  45              	@ -fleading-underscore -flifetime-dse -flra-remat -flto-odr-type-merging
  46              	@ -fmath-errno -fmerge-constants -fmerge-debug-strings
  47              	@ -fmove-loop-invariants -fomit-frame-pointer -foptimize-sibling-calls
  48              	@ -fpartial-inlining -fpeephole -fpeephole2 -fplt -fprefetch-loop-arrays
  49              	@ -freg-struct-return -freorder-blocks -freorder-functions
  50              	@ -frerun-cse-after-loop -fsched-critical-path-heuristic
  51              	@ -fsched-dep-count-heuristic -fsched-group-heuristic -fsched-interblock
  52              	@ -fsched-last-insn-heuristic -fsched-pressure -fsched-rank-heuristic
  53              	@ -fsched-spec -fsched-spec-insn-heuristic -fsched-stalled-insns-dep
  54              	@ -fschedule-insns2 -fsection-anchors -fsemantic-interposition
  55              	@ -fshow-column -fshrink-wrap-separate -fsigned-zeros
  56              	@ -fsplit-ivs-in-unroller -fsplit-wide-types -fssa-backprop -fssa-phiopt
  57              	@ -fstdarg-opt -fstore-merging -fstrict-aliasing -fstrict-overflow
ARM GAS  /tmp/cchY05rl.s 			page 2


  58              	@ -fstrict-volatile-bitfields -fsync-libcalls -fthread-jumps
  59              	@ -ftoplevel-reorder -ftrapping-math -ftree-bit-ccp -ftree-builtin-call-dce
  60              	@ -ftree-ccp -ftree-ch -ftree-coalesce-vars -ftree-copy-prop -ftree-cselim
  61              	@ -ftree-dce -ftree-dominator-opts -ftree-dse -ftree-forwprop -ftree-fre
  62              	@ -ftree-loop-if-convert -ftree-loop-im -ftree-loop-ivcanon
  63              	@ -ftree-loop-optimize -ftree-parallelize-loops= -ftree-phiprop -ftree-pre
  64              	@ -ftree-pta -ftree-reassoc -ftree-scev-cprop -ftree-sink -ftree-slsr
  65              	@ -ftree-sra -ftree-switch-conversion -ftree-tail-merge -ftree-ter
  66              	@ -ftree-vrp -funit-at-a-time -fvar-tracking -fvar-tracking-assignments
  67              	@ -fverbose-asm -fzero-initialized-in-bss -masm-syntax-unified
  68              	@ -mlittle-endian -mpic-data-is-text-relative -msched-prolog -mthumb
  69              	@ -munaligned-access -mvectorize-with-neon-quad
  70              	
  71              		.text
  72              	.Ltext0:
  73              		.cfi_sections	.debug_frame
  74              		.align	1
  75              		.global	TM_DISCO_LedInit
  76              		.syntax unified
  77              		.thumb
  78              		.thumb_func
  79              		.fpu softvfp
  80              		.type	TM_DISCO_LedInit, %function
  81              	TM_DISCO_LedInit:
  82              	.LFB110:
  83              		.file 1 "inc/user_libs/tm_stm32f4_disco.c"
   1:inc/user_libs/tm_stm32f4_disco.c **** /**	
   2:inc/user_libs/tm_stm32f4_disco.c ****  * |----------------------------------------------------------------------
   3:inc/user_libs/tm_stm32f4_disco.c ****  * | Copyright (C) Tilen Majerle, 2014
   4:inc/user_libs/tm_stm32f4_disco.c ****  * | 
   5:inc/user_libs/tm_stm32f4_disco.c ****  * | This program is free software: you can redistribute it and/or modify
   6:inc/user_libs/tm_stm32f4_disco.c ****  * | it under the terms of the GNU General Public License as published by
   7:inc/user_libs/tm_stm32f4_disco.c ****  * | the Free Software Foundation, either version 3 of the License, or
   8:inc/user_libs/tm_stm32f4_disco.c ****  * | any later version.
   9:inc/user_libs/tm_stm32f4_disco.c ****  * |  
  10:inc/user_libs/tm_stm32f4_disco.c ****  * | This program is distributed in the hope that it will be useful,
  11:inc/user_libs/tm_stm32f4_disco.c ****  * | but WITHOUT ANY WARRANTY; without even the implied warranty of
  12:inc/user_libs/tm_stm32f4_disco.c ****  * | MERCHANTABILITY or FITNESS FOR A PARTICULAR PURPOSE.  See the
  13:inc/user_libs/tm_stm32f4_disco.c ****  * | GNU General Public License for more details.
  14:inc/user_libs/tm_stm32f4_disco.c ****  * | 
  15:inc/user_libs/tm_stm32f4_disco.c ****  * | You should have received a copy of the GNU General Public License
  16:inc/user_libs/tm_stm32f4_disco.c ****  * | along with this program.  If not, see <http://www.gnu.org/licenses/>.
  17:inc/user_libs/tm_stm32f4_disco.c ****  * |----------------------------------------------------------------------
  18:inc/user_libs/tm_stm32f4_disco.c ****  */
  19:inc/user_libs/tm_stm32f4_disco.c **** #include "tm_stm32f4_disco.h"
  20:inc/user_libs/tm_stm32f4_disco.c **** 
  21:inc/user_libs/tm_stm32f4_disco.c **** /* Button pressed status for onpressed/onreleased events */
  22:inc/user_libs/tm_stm32f4_disco.c **** static volatile uint8_t TM_INT_DISCO_ButtonPressed = 0;
  23:inc/user_libs/tm_stm32f4_disco.c **** 
  24:inc/user_libs/tm_stm32f4_disco.c **** void TM_DISCO_LedInit(void) {
  84              		.loc 1 24 0
  85              		.cfi_startproc
  86              		@ args = 0, pretend = 0, frame = 0
  87              		@ frame_needed = 0, uses_anonymous_args = 0
  88 0000 13B5     		push	{r0, r1, r4, lr}	@
  89              	.LCFI0:
  90              		.cfi_def_cfa_offset 16
ARM GAS  /tmp/cchY05rl.s 			page 3


  91              		.cfi_offset 4, -8
  92              		.cfi_offset 14, -4
  93              	@ inc/user_libs/tm_stm32f4_disco.c:26: 	TM_GPIO_Init(TM_DISCO_LED_PORT, LED_ALL, TM_GPIO_Mode_OUT, 
  25:inc/user_libs/tm_stm32f4_disco.c **** 	/* Set pins as output */
  26:inc/user_libs/tm_stm32f4_disco.c **** 	TM_GPIO_Init(TM_DISCO_LED_PORT, LED_ALL, TM_GPIO_Mode_OUT, TM_GPIO_OType_PP, TM_GPIO_PuPd_NOPULL, 
  94              		.loc 1 26 0
  95 0002 084C     		ldr	r4, .L2	@ tmp110,
  96 0004 0023     		movs	r3, #0	@ tmp112,
  97 0006 0322     		movs	r2, #3	@,
  98 0008 CDE90032 		strd	r3, r2, [sp]	@ tmp112,,
  99 000c 4FF47041 		mov	r1, #61440	@,
 100 0010 0122     		movs	r2, #1	@,
 101 0012 2046     		mov	r0, r4	@, tmp110
 102 0014 FFF7FEFF 		bl	TM_GPIO_Init	@
 103              	.LVL0:
 104              	@ inc/user_libs/tm_stm32f4_disco.c:29: 	TM_DISCO_LedOff(LED_ALL);
  27:inc/user_libs/tm_stm32f4_disco.c **** 	
  28:inc/user_libs/tm_stm32f4_disco.c **** 	/* Turn leds off */
  29:inc/user_libs/tm_stm32f4_disco.c **** 	TM_DISCO_LedOff(LED_ALL);
 105              		.loc 1 29 0
 106 0018 4FF47043 		mov	r3, #61440	@ tmp115,
 107 001c 6383     		strh	r3, [r4, #26]	@ movhi	@ tmp115, MEM[(struct GPIO_TypeDef *)1073875968B].BSRRH
 108              	@ inc/user_libs/tm_stm32f4_disco.c:30: }
  30:inc/user_libs/tm_stm32f4_disco.c **** }
 109              		.loc 1 30 0
 110 001e 02B0     		add	sp, sp, #8	@,,
 111              	.LCFI1:
 112              		.cfi_def_cfa_offset 8
 113              		@ sp needed	@
 114 0020 10BD     		pop	{r4, pc}	@
 115              	.L3:
 116 0022 00BF     		.align	2
 117              	.L2:
 118 0024 000C0240 		.word	1073875968
 119              		.cfi_endproc
 120              	.LFE110:
 121              		.size	TM_DISCO_LedInit, .-TM_DISCO_LedInit
 122              		.align	1
 123              		.global	TM_DISCO_ButtonInit
 124              		.syntax unified
 125              		.thumb
 126              		.thumb_func
 127              		.fpu softvfp
 128              		.type	TM_DISCO_ButtonInit, %function
 129              	TM_DISCO_ButtonInit:
 130              	.LFB111:
  31:inc/user_libs/tm_stm32f4_disco.c **** 
  32:inc/user_libs/tm_stm32f4_disco.c **** void TM_DISCO_ButtonInit(void) {
 131              		.loc 1 32 0
 132              		.cfi_startproc
 133              		@ args = 0, pretend = 0, frame = 0
 134              		@ frame_needed = 0, uses_anonymous_args = 0
 135 0028 07B5     		push	{r0, r1, r2, lr}	@
 136              	.LCFI2:
 137              		.cfi_def_cfa_offset 16
 138              		.cfi_offset 14, -4
 139              	@ inc/user_libs/tm_stm32f4_disco.c:34: 	TM_GPIO_Init(TM_DISCO_BUTTON_PORT, TM_DISCO_BUTTON_PIN, TM_
ARM GAS  /tmp/cchY05rl.s 			page 4


  33:inc/user_libs/tm_stm32f4_disco.c **** 	/* Set pin as input */
  34:inc/user_libs/tm_stm32f4_disco.c **** 	TM_GPIO_Init(TM_DISCO_BUTTON_PORT, TM_DISCO_BUTTON_PIN, TM_GPIO_Mode_IN, TM_GPIO_OType_PP, TM_DISC
 140              		.loc 1 34 0
 141 002a 0023     		movs	r3, #0	@ tmp111,
 142 002c 0222     		movs	r2, #2	@ tmp112,
 143 002e CDE90023 		strd	r2, r3, [sp]	@ tmp112, tmp111,
 144 0032 0121     		movs	r1, #1	@,
 145 0034 1A46     		mov	r2, r3	@,
 146 0036 0348     		ldr	r0, .L5	@,
 147 0038 FFF7FEFF 		bl	TM_GPIO_Init	@
 148              	.LVL1:
 149              	@ inc/user_libs/tm_stm32f4_disco.c:35: }
  35:inc/user_libs/tm_stm32f4_disco.c **** }
 150              		.loc 1 35 0
 151 003c 03B0     		add	sp, sp, #12	@,,
 152              	.LCFI3:
 153              		.cfi_def_cfa_offset 4
 154              		@ sp needed	@
 155 003e 5DF804FB 		ldr	pc, [sp], #4	@
 156              	.L6:
 157 0042 00BF     		.align	2
 158              	.L5:
 159 0044 00000240 		.word	1073872896
 160              		.cfi_endproc
 161              	.LFE111:
 162              		.size	TM_DISCO_ButtonInit, .-TM_DISCO_ButtonInit
 163              		.align	1
 164              		.global	TM_DISCO_ButtonOnPressed
 165              		.syntax unified
 166              		.thumb
 167              		.thumb_func
 168              		.fpu softvfp
 169              		.type	TM_DISCO_ButtonOnPressed, %function
 170              	TM_DISCO_ButtonOnPressed:
 171              	.LFB112:
  36:inc/user_libs/tm_stm32f4_disco.c **** 
  37:inc/user_libs/tm_stm32f4_disco.c **** uint8_t TM_DISCO_ButtonOnPressed(void) {
 172              		.loc 1 37 0
 173              		.cfi_startproc
 174              		@ args = 0, pretend = 0, frame = 0
 175              		@ frame_needed = 0, uses_anonymous_args = 0
 176              		@ link register save eliminated.
 177              	@ inc/user_libs/tm_stm32f4_disco.c:39: 	if (TM_DISCO_ButtonPressed()) {
  38:inc/user_libs/tm_stm32f4_disco.c **** 	/* If button is now pressed, but was not already pressed */
  39:inc/user_libs/tm_stm32f4_disco.c **** 	if (TM_DISCO_ButtonPressed()) {
 178              		.loc 1 39 0
 179 0048 064B     		ldr	r3, .L11	@ tmp114,
 180 004a 1869     		ldr	r0, [r3, #16]	@ _1, MEM[(struct GPIO_TypeDef *)1073872896B].IDR
 181 004c 064B     		ldr	r3, .L11+4	@ tmp126,
 182 004e 10F00100 		ands	r0, r0, #1	@ tmp115, _1,
 183 0052 02D0     		beq	.L8	@,
 184              	@ inc/user_libs/tm_stm32f4_disco.c:40: 		if (!TM_INT_DISCO_ButtonPressed) {
  40:inc/user_libs/tm_stm32f4_disco.c **** 		if (!TM_INT_DISCO_ButtonPressed) {
 185              		.loc 1 40 0
 186 0054 1A78     		ldrb	r2, [r3]	@ zero_extendqisi2	@ TM_INT_DISCO_ButtonPressed, TM_INT_DISCO_ButtonPressed
 187 0056 12B9     		cbnz	r2, .L10	@ TM_INT_DISCO_ButtonPressed,
 188              	@ inc/user_libs/tm_stm32f4_disco.c:42: 			TM_INT_DISCO_ButtonPressed = 1;
ARM GAS  /tmp/cchY05rl.s 			page 5


  41:inc/user_libs/tm_stm32f4_disco.c **** 			/* Set flag */
  42:inc/user_libs/tm_stm32f4_disco.c **** 			TM_INT_DISCO_ButtonPressed = 1;
 189              		.loc 1 42 0
 190 0058 0120     		movs	r0, #1	@ tmp120,
 191              	.L8:
 192              	@ inc/user_libs/tm_stm32f4_disco.c:49: 		TM_INT_DISCO_ButtonPressed = 0;
  43:inc/user_libs/tm_stm32f4_disco.c **** 			
  44:inc/user_libs/tm_stm32f4_disco.c **** 			/* Return button onpressed */
  45:inc/user_libs/tm_stm32f4_disco.c **** 			return 1;
  46:inc/user_libs/tm_stm32f4_disco.c **** 		}
  47:inc/user_libs/tm_stm32f4_disco.c **** 	} else {
  48:inc/user_libs/tm_stm32f4_disco.c **** 		/* Clear flag */
  49:inc/user_libs/tm_stm32f4_disco.c **** 		TM_INT_DISCO_ButtonPressed = 0;
 193              		.loc 1 49 0
 194 005a 1870     		strb	r0, [r3]	@ tmp115, TM_INT_DISCO_ButtonPressed
 195 005c 7047     		bx	lr	@
 196              	.L10:
 197              	@ inc/user_libs/tm_stm32f4_disco.c:53: 	return 0;
  50:inc/user_libs/tm_stm32f4_disco.c **** 	}
  51:inc/user_libs/tm_stm32f4_disco.c **** 	
  52:inc/user_libs/tm_stm32f4_disco.c **** 	/* Button is not pressed or it was already pressed before */
  53:inc/user_libs/tm_stm32f4_disco.c **** 	return 0;
 198              		.loc 1 53 0
 199 005e 0020     		movs	r0, #0	@ <retval>,
 200              	@ inc/user_libs/tm_stm32f4_disco.c:54: }
  54:inc/user_libs/tm_stm32f4_disco.c **** }
 201              		.loc 1 54 0
 202 0060 7047     		bx	lr	@
 203              	.L12:
 204 0062 00BF     		.align	2
 205              	.L11:
 206 0064 00000240 		.word	1073872896
 207 0068 00000000 		.word	.LANCHOR0
 208              		.cfi_endproc
 209              	.LFE112:
 210              		.size	TM_DISCO_ButtonOnPressed, .-TM_DISCO_ButtonOnPressed
 211              		.align	1
 212              		.global	TM_DISCO_ButtonOnReleased
 213              		.syntax unified
 214              		.thumb
 215              		.thumb_func
 216              		.fpu softvfp
 217              		.type	TM_DISCO_ButtonOnReleased, %function
 218              	TM_DISCO_ButtonOnReleased:
 219              	.LFB113:
  55:inc/user_libs/tm_stm32f4_disco.c **** 
  56:inc/user_libs/tm_stm32f4_disco.c **** uint8_t TM_DISCO_ButtonOnReleased(void) {
 220              		.loc 1 56 0
 221              		.cfi_startproc
 222              		@ args = 0, pretend = 0, frame = 0
 223              		@ frame_needed = 0, uses_anonymous_args = 0
 224              		@ link register save eliminated.
 225              	@ inc/user_libs/tm_stm32f4_disco.c:58: 	if (!TM_DISCO_ButtonPressed()) {
  57:inc/user_libs/tm_stm32f4_disco.c **** 	/* If button is now released, but was not already released */
  58:inc/user_libs/tm_stm32f4_disco.c **** 	if (!TM_DISCO_ButtonPressed()) {
 226              		.loc 1 58 0
 227 006c 084B     		ldr	r3, .L17	@ tmp114,
ARM GAS  /tmp/cchY05rl.s 			page 6


 228 006e 094A     		ldr	r2, .L17+4	@ tmp126,
 229 0070 1B69     		ldr	r3, [r3, #16]	@ _1, MEM[(struct GPIO_TypeDef *)1073872896B].IDR
 230 0072 13F00103 		ands	r3, r3, #1	@ tmp115, _1,
 231 0076 06D1     		bne	.L14	@,
 232              	@ inc/user_libs/tm_stm32f4_disco.c:59: 		if (TM_INT_DISCO_ButtonPressed) {
  59:inc/user_libs/tm_stm32f4_disco.c **** 		if (TM_INT_DISCO_ButtonPressed) {
 233              		.loc 1 59 0
 234 0078 1178     		ldrb	r1, [r2]	@ zero_extendqisi2	@ TM_INT_DISCO_ButtonPressed, TM_INT_DISCO_ButtonPressed
 235 007a 01F0FF00 		and	r0, r1, #255	@ TM_INT_DISCO_ButtonPressed.1_3, TM_INT_DISCO_ButtonPressed,
 236 007e 29B1     		cbz	r1, .L15	@ TM_INT_DISCO_ButtonPressed,
 237              	@ inc/user_libs/tm_stm32f4_disco.c:61: 			TM_INT_DISCO_ButtonPressed = 0;
  60:inc/user_libs/tm_stm32f4_disco.c **** 			/* Set flag */
  61:inc/user_libs/tm_stm32f4_disco.c **** 			TM_INT_DISCO_ButtonPressed = 0;
 238              		.loc 1 61 0
 239 0080 1370     		strb	r3, [r2]	@ tmp115, TM_INT_DISCO_ButtonPressed
 240              	@ inc/user_libs/tm_stm32f4_disco.c:64: 			return 1;
  62:inc/user_libs/tm_stm32f4_disco.c **** 			
  63:inc/user_libs/tm_stm32f4_disco.c **** 			/* Return button onreleased */
  64:inc/user_libs/tm_stm32f4_disco.c **** 			return 1;
 241              		.loc 1 64 0
 242 0082 0120     		movs	r0, #1	@ <retval>,
 243 0084 7047     		bx	lr	@
 244              	.L14:
 245              	@ inc/user_libs/tm_stm32f4_disco.c:68: 		TM_INT_DISCO_ButtonPressed = 1;
  65:inc/user_libs/tm_stm32f4_disco.c **** 		}
  66:inc/user_libs/tm_stm32f4_disco.c **** 	} else {
  67:inc/user_libs/tm_stm32f4_disco.c **** 		/* Set flag */
  68:inc/user_libs/tm_stm32f4_disco.c **** 		TM_INT_DISCO_ButtonPressed = 1;
 246              		.loc 1 68 0
 247 0086 0123     		movs	r3, #1	@ tmp123,
 248 0088 1370     		strb	r3, [r2]	@ tmp123, TM_INT_DISCO_ButtonPressed
 249              	@ inc/user_libs/tm_stm32f4_disco.c:72: 	return 0;
  69:inc/user_libs/tm_stm32f4_disco.c **** 	}
  70:inc/user_libs/tm_stm32f4_disco.c **** 	
  71:inc/user_libs/tm_stm32f4_disco.c **** 	/* Button is not released or it was already released before */
  72:inc/user_libs/tm_stm32f4_disco.c **** 	return 0;
 250              		.loc 1 72 0
 251 008a 0020     		movs	r0, #0	@ <retval>,
 252              	.L15:
 253              	@ inc/user_libs/tm_stm32f4_disco.c:73: }
  73:inc/user_libs/tm_stm32f4_disco.c **** }
 254              		.loc 1 73 0
 255 008c 7047     		bx	lr	@
 256              	.L18:
 257 008e 00BF     		.align	2
 258              	.L17:
 259 0090 00000240 		.word	1073872896
 260 0094 00000000 		.word	.LANCHOR0
 261              		.cfi_endproc
 262              	.LFE113:
 263              		.size	TM_DISCO_ButtonOnReleased, .-TM_DISCO_ButtonOnReleased
 264              		.bss
 265              		.set	.LANCHOR0,. + 0
 266              		.type	TM_INT_DISCO_ButtonPressed, %object
 267              		.size	TM_INT_DISCO_ButtonPressed, 1
 268              	TM_INT_DISCO_ButtonPressed:
 269 0000 00       		.space	1
ARM GAS  /tmp/cchY05rl.s 			page 7


 270              		.text
 271              	.Letext0:
 272              		.file 2 "/home/sticky/opt/gcc-arm-none-eabi-7-2017-q4-major/arm-none-eabi/include/machine/_default
 273              		.file 3 "/home/sticky/opt/gcc-arm-none-eabi-7-2017-q4-major/arm-none-eabi/include/sys/_stdint.h"
 274              		.file 4 "./inc/CMSIS/core_cm4.h"
 275              		.file 5 "./inc/system_stm32f4xx.h"
 276              		.file 6 "./inc/stm32f4xx.h"
 277              		.file 7 "inc/user_libs/tm_stm32f4_gpio.h"
 278              		.section	.debug_info,"",%progbits
 279              	.Ldebug_info0:
 280 0000 17030000 		.4byte	0x317
 281 0004 0200     		.2byte	0x2
 282 0006 00000000 		.4byte	.Ldebug_abbrev0
 283 000a 04       		.byte	0x4
 284 000b 01       		.uleb128 0x1
 285 000c 74000000 		.4byte	.LASF44
 286 0010 0C       		.byte	0xc
 287 0011 2B010000 		.4byte	.LASF45
 288 0015 E9010000 		.4byte	.LASF46
 289 0019 00000000 		.4byte	.Ltext0
 290 001d 98000000 		.4byte	.Letext0
 291 0021 00000000 		.4byte	.Ldebug_line0
 292 0025 02       		.uleb128 0x2
 293 0026 01       		.byte	0x1
 294 0027 06       		.byte	0x6
 295 0028 0F030000 		.4byte	.LASF0
 296 002c 03       		.uleb128 0x3
 297 002d 00000000 		.4byte	.LASF3
 298 0031 02       		.byte	0x2
 299 0032 2B       		.byte	0x2b
 300 0033 37000000 		.4byte	0x37
 301 0037 02       		.uleb128 0x2
 302 0038 01       		.byte	0x1
 303 0039 08       		.byte	0x8
 304 003a 1D010000 		.4byte	.LASF1
 305 003e 02       		.uleb128 0x2
 306 003f 02       		.byte	0x2
 307 0040 05       		.byte	0x5
 308 0041 B7020000 		.4byte	.LASF2
 309 0045 03       		.uleb128 0x3
 310 0046 BA010000 		.4byte	.LASF4
 311 004a 02       		.byte	0x2
 312 004b 39       		.byte	0x39
 313 004c 50000000 		.4byte	0x50
 314 0050 02       		.uleb128 0x2
 315 0051 02       		.byte	0x2
 316 0052 07       		.byte	0x7
 317 0053 6F010000 		.4byte	.LASF5
 318 0057 03       		.uleb128 0x3
 319 0058 6A000000 		.4byte	.LASF6
 320 005c 02       		.byte	0x2
 321 005d 4D       		.byte	0x4d
 322 005e 62000000 		.4byte	0x62
 323 0062 02       		.uleb128 0x2
 324 0063 04       		.byte	0x4
 325 0064 05       		.byte	0x5
 326 0065 00030000 		.4byte	.LASF7
ARM GAS  /tmp/cchY05rl.s 			page 8


 327 0069 03       		.uleb128 0x3
 328 006a D6010000 		.4byte	.LASF8
 329 006e 02       		.byte	0x2
 330 006f 4F       		.byte	0x4f
 331 0070 74000000 		.4byte	0x74
 332 0074 02       		.uleb128 0x2
 333 0075 04       		.byte	0x4
 334 0076 07       		.byte	0x7
 335 0077 5D010000 		.4byte	.LASF9
 336 007b 02       		.uleb128 0x2
 337 007c 08       		.byte	0x8
 338 007d 05       		.byte	0x5
 339 007e 90020000 		.4byte	.LASF10
 340 0082 02       		.uleb128 0x2
 341 0083 08       		.byte	0x8
 342 0084 07       		.byte	0x7
 343 0085 2B020000 		.4byte	.LASF11
 344 0089 04       		.uleb128 0x4
 345 008a 04       		.byte	0x4
 346 008b 05       		.byte	0x5
 347 008c 696E7400 		.ascii	"int\000"
 348 0090 02       		.uleb128 0x2
 349 0091 04       		.byte	0x4
 350 0092 07       		.byte	0x7
 351 0093 11020000 		.4byte	.LASF12
 352 0097 03       		.uleb128 0x3
 353 0098 42020000 		.4byte	.LASF13
 354 009c 03       		.byte	0x3
 355 009d 18       		.byte	0x18
 356 009e 2C000000 		.4byte	0x2c
 357 00a2 05       		.uleb128 0x5
 358 00a3 97000000 		.4byte	0x97
 359 00a7 03       		.uleb128 0x3
 360 00a8 AE020000 		.4byte	.LASF14
 361 00ac 03       		.byte	0x3
 362 00ad 24       		.byte	0x24
 363 00ae 45000000 		.4byte	0x45
 364 00b2 05       		.uleb128 0x5
 365 00b3 A7000000 		.4byte	0xa7
 366 00b7 03       		.uleb128 0x3
 367 00b8 82020000 		.4byte	.LASF15
 368 00bc 03       		.byte	0x3
 369 00bd 2C       		.byte	0x2c
 370 00be 57000000 		.4byte	0x57
 371 00c2 05       		.uleb128 0x5
 372 00c3 B7000000 		.4byte	0xb7
 373 00c7 03       		.uleb128 0x3
 374 00c8 92010000 		.4byte	.LASF16
 375 00cc 03       		.byte	0x3
 376 00cd 30       		.byte	0x30
 377 00ce 69000000 		.4byte	0x69
 378 00d2 05       		.uleb128 0x5
 379 00d3 C7000000 		.4byte	0xc7
 380 00d7 06       		.uleb128 0x6
 381 00d8 9B010000 		.4byte	.LASF17
 382 00dc 04       		.byte	0x4
 383 00dd 1A05     		.2byte	0x51a
ARM GAS  /tmp/cchY05rl.s 			page 9


 384 00df C2000000 		.4byte	0xc2
 385 00e3 01       		.byte	0x1
 386 00e4 01       		.byte	0x1
 387 00e5 07       		.uleb128 0x7
 388 00e6 9E020000 		.4byte	.LASF18
 389 00ea 05       		.byte	0x5
 390 00eb 3B       		.byte	0x3b
 391 00ec C7000000 		.4byte	0xc7
 392 00f0 01       		.byte	0x1
 393 00f1 01       		.byte	0x1
 394 00f2 08       		.uleb128 0x8
 395 00f3 28       		.byte	0x28
 396 00f4 06       		.byte	0x6
 397 00f5 6A05     		.2byte	0x56a
 398 00f7 92010000 		.4byte	0x192
 399 00fb 09       		.uleb128 0x9
 400 00fc 1E000000 		.4byte	.LASF19
 401 0100 06       		.byte	0x6
 402 0101 6C05     		.2byte	0x56c
 403 0103 D2000000 		.4byte	0xd2
 404 0107 02       		.byte	0x2
 405 0108 23       		.byte	0x23
 406 0109 00       		.uleb128 0
 407 010a 09       		.uleb128 0x9
 408 010b 16010000 		.4byte	.LASF20
 409 010f 06       		.byte	0x6
 410 0110 6D05     		.2byte	0x56d
 411 0112 D2000000 		.4byte	0xd2
 412 0116 02       		.byte	0x2
 413 0117 23       		.byte	0x23
 414 0118 04       		.uleb128 0x4
 415 0119 09       		.uleb128 0x9
 416 011a E1010000 		.4byte	.LASF21
 417 011e 06       		.byte	0x6
 418 011f 6E05     		.2byte	0x56e
 419 0121 D2000000 		.4byte	0xd2
 420 0125 02       		.byte	0x2
 421 0126 23       		.byte	0x23
 422 0127 08       		.uleb128 0x8
 423 0128 09       		.uleb128 0x9
 424 0129 8A020000 		.4byte	.LASF22
 425 012d 06       		.byte	0x6
 426 012e 6F05     		.2byte	0x56f
 427 0130 D2000000 		.4byte	0xd2
 428 0134 02       		.byte	0x2
 429 0135 23       		.byte	0x23
 430 0136 0C       		.uleb128 0xc
 431 0137 0A       		.uleb128 0xa
 432 0138 49445200 		.ascii	"IDR\000"
 433 013c 06       		.byte	0x6
 434 013d 7005     		.2byte	0x570
 435 013f D2000000 		.4byte	0xd2
 436 0143 02       		.byte	0x2
 437 0144 23       		.byte	0x23
 438 0145 10       		.uleb128 0x10
 439 0146 0A       		.uleb128 0xa
 440 0147 4F445200 		.ascii	"ODR\000"
ARM GAS  /tmp/cchY05rl.s 			page 10


 441 014b 06       		.byte	0x6
 442 014c 7105     		.2byte	0x571
 443 014e D2000000 		.4byte	0xd2
 444 0152 02       		.byte	0x2
 445 0153 23       		.byte	0x23
 446 0154 14       		.uleb128 0x14
 447 0155 09       		.uleb128 0x9
 448 0156 09030000 		.4byte	.LASF23
 449 015a 06       		.byte	0x6
 450 015b 7205     		.2byte	0x572
 451 015d B2000000 		.4byte	0xb2
 452 0161 02       		.byte	0x2
 453 0162 23       		.byte	0x23
 454 0163 18       		.uleb128 0x18
 455 0164 09       		.uleb128 0x9
 456 0165 E7020000 		.4byte	.LASF24
 457 0169 06       		.byte	0x6
 458 016a 7305     		.2byte	0x573
 459 016c B2000000 		.4byte	0xb2
 460 0170 02       		.byte	0x2
 461 0171 23       		.byte	0x23
 462 0172 1A       		.uleb128 0x1a
 463 0173 09       		.uleb128 0x9
 464 0174 2B030000 		.4byte	.LASF25
 465 0178 06       		.byte	0x6
 466 0179 7405     		.2byte	0x574
 467 017b D2000000 		.4byte	0xd2
 468 017f 02       		.byte	0x2
 469 0180 23       		.byte	0x23
 470 0181 1C       		.uleb128 0x1c
 471 0182 0A       		.uleb128 0xa
 472 0183 41465200 		.ascii	"AFR\000"
 473 0187 06       		.byte	0x6
 474 0188 7505     		.2byte	0x575
 475 018a A2010000 		.4byte	0x1a2
 476 018e 02       		.byte	0x2
 477 018f 23       		.byte	0x23
 478 0190 20       		.uleb128 0x20
 479 0191 00       		.byte	0
 480 0192 0B       		.uleb128 0xb
 481 0193 D2000000 		.4byte	0xd2
 482 0197 A2010000 		.4byte	0x1a2
 483 019b 0C       		.uleb128 0xc
 484 019c 90000000 		.4byte	0x90
 485 01a0 01       		.byte	0x1
 486 01a1 00       		.byte	0
 487 01a2 05       		.uleb128 0x5
 488 01a3 92010000 		.4byte	0x192
 489 01a7 0D       		.uleb128 0xd
 490 01a8 1E020000 		.4byte	.LASF26
 491 01ac 06       		.byte	0x6
 492 01ad 7605     		.2byte	0x576
 493 01af F2000000 		.4byte	0xf2
 494 01b3 0E       		.uleb128 0xe
 495 01b4 07       		.byte	0x7
 496 01b5 01       		.byte	0x1
 497 01b6 37000000 		.4byte	0x37
ARM GAS  /tmp/cchY05rl.s 			page 11


 498 01ba 07       		.byte	0x7
 499 01bb A6       		.byte	0xa6
 500 01bc D9010000 		.4byte	0x1d9
 501 01c0 0F       		.uleb128 0xf
 502 01c1 72020000 		.4byte	.LASF27
 503 01c5 00       		.byte	0
 504 01c6 0F       		.uleb128 0xf
 505 01c7 4C010000 		.4byte	.LASF28
 506 01cb 01       		.byte	0x1
 507 01cc 0F       		.uleb128 0xf
 508 01cd 82010000 		.4byte	.LASF29
 509 01d1 02       		.byte	0x2
 510 01d2 0F       		.uleb128 0xf
 511 01d3 1B030000 		.4byte	.LASF30
 512 01d7 03       		.byte	0x3
 513 01d8 00       		.byte	0
 514 01d9 0E       		.uleb128 0xe
 515 01da 07       		.byte	0x7
 516 01db 01       		.byte	0x1
 517 01dc 37000000 		.4byte	0x37
 518 01e0 07       		.byte	0x7
 519 01e1 B0       		.byte	0xb0
 520 01e2 F3010000 		.4byte	0x1f3
 521 01e6 0F       		.uleb128 0xf
 522 01e7 38000000 		.4byte	.LASF31
 523 01eb 00       		.byte	0
 524 01ec 0F       		.uleb128 0xf
 525 01ed C5010000 		.4byte	.LASF32
 526 01f1 01       		.byte	0x1
 527 01f2 00       		.byte	0
 528 01f3 0E       		.uleb128 0xe
 529 01f4 07       		.byte	0x7
 530 01f5 01       		.byte	0x1
 531 01f6 37000000 		.4byte	0x37
 532 01fa 07       		.byte	0x7
 533 01fb B8       		.byte	0xb8
 534 01fc 19020000 		.4byte	0x219
 535 0200 0F       		.uleb128 0xf
 536 0201 4A030000 		.4byte	.LASF33
 537 0205 00       		.byte	0
 538 0206 0F       		.uleb128 0xf
 539 0207 4A020000 		.4byte	.LASF34
 540 020b 01       		.byte	0x1
 541 020c 0F       		.uleb128 0xf
 542 020d ED020000 		.4byte	.LASF35
 543 0211 02       		.byte	0x2
 544 0212 0F       		.uleb128 0xf
 545 0213 5F020000 		.4byte	.LASF36
 546 0217 03       		.byte	0x3
 547 0218 00       		.byte	0
 548 0219 0E       		.uleb128 0xe
 549 021a 07       		.byte	0x7
 550 021b 01       		.byte	0x1
 551 021c 37000000 		.4byte	0x37
 552 0220 07       		.byte	0x7
 553 0221 C2       		.byte	0xc2
 554 0222 39020000 		.4byte	0x239
ARM GAS  /tmp/cchY05rl.s 			page 12


 555 0226 0F       		.uleb128 0xf
 556 0227 24000000 		.4byte	.LASF37
 557 022b 00       		.byte	0
 558 022c 0F       		.uleb128 0xf
 559 022d 5A000000 		.4byte	.LASF38
 560 0231 01       		.byte	0x1
 561 0232 0F       		.uleb128 0xf
 562 0233 A8010000 		.4byte	.LASF39
 563 0237 02       		.byte	0x2
 564 0238 00       		.byte	0
 565 0239 10       		.uleb128 0x10
 566 023a FB000000 		.4byte	.LASF47
 567 023e 01       		.byte	0x1
 568 023f 16       		.byte	0x16
 569 0240 A2000000 		.4byte	0xa2
 570 0244 05       		.byte	0x5
 571 0245 03       		.byte	0x3
 572 0246 00000000 		.4byte	TM_INT_DISCO_ButtonPressed
 573 024a 11       		.uleb128 0x11
 574 024b 01       		.byte	0x1
 575 024c 30030000 		.4byte	.LASF40
 576 0250 01       		.byte	0x1
 577 0251 38       		.byte	0x38
 578 0252 01       		.byte	0x1
 579 0253 97000000 		.4byte	0x97
 580 0257 6C000000 		.4byte	.LFB113
 581 025b 98000000 		.4byte	.LFE113
 582 025f 02       		.byte	0x2
 583 0260 7D       		.byte	0x7d
 584 0261 00       		.sleb128 0
 585 0262 01       		.byte	0x1
 586 0263 11       		.uleb128 0x11
 587 0264 01       		.byte	0x1
 588 0265 CE020000 		.4byte	.LASF41
 589 0269 01       		.byte	0x1
 590 026a 25       		.byte	0x25
 591 026b 01       		.byte	0x1
 592 026c 97000000 		.4byte	0x97
 593 0270 48000000 		.4byte	.LFB112
 594 0274 6C000000 		.4byte	.LFE112
 595 0278 02       		.byte	0x2
 596 0279 7D       		.byte	0x7d
 597 027a 00       		.sleb128 0
 598 027b 01       		.byte	0x1
 599 027c 12       		.uleb128 0x12
 600 027d 01       		.byte	0x1
 601 027e 0A000000 		.4byte	.LASF42
 602 0282 01       		.byte	0x1
 603 0283 20       		.byte	0x20
 604 0284 01       		.byte	0x1
 605 0285 28000000 		.4byte	.LFB111
 606 0289 48000000 		.4byte	.LFE111
 607 028d 00000000 		.4byte	.LLST1
 608 0291 01       		.byte	0x1
 609 0292 C5020000 		.4byte	0x2c5
 610 0296 13       		.uleb128 0x13
 611 0297 3C000000 		.4byte	.LVL1
ARM GAS  /tmp/cchY05rl.s 			page 13


 612 029b 0D030000 		.4byte	0x30d
 613 029f 14       		.uleb128 0x14
 614 02a0 01       		.byte	0x1
 615 02a1 50       		.byte	0x50
 616 02a2 05       		.byte	0x5
 617 02a3 0C       		.byte	0xc
 618 02a4 00000240 		.4byte	0x40020000
 619 02a8 14       		.uleb128 0x14
 620 02a9 01       		.byte	0x1
 621 02aa 51       		.byte	0x51
 622 02ab 01       		.byte	0x1
 623 02ac 31       		.byte	0x31
 624 02ad 14       		.uleb128 0x14
 625 02ae 01       		.byte	0x1
 626 02af 52       		.byte	0x52
 627 02b0 01       		.byte	0x1
 628 02b1 30       		.byte	0x30
 629 02b2 14       		.uleb128 0x14
 630 02b3 01       		.byte	0x1
 631 02b4 53       		.byte	0x53
 632 02b5 01       		.byte	0x1
 633 02b6 30       		.byte	0x30
 634 02b7 14       		.uleb128 0x14
 635 02b8 02       		.byte	0x2
 636 02b9 7D       		.byte	0x7d
 637 02ba 00       		.sleb128 0
 638 02bb 01       		.byte	0x1
 639 02bc 32       		.byte	0x32
 640 02bd 14       		.uleb128 0x14
 641 02be 02       		.byte	0x2
 642 02bf 7D       		.byte	0x7d
 643 02c0 04       		.sleb128 4
 644 02c1 01       		.byte	0x1
 645 02c2 30       		.byte	0x30
 646 02c3 00       		.byte	0
 647 02c4 00       		.byte	0
 648 02c5 12       		.uleb128 0x12
 649 02c6 01       		.byte	0x1
 650 02c7 49000000 		.4byte	.LASF43
 651 02cb 01       		.byte	0x1
 652 02cc 18       		.byte	0x18
 653 02cd 01       		.byte	0x1
 654 02ce 00000000 		.4byte	.LFB110
 655 02d2 28000000 		.4byte	.LFE110
 656 02d6 2C000000 		.4byte	.LLST0
 657 02da 01       		.byte	0x1
 658 02db 0D030000 		.4byte	0x30d
 659 02df 13       		.uleb128 0x13
 660 02e0 18000000 		.4byte	.LVL0
 661 02e4 0D030000 		.4byte	0x30d
 662 02e8 14       		.uleb128 0x14
 663 02e9 01       		.byte	0x1
 664 02ea 50       		.byte	0x50
 665 02eb 02       		.byte	0x2
 666 02ec 74       		.byte	0x74
 667 02ed 00       		.sleb128 0
 668 02ee 14       		.uleb128 0x14
ARM GAS  /tmp/cchY05rl.s 			page 14


 669 02ef 01       		.byte	0x1
 670 02f0 51       		.byte	0x51
 671 02f1 03       		.byte	0x3
 672 02f2 0B       		.byte	0xb
 673 02f3 00F0     		.2byte	0xf000
 674 02f5 14       		.uleb128 0x14
 675 02f6 01       		.byte	0x1
 676 02f7 52       		.byte	0x52
 677 02f8 01       		.byte	0x1
 678 02f9 31       		.byte	0x31
 679 02fa 14       		.uleb128 0x14
 680 02fb 01       		.byte	0x1
 681 02fc 53       		.byte	0x53
 682 02fd 01       		.byte	0x1
 683 02fe 30       		.byte	0x30
 684 02ff 14       		.uleb128 0x14
 685 0300 02       		.byte	0x2
 686 0301 7D       		.byte	0x7d
 687 0302 00       		.sleb128 0
 688 0303 01       		.byte	0x1
 689 0304 30       		.byte	0x30
 690 0305 14       		.uleb128 0x14
 691 0306 02       		.byte	0x2
 692 0307 7D       		.byte	0x7d
 693 0308 04       		.sleb128 4
 694 0309 01       		.byte	0x1
 695 030a 33       		.byte	0x33
 696 030b 00       		.byte	0
 697 030c 00       		.byte	0
 698 030d 15       		.uleb128 0x15
 699 030e 01       		.byte	0x1
 700 030f 01       		.byte	0x1
 701 0310 C1020000 		.4byte	.LASF48
 702 0314 C1020000 		.4byte	.LASF48
 703 0318 07       		.byte	0x7
 704 0319 DD       		.byte	0xdd
 705 031a 00       		.byte	0
 706              		.section	.debug_abbrev,"",%progbits
 707              	.Ldebug_abbrev0:
 708 0000 01       		.uleb128 0x1
 709 0001 11       		.uleb128 0x11
 710 0002 01       		.byte	0x1
 711 0003 25       		.uleb128 0x25
 712 0004 0E       		.uleb128 0xe
 713 0005 13       		.uleb128 0x13
 714 0006 0B       		.uleb128 0xb
 715 0007 03       		.uleb128 0x3
 716 0008 0E       		.uleb128 0xe
 717 0009 1B       		.uleb128 0x1b
 718 000a 0E       		.uleb128 0xe
 719 000b 11       		.uleb128 0x11
 720 000c 01       		.uleb128 0x1
 721 000d 12       		.uleb128 0x12
 722 000e 01       		.uleb128 0x1
 723 000f 10       		.uleb128 0x10
 724 0010 06       		.uleb128 0x6
 725 0011 00       		.byte	0
ARM GAS  /tmp/cchY05rl.s 			page 15


 726 0012 00       		.byte	0
 727 0013 02       		.uleb128 0x2
 728 0014 24       		.uleb128 0x24
 729 0015 00       		.byte	0
 730 0016 0B       		.uleb128 0xb
 731 0017 0B       		.uleb128 0xb
 732 0018 3E       		.uleb128 0x3e
 733 0019 0B       		.uleb128 0xb
 734 001a 03       		.uleb128 0x3
 735 001b 0E       		.uleb128 0xe
 736 001c 00       		.byte	0
 737 001d 00       		.byte	0
 738 001e 03       		.uleb128 0x3
 739 001f 16       		.uleb128 0x16
 740 0020 00       		.byte	0
 741 0021 03       		.uleb128 0x3
 742 0022 0E       		.uleb128 0xe
 743 0023 3A       		.uleb128 0x3a
 744 0024 0B       		.uleb128 0xb
 745 0025 3B       		.uleb128 0x3b
 746 0026 0B       		.uleb128 0xb
 747 0027 49       		.uleb128 0x49
 748 0028 13       		.uleb128 0x13
 749 0029 00       		.byte	0
 750 002a 00       		.byte	0
 751 002b 04       		.uleb128 0x4
 752 002c 24       		.uleb128 0x24
 753 002d 00       		.byte	0
 754 002e 0B       		.uleb128 0xb
 755 002f 0B       		.uleb128 0xb
 756 0030 3E       		.uleb128 0x3e
 757 0031 0B       		.uleb128 0xb
 758 0032 03       		.uleb128 0x3
 759 0033 08       		.uleb128 0x8
 760 0034 00       		.byte	0
 761 0035 00       		.byte	0
 762 0036 05       		.uleb128 0x5
 763 0037 35       		.uleb128 0x35
 764 0038 00       		.byte	0
 765 0039 49       		.uleb128 0x49
 766 003a 13       		.uleb128 0x13
 767 003b 00       		.byte	0
 768 003c 00       		.byte	0
 769 003d 06       		.uleb128 0x6
 770 003e 34       		.uleb128 0x34
 771 003f 00       		.byte	0
 772 0040 03       		.uleb128 0x3
 773 0041 0E       		.uleb128 0xe
 774 0042 3A       		.uleb128 0x3a
 775 0043 0B       		.uleb128 0xb
 776 0044 3B       		.uleb128 0x3b
 777 0045 05       		.uleb128 0x5
 778 0046 49       		.uleb128 0x49
 779 0047 13       		.uleb128 0x13
 780 0048 3F       		.uleb128 0x3f
 781 0049 0C       		.uleb128 0xc
 782 004a 3C       		.uleb128 0x3c
ARM GAS  /tmp/cchY05rl.s 			page 16


 783 004b 0C       		.uleb128 0xc
 784 004c 00       		.byte	0
 785 004d 00       		.byte	0
 786 004e 07       		.uleb128 0x7
 787 004f 34       		.uleb128 0x34
 788 0050 00       		.byte	0
 789 0051 03       		.uleb128 0x3
 790 0052 0E       		.uleb128 0xe
 791 0053 3A       		.uleb128 0x3a
 792 0054 0B       		.uleb128 0xb
 793 0055 3B       		.uleb128 0x3b
 794 0056 0B       		.uleb128 0xb
 795 0057 49       		.uleb128 0x49
 796 0058 13       		.uleb128 0x13
 797 0059 3F       		.uleb128 0x3f
 798 005a 0C       		.uleb128 0xc
 799 005b 3C       		.uleb128 0x3c
 800 005c 0C       		.uleb128 0xc
 801 005d 00       		.byte	0
 802 005e 00       		.byte	0
 803 005f 08       		.uleb128 0x8
 804 0060 13       		.uleb128 0x13
 805 0061 01       		.byte	0x1
 806 0062 0B       		.uleb128 0xb
 807 0063 0B       		.uleb128 0xb
 808 0064 3A       		.uleb128 0x3a
 809 0065 0B       		.uleb128 0xb
 810 0066 3B       		.uleb128 0x3b
 811 0067 05       		.uleb128 0x5
 812 0068 01       		.uleb128 0x1
 813 0069 13       		.uleb128 0x13
 814 006a 00       		.byte	0
 815 006b 00       		.byte	0
 816 006c 09       		.uleb128 0x9
 817 006d 0D       		.uleb128 0xd
 818 006e 00       		.byte	0
 819 006f 03       		.uleb128 0x3
 820 0070 0E       		.uleb128 0xe
 821 0071 3A       		.uleb128 0x3a
 822 0072 0B       		.uleb128 0xb
 823 0073 3B       		.uleb128 0x3b
 824 0074 05       		.uleb128 0x5
 825 0075 49       		.uleb128 0x49
 826 0076 13       		.uleb128 0x13
 827 0077 38       		.uleb128 0x38
 828 0078 0A       		.uleb128 0xa
 829 0079 00       		.byte	0
 830 007a 00       		.byte	0
 831 007b 0A       		.uleb128 0xa
 832 007c 0D       		.uleb128 0xd
 833 007d 00       		.byte	0
 834 007e 03       		.uleb128 0x3
 835 007f 08       		.uleb128 0x8
 836 0080 3A       		.uleb128 0x3a
 837 0081 0B       		.uleb128 0xb
 838 0082 3B       		.uleb128 0x3b
 839 0083 05       		.uleb128 0x5
ARM GAS  /tmp/cchY05rl.s 			page 17


 840 0084 49       		.uleb128 0x49
 841 0085 13       		.uleb128 0x13
 842 0086 38       		.uleb128 0x38
 843 0087 0A       		.uleb128 0xa
 844 0088 00       		.byte	0
 845 0089 00       		.byte	0
 846 008a 0B       		.uleb128 0xb
 847 008b 01       		.uleb128 0x1
 848 008c 01       		.byte	0x1
 849 008d 49       		.uleb128 0x49
 850 008e 13       		.uleb128 0x13
 851 008f 01       		.uleb128 0x1
 852 0090 13       		.uleb128 0x13
 853 0091 00       		.byte	0
 854 0092 00       		.byte	0
 855 0093 0C       		.uleb128 0xc
 856 0094 21       		.uleb128 0x21
 857 0095 00       		.byte	0
 858 0096 49       		.uleb128 0x49
 859 0097 13       		.uleb128 0x13
 860 0098 2F       		.uleb128 0x2f
 861 0099 0B       		.uleb128 0xb
 862 009a 00       		.byte	0
 863 009b 00       		.byte	0
 864 009c 0D       		.uleb128 0xd
 865 009d 16       		.uleb128 0x16
 866 009e 00       		.byte	0
 867 009f 03       		.uleb128 0x3
 868 00a0 0E       		.uleb128 0xe
 869 00a1 3A       		.uleb128 0x3a
 870 00a2 0B       		.uleb128 0xb
 871 00a3 3B       		.uleb128 0x3b
 872 00a4 05       		.uleb128 0x5
 873 00a5 49       		.uleb128 0x49
 874 00a6 13       		.uleb128 0x13
 875 00a7 00       		.byte	0
 876 00a8 00       		.byte	0
 877 00a9 0E       		.uleb128 0xe
 878 00aa 04       		.uleb128 0x4
 879 00ab 01       		.byte	0x1
 880 00ac 3E       		.uleb128 0x3e
 881 00ad 0B       		.uleb128 0xb
 882 00ae 0B       		.uleb128 0xb
 883 00af 0B       		.uleb128 0xb
 884 00b0 49       		.uleb128 0x49
 885 00b1 13       		.uleb128 0x13
 886 00b2 3A       		.uleb128 0x3a
 887 00b3 0B       		.uleb128 0xb
 888 00b4 3B       		.uleb128 0x3b
 889 00b5 0B       		.uleb128 0xb
 890 00b6 01       		.uleb128 0x1
 891 00b7 13       		.uleb128 0x13
 892 00b8 00       		.byte	0
 893 00b9 00       		.byte	0
 894 00ba 0F       		.uleb128 0xf
 895 00bb 28       		.uleb128 0x28
 896 00bc 00       		.byte	0
ARM GAS  /tmp/cchY05rl.s 			page 18


 897 00bd 03       		.uleb128 0x3
 898 00be 0E       		.uleb128 0xe
 899 00bf 1C       		.uleb128 0x1c
 900 00c0 0B       		.uleb128 0xb
 901 00c1 00       		.byte	0
 902 00c2 00       		.byte	0
 903 00c3 10       		.uleb128 0x10
 904 00c4 34       		.uleb128 0x34
 905 00c5 00       		.byte	0
 906 00c6 03       		.uleb128 0x3
 907 00c7 0E       		.uleb128 0xe
 908 00c8 3A       		.uleb128 0x3a
 909 00c9 0B       		.uleb128 0xb
 910 00ca 3B       		.uleb128 0x3b
 911 00cb 0B       		.uleb128 0xb
 912 00cc 49       		.uleb128 0x49
 913 00cd 13       		.uleb128 0x13
 914 00ce 02       		.uleb128 0x2
 915 00cf 0A       		.uleb128 0xa
 916 00d0 00       		.byte	0
 917 00d1 00       		.byte	0
 918 00d2 11       		.uleb128 0x11
 919 00d3 2E       		.uleb128 0x2e
 920 00d4 00       		.byte	0
 921 00d5 3F       		.uleb128 0x3f
 922 00d6 0C       		.uleb128 0xc
 923 00d7 03       		.uleb128 0x3
 924 00d8 0E       		.uleb128 0xe
 925 00d9 3A       		.uleb128 0x3a
 926 00da 0B       		.uleb128 0xb
 927 00db 3B       		.uleb128 0x3b
 928 00dc 0B       		.uleb128 0xb
 929 00dd 27       		.uleb128 0x27
 930 00de 0C       		.uleb128 0xc
 931 00df 49       		.uleb128 0x49
 932 00e0 13       		.uleb128 0x13
 933 00e1 11       		.uleb128 0x11
 934 00e2 01       		.uleb128 0x1
 935 00e3 12       		.uleb128 0x12
 936 00e4 01       		.uleb128 0x1
 937 00e5 40       		.uleb128 0x40
 938 00e6 0A       		.uleb128 0xa
 939 00e7 9742     		.uleb128 0x2117
 940 00e9 0C       		.uleb128 0xc
 941 00ea 00       		.byte	0
 942 00eb 00       		.byte	0
 943 00ec 12       		.uleb128 0x12
 944 00ed 2E       		.uleb128 0x2e
 945 00ee 01       		.byte	0x1
 946 00ef 3F       		.uleb128 0x3f
 947 00f0 0C       		.uleb128 0xc
 948 00f1 03       		.uleb128 0x3
 949 00f2 0E       		.uleb128 0xe
 950 00f3 3A       		.uleb128 0x3a
 951 00f4 0B       		.uleb128 0xb
 952 00f5 3B       		.uleb128 0x3b
 953 00f6 0B       		.uleb128 0xb
ARM GAS  /tmp/cchY05rl.s 			page 19


 954 00f7 27       		.uleb128 0x27
 955 00f8 0C       		.uleb128 0xc
 956 00f9 11       		.uleb128 0x11
 957 00fa 01       		.uleb128 0x1
 958 00fb 12       		.uleb128 0x12
 959 00fc 01       		.uleb128 0x1
 960 00fd 40       		.uleb128 0x40
 961 00fe 06       		.uleb128 0x6
 962 00ff 9742     		.uleb128 0x2117
 963 0101 0C       		.uleb128 0xc
 964 0102 01       		.uleb128 0x1
 965 0103 13       		.uleb128 0x13
 966 0104 00       		.byte	0
 967 0105 00       		.byte	0
 968 0106 13       		.uleb128 0x13
 969 0107 898201   		.uleb128 0x4109
 970 010a 01       		.byte	0x1
 971 010b 11       		.uleb128 0x11
 972 010c 01       		.uleb128 0x1
 973 010d 31       		.uleb128 0x31
 974 010e 13       		.uleb128 0x13
 975 010f 00       		.byte	0
 976 0110 00       		.byte	0
 977 0111 14       		.uleb128 0x14
 978 0112 8A8201   		.uleb128 0x410a
 979 0115 00       		.byte	0
 980 0116 02       		.uleb128 0x2
 981 0117 0A       		.uleb128 0xa
 982 0118 9142     		.uleb128 0x2111
 983 011a 0A       		.uleb128 0xa
 984 011b 00       		.byte	0
 985 011c 00       		.byte	0
 986 011d 15       		.uleb128 0x15
 987 011e 2E       		.uleb128 0x2e
 988 011f 00       		.byte	0
 989 0120 3F       		.uleb128 0x3f
 990 0121 0C       		.uleb128 0xc
 991 0122 3C       		.uleb128 0x3c
 992 0123 0C       		.uleb128 0xc
 993 0124 8740     		.uleb128 0x2007
 994 0126 0E       		.uleb128 0xe
 995 0127 03       		.uleb128 0x3
 996 0128 0E       		.uleb128 0xe
 997 0129 3A       		.uleb128 0x3a
 998 012a 0B       		.uleb128 0xb
 999 012b 3B       		.uleb128 0x3b
 1000 012c 0B       		.uleb128 0xb
 1001 012d 00       		.byte	0
 1002 012e 00       		.byte	0
 1003 012f 00       		.byte	0
 1004              		.section	.debug_loc,"",%progbits
 1005              	.Ldebug_loc0:
 1006              	.LLST1:
 1007 0000 28000000 		.4byte	.LFB111-.Ltext0
 1008 0004 2A000000 		.4byte	.LCFI2-.Ltext0
 1009 0008 0200     		.2byte	0x2
 1010 000a 7D       		.byte	0x7d
ARM GAS  /tmp/cchY05rl.s 			page 20


 1011 000b 00       		.sleb128 0
 1012 000c 2A000000 		.4byte	.LCFI2-.Ltext0
 1013 0010 3E000000 		.4byte	.LCFI3-.Ltext0
 1014 0014 0200     		.2byte	0x2
 1015 0016 7D       		.byte	0x7d
 1016 0017 10       		.sleb128 16
 1017 0018 3E000000 		.4byte	.LCFI3-.Ltext0
 1018 001c 48000000 		.4byte	.LFE111-.Ltext0
 1019 0020 0200     		.2byte	0x2
 1020 0022 7D       		.byte	0x7d
 1021 0023 04       		.sleb128 4
 1022 0024 00000000 		.4byte	0
 1023 0028 00000000 		.4byte	0
 1024              	.LLST0:
 1025 002c 00000000 		.4byte	.LFB110-.Ltext0
 1026 0030 02000000 		.4byte	.LCFI0-.Ltext0
 1027 0034 0200     		.2byte	0x2
 1028 0036 7D       		.byte	0x7d
 1029 0037 00       		.sleb128 0
 1030 0038 02000000 		.4byte	.LCFI0-.Ltext0
 1031 003c 20000000 		.4byte	.LCFI1-.Ltext0
 1032 0040 0200     		.2byte	0x2
 1033 0042 7D       		.byte	0x7d
 1034 0043 10       		.sleb128 16
 1035 0044 20000000 		.4byte	.LCFI1-.Ltext0
 1036 0048 28000000 		.4byte	.LFE110-.Ltext0
 1037 004c 0200     		.2byte	0x2
 1038 004e 7D       		.byte	0x7d
 1039 004f 08       		.sleb128 8
 1040 0050 00000000 		.4byte	0
 1041 0054 00000000 		.4byte	0
 1042              		.section	.debug_aranges,"",%progbits
 1043 0000 1C000000 		.4byte	0x1c
 1044 0004 0200     		.2byte	0x2
 1045 0006 00000000 		.4byte	.Ldebug_info0
 1046 000a 04       		.byte	0x4
 1047 000b 00       		.byte	0
 1048 000c 0000     		.2byte	0
 1049 000e 0000     		.2byte	0
 1050 0010 00000000 		.4byte	.Ltext0
 1051 0014 98000000 		.4byte	.Letext0-.Ltext0
 1052 0018 00000000 		.4byte	0
 1053 001c 00000000 		.4byte	0
 1054              		.section	.debug_line,"",%progbits
 1055              	.Ldebug_line0:
 1056 0000 7A010000 		.section	.debug_str,"MS",%progbits,1
 1056      02005001 
 1056      00000201 
 1056      FB0E0D00 
 1056      01010101 
 1057              	.LASF3:
 1058 0000 5F5F7569 		.ascii	"__uint8_t\000"
 1058      6E74385F 
 1058      7400
 1059              	.LASF42:
 1060 000a 544D5F44 		.ascii	"TM_DISCO_ButtonInit\000"
 1060      4953434F 
ARM GAS  /tmp/cchY05rl.s 			page 21


 1060      5F427574 
 1060      746F6E49 
 1060      6E697400 
 1061              	.LASF19:
 1062 001e 4D4F4445 		.ascii	"MODER\000"
 1062      5200
 1063              	.LASF37:
 1064 0024 544D5F47 		.ascii	"TM_GPIO_PuPd_NOPULL\000"
 1064      50494F5F 
 1064      50755064 
 1064      5F4E4F50 
 1064      554C4C00 
 1065              	.LASF31:
 1066 0038 544D5F47 		.ascii	"TM_GPIO_OType_PP\000"
 1066      50494F5F 
 1066      4F547970 
 1066      655F5050 
 1066      00
 1067              	.LASF43:
 1068 0049 544D5F44 		.ascii	"TM_DISCO_LedInit\000"
 1068      4953434F 
 1068      5F4C6564 
 1068      496E6974 
 1068      00
 1069              	.LASF38:
 1070 005a 544D5F47 		.ascii	"TM_GPIO_PuPd_UP\000"
 1070      50494F5F 
 1070      50755064 
 1070      5F555000 
 1071              	.LASF6:
 1072 006a 5F5F696E 		.ascii	"__int32_t\000"
 1072      7433325F 
 1072      7400
 1073              	.LASF44:
 1074 0074 474E5520 		.ascii	"GNU C11 7.2.1 20170904 (release) [ARM/embedded-7-br"
 1074      43313120 
 1074      372E322E 
 1074      31203230 
 1074      31373039 
 1075 00a7 616E6368 		.ascii	"anch revision 255204] -mcpu=cortex-m4 -mthumb -g -g"
 1075      20726576 
 1075      6973696F 
 1075      6E203235 
 1075      35323034 
 1076 00da 64776172 		.ascii	"dwarf-2 -Os -fomit-frame-pointer\000"
 1076      662D3220 
 1076      2D4F7320 
 1076      2D666F6D 
 1076      69742D66 
 1077              	.LASF47:
 1078 00fb 544D5F49 		.ascii	"TM_INT_DISCO_ButtonPressed\000"
 1078      4E545F44 
 1078      4953434F 
 1078      5F427574 
 1078      746F6E50 
 1079              	.LASF20:
 1080 0116 4F545950 		.ascii	"OTYPER\000"
ARM GAS  /tmp/cchY05rl.s 			page 22


 1080      455200
 1081              	.LASF1:
 1082 011d 756E7369 		.ascii	"unsigned char\000"
 1082      676E6564 
 1082      20636861 
 1082      7200
 1083              	.LASF45:
 1084 012b 696E632F 		.ascii	"inc/user_libs/tm_stm32f4_disco.c\000"
 1084      75736572 
 1084      5F6C6962 
 1084      732F746D 
 1084      5F73746D 
 1085              	.LASF28:
 1086 014c 544D5F47 		.ascii	"TM_GPIO_Mode_OUT\000"
 1086      50494F5F 
 1086      4D6F6465 
 1086      5F4F5554 
 1086      00
 1087              	.LASF9:
 1088 015d 6C6F6E67 		.ascii	"long unsigned int\000"
 1088      20756E73 
 1088      69676E65 
 1088      6420696E 
 1088      7400
 1089              	.LASF5:
 1090 016f 73686F72 		.ascii	"short unsigned int\000"
 1090      7420756E 
 1090      7369676E 
 1090      65642069 
 1090      6E7400
 1091              	.LASF29:
 1092 0182 544D5F47 		.ascii	"TM_GPIO_Mode_AF\000"
 1092      50494F5F 
 1092      4D6F6465 
 1092      5F414600 
 1093              	.LASF16:
 1094 0192 75696E74 		.ascii	"uint32_t\000"
 1094      33325F74 
 1094      00
 1095              	.LASF17:
 1096 019b 49544D5F 		.ascii	"ITM_RxBuffer\000"
 1096      52784275 
 1096      66666572 
 1096      00
 1097              	.LASF39:
 1098 01a8 544D5F47 		.ascii	"TM_GPIO_PuPd_DOWN\000"
 1098      50494F5F 
 1098      50755064 
 1098      5F444F57 
 1098      4E00
 1099              	.LASF4:
 1100 01ba 5F5F7569 		.ascii	"__uint16_t\000"
 1100      6E743136 
 1100      5F7400
 1101              	.LASF32:
 1102 01c5 544D5F47 		.ascii	"TM_GPIO_OType_OD\000"
 1102      50494F5F 
ARM GAS  /tmp/cchY05rl.s 			page 23


 1102      4F547970 
 1102      655F4F44 
 1102      00
 1103              	.LASF8:
 1104 01d6 5F5F7569 		.ascii	"__uint32_t\000"
 1104      6E743332 
 1104      5F7400
 1105              	.LASF21:
 1106 01e1 4F535045 		.ascii	"OSPEEDR\000"
 1106      45445200 
 1107              	.LASF46:
 1108 01e9 2F686F6D 		.ascii	"/home/sticky/Projects/stuff/stm32f4_usb\000"
 1108      652F7374 
 1108      69636B79 
 1108      2F50726F 
 1108      6A656374 
 1109              	.LASF12:
 1110 0211 756E7369 		.ascii	"unsigned int\000"
 1110      676E6564 
 1110      20696E74 
 1110      00
 1111              	.LASF26:
 1112 021e 4750494F 		.ascii	"GPIO_TypeDef\000"
 1112      5F547970 
 1112      65446566 
 1112      00
 1113              	.LASF11:
 1114 022b 6C6F6E67 		.ascii	"long long unsigned int\000"
 1114      206C6F6E 
 1114      6720756E 
 1114      7369676E 
 1114      65642069 
 1115              	.LASF13:
 1116 0242 75696E74 		.ascii	"uint8_t\000"
 1116      385F7400 
 1117              	.LASF34:
 1118 024a 544D5F47 		.ascii	"TM_GPIO_Speed_Medium\000"
 1118      50494F5F 
 1118      53706565 
 1118      645F4D65 
 1118      6469756D 
 1119              	.LASF36:
 1120 025f 544D5F47 		.ascii	"TM_GPIO_Speed_High\000"
 1120      50494F5F 
 1120      53706565 
 1120      645F4869 
 1120      676800
 1121              	.LASF27:
 1122 0272 544D5F47 		.ascii	"TM_GPIO_Mode_IN\000"
 1122      50494F5F 
 1122      4D6F6465 
 1122      5F494E00 
 1123              	.LASF15:
 1124 0282 696E7433 		.ascii	"int32_t\000"
 1124      325F7400 
 1125              	.LASF22:
 1126 028a 50555044 		.ascii	"PUPDR\000"
ARM GAS  /tmp/cchY05rl.s 			page 24


 1126      5200
 1127              	.LASF10:
 1128 0290 6C6F6E67 		.ascii	"long long int\000"
 1128      206C6F6E 
 1128      6720696E 
 1128      7400
 1129              	.LASF18:
 1130 029e 53797374 		.ascii	"SystemCoreClock\000"
 1130      656D436F 
 1130      7265436C 
 1130      6F636B00 
 1131              	.LASF14:
 1132 02ae 75696E74 		.ascii	"uint16_t\000"
 1132      31365F74 
 1132      00
 1133              	.LASF2:
 1134 02b7 73686F72 		.ascii	"short int\000"
 1134      7420696E 
 1134      7400
 1135              	.LASF48:
 1136 02c1 544D5F47 		.ascii	"TM_GPIO_Init\000"
 1136      50494F5F 
 1136      496E6974 
 1136      00
 1137              	.LASF41:
 1138 02ce 544D5F44 		.ascii	"TM_DISCO_ButtonOnPressed\000"
 1138      4953434F 
 1138      5F427574 
 1138      746F6E4F 
 1138      6E507265 
 1139              	.LASF24:
 1140 02e7 42535252 		.ascii	"BSRRH\000"
 1140      4800
 1141              	.LASF35:
 1142 02ed 544D5F47 		.ascii	"TM_GPIO_Speed_Fast\000"
 1142      50494F5F 
 1142      53706565 
 1142      645F4661 
 1142      737400
 1143              	.LASF7:
 1144 0300 6C6F6E67 		.ascii	"long int\000"
 1144      20696E74 
 1144      00
 1145              	.LASF23:
 1146 0309 42535252 		.ascii	"BSRRL\000"
 1146      4C00
 1147              	.LASF0:
 1148 030f 7369676E 		.ascii	"signed char\000"
 1148      65642063 
 1148      68617200 
 1149              	.LASF30:
 1150 031b 544D5F47 		.ascii	"TM_GPIO_Mode_AN\000"
 1150      50494F5F 
 1150      4D6F6465 
 1150      5F414E00 
 1151              	.LASF25:
 1152 032b 4C434B52 		.ascii	"LCKR\000"
ARM GAS  /tmp/cchY05rl.s 			page 25


 1152      00
 1153              	.LASF40:
 1154 0330 544D5F44 		.ascii	"TM_DISCO_ButtonOnReleased\000"
 1154      4953434F 
 1154      5F427574 
 1154      746F6E4F 
 1154      6E52656C 
 1155              	.LASF33:
 1156 034a 544D5F47 		.ascii	"TM_GPIO_Speed_Low\000"
 1156      50494F5F 
 1156      53706565 
 1156      645F4C6F 
 1156      7700
 1157              		.ident	"GCC: (GNU Tools for Arm Embedded Processors 7-2017-q4-major) 7.2.1 20170904 (release) [ARM
ARM GAS  /tmp/cchY05rl.s 			page 26


DEFINED SYMBOLS
                            *ABS*:0000000000000000 tm_stm32f4_disco.c
     /tmp/cchY05rl.s:74     .text:0000000000000000 $t
     /tmp/cchY05rl.s:81     .text:0000000000000000 TM_DISCO_LedInit
     /tmp/cchY05rl.s:118    .text:0000000000000024 $d
     /tmp/cchY05rl.s:122    .text:0000000000000028 $t
     /tmp/cchY05rl.s:129    .text:0000000000000028 TM_DISCO_ButtonInit
     /tmp/cchY05rl.s:159    .text:0000000000000044 $d
     /tmp/cchY05rl.s:163    .text:0000000000000048 $t
     /tmp/cchY05rl.s:170    .text:0000000000000048 TM_DISCO_ButtonOnPressed
     /tmp/cchY05rl.s:206    .text:0000000000000064 $d
     /tmp/cchY05rl.s:211    .text:000000000000006c $t
     /tmp/cchY05rl.s:218    .text:000000000000006c TM_DISCO_ButtonOnReleased
     /tmp/cchY05rl.s:259    .text:0000000000000090 $d
     /tmp/cchY05rl.s:268    .bss:0000000000000000 TM_INT_DISCO_ButtonPressed
     /tmp/cchY05rl.s:269    .bss:0000000000000000 $d

UNDEFINED SYMBOLS
TM_GPIO_Init
