ARM GAS  /tmp/ccFYZd0r.s 			page 1


   1              		.cpu cortex-m4
   2              		.eabi_attribute 20, 1	@ Tag_ABI_FP_denormal
   3              		.eabi_attribute 21, 1	@ Tag_ABI_FP_exceptions
   4              		.eabi_attribute 23, 3	@ Tag_ABI_FP_number_model
   5              		.eabi_attribute 24, 1	@ Tag_ABI_align8_needed
   6              		.eabi_attribute 25, 1	@ Tag_ABI_align8_preserved
   7              		.eabi_attribute 26, 1	@ Tag_ABI_enum_size
   8              		.eabi_attribute 30, 4	@ Tag_ABI_optimization_goals
   9              		.eabi_attribute 34, 1	@ Tag_CPU_unaligned_access
  10              		.eabi_attribute 18, 4	@ Tag_ABI_PCS_wchar_t
  11              		.file	"tm_stm32f4_gpio.c"
  12              	@ GNU C11 (GNU Tools for Arm Embedded Processors 7-2017-q4-major) version 7.2.1 20170904 (release) 
  13              	@	compiled by GNU C version 4.8.4, GMP version 6.1.0, MPFR version 3.1.4, MPC version 1.0.3, isl ve
  14              	
  15              	@ GGC heuristics: --param ggc-min-expand=100 --param ggc-min-heapsize=131072
  16              	@ options passed:  -I . -I ./inc -I ./inc/CMSIS
  17              	@ -I STM32F4xx_StdPeriph_Driver/inc -I ./inc/user_libs
  18              	@ -imultilib thumb/v7e-m
  19              	@ -iprefix /home/sticky/opt/gcc-arm-none-eabi-7-2017-q4-major/bin/../lib/gcc/arm-none-eabi/7.2.1/
  20              	@ -isysroot /home/sticky/opt/gcc-arm-none-eabi-7-2017-q4-major/bin/../arm-none-eabi
  21              	@ -D__USES_INITFINI__ -D STM32F40XX -D USE_STDPERIPH_DRIVER
  22              	@ -D RUN_FROM_FLASH=1 inc/user_libs/tm_stm32f4_gpio.c -mcpu=cortex-m4
  23              	@ -mthumb -auxbase-strip inc/user_libs/tm_stm32f4_gpio.o -g -gdwarf-2 -Os
  24              	@ -Wall -Wstrict-prototypes -fomit-frame-pointer -fverbose-asm
  25              	@ options enabled:  -faggressive-loop-optimizations -falign-jumps
  26              	@ -falign-labels -falign-loops -fauto-inc-dec -fbranch-count-reg
  27              	@ -fcaller-saves -fchkp-check-incomplete-type -fchkp-check-read
  28              	@ -fchkp-check-write -fchkp-instrument-calls -fchkp-narrow-bounds
  29              	@ -fchkp-optimize -fchkp-store-bounds -fchkp-use-static-bounds
  30              	@ -fchkp-use-static-const-bounds -fchkp-use-wrappers -fcode-hoisting
  31              	@ -fcombine-stack-adjustments -fcommon -fcompare-elim -fcprop-registers
  32              	@ -fcrossjumping -fcse-follow-jumps -fdefer-pop
  33              	@ -fdelete-null-pointer-checks -fdevirtualize -fdevirtualize-speculatively
  34              	@ -fdwarf2-cfi-asm -fearly-inlining -feliminate-unused-debug-types
  35              	@ -fexpensive-optimizations -fforward-propagate -ffp-int-builtin-inexact
  36              	@ -ffunction-cse -fgcse -fgcse-lm -fgnu-runtime -fgnu-unique
  37              	@ -fguess-branch-probability -fhoist-adjacent-loads -fident -fif-conversion
  38              	@ -fif-conversion2 -findirect-inlining -finline -finline-atomics
  39              	@ -finline-functions -finline-functions-called-once
  40              	@ -finline-small-functions -fipa-bit-cp -fipa-cp -fipa-icf
  41              	@ -fipa-icf-functions -fipa-icf-variables -fipa-profile -fipa-pure-const
  42              	@ -fipa-ra -fipa-reference -fipa-sra -fipa-vrp -fira-hoist-pressure
  43              	@ -fira-share-save-slots -fira-share-spill-slots
  44              	@ -fisolate-erroneous-paths-dereference -fivopts -fkeep-static-consts
  45              	@ -fleading-underscore -flifetime-dse -flra-remat -flto-odr-type-merging
  46              	@ -fmath-errno -fmerge-constants -fmerge-debug-strings
  47              	@ -fmove-loop-invariants -fomit-frame-pointer -foptimize-sibling-calls
  48              	@ -fpartial-inlining -fpeephole -fpeephole2 -fplt -fprefetch-loop-arrays
  49              	@ -freg-struct-return -freorder-blocks -freorder-functions
  50              	@ -frerun-cse-after-loop -fsched-critical-path-heuristic
  51              	@ -fsched-dep-count-heuristic -fsched-group-heuristic -fsched-interblock
  52              	@ -fsched-last-insn-heuristic -fsched-pressure -fsched-rank-heuristic
  53              	@ -fsched-spec -fsched-spec-insn-heuristic -fsched-stalled-insns-dep
  54              	@ -fschedule-insns2 -fsection-anchors -fsemantic-interposition
  55              	@ -fshow-column -fshrink-wrap-separate -fsigned-zeros
  56              	@ -fsplit-ivs-in-unroller -fsplit-wide-types -fssa-backprop -fssa-phiopt
  57              	@ -fstdarg-opt -fstore-merging -fstrict-aliasing -fstrict-overflow
ARM GAS  /tmp/ccFYZd0r.s 			page 2


  58              	@ -fstrict-volatile-bitfields -fsync-libcalls -fthread-jumps
  59              	@ -ftoplevel-reorder -ftrapping-math -ftree-bit-ccp -ftree-builtin-call-dce
  60              	@ -ftree-ccp -ftree-ch -ftree-coalesce-vars -ftree-copy-prop -ftree-cselim
  61              	@ -ftree-dce -ftree-dominator-opts -ftree-dse -ftree-forwprop -ftree-fre
  62              	@ -ftree-loop-if-convert -ftree-loop-im -ftree-loop-ivcanon
  63              	@ -ftree-loop-optimize -ftree-parallelize-loops= -ftree-phiprop -ftree-pre
  64              	@ -ftree-pta -ftree-reassoc -ftree-scev-cprop -ftree-sink -ftree-slsr
  65              	@ -ftree-sra -ftree-switch-conversion -ftree-tail-merge -ftree-ter
  66              	@ -ftree-vrp -funit-at-a-time -fvar-tracking -fvar-tracking-assignments
  67              	@ -fverbose-asm -fzero-initialized-in-bss -masm-syntax-unified
  68              	@ -mlittle-endian -mpic-data-is-text-relative -msched-prolog -mthumb
  69              	@ -munaligned-access -mvectorize-with-neon-quad
  70              	
  71              		.text
  72              	.Ltext0:
  73              		.cfi_sections	.debug_frame
  74              		.align	1
  75              		.global	TM_GPIO_DeInit
  76              		.syntax unified
  77              		.thumb
  78              		.thumb_func
  79              		.fpu softvfp
  80              		.type	TM_GPIO_DeInit, %function
  81              	TM_GPIO_DeInit:
  82              	.LFB112:
  83              		.file 1 "inc/user_libs/tm_stm32f4_gpio.c"
   1:inc/user_libs/tm_stm32f4_gpio.c **** /**	
   2:inc/user_libs/tm_stm32f4_gpio.c ****  * |----------------------------------------------------------------------
   3:inc/user_libs/tm_stm32f4_gpio.c ****  * | Copyright (C) Tilen Majerle, 2015
   4:inc/user_libs/tm_stm32f4_gpio.c ****  * | 
   5:inc/user_libs/tm_stm32f4_gpio.c ****  * | This program is free software: you can redistribute it and/or modify
   6:inc/user_libs/tm_stm32f4_gpio.c ****  * | it under the terms of the GNU General Public License as published by
   7:inc/user_libs/tm_stm32f4_gpio.c ****  * | the Free Software Foundation, either version 3 of the License, or
   8:inc/user_libs/tm_stm32f4_gpio.c ****  * | any later version.
   9:inc/user_libs/tm_stm32f4_gpio.c ****  * |  
  10:inc/user_libs/tm_stm32f4_gpio.c ****  * | This program is distributed in the hope that it will be useful,
  11:inc/user_libs/tm_stm32f4_gpio.c ****  * | but WITHOUT ANY WARRANTY; without even the implied warranty of
  12:inc/user_libs/tm_stm32f4_gpio.c ****  * | MERCHANTABILITY or FITNESS FOR A PARTICULAR PURPOSE.  See the
  13:inc/user_libs/tm_stm32f4_gpio.c ****  * | GNU General Public License for more details.
  14:inc/user_libs/tm_stm32f4_gpio.c ****  * | 
  15:inc/user_libs/tm_stm32f4_gpio.c ****  * | You should have received a copy of the GNU General Public License
  16:inc/user_libs/tm_stm32f4_gpio.c ****  * | along with this program.  If not, see <http://www.gnu.org/licenses/>.
  17:inc/user_libs/tm_stm32f4_gpio.c ****  * |----------------------------------------------------------------------
  18:inc/user_libs/tm_stm32f4_gpio.c ****  */
  19:inc/user_libs/tm_stm32f4_gpio.c **** #include "tm_stm32f4_gpio.h"
  20:inc/user_libs/tm_stm32f4_gpio.c **** 
  21:inc/user_libs/tm_stm32f4_gpio.c **** /* Private function */
  22:inc/user_libs/tm_stm32f4_gpio.c **** static uint16_t GPIO_UsedPins[11] = {0,0,0,0,0,0,0,0,0,0,0};
  23:inc/user_libs/tm_stm32f4_gpio.c **** 
  24:inc/user_libs/tm_stm32f4_gpio.c **** /* Private functions */
  25:inc/user_libs/tm_stm32f4_gpio.c **** void TM_GPIO_INT_EnableClock(GPIO_TypeDef* GPIOx);
  26:inc/user_libs/tm_stm32f4_gpio.c **** void TM_GPIO_INT_DisableClock(GPIO_TypeDef* GPIOx);
  27:inc/user_libs/tm_stm32f4_gpio.c **** void TM_GPIO_INT_Init(GPIO_TypeDef* GPIOx, uint16_t GPIO_Pin, TM_GPIO_Mode_t GPIO_Mode, TM_GPIO_OTy
  28:inc/user_libs/tm_stm32f4_gpio.c **** 
  29:inc/user_libs/tm_stm32f4_gpio.c **** void TM_GPIO_Init(GPIO_TypeDef* GPIOx, uint16_t GPIO_Pin, TM_GPIO_Mode_t GPIO_Mode, TM_GPIO_OType_t
  30:inc/user_libs/tm_stm32f4_gpio.c **** 	/* Check input */
  31:inc/user_libs/tm_stm32f4_gpio.c **** 	if (GPIO_Pin == 0x00) {
ARM GAS  /tmp/ccFYZd0r.s 			page 3


  32:inc/user_libs/tm_stm32f4_gpio.c **** 		return;
  33:inc/user_libs/tm_stm32f4_gpio.c **** 	}
  34:inc/user_libs/tm_stm32f4_gpio.c **** 	
  35:inc/user_libs/tm_stm32f4_gpio.c **** 	/* Enable clock for GPIO */
  36:inc/user_libs/tm_stm32f4_gpio.c **** 	TM_GPIO_INT_EnableClock(GPIOx);
  37:inc/user_libs/tm_stm32f4_gpio.c **** 	
  38:inc/user_libs/tm_stm32f4_gpio.c **** 	/* Do initialization */
  39:inc/user_libs/tm_stm32f4_gpio.c **** 	TM_GPIO_INT_Init(GPIOx, GPIO_Pin, GPIO_Mode, GPIO_OType, GPIO_PuPd, GPIO_Speed);
  40:inc/user_libs/tm_stm32f4_gpio.c **** }
  41:inc/user_libs/tm_stm32f4_gpio.c **** 
  42:inc/user_libs/tm_stm32f4_gpio.c **** void TM_GPIO_InitAlternate(GPIO_TypeDef* GPIOx, uint16_t GPIO_Pin, TM_GPIO_OType_t GPIO_OType, TM_G
  43:inc/user_libs/tm_stm32f4_gpio.c **** 	uint32_t pinpos;
  44:inc/user_libs/tm_stm32f4_gpio.c **** 
  45:inc/user_libs/tm_stm32f4_gpio.c **** 	/* Check input */
  46:inc/user_libs/tm_stm32f4_gpio.c **** 	if (GPIO_Pin == 0x00) {
  47:inc/user_libs/tm_stm32f4_gpio.c **** 		return;
  48:inc/user_libs/tm_stm32f4_gpio.c **** 	}
  49:inc/user_libs/tm_stm32f4_gpio.c **** 	
  50:inc/user_libs/tm_stm32f4_gpio.c **** 	/* Enable GPIOx clock */
  51:inc/user_libs/tm_stm32f4_gpio.c **** 	TM_GPIO_INT_EnableClock(GPIOx);
  52:inc/user_libs/tm_stm32f4_gpio.c **** 	
  53:inc/user_libs/tm_stm32f4_gpio.c **** 	/* Set alternate functions for all pins */
  54:inc/user_libs/tm_stm32f4_gpio.c **** 	for (pinpos = 0; pinpos < 0x10; pinpos++) {
  55:inc/user_libs/tm_stm32f4_gpio.c **** 		/* Check pin */
  56:inc/user_libs/tm_stm32f4_gpio.c **** 		if ((GPIO_Pin & (1 << pinpos)) == 0) {
  57:inc/user_libs/tm_stm32f4_gpio.c **** 			continue;
  58:inc/user_libs/tm_stm32f4_gpio.c **** 		}
  59:inc/user_libs/tm_stm32f4_gpio.c **** 		
  60:inc/user_libs/tm_stm32f4_gpio.c **** 		/* Set alternate function */
  61:inc/user_libs/tm_stm32f4_gpio.c **** 		GPIOx->AFR[pinpos >> 0x03] = (GPIOx->AFR[pinpos >> 0x03] & ~(0x0F << (4 * (pinpos & 0x07)))) | (A
  62:inc/user_libs/tm_stm32f4_gpio.c **** 	}
  63:inc/user_libs/tm_stm32f4_gpio.c **** 	
  64:inc/user_libs/tm_stm32f4_gpio.c **** 	/* Do initialization */
  65:inc/user_libs/tm_stm32f4_gpio.c **** 	TM_GPIO_INT_Init(GPIOx, GPIO_Pin, TM_GPIO_Mode_AF, GPIO_OType, GPIO_PuPd, GPIO_Speed);
  66:inc/user_libs/tm_stm32f4_gpio.c **** }
  67:inc/user_libs/tm_stm32f4_gpio.c **** 
  68:inc/user_libs/tm_stm32f4_gpio.c **** void TM_GPIO_DeInit(GPIO_TypeDef* GPIOx, uint16_t GPIO_Pin) {
  84              		.loc 1 68 0
  85              		.cfi_startproc
  86              		@ args = 0, pretend = 0, frame = 0
  87              		@ frame_needed = 0, uses_anonymous_args = 0
  88              	.LVL0:
  89              	.LBB14:
  90              	.LBB15:
  91              	@ inc/user_libs/tm_stm32f4_gpio.c:185: 	return ((uint32_t)GPIOx - (GPIOA_BASE)) / ((GPIOB_BASE) - (
  69:inc/user_libs/tm_stm32f4_gpio.c **** 	uint8_t i;
  70:inc/user_libs/tm_stm32f4_gpio.c **** 	uint8_t ptr = TM_GPIO_GetPortSource(GPIOx);
  71:inc/user_libs/tm_stm32f4_gpio.c **** 	
  72:inc/user_libs/tm_stm32f4_gpio.c **** 	/* Go through all pins */
  73:inc/user_libs/tm_stm32f4_gpio.c **** 	for (i = 0x00; i < 0x10; i++) {
  74:inc/user_libs/tm_stm32f4_gpio.c **** 		/* Pin is set */
  75:inc/user_libs/tm_stm32f4_gpio.c **** 		if (GPIO_Pin & (1 << i)) {
  76:inc/user_libs/tm_stm32f4_gpio.c **** 			/* Set 11 bits combination for analog mode */
  77:inc/user_libs/tm_stm32f4_gpio.c **** 			GPIOx->MODER |= (0x03 << (2 * i));
  78:inc/user_libs/tm_stm32f4_gpio.c **** 			
  79:inc/user_libs/tm_stm32f4_gpio.c **** 			/* Pin is not used */
  80:inc/user_libs/tm_stm32f4_gpio.c **** 			GPIO_UsedPins[ptr] &= ~(1 << i);
ARM GAS  /tmp/ccFYZd0r.s 			page 4


  81:inc/user_libs/tm_stm32f4_gpio.c **** 		}
  82:inc/user_libs/tm_stm32f4_gpio.c **** 	}
  83:inc/user_libs/tm_stm32f4_gpio.c **** }
  84:inc/user_libs/tm_stm32f4_gpio.c **** 
  85:inc/user_libs/tm_stm32f4_gpio.c **** void TM_GPIO_SetPinAsInput(GPIO_TypeDef* GPIOx, uint16_t GPIO_Pin) {
  86:inc/user_libs/tm_stm32f4_gpio.c **** 	uint8_t i;
  87:inc/user_libs/tm_stm32f4_gpio.c **** 	/* Go through all pins */
  88:inc/user_libs/tm_stm32f4_gpio.c **** 	for (i = 0x00; i < 0x10; i++) {
  89:inc/user_libs/tm_stm32f4_gpio.c **** 		/* Pin is set */
  90:inc/user_libs/tm_stm32f4_gpio.c **** 		if (GPIO_Pin & (1 << i)) {
  91:inc/user_libs/tm_stm32f4_gpio.c **** 			/* Set 00 bits combination for input */
  92:inc/user_libs/tm_stm32f4_gpio.c **** 			GPIOx->MODER &= ~(0x03 << (2 * i));
  93:inc/user_libs/tm_stm32f4_gpio.c **** 		}
  94:inc/user_libs/tm_stm32f4_gpio.c **** 	}
  95:inc/user_libs/tm_stm32f4_gpio.c **** }
  96:inc/user_libs/tm_stm32f4_gpio.c **** 
  97:inc/user_libs/tm_stm32f4_gpio.c **** void TM_GPIO_SetPinAsOutput(GPIO_TypeDef* GPIOx, uint16_t GPIO_Pin) {
  98:inc/user_libs/tm_stm32f4_gpio.c **** 	uint8_t i;
  99:inc/user_libs/tm_stm32f4_gpio.c **** 	/* Go through all pins */
 100:inc/user_libs/tm_stm32f4_gpio.c **** 	for (i = 0x00; i < 0x10; i++) {
 101:inc/user_libs/tm_stm32f4_gpio.c **** 		/* Pin is set */
 102:inc/user_libs/tm_stm32f4_gpio.c **** 		if (GPIO_Pin & (1 << i)) {
 103:inc/user_libs/tm_stm32f4_gpio.c **** 			/* Set 01 bits combination for output */
 104:inc/user_libs/tm_stm32f4_gpio.c **** 			GPIOx->MODER = (GPIOx->MODER & ~(0x03 << (2 * i))) | (0x01 << (2 * i));
 105:inc/user_libs/tm_stm32f4_gpio.c **** 		}
 106:inc/user_libs/tm_stm32f4_gpio.c **** 	}
 107:inc/user_libs/tm_stm32f4_gpio.c **** }
 108:inc/user_libs/tm_stm32f4_gpio.c **** 
 109:inc/user_libs/tm_stm32f4_gpio.c **** void TM_GPIO_SetPinAsAnalog(GPIO_TypeDef* GPIOx, uint16_t GPIO_Pin) {
 110:inc/user_libs/tm_stm32f4_gpio.c **** 	uint8_t i;
 111:inc/user_libs/tm_stm32f4_gpio.c **** 	/* Go through all pins */
 112:inc/user_libs/tm_stm32f4_gpio.c **** 	for (i = 0x00; i < 0x10; i++) {
 113:inc/user_libs/tm_stm32f4_gpio.c **** 		/* Pin is set */
 114:inc/user_libs/tm_stm32f4_gpio.c **** 		if (GPIO_Pin & (1 << i)) {
 115:inc/user_libs/tm_stm32f4_gpio.c **** 			/* Set 11 bits combination for analog mode */
 116:inc/user_libs/tm_stm32f4_gpio.c **** 			GPIOx->MODER |= (0x03 << (2 * i));
 117:inc/user_libs/tm_stm32f4_gpio.c **** 		}
 118:inc/user_libs/tm_stm32f4_gpio.c **** 	}
 119:inc/user_libs/tm_stm32f4_gpio.c **** }
 120:inc/user_libs/tm_stm32f4_gpio.c **** 
 121:inc/user_libs/tm_stm32f4_gpio.c **** void TM_GPIO_SetPinAsAlternate(GPIO_TypeDef* GPIOx, uint16_t GPIO_Pin) {
 122:inc/user_libs/tm_stm32f4_gpio.c **** 	uint8_t i;
 123:inc/user_libs/tm_stm32f4_gpio.c **** 	
 124:inc/user_libs/tm_stm32f4_gpio.c **** 	/* Set alternate functions for all pins */
 125:inc/user_libs/tm_stm32f4_gpio.c **** 	for (i = 0; i < 0x10; i++) {
 126:inc/user_libs/tm_stm32f4_gpio.c **** 		/* Check pin */
 127:inc/user_libs/tm_stm32f4_gpio.c **** 		if ((GPIO_Pin & (1 << i)) == 0) {
 128:inc/user_libs/tm_stm32f4_gpio.c **** 			continue;
 129:inc/user_libs/tm_stm32f4_gpio.c **** 		}
 130:inc/user_libs/tm_stm32f4_gpio.c **** 		
 131:inc/user_libs/tm_stm32f4_gpio.c **** 		/* Set alternate mode */
 132:inc/user_libs/tm_stm32f4_gpio.c **** 		GPIOx->MODER = (GPIOx->MODER & ~(0x03 << (2 * i))) | (0x02 << (2 * i));
 133:inc/user_libs/tm_stm32f4_gpio.c **** 	}
 134:inc/user_libs/tm_stm32f4_gpio.c **** }
 135:inc/user_libs/tm_stm32f4_gpio.c **** 
 136:inc/user_libs/tm_stm32f4_gpio.c **** void TM_GPIO_SetPullResistor(GPIO_TypeDef* GPIOx, uint16_t GPIO_Pin, TM_GPIO_PuPd_t GPIO_PuPd) {
 137:inc/user_libs/tm_stm32f4_gpio.c **** 	uint8_t pinpos;
ARM GAS  /tmp/ccFYZd0r.s 			page 5


 138:inc/user_libs/tm_stm32f4_gpio.c **** 	
 139:inc/user_libs/tm_stm32f4_gpio.c **** 	/* Go through all pins */
 140:inc/user_libs/tm_stm32f4_gpio.c **** 	for (pinpos = 0; pinpos < 0x10; pinpos++) {
 141:inc/user_libs/tm_stm32f4_gpio.c **** 		/* Check if pin available */
 142:inc/user_libs/tm_stm32f4_gpio.c **** 		if ((GPIO_Pin & (1 << pinpos)) == 0) {
 143:inc/user_libs/tm_stm32f4_gpio.c **** 			continue;
 144:inc/user_libs/tm_stm32f4_gpio.c **** 		}
 145:inc/user_libs/tm_stm32f4_gpio.c **** 
 146:inc/user_libs/tm_stm32f4_gpio.c **** 		/* Set GPIO PUPD register */
 147:inc/user_libs/tm_stm32f4_gpio.c **** 		GPIOx->PUPDR = (GPIOx->PUPDR & ~(0x03 << (2 * pinpos))) | ((uint32_t)(GPIO_PuPd << (2 * pinpos)))
 148:inc/user_libs/tm_stm32f4_gpio.c **** 	}
 149:inc/user_libs/tm_stm32f4_gpio.c **** }
 150:inc/user_libs/tm_stm32f4_gpio.c **** 
 151:inc/user_libs/tm_stm32f4_gpio.c **** void TM_GPIO_Lock(GPIO_TypeDef* GPIOx, uint16_t GPIO_Pin) {
 152:inc/user_libs/tm_stm32f4_gpio.c **** 	uint32_t d;
 153:inc/user_libs/tm_stm32f4_gpio.c **** 	
 154:inc/user_libs/tm_stm32f4_gpio.c **** 	/* Set GPIO pin with 16th bit set to 1 */
 155:inc/user_libs/tm_stm32f4_gpio.c **** 	d = 0x00010000 | GPIO_Pin;
 156:inc/user_libs/tm_stm32f4_gpio.c **** 	
 157:inc/user_libs/tm_stm32f4_gpio.c **** 	/* Write to LCKR register */
 158:inc/user_libs/tm_stm32f4_gpio.c **** 	GPIOx->LCKR = d;
 159:inc/user_libs/tm_stm32f4_gpio.c **** 	GPIOx->LCKR = GPIO_Pin;
 160:inc/user_libs/tm_stm32f4_gpio.c **** 	GPIOx->LCKR = d;
 161:inc/user_libs/tm_stm32f4_gpio.c **** 	
 162:inc/user_libs/tm_stm32f4_gpio.c **** 	/* Read twice */
 163:inc/user_libs/tm_stm32f4_gpio.c **** 	(void)GPIOx->LCKR;
 164:inc/user_libs/tm_stm32f4_gpio.c **** 	(void)GPIOx->LCKR;
 165:inc/user_libs/tm_stm32f4_gpio.c **** }
 166:inc/user_libs/tm_stm32f4_gpio.c **** 
 167:inc/user_libs/tm_stm32f4_gpio.c **** uint16_t TM_GPIO_GetPinSource(uint16_t GPIO_Pin) {
 168:inc/user_libs/tm_stm32f4_gpio.c **** 	uint16_t pinsource = 0;
 169:inc/user_libs/tm_stm32f4_gpio.c **** 	
 170:inc/user_libs/tm_stm32f4_gpio.c **** 	/* Get pinsource */
 171:inc/user_libs/tm_stm32f4_gpio.c **** 	while (GPIO_Pin > 1) {
 172:inc/user_libs/tm_stm32f4_gpio.c **** 		/* Increase pinsource */
 173:inc/user_libs/tm_stm32f4_gpio.c **** 		pinsource++;
 174:inc/user_libs/tm_stm32f4_gpio.c **** 		/* Shift right */
 175:inc/user_libs/tm_stm32f4_gpio.c **** 		GPIO_Pin >>= 1;
 176:inc/user_libs/tm_stm32f4_gpio.c **** 	}
 177:inc/user_libs/tm_stm32f4_gpio.c **** 	
 178:inc/user_libs/tm_stm32f4_gpio.c **** 	/* Return source */
 179:inc/user_libs/tm_stm32f4_gpio.c **** 	return pinsource;
 180:inc/user_libs/tm_stm32f4_gpio.c **** }
 181:inc/user_libs/tm_stm32f4_gpio.c **** 
 182:inc/user_libs/tm_stm32f4_gpio.c **** uint16_t TM_GPIO_GetPortSource(GPIO_TypeDef* GPIOx) {
 183:inc/user_libs/tm_stm32f4_gpio.c **** 	/* Get port source number */
 184:inc/user_libs/tm_stm32f4_gpio.c **** 	/* Offset from GPIOA                       Difference between 2 GPIO addresses */
 185:inc/user_libs/tm_stm32f4_gpio.c **** 	return ((uint32_t)GPIOx - (GPIOA_BASE)) / ((GPIOB_BASE) - (GPIOA_BASE));
  92              		.loc 1 185 0
  93 0000 00F13F42 		add	r2, r0, #-1090519040	@ tmp137, GPIOx,
  94              	.LBE15:
  95              	.LBE14:
  96              	@ inc/user_libs/tm_stm32f4_gpio.c:68: void TM_GPIO_DeInit(GPIO_TypeDef* GPIOx, uint16_t GPIO_Pin) {
  68:inc/user_libs/tm_stm32f4_gpio.c **** 	uint8_t i;
  97              		.loc 1 68 0
  98 0004 F0B5     		push	{r4, r5, r6, r7, lr}	@
  99              	.LCFI0:
ARM GAS  /tmp/ccFYZd0r.s 			page 6


 100              		.cfi_def_cfa_offset 20
 101              		.cfi_offset 4, -20
 102              		.cfi_offset 5, -16
 103              		.cfi_offset 6, -12
 104              		.cfi_offset 7, -8
 105              		.cfi_offset 14, -4
 106              	.LBB18:
 107              	.LBB16:
 108              	@ inc/user_libs/tm_stm32f4_gpio.c:185: 	return ((uint32_t)GPIOx - (GPIOA_BASE)) / ((GPIOB_BASE) - (
 109              		.loc 1 185 0
 110 0006 02F57E02 		add	r2, r2, #16646144	@ tmp137, tmp137,
 111              	.LVL1:
 112              	.LBE16:
 113              	.LBE18:
 114              	@ inc/user_libs/tm_stm32f4_gpio.c:80: 			GPIO_UsedPins[ptr] &= ~(1 << i);
  80:inc/user_libs/tm_stm32f4_gpio.c **** 		}
 115              		.loc 1 80 0
 116 000a 0E4E     		ldr	r6, .L8	@ tmp156,
 117              	.LBB19:
 118              	.LBB17:
 119              	@ inc/user_libs/tm_stm32f4_gpio.c:185: 	return ((uint32_t)GPIOx - (GPIOA_BASE)) / ((GPIOB_BASE) - (
 120              		.loc 1 185 0
 121 000c 0023     		movs	r3, #0	@ ivtmp.29,
 122              	.LBE17:
 123              	.LBE19:
 124              	@ inc/user_libs/tm_stm32f4_gpio.c:77: 			GPIOx->MODER |= (0x03 << (2 * i));
  77:inc/user_libs/tm_stm32f4_gpio.c **** 			
 125              		.loc 1 77 0
 126 000e 0327     		movs	r7, #3	@ tmp154,
 127              	@ inc/user_libs/tm_stm32f4_gpio.c:80: 			GPIO_UsedPins[ptr] &= ~(1 << i);
  80:inc/user_libs/tm_stm32f4_gpio.c **** 		}
 128              		.loc 1 80 0
 129 0010 C2F38725 		ubfx	r5, r2, #10, #8	@ _10, tmp137,,
 130 0014 4FF0010C 		mov	ip, #1	@ tmp157,
 131              	.LVL2:
 132              	.L3:
 133              	@ inc/user_libs/tm_stm32f4_gpio.c:75: 		if (GPIO_Pin & (1 << i)) {
  75:inc/user_libs/tm_stm32f4_gpio.c **** 			/* Set 11 bits combination for analog mode */
 134              		.loc 1 75 0
 135 0018 41FA03F2 		asr	r2, r1, r3	@ tmp139, GPIO_Pin, ivtmp.29
 136 001c D207     		lsls	r2, r2, #31	@, tmp139,
 137 001e 0DD5     		bpl	.L2	@,
 138              	@ inc/user_libs/tm_stm32f4_gpio.c:77: 			GPIOx->MODER |= (0x03 << (2 * i));
  77:inc/user_libs/tm_stm32f4_gpio.c **** 			
 139              		.loc 1 77 0
 140 0020 0468     		ldr	r4, [r0]	@ _5, GPIOx_22(D)->MODER
 141 0022 5A00     		lsls	r2, r3, #1	@ tmp141, ivtmp.29,
 142 0024 07FA02F2 		lsl	r2, r7, r2	@ tmp142, tmp154, tmp141
 143 0028 2243     		orrs	r2, r2, r4	@, _9, tmp142, _5
 144              	@ inc/user_libs/tm_stm32f4_gpio.c:80: 			GPIO_UsedPins[ptr] &= ~(1 << i);
  80:inc/user_libs/tm_stm32f4_gpio.c **** 		}
 145              		.loc 1 80 0
 146 002a 36F81540 		ldrh	r4, [r6, r5, lsl #1]	@, GPIO_UsedPins
 147              	@ inc/user_libs/tm_stm32f4_gpio.c:77: 			GPIOx->MODER |= (0x03 << (2 * i));
  77:inc/user_libs/tm_stm32f4_gpio.c **** 			
 148              		.loc 1 77 0
 149 002e 0260     		str	r2, [r0]	@ _9, GPIOx_22(D)->MODER
ARM GAS  /tmp/ccFYZd0r.s 			page 7


 150              	@ inc/user_libs/tm_stm32f4_gpio.c:80: 			GPIO_UsedPins[ptr] &= ~(1 << i);
  80:inc/user_libs/tm_stm32f4_gpio.c **** 		}
 151              		.loc 1 80 0
 152 0030 0CFA03F2 		lsl	r2, ip, r3	@ tmp145, tmp157, ivtmp.29
 153 0034 24EA0202 		bic	r2, r4, r2	@ tmp152, tmp151, tmp145
 154 0038 26F81520 		strh	r2, [r6, r5, lsl #1]	@ movhi	@ tmp152, GPIO_UsedPins
 155              	.L2:
 156              	.LVL3:
 157 003c 0133     		adds	r3, r3, #1	@ ivtmp.29, ivtmp.29,
 158              	.LVL4:
 159              	@ inc/user_libs/tm_stm32f4_gpio.c:73: 	for (i = 0x00; i < 0x10; i++) {
  73:inc/user_libs/tm_stm32f4_gpio.c **** 		/* Pin is set */
 160              		.loc 1 73 0 discriminator 2
 161 003e 102B     		cmp	r3, #16	@ ivtmp.29,
 162 0040 EAD1     		bne	.L3	@,
 163              	@ inc/user_libs/tm_stm32f4_gpio.c:83: }
  83:inc/user_libs/tm_stm32f4_gpio.c **** 
 164              		.loc 1 83 0
 165 0042 F0BD     		pop	{r4, r5, r6, r7, pc}	@
 166              	.L9:
 167              		.align	2
 168              	.L8:
 169 0044 00000000 		.word	.LANCHOR0
 170              		.cfi_endproc
 171              	.LFE112:
 172              		.size	TM_GPIO_DeInit, .-TM_GPIO_DeInit
 173              		.align	1
 174              		.global	TM_GPIO_SetPinAsInput
 175              		.syntax unified
 176              		.thumb
 177              		.thumb_func
 178              		.fpu softvfp
 179              		.type	TM_GPIO_SetPinAsInput, %function
 180              	TM_GPIO_SetPinAsInput:
 181              	.LFB113:
  85:inc/user_libs/tm_stm32f4_gpio.c **** 	uint8_t i;
 182              		.loc 1 85 0
 183              		.cfi_startproc
 184              		@ args = 0, pretend = 0, frame = 0
 185              		@ frame_needed = 0, uses_anonymous_args = 0
 186              	.LVL5:
 187 0048 30B5     		push	{r4, r5, lr}	@
 188              	.LCFI1:
 189              		.cfi_def_cfa_offset 12
 190              		.cfi_offset 4, -12
 191              		.cfi_offset 5, -8
 192              		.cfi_offset 14, -4
 193              	@ inc/user_libs/tm_stm32f4_gpio.c:85: void TM_GPIO_SetPinAsInput(GPIO_TypeDef* GPIOx, uint16_t GPIO
  85:inc/user_libs/tm_stm32f4_gpio.c **** 	uint8_t i;
 194              		.loc 1 85 0
 195 004a 0023     		movs	r3, #0	@ ivtmp.39,
 196              	@ inc/user_libs/tm_stm32f4_gpio.c:92: 			GPIOx->MODER &= ~(0x03 << (2 * i));
  92:inc/user_libs/tm_stm32f4_gpio.c **** 		}
 197              		.loc 1 92 0
 198 004c 0325     		movs	r5, #3	@ tmp132,
 199              	.LVL6:
 200              	.L12:
ARM GAS  /tmp/ccFYZd0r.s 			page 8


 201              	@ inc/user_libs/tm_stm32f4_gpio.c:90: 		if (GPIO_Pin & (1 << i)) {
  90:inc/user_libs/tm_stm32f4_gpio.c **** 			/* Set 00 bits combination for input */
 202              		.loc 1 90 0
 203 004e 41FA03F2 		asr	r2, r1, r3	@ tmp126, GPIO_Pin, ivtmp.39
 204 0052 D207     		lsls	r2, r2, #31	@, tmp126,
 205 0054 06D5     		bpl	.L11	@,
 206              	@ inc/user_libs/tm_stm32f4_gpio.c:92: 			GPIOx->MODER &= ~(0x03 << (2 * i));
  92:inc/user_libs/tm_stm32f4_gpio.c **** 		}
 207              		.loc 1 92 0
 208 0056 0268     		ldr	r2, [r0]	@ _5, GPIOx_16(D)->MODER
 209 0058 5C00     		lsls	r4, r3, #1	@ tmp128, ivtmp.39,
 210 005a 05FA04F4 		lsl	r4, r5, r4	@ tmp129, tmp132, tmp128
 211 005e 22EA0402 		bic	r2, r2, r4	@ _10, _5, tmp129
 212 0062 0260     		str	r2, [r0]	@ _10, GPIOx_16(D)->MODER
 213              	.L11:
 214              	.LVL7:
 215 0064 0133     		adds	r3, r3, #1	@ ivtmp.39, ivtmp.39,
 216              	.LVL8:
 217              	@ inc/user_libs/tm_stm32f4_gpio.c:88: 	for (i = 0x00; i < 0x10; i++) {
  88:inc/user_libs/tm_stm32f4_gpio.c **** 		/* Pin is set */
 218              		.loc 1 88 0 discriminator 2
 219 0066 102B     		cmp	r3, #16	@ ivtmp.39,
 220 0068 F1D1     		bne	.L12	@,
 221              	@ inc/user_libs/tm_stm32f4_gpio.c:95: }
  95:inc/user_libs/tm_stm32f4_gpio.c **** 
 222              		.loc 1 95 0
 223 006a 30BD     		pop	{r4, r5, pc}	@
 224              		.cfi_endproc
 225              	.LFE113:
 226              		.size	TM_GPIO_SetPinAsInput, .-TM_GPIO_SetPinAsInput
 227              		.align	1
 228              		.global	TM_GPIO_SetPinAsOutput
 229              		.syntax unified
 230              		.thumb
 231              		.thumb_func
 232              		.fpu softvfp
 233              		.type	TM_GPIO_SetPinAsOutput, %function
 234              	TM_GPIO_SetPinAsOutput:
 235              	.LFB114:
  97:inc/user_libs/tm_stm32f4_gpio.c **** 	uint8_t i;
 236              		.loc 1 97 0
 237              		.cfi_startproc
 238              		@ args = 0, pretend = 0, frame = 0
 239              		@ frame_needed = 0, uses_anonymous_args = 0
 240              	.LVL9:
 241 006c F0B5     		push	{r4, r5, r6, r7, lr}	@
 242              	.LCFI2:
 243              		.cfi_def_cfa_offset 20
 244              		.cfi_offset 4, -20
 245              		.cfi_offset 5, -16
 246              		.cfi_offset 6, -12
 247              		.cfi_offset 7, -8
 248              		.cfi_offset 14, -4
 249              	@ inc/user_libs/tm_stm32f4_gpio.c:97: void TM_GPIO_SetPinAsOutput(GPIO_TypeDef* GPIOx, uint16_t GPI
  97:inc/user_libs/tm_stm32f4_gpio.c **** 	uint8_t i;
 250              		.loc 1 97 0
 251 006e 0023     		movs	r3, #0	@ ivtmp.48,
ARM GAS  /tmp/ccFYZd0r.s 			page 9


 252              	@ inc/user_libs/tm_stm32f4_gpio.c:104: 			GPIOx->MODER = (GPIOx->MODER & ~(0x03 << (2 * i))) | (0x0
 104:inc/user_libs/tm_stm32f4_gpio.c **** 		}
 253              		.loc 1 104 0
 254 0070 0325     		movs	r5, #3	@ tmp137,
 255 0072 0126     		movs	r6, #1	@ tmp138,
 256              	.LVL10:
 257              	.L19:
 258              	@ inc/user_libs/tm_stm32f4_gpio.c:102: 		if (GPIO_Pin & (1 << i)) {
 102:inc/user_libs/tm_stm32f4_gpio.c **** 			/* Set 01 bits combination for output */
 259              		.loc 1 102 0
 260 0074 41FA03F2 		asr	r2, r1, r3	@ tmp129, GPIO_Pin, ivtmp.48
 261 0078 D207     		lsls	r2, r2, #31	@, tmp129,
 262 007a 09D5     		bpl	.L18	@,
 263              	@ inc/user_libs/tm_stm32f4_gpio.c:104: 			GPIOx->MODER = (GPIOx->MODER & ~(0x03 << (2 * i))) | (0x0
 104:inc/user_libs/tm_stm32f4_gpio.c **** 		}
 264              		.loc 1 104 0
 265 007c 0268     		ldr	r2, [r0]	@ _5, GPIOx_19(D)->MODER
 266 007e 5C00     		lsls	r4, r3, #1	@ _22, ivtmp.48,
 267 0080 05FA04F7 		lsl	r7, r5, r4	@ tmp131, tmp137, _22
 268 0084 22EA0702 		bic	r2, r2, r7	@ tmp134, _5, tmp131
 269 0088 06FA04F4 		lsl	r4, r6, r4	@ tmp135, tmp138, _22
 270 008c 2243     		orrs	r2, r2, r4	@, _13, tmp134, tmp135
 271 008e 0260     		str	r2, [r0]	@ _13, GPIOx_19(D)->MODER
 272              	.L18:
 273              	.LVL11:
 274 0090 0133     		adds	r3, r3, #1	@ ivtmp.48, ivtmp.48,
 275              	.LVL12:
 276              	@ inc/user_libs/tm_stm32f4_gpio.c:100: 	for (i = 0x00; i < 0x10; i++) {
 100:inc/user_libs/tm_stm32f4_gpio.c **** 		/* Pin is set */
 277              		.loc 1 100 0 discriminator 2
 278 0092 102B     		cmp	r3, #16	@ ivtmp.48,
 279 0094 EED1     		bne	.L19	@,
 280              	@ inc/user_libs/tm_stm32f4_gpio.c:107: }
 107:inc/user_libs/tm_stm32f4_gpio.c **** 
 281              		.loc 1 107 0
 282 0096 F0BD     		pop	{r4, r5, r6, r7, pc}	@
 283              		.cfi_endproc
 284              	.LFE114:
 285              		.size	TM_GPIO_SetPinAsOutput, .-TM_GPIO_SetPinAsOutput
 286              		.align	1
 287              		.global	TM_GPIO_SetPinAsAnalog
 288              		.syntax unified
 289              		.thumb
 290              		.thumb_func
 291              		.fpu softvfp
 292              		.type	TM_GPIO_SetPinAsAnalog, %function
 293              	TM_GPIO_SetPinAsAnalog:
 294              	.LFB115:
 109:inc/user_libs/tm_stm32f4_gpio.c **** 	uint8_t i;
 295              		.loc 1 109 0
 296              		.cfi_startproc
 297              		@ args = 0, pretend = 0, frame = 0
 298              		@ frame_needed = 0, uses_anonymous_args = 0
 299              	.LVL13:
 300 0098 30B5     		push	{r4, r5, lr}	@
 301              	.LCFI3:
 302              		.cfi_def_cfa_offset 12
ARM GAS  /tmp/ccFYZd0r.s 			page 10


 303              		.cfi_offset 4, -12
 304              		.cfi_offset 5, -8
 305              		.cfi_offset 14, -4
 306              	@ inc/user_libs/tm_stm32f4_gpio.c:109: void TM_GPIO_SetPinAsAnalog(GPIO_TypeDef* GPIOx, uint16_t GP
 109:inc/user_libs/tm_stm32f4_gpio.c **** 	uint8_t i;
 307              		.loc 1 109 0
 308 009a 0023     		movs	r3, #0	@ ivtmp.57,
 309              	@ inc/user_libs/tm_stm32f4_gpio.c:116: 			GPIOx->MODER |= (0x03 << (2 * i));
 116:inc/user_libs/tm_stm32f4_gpio.c **** 		}
 310              		.loc 1 116 0
 311 009c 0324     		movs	r4, #3	@ tmp130,
 312              	.LVL14:
 313              	.L26:
 314              	@ inc/user_libs/tm_stm32f4_gpio.c:114: 		if (GPIO_Pin & (1 << i)) {
 114:inc/user_libs/tm_stm32f4_gpio.c **** 			/* Set 11 bits combination for analog mode */
 315              		.loc 1 114 0
 316 009e 41FA03F2 		asr	r2, r1, r3	@ tmp125, GPIO_Pin, ivtmp.57
 317 00a2 D207     		lsls	r2, r2, #31	@, tmp125,
 318 00a4 05D5     		bpl	.L25	@,
 319              	@ inc/user_libs/tm_stm32f4_gpio.c:116: 			GPIOx->MODER |= (0x03 << (2 * i));
 116:inc/user_libs/tm_stm32f4_gpio.c **** 		}
 320              		.loc 1 116 0
 321 00a6 0568     		ldr	r5, [r0]	@ _5, GPIOx_15(D)->MODER
 322 00a8 5A00     		lsls	r2, r3, #1	@ tmp127, ivtmp.57,
 323 00aa 04FA02F2 		lsl	r2, r4, r2	@ tmp128, tmp130, tmp127
 324 00ae 2A43     		orrs	r2, r2, r5	@, _9, tmp128, _5
 325 00b0 0260     		str	r2, [r0]	@ _9, GPIOx_15(D)->MODER
 326              	.L25:
 327              	.LVL15:
 328 00b2 0133     		adds	r3, r3, #1	@ ivtmp.57, ivtmp.57,
 329              	.LVL16:
 330              	@ inc/user_libs/tm_stm32f4_gpio.c:112: 	for (i = 0x00; i < 0x10; i++) {
 112:inc/user_libs/tm_stm32f4_gpio.c **** 		/* Pin is set */
 331              		.loc 1 112 0 discriminator 2
 332 00b4 102B     		cmp	r3, #16	@ ivtmp.57,
 333 00b6 F2D1     		bne	.L26	@,
 334              	@ inc/user_libs/tm_stm32f4_gpio.c:119: }
 119:inc/user_libs/tm_stm32f4_gpio.c **** 
 335              		.loc 1 119 0
 336 00b8 30BD     		pop	{r4, r5, pc}	@
 337              		.cfi_endproc
 338              	.LFE115:
 339              		.size	TM_GPIO_SetPinAsAnalog, .-TM_GPIO_SetPinAsAnalog
 340              		.align	1
 341              		.global	TM_GPIO_SetPinAsAlternate
 342              		.syntax unified
 343              		.thumb
 344              		.thumb_func
 345              		.fpu softvfp
 346              		.type	TM_GPIO_SetPinAsAlternate, %function
 347              	TM_GPIO_SetPinAsAlternate:
 348              	.LFB116:
 121:inc/user_libs/tm_stm32f4_gpio.c **** 	uint8_t i;
 349              		.loc 1 121 0
 350              		.cfi_startproc
 351              		@ args = 0, pretend = 0, frame = 0
 352              		@ frame_needed = 0, uses_anonymous_args = 0
ARM GAS  /tmp/ccFYZd0r.s 			page 11


 353              	.LVL17:
 354 00ba F0B5     		push	{r4, r5, r6, r7, lr}	@
 355              	.LCFI4:
 356              		.cfi_def_cfa_offset 20
 357              		.cfi_offset 4, -20
 358              		.cfi_offset 5, -16
 359              		.cfi_offset 6, -12
 360              		.cfi_offset 7, -8
 361              		.cfi_offset 14, -4
 362              	@ inc/user_libs/tm_stm32f4_gpio.c:121: void TM_GPIO_SetPinAsAlternate(GPIO_TypeDef* GPIOx, uint16_t
 121:inc/user_libs/tm_stm32f4_gpio.c **** 	uint8_t i;
 363              		.loc 1 121 0
 364 00bc 0023     		movs	r3, #0	@ ivtmp.66,
 365              	@ inc/user_libs/tm_stm32f4_gpio.c:132: 		GPIOx->MODER = (GPIOx->MODER & ~(0x03 << (2 * i))) | (0x02
 132:inc/user_libs/tm_stm32f4_gpio.c **** 	}
 366              		.loc 1 132 0
 367 00be 0325     		movs	r5, #3	@ tmp137,
 368 00c0 0226     		movs	r6, #2	@ tmp138,
 369              	.LVL18:
 370              	.L33:
 371              	@ inc/user_libs/tm_stm32f4_gpio.c:127: 		if ((GPIO_Pin & (1 << i)) == 0) {
 127:inc/user_libs/tm_stm32f4_gpio.c **** 			continue;
 372              		.loc 1 127 0
 373 00c2 41FA03F2 		asr	r2, r1, r3	@ tmp129, GPIO_Pin, ivtmp.66
 374 00c6 D207     		lsls	r2, r2, #31	@, tmp129,
 375 00c8 09D5     		bpl	.L32	@,
 376              	@ inc/user_libs/tm_stm32f4_gpio.c:132: 		GPIOx->MODER = (GPIOx->MODER & ~(0x03 << (2 * i))) | (0x02
 132:inc/user_libs/tm_stm32f4_gpio.c **** 	}
 377              		.loc 1 132 0
 378 00ca 0268     		ldr	r2, [r0]	@ _5, GPIOx_19(D)->MODER
 379 00cc 5C00     		lsls	r4, r3, #1	@ _22, ivtmp.66,
 380 00ce 05FA04F7 		lsl	r7, r5, r4	@ tmp131, tmp137, _22
 381 00d2 22EA0702 		bic	r2, r2, r7	@ tmp134, _5, tmp131
 382 00d6 06FA04F4 		lsl	r4, r6, r4	@ tmp135, tmp138, _22
 383 00da 2243     		orrs	r2, r2, r4	@, _13, tmp134, tmp135
 384 00dc 0260     		str	r2, [r0]	@ _13, GPIOx_19(D)->MODER
 385              	.L32:
 386              	.LVL19:
 387 00de 0133     		adds	r3, r3, #1	@ ivtmp.66, ivtmp.66,
 388              	.LVL20:
 389              	@ inc/user_libs/tm_stm32f4_gpio.c:125: 	for (i = 0; i < 0x10; i++) {
 125:inc/user_libs/tm_stm32f4_gpio.c **** 		/* Check pin */
 390              		.loc 1 125 0 discriminator 2
 391 00e0 102B     		cmp	r3, #16	@ ivtmp.66,
 392 00e2 EED1     		bne	.L33	@,
 393              	@ inc/user_libs/tm_stm32f4_gpio.c:134: }
 134:inc/user_libs/tm_stm32f4_gpio.c **** 
 394              		.loc 1 134 0
 395 00e4 F0BD     		pop	{r4, r5, r6, r7, pc}	@
 396              		.cfi_endproc
 397              	.LFE116:
 398              		.size	TM_GPIO_SetPinAsAlternate, .-TM_GPIO_SetPinAsAlternate
 399              		.align	1
 400              		.global	TM_GPIO_SetPullResistor
 401              		.syntax unified
 402              		.thumb
 403              		.thumb_func
ARM GAS  /tmp/ccFYZd0r.s 			page 12


 404              		.fpu softvfp
 405              		.type	TM_GPIO_SetPullResistor, %function
 406              	TM_GPIO_SetPullResistor:
 407              	.LFB117:
 136:inc/user_libs/tm_stm32f4_gpio.c **** 	uint8_t pinpos;
 408              		.loc 1 136 0
 409              		.cfi_startproc
 410              		@ args = 0, pretend = 0, frame = 0
 411              		@ frame_needed = 0, uses_anonymous_args = 0
 412              	.LVL21:
 413 00e6 F0B5     		push	{r4, r5, r6, r7, lr}	@
 414              	.LCFI5:
 415              		.cfi_def_cfa_offset 20
 416              		.cfi_offset 4, -20
 417              		.cfi_offset 5, -16
 418              		.cfi_offset 6, -12
 419              		.cfi_offset 7, -8
 420              		.cfi_offset 14, -4
 421              	@ inc/user_libs/tm_stm32f4_gpio.c:136: void TM_GPIO_SetPullResistor(GPIO_TypeDef* GPIOx, uint16_t G
 136:inc/user_libs/tm_stm32f4_gpio.c **** 	uint8_t pinpos;
 422              		.loc 1 136 0
 423 00e8 0023     		movs	r3, #0	@ ivtmp.75,
 424              	@ inc/user_libs/tm_stm32f4_gpio.c:147: 		GPIOx->PUPDR = (GPIOx->PUPDR & ~(0x03 << (2 * pinpos))) | 
 147:inc/user_libs/tm_stm32f4_gpio.c **** 	}
 425              		.loc 1 147 0
 426 00ea 0326     		movs	r6, #3	@ tmp138,
 427              	.LVL22:
 428              	.L40:
 429              	@ inc/user_libs/tm_stm32f4_gpio.c:142: 		if ((GPIO_Pin & (1 << pinpos)) == 0) {
 142:inc/user_libs/tm_stm32f4_gpio.c **** 			continue;
 430              		.loc 1 142 0
 431 00ec 41FA03F4 		asr	r4, r1, r3	@ tmp131, GPIO_Pin, ivtmp.75
 432 00f0 E407     		lsls	r4, r4, #31	@, tmp131,
 433 00f2 09D5     		bpl	.L39	@,
 434              	@ inc/user_libs/tm_stm32f4_gpio.c:147: 		GPIOx->PUPDR = (GPIOx->PUPDR & ~(0x03 << (2 * pinpos))) | 
 147:inc/user_libs/tm_stm32f4_gpio.c **** 	}
 435              		.loc 1 147 0
 436 00f4 C468     		ldr	r4, [r0, #12]	@ _5, GPIOx_20(D)->PUPDR
 437 00f6 5D00     		lsls	r5, r3, #1	@ _24, ivtmp.75,
 438 00f8 06FA05F7 		lsl	r7, r6, r5	@ tmp133, tmp138, _24
 439 00fc 24EA0704 		bic	r4, r4, r7	@ tmp136, _5, tmp133
 440 0100 02FA05F5 		lsl	r5, r2, r5	@ tmp137, GPIO_PuPd, _24
 441 0104 2C43     		orrs	r4, r4, r5	@, _14, tmp136, tmp137
 442 0106 C460     		str	r4, [r0, #12]	@ _14, GPIOx_20(D)->PUPDR
 443              	.L39:
 444              	.LVL23:
 445 0108 0133     		adds	r3, r3, #1	@ ivtmp.75, ivtmp.75,
 446              	.LVL24:
 447              	@ inc/user_libs/tm_stm32f4_gpio.c:140: 	for (pinpos = 0; pinpos < 0x10; pinpos++) {
 140:inc/user_libs/tm_stm32f4_gpio.c **** 		/* Check if pin available */
 448              		.loc 1 140 0 discriminator 2
 449 010a 102B     		cmp	r3, #16	@ ivtmp.75,
 450 010c EED1     		bne	.L40	@,
 451              	@ inc/user_libs/tm_stm32f4_gpio.c:149: }
 149:inc/user_libs/tm_stm32f4_gpio.c **** 
 452              		.loc 1 149 0
 453 010e F0BD     		pop	{r4, r5, r6, r7, pc}	@
ARM GAS  /tmp/ccFYZd0r.s 			page 13


 454              		.cfi_endproc
 455              	.LFE117:
 456              		.size	TM_GPIO_SetPullResistor, .-TM_GPIO_SetPullResistor
 457              		.align	1
 458              		.global	TM_GPIO_Lock
 459              		.syntax unified
 460              		.thumb
 461              		.thumb_func
 462              		.fpu softvfp
 463              		.type	TM_GPIO_Lock, %function
 464              	TM_GPIO_Lock:
 465              	.LFB118:
 151:inc/user_libs/tm_stm32f4_gpio.c **** 	uint32_t d;
 466              		.loc 1 151 0
 467              		.cfi_startproc
 468              		@ args = 0, pretend = 0, frame = 0
 469              		@ frame_needed = 0, uses_anonymous_args = 0
 470              		@ link register save eliminated.
 471              	.LVL25:
 472              	@ inc/user_libs/tm_stm32f4_gpio.c:155: 	d = 0x00010000 | GPIO_Pin;
 155:inc/user_libs/tm_stm32f4_gpio.c **** 	
 473              		.loc 1 155 0
 474 0110 41F48033 		orr	r3, r1, #65536	@ d, GPIO_Pin,
 475              	.LVL26:
 476              	@ inc/user_libs/tm_stm32f4_gpio.c:158: 	GPIOx->LCKR = d;
 158:inc/user_libs/tm_stm32f4_gpio.c **** 	GPIOx->LCKR = GPIO_Pin;
 477              		.loc 1 158 0
 478 0114 C361     		str	r3, [r0, #28]	@ d, GPIOx_7(D)->LCKR
 479              	@ inc/user_libs/tm_stm32f4_gpio.c:159: 	GPIOx->LCKR = GPIO_Pin;
 159:inc/user_libs/tm_stm32f4_gpio.c **** 	GPIOx->LCKR = d;
 480              		.loc 1 159 0
 481 0116 C161     		str	r1, [r0, #28]	@ GPIO_Pin, GPIOx_7(D)->LCKR
 482              	@ inc/user_libs/tm_stm32f4_gpio.c:160: 	GPIOx->LCKR = d;
 160:inc/user_libs/tm_stm32f4_gpio.c **** 	
 483              		.loc 1 160 0
 484 0118 C361     		str	r3, [r0, #28]	@ d, GPIOx_7(D)->LCKR
 485              	@ inc/user_libs/tm_stm32f4_gpio.c:163: 	(void)GPIOx->LCKR;
 163:inc/user_libs/tm_stm32f4_gpio.c **** 	(void)GPIOx->LCKR;
 486              		.loc 1 163 0
 487 011a C369     		ldr	r3, [r0, #28]	@ vol.6_11, GPIOx_7(D)->LCKR
 488              	.LVL27:
 489              	@ inc/user_libs/tm_stm32f4_gpio.c:164: 	(void)GPIOx->LCKR;
 164:inc/user_libs/tm_stm32f4_gpio.c **** }
 490              		.loc 1 164 0
 491 011c C369     		ldr	r3, [r0, #28]	@ vol.7_12, GPIOx_7(D)->LCKR
 492              	@ inc/user_libs/tm_stm32f4_gpio.c:165: }
 165:inc/user_libs/tm_stm32f4_gpio.c **** 
 493              		.loc 1 165 0
 494 011e 7047     		bx	lr	@
 495              		.cfi_endproc
 496              	.LFE118:
 497              		.size	TM_GPIO_Lock, .-TM_GPIO_Lock
 498              		.align	1
 499              		.global	TM_GPIO_GetPinSource
 500              		.syntax unified
 501              		.thumb
 502              		.thumb_func
ARM GAS  /tmp/ccFYZd0r.s 			page 14


 503              		.fpu softvfp
 504              		.type	TM_GPIO_GetPinSource, %function
 505              	TM_GPIO_GetPinSource:
 506              	.LFB119:
 167:inc/user_libs/tm_stm32f4_gpio.c **** 	uint16_t pinsource = 0;
 507              		.loc 1 167 0
 508              		.cfi_startproc
 509              		@ args = 0, pretend = 0, frame = 0
 510              		@ frame_needed = 0, uses_anonymous_args = 0
 511              		@ link register save eliminated.
 512              	.LVL28:
 513              	@ inc/user_libs/tm_stm32f4_gpio.c:167: uint16_t TM_GPIO_GetPinSource(uint16_t GPIO_Pin) {
 167:inc/user_libs/tm_stm32f4_gpio.c **** 	uint16_t pinsource = 0;
 514              		.loc 1 167 0
 515 0120 0346     		mov	r3, r0	@ GPIO_Pin, GPIO_Pin
 516              	@ inc/user_libs/tm_stm32f4_gpio.c:171: 	while (GPIO_Pin > 1) {
 171:inc/user_libs/tm_stm32f4_gpio.c **** 		/* Increase pinsource */
 517              		.loc 1 171 0
 518 0122 0022     		movs	r2, #0	@ ivtmp.86,
 519              	.LVL29:
 520              	.L47:
 521 0124 012B     		cmp	r3, #1	@ GPIO_Pin,
 522 0126 90B2     		uxth	r0, r2	@ <retval>, ivtmp.86
 523              	.LVL30:
 524 0128 02F10102 		add	r2, r2, #1	@ ivtmp.86, ivtmp.86,
 525 012c 00D8     		bhi	.L48	@,
 526              	@ inc/user_libs/tm_stm32f4_gpio.c:180: }
 180:inc/user_libs/tm_stm32f4_gpio.c **** 
 527              		.loc 1 180 0
 528 012e 7047     		bx	lr	@
 529              	.L48:
 530              	.LVL31:
 531              	@ inc/user_libs/tm_stm32f4_gpio.c:175: 		GPIO_Pin >>= 1;
 175:inc/user_libs/tm_stm32f4_gpio.c **** 	}
 532              		.loc 1 175 0
 533 0130 5B08     		lsrs	r3, r3, #1	@ GPIO_Pin, GPIO_Pin,
 534              	.LVL32:
 535 0132 F7E7     		b	.L47	@
 536              		.cfi_endproc
 537              	.LFE119:
 538              		.size	TM_GPIO_GetPinSource, .-TM_GPIO_GetPinSource
 539              		.align	1
 540              		.global	TM_GPIO_GetPortSource
 541              		.syntax unified
 542              		.thumb
 543              		.thumb_func
 544              		.fpu softvfp
 545              		.type	TM_GPIO_GetPortSource, %function
 546              	TM_GPIO_GetPortSource:
 547              	.LFB120:
 182:inc/user_libs/tm_stm32f4_gpio.c **** 	/* Get port source number */
 548              		.loc 1 182 0
 549              		.cfi_startproc
 550              		@ args = 0, pretend = 0, frame = 0
 551              		@ frame_needed = 0, uses_anonymous_args = 0
 552              		@ link register save eliminated.
 553              	.LVL33:
ARM GAS  /tmp/ccFYZd0r.s 			page 15


 554              	@ inc/user_libs/tm_stm32f4_gpio.c:185: 	return ((uint32_t)GPIOx - (GPIOA_BASE)) / ((GPIOB_BASE) - (
 555              		.loc 1 185 0
 556 0134 00F13F40 		add	r0, r0, #-1090519040	@ tmp116, GPIOx,
 557              	.LVL34:
 558 0138 00F57E00 		add	r0, r0, #16646144	@ tmp116, tmp116,
 559              	.LVL35:
 560              	@ inc/user_libs/tm_stm32f4_gpio.c:186: }
 186:inc/user_libs/tm_stm32f4_gpio.c **** }
 561              		.loc 1 186 0
 562 013c C0F38F20 		ubfx	r0, r0, #10, #16	@, tmp116,,
 563              	.LVL36:
 564 0140 7047     		bx	lr	@
 565              		.cfi_endproc
 566              	.LFE120:
 567              		.size	TM_GPIO_GetPortSource, .-TM_GPIO_GetPortSource
 568              		.align	1
 569              		.global	TM_GPIO_INT_EnableClock
 570              		.syntax unified
 571              		.thumb
 572              		.thumb_func
 573              		.fpu softvfp
 574              		.type	TM_GPIO_INT_EnableClock, %function
 575              	TM_GPIO_INT_EnableClock:
 576              	.LFB121:
 187:inc/user_libs/tm_stm32f4_gpio.c **** 
 188:inc/user_libs/tm_stm32f4_gpio.c **** /* Private functions */
 189:inc/user_libs/tm_stm32f4_gpio.c **** void TM_GPIO_INT_EnableClock(GPIO_TypeDef* GPIOx) {
 577              		.loc 1 189 0
 578              		.cfi_startproc
 579              		@ args = 0, pretend = 0, frame = 0
 580              		@ frame_needed = 0, uses_anonymous_args = 0
 581              		@ link register save eliminated.
 582              	.LVL37:
 583              	@ inc/user_libs/tm_stm32f4_gpio.c:191: 	RCC->AHB1ENR |= (1 << TM_GPIO_GetPortSource(GPIOx));
 190:inc/user_libs/tm_stm32f4_gpio.c **** 	/* Set bit according to the 1 << portsourcenumber */
 191:inc/user_libs/tm_stm32f4_gpio.c **** 	RCC->AHB1ENR |= (1 << TM_GPIO_GetPortSource(GPIOx));
 584              		.loc 1 191 0
 585 0142 064A     		ldr	r2, .L51	@ tmp120,
 586              	.LBB20:
 587              	.LBB21:
 588              	@ inc/user_libs/tm_stm32f4_gpio.c:185: 	return ((uint32_t)GPIOx - (GPIOA_BASE)) / ((GPIOB_BASE) - (
 185:inc/user_libs/tm_stm32f4_gpio.c **** }
 589              		.loc 1 185 0
 590 0144 00F13F40 		add	r0, r0, #-1090519040	@ tmp121, GPIOx,
 591              	.LVL38:
 592 0148 00F57E00 		add	r0, r0, #16646144	@ tmp121, tmp121,
 593              	.LVL39:
 594              	.LBE21:
 595              	.LBE20:
 596              	@ inc/user_libs/tm_stm32f4_gpio.c:191: 	RCC->AHB1ENR |= (1 << TM_GPIO_GetPortSource(GPIOx));
 597              		.loc 1 191 0
 598 014c 116B     		ldr	r1, [r2, #48]	@ _2, MEM[(struct RCC_TypeDef *)1073887232B].AHB1ENR
 599 014e C0F38F23 		ubfx	r3, r0, #10, #16	@ tmp124, tmp121,,
 600 0152 0120     		movs	r0, #1	@ tmp127,
 601              	.LVL40:
 602 0154 9840     		lsls	r0, r0, r3	@ tmp126, tmp127, tmp124
 603 0156 0843     		orrs	r0, r0, r1	@, _4, tmp126, _2
ARM GAS  /tmp/ccFYZd0r.s 			page 16


 604 0158 1063     		str	r0, [r2, #48]	@ _4, MEM[(struct RCC_TypeDef *)1073887232B].AHB1ENR
 605              	@ inc/user_libs/tm_stm32f4_gpio.c:192: }
 192:inc/user_libs/tm_stm32f4_gpio.c **** }
 606              		.loc 1 192 0
 607 015a 7047     		bx	lr	@
 608              	.L52:
 609              		.align	2
 610              	.L51:
 611 015c 00380240 		.word	1073887232
 612              		.cfi_endproc
 613              	.LFE121:
 614              		.size	TM_GPIO_INT_EnableClock, .-TM_GPIO_INT_EnableClock
 615              		.align	1
 616              		.global	TM_GPIO_INT_DisableClock
 617              		.syntax unified
 618              		.thumb
 619              		.thumb_func
 620              		.fpu softvfp
 621              		.type	TM_GPIO_INT_DisableClock, %function
 622              	TM_GPIO_INT_DisableClock:
 623              	.LFB122:
 193:inc/user_libs/tm_stm32f4_gpio.c **** 
 194:inc/user_libs/tm_stm32f4_gpio.c **** void TM_GPIO_INT_DisableClock(GPIO_TypeDef* GPIOx) {
 624              		.loc 1 194 0
 625              		.cfi_startproc
 626              		@ args = 0, pretend = 0, frame = 0
 627              		@ frame_needed = 0, uses_anonymous_args = 0
 628              		@ link register save eliminated.
 629              	.LVL41:
 630              	@ inc/user_libs/tm_stm32f4_gpio.c:196: 	RCC->AHB1ENR &= ~(1 << TM_GPIO_GetPortSource(GPIOx));
 195:inc/user_libs/tm_stm32f4_gpio.c **** 	/* Clear bit according to the 1 << portsourcenumber */
 196:inc/user_libs/tm_stm32f4_gpio.c **** 	RCC->AHB1ENR &= ~(1 << TM_GPIO_GetPortSource(GPIOx));
 631              		.loc 1 196 0
 632 0160 0749     		ldr	r1, .L54	@ tmp121,
 633              	.LBB22:
 634              	.LBB23:
 635              	@ inc/user_libs/tm_stm32f4_gpio.c:185: 	return ((uint32_t)GPIOx - (GPIOA_BASE)) / ((GPIOB_BASE) - (
 185:inc/user_libs/tm_stm32f4_gpio.c **** }
 636              		.loc 1 185 0
 637 0162 00F13F40 		add	r0, r0, #-1090519040	@ tmp122, GPIOx,
 638              	.LVL42:
 639 0166 00F57E00 		add	r0, r0, #16646144	@ tmp122, tmp122,
 640              	.LVL43:
 641              	.LBE23:
 642              	.LBE22:
 643              	@ inc/user_libs/tm_stm32f4_gpio.c:196: 	RCC->AHB1ENR &= ~(1 << TM_GPIO_GetPortSource(GPIOx));
 644              		.loc 1 196 0
 645 016a 0B6B     		ldr	r3, [r1, #48]	@ _3, MEM[(struct RCC_TypeDef *)1073887232B].AHB1ENR
 646 016c C0F38F20 		ubfx	r0, r0, #10, #16	@ tmp125, tmp122,,
 647              	.LVL44:
 648 0170 0122     		movs	r2, #1	@ tmp128,
 649 0172 02FA00F0 		lsl	r0, r2, r0	@ tmp127, tmp128, tmp125
 650 0176 23EA0003 		bic	r3, r3, r0	@ _5, _3, tmp127
 651 017a 0B63     		str	r3, [r1, #48]	@ _5, MEM[(struct RCC_TypeDef *)1073887232B].AHB1ENR
 652              	@ inc/user_libs/tm_stm32f4_gpio.c:197: }
 197:inc/user_libs/tm_stm32f4_gpio.c **** }
 653              		.loc 1 197 0
ARM GAS  /tmp/ccFYZd0r.s 			page 17


 654 017c 7047     		bx	lr	@
 655              	.L55:
 656 017e 00BF     		.align	2
 657              	.L54:
 658 0180 00380240 		.word	1073887232
 659              		.cfi_endproc
 660              	.LFE122:
 661              		.size	TM_GPIO_INT_DisableClock, .-TM_GPIO_INT_DisableClock
 662              		.align	1
 663              		.global	TM_GPIO_INT_Init
 664              		.syntax unified
 665              		.thumb
 666              		.thumb_func
 667              		.fpu softvfp
 668              		.type	TM_GPIO_INT_Init, %function
 669              	TM_GPIO_INT_Init:
 670              	.LFB123:
 198:inc/user_libs/tm_stm32f4_gpio.c **** 
 199:inc/user_libs/tm_stm32f4_gpio.c **** void TM_GPIO_INT_Init(GPIO_TypeDef* GPIOx, uint16_t GPIO_Pin, TM_GPIO_Mode_t GPIO_Mode, TM_GPIO_OTy
 671              		.loc 1 199 0
 672              		.cfi_startproc
 673              		@ args = 8, pretend = 0, frame = 16
 674              		@ frame_needed = 0, uses_anonymous_args = 0
 675              	.LVL45:
 676 0184 2DE9F04F 		push	{r4, r5, r6, r7, r8, r9, r10, fp, lr}	@
 677              	.LCFI6:
 678              		.cfi_def_cfa_offset 36
 679              		.cfi_offset 4, -36
 680              		.cfi_offset 5, -32
 681              		.cfi_offset 6, -28
 682              		.cfi_offset 7, -24
 683              		.cfi_offset 8, -20
 684              		.cfi_offset 9, -16
 685              		.cfi_offset 10, -12
 686              		.cfi_offset 11, -8
 687              		.cfi_offset 14, -4
 688 0188 85B0     		sub	sp, sp, #20	@,,
 689              	.LCFI7:
 690              		.cfi_def_cfa_offset 56
 691              	.LBB24:
 692              	.LBB25:
 693              	@ inc/user_libs/tm_stm32f4_gpio.c:185: 	return ((uint32_t)GPIOx - (GPIOA_BASE)) / ((GPIOB_BASE) - (
 185:inc/user_libs/tm_stm32f4_gpio.c **** }
 694              		.loc 1 185 0
 695 018a 00F13F45 		add	r5, r0, #-1090519040	@ tmp169, GPIOx,
 696              	.LBE25:
 697              	.LBE24:
 698              	@ inc/user_libs/tm_stm32f4_gpio.c:199: void TM_GPIO_INT_Init(GPIO_TypeDef* GPIOx, uint16_t GPIO_Pin
 699              		.loc 1 199 0
 700 018e 9DF83840 		ldrb	r4, [sp, #56]	@ zero_extendqisi2	@ GPIO_PuPd, GPIO_PuPd
 701 0192 0294     		str	r4, [sp, #8]	@ GPIO_PuPd, %sfp
 702              	.LBB28:
 703              	.LBB26:
 704              	@ inc/user_libs/tm_stm32f4_gpio.c:185: 	return ((uint32_t)GPIOx - (GPIOA_BASE)) / ((GPIOB_BASE) - (
 185:inc/user_libs/tm_stm32f4_gpio.c **** }
 705              		.loc 1 185 0
 706 0194 05F57E05 		add	r5, r5, #16646144	@ tmp169, tmp169,
ARM GAS  /tmp/ccFYZd0r.s 			page 18


 707              	.LVL46:
 708              	.LBE26:
 709              	.LBE28:
 710              	@ inc/user_libs/tm_stm32f4_gpio.c:199: void TM_GPIO_INT_Init(GPIO_TypeDef* GPIOx, uint16_t GPIO_Pin
 711              		.loc 1 199 0
 712 0198 9DF83C40 		ldrb	r4, [sp, #60]	@ zero_extendqisi2	@ GPIO_Speed, GPIO_Speed
 713              	@ inc/user_libs/tm_stm32f4_gpio.c:211: 		GPIO_UsedPins[ptr] |= 1 << pinpos;
 200:inc/user_libs/tm_stm32f4_gpio.c **** 	uint8_t pinpos;
 201:inc/user_libs/tm_stm32f4_gpio.c **** 	uint8_t ptr = TM_GPIO_GetPortSource(GPIOx);
 202:inc/user_libs/tm_stm32f4_gpio.c **** 	
 203:inc/user_libs/tm_stm32f4_gpio.c **** 	/* Go through all pins */
 204:inc/user_libs/tm_stm32f4_gpio.c **** 	for (pinpos = 0; pinpos < 0x10; pinpos++) {
 205:inc/user_libs/tm_stm32f4_gpio.c **** 		/* Check if pin available */
 206:inc/user_libs/tm_stm32f4_gpio.c **** 		if ((GPIO_Pin & (1 << pinpos)) == 0) {
 207:inc/user_libs/tm_stm32f4_gpio.c **** 			continue;
 208:inc/user_libs/tm_stm32f4_gpio.c **** 		}
 209:inc/user_libs/tm_stm32f4_gpio.c **** 		
 210:inc/user_libs/tm_stm32f4_gpio.c **** 		/* Pin is used */
 211:inc/user_libs/tm_stm32f4_gpio.c **** 		GPIO_UsedPins[ptr] |= 1 << pinpos;
 714              		.loc 1 211 0
 715 019c DFF8A480 		ldr	r8, .L62	@ tmp197,
 716              	@ inc/user_libs/tm_stm32f4_gpio.c:199: void TM_GPIO_INT_Init(GPIO_TypeDef* GPIOx, uint16_t GPIO_Pin
 199:inc/user_libs/tm_stm32f4_gpio.c **** 	uint8_t pinpos;
 717              		.loc 1 199 0
 718 01a0 0394     		str	r4, [sp, #12]	@ GPIO_Speed, %sfp
 719              	@ inc/user_libs/tm_stm32f4_gpio.c:220: 		if (GPIO_Mode == TM_GPIO_Mode_OUT || GPIO_Mode == TM_GPIO_
 212:inc/user_libs/tm_stm32f4_gpio.c **** 		
 213:inc/user_libs/tm_stm32f4_gpio.c **** 		/* Set GPIO PUPD register */
 214:inc/user_libs/tm_stm32f4_gpio.c **** 		GPIOx->PUPDR = (GPIOx->PUPDR & ~(0x03 << (2 * pinpos))) | ((uint32_t)(GPIO_PuPd << (2 * pinpos)))
 215:inc/user_libs/tm_stm32f4_gpio.c **** 		
 216:inc/user_libs/tm_stm32f4_gpio.c **** 		/* Set GPIO MODE register */
 217:inc/user_libs/tm_stm32f4_gpio.c **** 		GPIOx->MODER = (GPIOx->MODER & ~((uint32_t)(0x03 << (2 * pinpos)))) | ((uint32_t)(GPIO_Mode << (2
 218:inc/user_libs/tm_stm32f4_gpio.c **** 		
 219:inc/user_libs/tm_stm32f4_gpio.c **** 		/* Set only if output or alternate functions */
 220:inc/user_libs/tm_stm32f4_gpio.c **** 		if (GPIO_Mode == TM_GPIO_Mode_OUT || GPIO_Mode == TM_GPIO_Mode_AF) {		
 720              		.loc 1 220 0
 721 01a2 02F1FF3E 		add	lr, r2, #-1	@ tmp199, GPIO_Mode,
 722              	@ inc/user_libs/tm_stm32f4_gpio.c:199: void TM_GPIO_INT_Init(GPIO_TypeDef* GPIOx, uint16_t GPIO_Pin
 199:inc/user_libs/tm_stm32f4_gpio.c **** 	uint8_t pinpos;
 723              		.loc 1 199 0
 724 01a6 0193     		str	r3, [sp, #4]	@ GPIO_OType, %sfp
 725              	.LBB29:
 726              	.LBB27:
 727              	@ inc/user_libs/tm_stm32f4_gpio.c:185: 	return ((uint32_t)GPIOx - (GPIOA_BASE)) / ((GPIOB_BASE) - (
 185:inc/user_libs/tm_stm32f4_gpio.c **** }
 728              		.loc 1 185 0
 729 01a8 0024     		movs	r4, #0	@ ivtmp.100,
 730              	.LBE27:
 731              	.LBE29:
 732              	@ inc/user_libs/tm_stm32f4_gpio.c:211: 		GPIO_UsedPins[ptr] |= 1 << pinpos;
 211:inc/user_libs/tm_stm32f4_gpio.c **** 		
 733              		.loc 1 211 0
 734 01aa C5F38725 		ubfx	r5, r5, #10, #8	@ _5, tmp169,,
 735              	.LVL47:
 736              	@ inc/user_libs/tm_stm32f4_gpio.c:214: 		GPIOx->PUPDR = (GPIOx->PUPDR & ~(0x03 << (2 * pinpos))) | 
 214:inc/user_libs/tm_stm32f4_gpio.c **** 		
 737              		.loc 1 214 0
ARM GAS  /tmp/ccFYZd0r.s 			page 19


 738 01ae 4FF0030A 		mov	r10, #3	@ tmp198,
 739              	@ inc/user_libs/tm_stm32f4_gpio.c:220: 		if (GPIO_Mode == TM_GPIO_Mode_OUT || GPIO_Mode == TM_GPIO_
 740              		.loc 1 220 0
 741 01b2 5FFA8EFE 		uxtb	lr, lr	@ tmp200, tmp199
 742              	.LVL48:
 743              	.L60:
 744              	@ inc/user_libs/tm_stm32f4_gpio.c:206: 		if ((GPIO_Pin & (1 << pinpos)) == 0) {
 206:inc/user_libs/tm_stm32f4_gpio.c **** 			continue;
 745              		.loc 1 206 0
 746 01b6 41FA04F6 		asr	r6, r1, r4	@ tmp171, GPIO_Pin, ivtmp.100
 747 01ba F307     		lsls	r3, r6, #31	@, tmp171,
 748 01bc 3BD5     		bpl	.L58	@,
 749              	@ inc/user_libs/tm_stm32f4_gpio.c:211: 		GPIO_UsedPins[ptr] |= 1 << pinpos;
 211:inc/user_libs/tm_stm32f4_gpio.c **** 		
 750              		.loc 1 211 0
 751 01be 0123     		movs	r3, #1	@ tmp206,
 752 01c0 38F81560 		ldrh	r6, [r8, r5, lsl #1]	@, GPIO_UsedPins
 753              	@ inc/user_libs/tm_stm32f4_gpio.c:214: 		GPIOx->PUPDR = (GPIOx->PUPDR & ~(0x03 << (2 * pinpos))) | 
 214:inc/user_libs/tm_stm32f4_gpio.c **** 		
 754              		.loc 1 214 0
 755 01c4 D0F80CC0 		ldr	ip, [r0, #12]	@ _12, GPIOx_49(D)->PUPDR
 756              	@ inc/user_libs/tm_stm32f4_gpio.c:211: 		GPIO_UsedPins[ptr] |= 1 << pinpos;
 211:inc/user_libs/tm_stm32f4_gpio.c **** 		
 757              		.loc 1 211 0
 758 01c8 03FA04F9 		lsl	r9, r3, r4	@ _8, tmp206, ivtmp.100
 759 01cc 49EA0606 		orr	r6, r9, r6	@ tmp178, _8, tmp176
 760 01d0 28F81560 		strh	r6, [r8, r5, lsl #1]	@ movhi	@ tmp178, GPIO_UsedPins
 761 01d4 04FA03F6 		lsl	r6, r4, r3	@ _72, ivtmp.100,
 762              	@ inc/user_libs/tm_stm32f4_gpio.c:214: 		GPIOx->PUPDR = (GPIOx->PUPDR & ~(0x03 << (2 * pinpos))) | 
 214:inc/user_libs/tm_stm32f4_gpio.c **** 		
 763              		.loc 1 214 0
 764 01d8 0AFA06F7 		lsl	r7, r10, r6	@ _14, tmp198, _72
 765 01dc 029B     		ldr	r3, [sp, #8]	@ GPIO_PuPd, %sfp
 766 01de FF43     		mvns	r7, r7	@ tmp181, _14
 767 01e0 03FA06FB 		lsl	fp, r3, r6	@ tmp183, GPIO_PuPd, _72
 768 01e4 07EA0C0C 		and	ip, r7, ip	@ tmp182, tmp181, _12
 769 01e8 4CEA0B0C 		orr	ip, ip, fp	@ _21, tmp182, tmp183
 770 01ec C0F80CC0 		str	ip, [r0, #12]	@ _21, GPIOx_49(D)->PUPDR
 771              	@ inc/user_libs/tm_stm32f4_gpio.c:217: 		GPIOx->MODER = (GPIOx->MODER & ~((uint32_t)(0x03 << (2 * p
 217:inc/user_libs/tm_stm32f4_gpio.c **** 		
 772              		.loc 1 217 0
 773 01f0 D0F800C0 		ldr	ip, [r0]	@ _22, GPIOx_49(D)->MODER
 774 01f4 02FA06FB 		lsl	fp, r2, r6	@ tmp185, GPIO_Mode, _72
 775 01f8 0CEA070C 		and	ip, ip, r7	@ tmp184, _22, tmp181
 776 01fc 4CEA0B0C 		orr	ip, ip, fp	@ _29, tmp184, tmp185
 777              	@ inc/user_libs/tm_stm32f4_gpio.c:220: 		if (GPIO_Mode == TM_GPIO_Mode_OUT || GPIO_Mode == TM_GPIO_
 778              		.loc 1 220 0
 779 0200 BEF1010F 		cmp	lr, #1	@ tmp200,
 780              	@ inc/user_libs/tm_stm32f4_gpio.c:217: 		GPIOx->MODER = (GPIOx->MODER & ~((uint32_t)(0x03 << (2 * p
 217:inc/user_libs/tm_stm32f4_gpio.c **** 		
 781              		.loc 1 217 0
 782 0204 C0F800C0 		str	ip, [r0]	@ _29, GPIOx_49(D)->MODER
 783              	@ inc/user_libs/tm_stm32f4_gpio.c:220: 		if (GPIO_Mode == TM_GPIO_Mode_OUT || GPIO_Mode == TM_GPIO_
 784              		.loc 1 220 0
 785 0208 15D8     		bhi	.L58	@,
 786              	@ inc/user_libs/tm_stm32f4_gpio.c:222: 			GPIOx->OTYPER = (GPIOx->OTYPER & ~(uint16_t)(0x01 << pinp
 221:inc/user_libs/tm_stm32f4_gpio.c **** 			/* Set GPIO OTYPE register */
ARM GAS  /tmp/ccFYZd0r.s 			page 20


 222:inc/user_libs/tm_stm32f4_gpio.c **** 			GPIOx->OTYPER = (GPIOx->OTYPER & ~(uint16_t)(0x01 << pinpos)) | ((uint16_t)(GPIO_OType << pinpos
 787              		.loc 1 222 0
 788 020a D0F804C0 		ldr	ip, [r0, #4]	@ _31, GPIOx_49(D)->OTYPER
 789 020e 019B     		ldr	r3, [sp, #4]	@ GPIO_OType, %sfp
 790 0210 2CEA0909 		bic	r9, ip, r9	@ tmp189, _31, _8
 791 0214 03FA04FC 		lsl	ip, r3, r4	@ tmp190, GPIO_OType, ivtmp.100
 792 0218 1FFA8CFC 		uxth	ip, ip	@ tmp191, tmp190
 793 021c 49EA0C09 		orr	r9, r9, ip	@ _38, tmp189, tmp191
 794 0220 C0F80490 		str	r9, [r0, #4]	@ _38, GPIOx_49(D)->OTYPER
 795              	@ inc/user_libs/tm_stm32f4_gpio.c:225: 			GPIOx->OSPEEDR = (GPIOx->OSPEEDR & ~((uint32_t)(0x03 << (
 223:inc/user_libs/tm_stm32f4_gpio.c **** 			
 224:inc/user_libs/tm_stm32f4_gpio.c **** 			/* Set GPIO OSPEED register */
 225:inc/user_libs/tm_stm32f4_gpio.c **** 			GPIOx->OSPEEDR = (GPIOx->OSPEEDR & ~((uint32_t)(0x03 << (2 * pinpos)))) | ((uint32_t)(GPIO_Speed
 796              		.loc 1 225 0
 797 0224 D0F808C0 		ldr	ip, [r0, #8]	@ _39, GPIOx_49(D)->OSPEEDR
 798 0228 039B     		ldr	r3, [sp, #12]	@ GPIO_Speed, %sfp
 799 022a 07EA0C07 		and	r7, r7, ip	@ tmp193, tmp181, _39
 800 022e 03FA06F6 		lsl	r6, r3, r6	@ tmp194, GPIO_Speed, _72
 801 0232 3743     		orrs	r7, r7, r6	@, _44, tmp193, tmp194
 802 0234 8760     		str	r7, [r0, #8]	@ _44, GPIOx_49(D)->OSPEEDR
 803              	.L58:
 804              	.LVL49:
 805 0236 0134     		adds	r4, r4, #1	@ ivtmp.100, ivtmp.100,
 806              	.LVL50:
 807              	@ inc/user_libs/tm_stm32f4_gpio.c:204: 	for (pinpos = 0; pinpos < 0x10; pinpos++) {
 204:inc/user_libs/tm_stm32f4_gpio.c **** 		/* Check if pin available */
 808              		.loc 1 204 0 discriminator 2
 809 0238 102C     		cmp	r4, #16	@ ivtmp.100,
 810 023a BCD1     		bne	.L60	@,
 811              	@ inc/user_libs/tm_stm32f4_gpio.c:228: }
 226:inc/user_libs/tm_stm32f4_gpio.c **** 		}
 227:inc/user_libs/tm_stm32f4_gpio.c **** 	}
 228:inc/user_libs/tm_stm32f4_gpio.c **** }
 812              		.loc 1 228 0
 813 023c 05B0     		add	sp, sp, #20	@,,
 814              	.LCFI8:
 815              		.cfi_def_cfa_offset 36
 816              		@ sp needed	@
 817 023e BDE8F08F 		pop	{r4, r5, r6, r7, r8, r9, r10, fp, pc}	@
 818              	.LVL51:
 819              	.L63:
 820 0242 00BF     		.align	2
 821              	.L62:
 822 0244 00000000 		.word	.LANCHOR0
 823              		.cfi_endproc
 824              	.LFE123:
 825              		.size	TM_GPIO_INT_Init, .-TM_GPIO_INT_Init
 826              		.align	1
 827              		.global	TM_GPIO_Init
 828              		.syntax unified
 829              		.thumb
 830              		.thumb_func
 831              		.fpu softvfp
 832              		.type	TM_GPIO_Init, %function
 833              	TM_GPIO_Init:
 834              	.LFB110:
  29:inc/user_libs/tm_stm32f4_gpio.c **** 	/* Check input */
ARM GAS  /tmp/ccFYZd0r.s 			page 21


 835              		.loc 1 29 0
 836              		.cfi_startproc
 837              		@ args = 8, pretend = 0, frame = 0
 838              		@ frame_needed = 0, uses_anonymous_args = 0
 839              	.LVL52:
 840 0248 2DE9F047 		push	{r4, r5, r6, r7, r8, r9, r10, lr}	@
 841              	.LCFI9:
 842              		.cfi_def_cfa_offset 32
 843              		.cfi_offset 4, -32
 844              		.cfi_offset 5, -28
 845              		.cfi_offset 6, -24
 846              		.cfi_offset 7, -20
 847              		.cfi_offset 8, -16
 848              		.cfi_offset 9, -12
 849              		.cfi_offset 10, -8
 850              		.cfi_offset 14, -4
 851              	@ inc/user_libs/tm_stm32f4_gpio.c:29: void TM_GPIO_Init(GPIO_TypeDef* GPIOx, uint16_t GPIO_Pin, TM_
  29:inc/user_libs/tm_stm32f4_gpio.c **** 	/* Check input */
 852              		.loc 1 29 0
 853 024c 0546     		mov	r5, r0	@ GPIOx, GPIOx
 854 024e 1646     		mov	r6, r2	@ GPIO_Mode, GPIO_Mode
 855 0250 1F46     		mov	r7, r3	@ GPIO_OType, GPIO_OType
 856 0252 9DF82080 		ldrb	r8, [sp, #32]	@ zero_extendqisi2	@ GPIO_PuPd, GPIO_PuPd
 857 0256 9DF82490 		ldrb	r9, [sp, #36]	@ zero_extendqisi2	@ GPIO_Speed, GPIO_Speed
 858              	@ inc/user_libs/tm_stm32f4_gpio.c:31: 	if (GPIO_Pin == 0x00) {
  31:inc/user_libs/tm_stm32f4_gpio.c **** 		return;
 859              		.loc 1 31 0
 860 025a 0C46     		mov	r4, r1	@ GPIO_Pin, GPIO_Pin
 861 025c 59B1     		cbz	r1, .L64	@ GPIO_Pin,
 862              	@ inc/user_libs/tm_stm32f4_gpio.c:36: 	TM_GPIO_INT_EnableClock(GPIOx);
  36:inc/user_libs/tm_stm32f4_gpio.c **** 	
 863              		.loc 1 36 0
 864 025e FFF7FEFF 		bl	TM_GPIO_INT_EnableClock	@
 865              	.LVL53:
 866              	@ inc/user_libs/tm_stm32f4_gpio.c:39: 	TM_GPIO_INT_Init(GPIOx, GPIO_Pin, GPIO_Mode, GPIO_OType, GPI
  39:inc/user_libs/tm_stm32f4_gpio.c **** }
 867              		.loc 1 39 0
 868 0262 CDE90889 		strd	r8, r9, [sp, #32]	@ GPIO_PuPd, GPIO_Speed,,
 869              	.LVL54:
 870 0266 3B46     		mov	r3, r7	@, GPIO_OType
 871 0268 3246     		mov	r2, r6	@, GPIO_Mode
 872 026a 2146     		mov	r1, r4	@, GPIO_Pin
 873 026c 2846     		mov	r0, r5	@, GPIOx
 874              	@ inc/user_libs/tm_stm32f4_gpio.c:40: }
  40:inc/user_libs/tm_stm32f4_gpio.c **** 
 875              		.loc 1 40 0
 876 026e BDE8F047 		pop	{r4, r5, r6, r7, r8, r9, r10, lr}	@
 877              	.LCFI10:
 878              		.cfi_remember_state
 879              		.cfi_restore 14
 880              		.cfi_restore 10
 881              		.cfi_restore 9
 882              		.cfi_restore 8
 883              		.cfi_restore 7
 884              		.cfi_restore 6
 885              		.cfi_restore 5
 886              		.cfi_restore 4
ARM GAS  /tmp/ccFYZd0r.s 			page 22


 887              		.cfi_def_cfa_offset 0
 888              	.LVL55:
 889              	@ inc/user_libs/tm_stm32f4_gpio.c:39: 	TM_GPIO_INT_Init(GPIOx, GPIO_Pin, GPIO_Mode, GPIO_OType, GPI
  39:inc/user_libs/tm_stm32f4_gpio.c **** }
 890              		.loc 1 39 0
 891 0272 FFF7FEBF 		b	TM_GPIO_INT_Init	@
 892              	.LVL56:
 893              	.L64:
 894              	.LCFI11:
 895              		.cfi_restore_state
 896              	@ inc/user_libs/tm_stm32f4_gpio.c:40: }
  40:inc/user_libs/tm_stm32f4_gpio.c **** 
 897              		.loc 1 40 0
 898 0276 BDE8F087 		pop	{r4, r5, r6, r7, r8, r9, r10, pc}	@
 899              		.cfi_endproc
 900              	.LFE110:
 901              		.size	TM_GPIO_Init, .-TM_GPIO_Init
 902              		.align	1
 903              		.global	TM_GPIO_InitAlternate
 904              		.syntax unified
 905              		.thumb
 906              		.thumb_func
 907              		.fpu softvfp
 908              		.type	TM_GPIO_InitAlternate, %function
 909              	TM_GPIO_InitAlternate:
 910              	.LFB111:
  42:inc/user_libs/tm_stm32f4_gpio.c **** 	uint32_t pinpos;
 911              		.loc 1 42 0
 912              		.cfi_startproc
 913              		@ args = 8, pretend = 0, frame = 0
 914              		@ frame_needed = 0, uses_anonymous_args = 0
 915              	.LVL57:
 916 027a 2DE9F047 		push	{r4, r5, r6, r7, r8, r9, r10, lr}	@
 917              	.LCFI12:
 918              		.cfi_def_cfa_offset 32
 919              		.cfi_offset 4, -32
 920              		.cfi_offset 5, -28
 921              		.cfi_offset 6, -24
 922              		.cfi_offset 7, -20
 923              		.cfi_offset 8, -16
 924              		.cfi_offset 9, -12
 925              		.cfi_offset 10, -8
 926              		.cfi_offset 14, -4
 927              	@ inc/user_libs/tm_stm32f4_gpio.c:42: void TM_GPIO_InitAlternate(GPIO_TypeDef* GPIOx, uint16_t GPIO
  42:inc/user_libs/tm_stm32f4_gpio.c **** 	uint32_t pinpos;
 928              		.loc 1 42 0
 929 027e 0646     		mov	r6, r0	@ GPIOx, GPIOx
 930 0280 1746     		mov	r7, r2	@ GPIO_OType, GPIO_OType
 931 0282 9846     		mov	r8, r3	@ GPIO_PuPd, GPIO_PuPd
 932 0284 9DF82090 		ldrb	r9, [sp, #32]	@ zero_extendqisi2	@ GPIO_Speed, GPIO_Speed
 933 0288 9DF824A0 		ldrb	r10, [sp, #36]	@ zero_extendqisi2	@ Alternate, Alternate
 934              	@ inc/user_libs/tm_stm32f4_gpio.c:46: 	if (GPIO_Pin == 0x00) {
  46:inc/user_libs/tm_stm32f4_gpio.c **** 		return;
 935              		.loc 1 46 0
 936 028c 0D46     		mov	r5, r1	@ GPIO_Pin, GPIO_Pin
 937 028e 19B3     		cbz	r1, .L66	@ GPIO_Pin,
 938              	@ inc/user_libs/tm_stm32f4_gpio.c:51: 	TM_GPIO_INT_EnableClock(GPIOx);
ARM GAS  /tmp/ccFYZd0r.s 			page 23


  51:inc/user_libs/tm_stm32f4_gpio.c **** 	
 939              		.loc 1 51 0
 940 0290 FFF7FEFF 		bl	TM_GPIO_INT_EnableClock	@
 941              	.LVL58:
 942              	@ inc/user_libs/tm_stm32f4_gpio.c:54: 	for (pinpos = 0; pinpos < 0x10; pinpos++) {
  54:inc/user_libs/tm_stm32f4_gpio.c **** 		/* Check pin */
 943              		.loc 1 54 0
 944 0294 0020     		movs	r0, #0	@ pinpos,
 945              	@ inc/user_libs/tm_stm32f4_gpio.c:61: 		GPIOx->AFR[pinpos >> 0x03] = (GPIOx->AFR[pinpos >> 0x03] & 
  61:inc/user_libs/tm_stm32f4_gpio.c **** 	}
 946              		.loc 1 61 0
 947 0296 0F21     		movs	r1, #15	@ tmp144,
 948              	.LVL59:
 949              	.L69:
 950              	@ inc/user_libs/tm_stm32f4_gpio.c:56: 		if ((GPIO_Pin & (1 << pinpos)) == 0) {
  56:inc/user_libs/tm_stm32f4_gpio.c **** 			continue;
 951              		.loc 1 56 0
 952 0298 45FA00F3 		asr	r3, r5, r0	@ tmp134, GPIO_Pin, pinpos
 953 029c DB07     		lsls	r3, r3, #31	@, tmp134,
 954 029e 0ED5     		bpl	.L68	@,
 955              	@ inc/user_libs/tm_stm32f4_gpio.c:61: 		GPIOx->AFR[pinpos >> 0x03] = (GPIOx->AFR[pinpos >> 0x03] & 
  61:inc/user_libs/tm_stm32f4_gpio.c **** 	}
 956              		.loc 1 61 0
 957 02a0 C208     		lsrs	r2, r0, #3	@ tmp136, pinpos,
 958 02a2 06EB8202 		add	r2, r6, r2, lsl #2	@ _34, GPIOx, tmp136,
 959 02a6 00F00704 		and	r4, r0, #7	@ tmp138, pinpos,
 960 02aa 136A     		ldr	r3, [r2, #32]	@ _5, MEM[(struct GPIO_TypeDef *)_34 + 32B]
 961 02ac A400     		lsls	r4, r4, #2	@ _7, tmp138,
 962 02ae 01FA04FC 		lsl	ip, r1, r4	@ tmp139, tmp144, _7
 963 02b2 23EA0C03 		bic	r3, r3, ip	@ tmp142, _5, tmp139
 964 02b6 0AFA04F4 		lsl	r4, r10, r4	@ tmp143, Alternate, _7
 965 02ba 1C43     		orrs	r4, r4, r3	@, _15, tmp143, tmp142
 966 02bc 1462     		str	r4, [r2, #32]	@ _15, MEM[(struct GPIO_TypeDef *)_34 + 32B]
 967              	.L68:
 968              	@ inc/user_libs/tm_stm32f4_gpio.c:54: 	for (pinpos = 0; pinpos < 0x10; pinpos++) {
  54:inc/user_libs/tm_stm32f4_gpio.c **** 		/* Check pin */
 969              		.loc 1 54 0 discriminator 2
 970 02be 0130     		adds	r0, r0, #1	@ pinpos, pinpos,
 971              	.LVL60:
 972 02c0 1028     		cmp	r0, #16	@ pinpos,
 973 02c2 E9D1     		bne	.L69	@,
 974              	@ inc/user_libs/tm_stm32f4_gpio.c:65: 	TM_GPIO_INT_Init(GPIOx, GPIO_Pin, TM_GPIO_Mode_AF, GPIO_OTyp
  65:inc/user_libs/tm_stm32f4_gpio.c **** }
 975              		.loc 1 65 0
 976 02c4 CDE90889 		strd	r8, r9, [sp, #32]	@ GPIO_PuPd, GPIO_Speed,,
 977              	.LVL61:
 978 02c8 3B46     		mov	r3, r7	@, GPIO_OType
 979 02ca 2946     		mov	r1, r5	@, GPIO_Pin
 980 02cc 3046     		mov	r0, r6	@, GPIOx
 981              	.LVL62:
 982 02ce 0222     		movs	r2, #2	@,
 983              	@ inc/user_libs/tm_stm32f4_gpio.c:66: }
  66:inc/user_libs/tm_stm32f4_gpio.c **** 
 984              		.loc 1 66 0
 985 02d0 BDE8F047 		pop	{r4, r5, r6, r7, r8, r9, r10, lr}	@
 986              	.LCFI13:
 987              		.cfi_remember_state
ARM GAS  /tmp/ccFYZd0r.s 			page 24


 988              		.cfi_restore 14
 989              		.cfi_restore 10
 990              		.cfi_restore 9
 991              		.cfi_restore 8
 992              		.cfi_restore 7
 993              		.cfi_restore 6
 994              		.cfi_restore 5
 995              		.cfi_restore 4
 996              		.cfi_def_cfa_offset 0
 997              	.LVL63:
 998              	@ inc/user_libs/tm_stm32f4_gpio.c:65: 	TM_GPIO_INT_Init(GPIOx, GPIO_Pin, TM_GPIO_Mode_AF, GPIO_OTyp
  65:inc/user_libs/tm_stm32f4_gpio.c **** }
 999              		.loc 1 65 0
 1000 02d4 FFF7FEBF 		b	TM_GPIO_INT_Init	@
 1001              	.LVL64:
 1002              	.L66:
 1003              	.LCFI14:
 1004              		.cfi_restore_state
 1005              	@ inc/user_libs/tm_stm32f4_gpio.c:66: }
  66:inc/user_libs/tm_stm32f4_gpio.c **** 
 1006              		.loc 1 66 0
 1007 02d8 BDE8F087 		pop	{r4, r5, r6, r7, r8, r9, r10, pc}	@
 1008              		.cfi_endproc
 1009              	.LFE111:
 1010              		.size	TM_GPIO_InitAlternate, .-TM_GPIO_InitAlternate
 1011              		.align	1
 1012              		.global	TM_GPIO_GetUsedPins
 1013              		.syntax unified
 1014              		.thumb
 1015              		.thumb_func
 1016              		.fpu softvfp
 1017              		.type	TM_GPIO_GetUsedPins, %function
 1018              	TM_GPIO_GetUsedPins:
 1019              	.LFB124:
 229:inc/user_libs/tm_stm32f4_gpio.c **** 
 230:inc/user_libs/tm_stm32f4_gpio.c **** uint16_t TM_GPIO_GetUsedPins(GPIO_TypeDef* GPIOx) {
 1020              		.loc 1 230 0
 1021              		.cfi_startproc
 1022              		@ args = 0, pretend = 0, frame = 0
 1023              		@ frame_needed = 0, uses_anonymous_args = 0
 1024              		@ link register save eliminated.
 1025              	.LVL65:
 1026              	.LBB30:
 1027              	.LBB31:
 1028              	@ inc/user_libs/tm_stm32f4_gpio.c:185: 	return ((uint32_t)GPIOx - (GPIOA_BASE)) / ((GPIOB_BASE) - (
 185:inc/user_libs/tm_stm32f4_gpio.c **** }
 1029              		.loc 1 185 0
 1030 02dc 00F13F40 		add	r0, r0, #-1090519040	@ tmp119, GPIOx,
 1031              	.LVL66:
 1032 02e0 00F57E00 		add	r0, r0, #16646144	@ tmp119, tmp119,
 1033              	.LVL67:
 1034              	.LBE31:
 1035              	.LBE30:
 1036              	@ inc/user_libs/tm_stm32f4_gpio.c:233: }
 231:inc/user_libs/tm_stm32f4_gpio.c **** 	/* Return used */
 232:inc/user_libs/tm_stm32f4_gpio.c **** 	return GPIO_UsedPins[TM_GPIO_GetPortSource(GPIOx)];
 233:inc/user_libs/tm_stm32f4_gpio.c **** }
ARM GAS  /tmp/ccFYZd0r.s 			page 25


 1037              		.loc 1 233 0
 1038 02e4 024B     		ldr	r3, .L75	@ tmp118,
 1039              	@ inc/user_libs/tm_stm32f4_gpio.c:232: 	return GPIO_UsedPins[TM_GPIO_GetPortSource(GPIOx)];
 232:inc/user_libs/tm_stm32f4_gpio.c **** }
 1040              		.loc 1 232 0
 1041 02e6 C0F38F20 		ubfx	r0, r0, #10, #16	@ tmp122, tmp119,,
 1042              	.LVL68:
 1043              	@ inc/user_libs/tm_stm32f4_gpio.c:233: }
 1044              		.loc 1 233 0
 1045 02ea 33F81000 		ldrh	r0, [r3, r0, lsl #1]	@, GPIO_UsedPins
 1046 02ee 7047     		bx	lr	@
 1047              	.L76:
 1048              		.align	2
 1049              	.L75:
 1050 02f0 00000000 		.word	.LANCHOR0
 1051              		.cfi_endproc
 1052              	.LFE124:
 1053              		.size	TM_GPIO_GetUsedPins, .-TM_GPIO_GetUsedPins
 1054              		.align	1
 1055              		.global	TM_GPIO_GetFreePins
 1056              		.syntax unified
 1057              		.thumb
 1058              		.thumb_func
 1059              		.fpu softvfp
 1060              		.type	TM_GPIO_GetFreePins, %function
 1061              	TM_GPIO_GetFreePins:
 1062              	.LFB125:
 234:inc/user_libs/tm_stm32f4_gpio.c **** 
 235:inc/user_libs/tm_stm32f4_gpio.c **** uint16_t TM_GPIO_GetFreePins(GPIO_TypeDef* GPIOx) {
 1063              		.loc 1 235 0
 1064              		.cfi_startproc
 1065              		@ args = 0, pretend = 0, frame = 0
 1066              		@ frame_needed = 0, uses_anonymous_args = 0
 1067              		@ link register save eliminated.
 1068              	.LVL69:
 1069              	.LBB32:
 1070              	.LBB33:
 1071              	@ inc/user_libs/tm_stm32f4_gpio.c:185: 	return ((uint32_t)GPIOx - (GPIOA_BASE)) / ((GPIOB_BASE) - (
 185:inc/user_libs/tm_stm32f4_gpio.c **** }
 1072              		.loc 1 185 0
 1073 02f4 00F13F40 		add	r0, r0, #-1090519040	@ tmp120, GPIOx,
 1074              	.LVL70:
 1075 02f8 00F57E00 		add	r0, r0, #16646144	@ tmp120, tmp120,
 1076              	.LVL71:
 1077              	.LBE33:
 1078              	.LBE32:
 1079              	@ inc/user_libs/tm_stm32f4_gpio.c:237: 	return ~GPIO_UsedPins[TM_GPIO_GetPortSource(GPIOx)];
 236:inc/user_libs/tm_stm32f4_gpio.c **** 	/* Return free pins */
 237:inc/user_libs/tm_stm32f4_gpio.c **** 	return ~GPIO_UsedPins[TM_GPIO_GetPortSource(GPIOx)];
 1080              		.loc 1 237 0
 1081 02fc 034B     		ldr	r3, .L78	@ tmp119,
 1082 02fe C0F38F20 		ubfx	r0, r0, #10, #16	@ tmp123, tmp120,,
 1083              	.LVL72:
 1084 0302 33F81000 		ldrh	r0, [r3, r0, lsl #1]	@, GPIO_UsedPins
 1085 0306 C043     		mvns	r0, r0	@ tmp126, tmp125
 1086              	@ inc/user_libs/tm_stm32f4_gpio.c:238: }
 238:inc/user_libs/tm_stm32f4_gpio.c **** }
ARM GAS  /tmp/ccFYZd0r.s 			page 26


 1087              		.loc 1 238 0
 1088 0308 80B2     		uxth	r0, r0	@, tmp126
 1089 030a 7047     		bx	lr	@
 1090              	.L79:
 1091              		.align	2
 1092              	.L78:
 1093 030c 00000000 		.word	.LANCHOR0
 1094              		.cfi_endproc
 1095              	.LFE125:
 1096              		.size	TM_GPIO_GetFreePins, .-TM_GPIO_GetFreePins
 1097              		.bss
 1098              		.align	1
 1099              		.set	.LANCHOR0,. + 0
 1100              		.type	GPIO_UsedPins, %object
 1101              		.size	GPIO_UsedPins, 22
 1102              	GPIO_UsedPins:
 1103 0000 00000000 		.space	22
 1103      00000000 
 1103      00000000 
 1103      00000000 
 1103      00000000 
 1104              		.text
 1105              	.Letext0:
 1106              		.file 2 "/home/sticky/opt/gcc-arm-none-eabi-7-2017-q4-major/arm-none-eabi/include/machine/_default
 1107              		.file 3 "/home/sticky/opt/gcc-arm-none-eabi-7-2017-q4-major/arm-none-eabi/include/sys/_stdint.h"
 1108              		.file 4 "./inc/CMSIS/core_cm4.h"
 1109              		.file 5 "./inc/system_stm32f4xx.h"
 1110              		.file 6 "./inc/stm32f4xx.h"
 1111              		.file 7 "inc/user_libs/tm_stm32f4_gpio.h"