ARM GAS  /tmp/cchY05rl.s 			page 1


   1              		.cpu cortex-m4
   2              		.eabi_attribute 20, 1	@ Tag_ABI_FP_denormal
   3              		.eabi_attribute 21, 1	@ Tag_ABI_FP_exceptions
   4              		.eabi_attribute 23, 3	@ Tag_ABI_FP_number_model
   5              		.eabi_attribute 24, 1	@ Tag_ABI_align8_needed
   6              		.eabi_attribute 25, 1	@ Tag_ABI_align8_preserved
   7              		.eabi_attribute 26, 1	@ Tag_ABI_enum_size
   8              		.eabi_attribute 30, 4	@ Tag_ABI_optimization_goals
   9              		.eabi_attribute 34, 1	@ Tag_CPU_unaligned_access
  10              		.eabi_attribute 18, 4	@ Tag_ABI_PCS_wchar_t
  11              		.file	"tm_stm32f4_disco.c"
  12              	@ GNU C11 (GNU Tools for Arm Embedded Processors 7-2017-q4-major) version 7.2.1 20170904 (release) 
  13              	@	compiled by GNU C version 4.8.4, GMP version 6.1.0, MPFR version 3.1.4, MPC version 1.0.3, isl ve
  14              	
  15              	@ GGC heuristics: --param ggc-min-expand=100 --param ggc-min-heapsize=131072
  16              	@ options passed:  -I . -I ./inc -I ./inc/CMSIS
  17              	@ -I STM32F4xx_StdPeriph_Driver/inc -I ./inc/user_libs
  18              	@ -imultilib thumb/v7e-m
  19              	@ -iprefix /home/sticky/opt/gcc-arm-none-eabi-7-2017-q4-major/bin/../lib/gcc/arm-none-eabi/7.2.1/
  20              	@ -isysroot /home/sticky/opt/gcc-arm-none-eabi-7-2017-q4-major/bin/../arm-none-eabi
  21              	@ -D__USES_INITFINI__ -D STM32F40XX -D USE_STDPERIPH_DRIVER
  22              	@ -D RUN_FROM_FLASH=1 inc/user_libs/tm_stm32f4_disco.c -mcpu=cortex-m4
  23              	@ -mthumb -auxbase-strip inc/user_libs/tm_stm32f4_disco.o -g -gdwarf-2 -Os
  24              	@ -Wall -Wstrict-prototypes -fomit-frame-pointer -fverbose-asm
  25              	@ options enabled:  -faggressive-loop-optimizations -falign-jumps
  26              	@ -falign-labels -falign-loops -fauto-inc-dec -fbranch-count-reg
  27              	@ -fcaller-saves -fchkp-check-incomplete-type -fchkp-check-read
  28              	@ -fchkp-check-write -fchkp-instrument-calls -fchkp-narrow-bounds
  29              	@ -fchkp-optimize -fchkp-store-bounds -fchkp-use-static-bounds
  30              	@ -fchkp-use-static-const-bounds -fchkp-use-wrappers -fcode-hoisting
  31              	@ -fcombine-stack-adjustments -fcommon -fcompare-elim -fcprop-registers
  32              	@ -fcrossjumping -fcse-follow-jumps -fdefer-pop
  33              	@ -fdelete-null-pointer-checks -fdevirtualize -fdevirtualize-speculatively
  34              	@ -fdwarf2-cfi-asm -fearly-inlining -feliminate-unused-debug-types
  35              	@ -fexpensive-optimizations -fforward-propagate -ffp-int-builtin-inexact
  36              	@ -ffunction-cse -fgcse -fgcse-lm -fgnu-runtime -fgnu-unique
  37              	@ -fguess-branch-probability -fhoist-adjacent-loads -fident -fif-conversion
  38              	@ -fif-conversion2 -findirect-inlining -finline -finline-atomics
  39              	@ -finline-functions -finline-functions-called-once
  40              	@ -finline-small-functions -fipa-bit-cp -fipa-cp -fipa-icf
  41              	@ -fipa-icf-functions -fipa-icf-variables -fipa-profile -fipa-pure-const
  42              	@ -fipa-ra -fipa-reference -fipa-sra -fipa-vrp -fira-hoist-pressure
  43              	@ -fira-share-save-slots -fira-share-spill-slots
  44              	@ -fisolate-erroneous-paths-dereference -fivopts -fkeep-static-consts
  45              	@ -fleading-underscore -flifetime-dse -flra-remat -flto-odr-type-merging
  46              	@ -fmath-errno -fmerge-constants -fmerge-debug-strings
  47              	@ -fmove-loop-invariants -fomit-frame-pointer -foptimize-sibling-calls
  48              	@ -fpartial-inlining -fpeephole -fpeephole2 -fplt -fprefetch-loop-arrays
  49              	@ -freg-struct-return -freorder-blocks -freorder-functions
  50              	@ -frerun-cse-after-loop -fsched-critical-path-heuristic
  51              	@ -fsched-dep-count-heuristic -fsched-group-heuristic -fsched-interblock
  52              	@ -fsched-last-insn-heuristic -fsched-pressure -fsched-rank-heuristic
  53              	@ -fsched-spec -fsched-spec-insn-heuristic -fsched-stalled-insns-dep
  54              	@ -fschedule-insns2 -fsection-anchors -fsemantic-interposition
  55              	@ -fshow-column -fshrink-wrap-separate -fsigned-zeros
  56              	@ -fsplit-ivs-in-unroller -fsplit-wide-types -fssa-backprop -fssa-phiopt
  57              	@ -fstdarg-opt -fstore-merging -fstrict-aliasing -fstrict-overflow
ARM GAS  /tmp/cchY05rl.s 			page 2


  58              	@ -fstrict-volatile-bitfields -fsync-libcalls -fthread-jumps
  59              	@ -ftoplevel-reorder -ftrapping-math -ftree-bit-ccp -ftree-builtin-call-dce
  60              	@ -ftree-ccp -ftree-ch -ftree-coalesce-vars -ftree-copy-prop -ftree-cselim
  61              	@ -ftree-dce -ftree-dominator-opts -ftree-dse -ftree-forwprop -ftree-fre
  62              	@ -ftree-loop-if-convert -ftree-loop-im -ftree-loop-ivcanon
  63              	@ -ftree-loop-optimize -ftree-parallelize-loops= -ftree-phiprop -ftree-pre
  64              	@ -ftree-pta -ftree-reassoc -ftree-scev-cprop -ftree-sink -ftree-slsr
  65              	@ -ftree-sra -ftree-switch-conversion -ftree-tail-merge -ftree-ter
  66              	@ -ftree-vrp -funit-at-a-time -fvar-tracking -fvar-tracking-assignments
  67              	@ -fverbose-asm -fzero-initialized-in-bss -masm-syntax-unified
  68              	@ -mlittle-endian -mpic-data-is-text-relative -msched-prolog -mthumb
  69              	@ -munaligned-access -mvectorize-with-neon-quad
  70              	
  71              		.text
  72              	.Ltext0:
  73              		.cfi_sections	.debug_frame
  74              		.align	1
  75              		.global	TM_DISCO_LedInit
  76              		.syntax unified
  77              		.thumb
  78              		.thumb_func
  79              		.fpu softvfp
  80              		.type	TM_DISCO_LedInit, %function
  81              	TM_DISCO_LedInit:
  82              	.LFB110:
  83              		.file 1 "inc/user_libs/tm_stm32f4_disco.c"
   1:inc/user_libs/tm_stm32f4_disco.c **** /**	
   2:inc/user_libs/tm_stm32f4_disco.c ****  * |----------------------------------------------------------------------
   3:inc/user_libs/tm_stm32f4_disco.c ****  * | Copyright (C) Tilen Majerle, 2014
   4:inc/user_libs/tm_stm32f4_disco.c ****  * | 
   5:inc/user_libs/tm_stm32f4_disco.c ****  * | This program is free software: you can redistribute it and/or modify
   6:inc/user_libs/tm_stm32f4_disco.c ****  * | it under the terms of the GNU General Public License as published by
   7:inc/user_libs/tm_stm32f4_disco.c ****  * | the Free Software Foundation, either version 3 of the License, or
   8:inc/user_libs/tm_stm32f4_disco.c ****  * | any later version.
   9:inc/user_libs/tm_stm32f4_disco.c ****  * |  
  10:inc/user_libs/tm_stm32f4_disco.c ****  * | This program is distributed in the hope that it will be useful,
  11:inc/user_libs/tm_stm32f4_disco.c ****  * | but WITHOUT ANY WARRANTY; without even the implied warranty of
  12:inc/user_libs/tm_stm32f4_disco.c ****  * | MERCHANTABILITY or FITNESS FOR A PARTICULAR PURPOSE.  See the
  13:inc/user_libs/tm_stm32f4_disco.c ****  * | GNU General Public License for more details.
  14:inc/user_libs/tm_stm32f4_disco.c ****  * | 
  15:inc/user_libs/tm_stm32f4_disco.c ****  * | You should have received a copy of the GNU General Public License
  16:inc/user_libs/tm_stm32f4_disco.c ****  * | along with this program.  If not, see <http://www.gnu.org/licenses/>.
  17:inc/user_libs/tm_stm32f4_disco.c ****  * |----------------------------------------------------------------------
  18:inc/user_libs/tm_stm32f4_disco.c ****  */
  19:inc/user_libs/tm_stm32f4_disco.c **** #include "tm_stm32f4_disco.h"
  20:inc/user_libs/tm_stm32f4_disco.c **** 
  21:inc/user_libs/tm_stm32f4_disco.c **** /* Button pressed status for onpressed/onreleased events */
  22:inc/user_libs/tm_stm32f4_disco.c **** static volatile uint8_t TM_INT_DISCO_ButtonPressed = 0;
  23:inc/user_libs/tm_stm32f4_disco.c **** 
  24:inc/user_libs/tm_stm32f4_disco.c **** void TM_DISCO_LedInit(void) {
  84              		.loc 1 24 0
  85              		.cfi_startproc
  86              		@ args = 0, pretend = 0, frame = 0
  87              		@ frame_needed = 0, uses_anonymous_args = 0
  88 0000 13B5     		push	{r0, r1, r4, lr}	@
  89              	.LCFI0:
  90              		.cfi_def_cfa_offset 16
ARM GAS  /tmp/cchY05rl.s 			page 3


  91              		.cfi_offset 4, -8
  92              		.cfi_offset 14, -4
  93              	@ inc/user_libs/tm_stm32f4_disco.c:26: 	TM_GPIO_Init(TM_DISCO_LED_PORT, LED_ALL, TM_GPIO_Mode_OUT, 
  25:inc/user_libs/tm_stm32f4_disco.c **** 	/* Set pins as output */
  26:inc/user_libs/tm_stm32f4_disco.c **** 	TM_GPIO_Init(TM_DISCO_LED_PORT, LED_ALL, TM_GPIO_Mode_OUT, TM_GPIO_OType_PP, TM_GPIO_PuPd_NOPULL, 
  94              		.loc 1 26 0
  95 0002 084C     		ldr	r4, .L2	@ tmp110,
  96 0004 0023     		movs	r3, #0	@ tmp112,
  97 0006 0322     		movs	r2, #3	@,
  98 0008 CDE90032 		strd	r3, r2, [sp]	@ tmp112,,
  99 000c 4FF47041 		mov	r1, #61440	@,
 100 0010 0122     		movs	r2, #1	@,
 101 0012 2046     		mov	r0, r4	@, tmp110
 102 0014 FFF7FEFF 		bl	TM_GPIO_Init	@
 103              	.LVL0:
 104              	@ inc/user_libs/tm_stm32f4_disco.c:29: 	TM_DISCO_LedOff(LED_ALL);
  27:inc/user_libs/tm_stm32f4_disco.c **** 	
  28:inc/user_libs/tm_stm32f4_disco.c **** 	/* Turn leds off */
  29:inc/user_libs/tm_stm32f4_disco.c **** 	TM_DISCO_LedOff(LED_ALL);
 105              		.loc 1 29 0
 106 0018 4FF47043 		mov	r3, #61440	@ tmp115,
 107 001c 6383     		strh	r3, [r4, #26]	@ movhi	@ tmp115, MEM[(struct GPIO_TypeDef *)1073875968B].BSRRH
 108              	@ inc/user_libs/tm_stm32f4_disco.c:30: }
  30:inc/user_libs/tm_stm32f4_disco.c **** }
 109              		.loc 1 30 0
 110 001e 02B0     		add	sp, sp, #8	@,,
 111              	.LCFI1:
 112              		.cfi_def_cfa_offset 8
 113              		@ sp needed	@
 114 0020 10BD     		pop	{r4, pc}	@
 115              	.L3:
 116 0022 00BF     		.align	2
 117              	.L2:
 118 0024 000C0240 		.word	1073875968
 119              		.cfi_endproc
 120              	.LFE110:
 121              		.size	TM_DISCO_LedInit, .-TM_DISCO_LedInit
 122              		.align	1
 123              		.global	TM_DISCO_ButtonInit
 124              		.syntax unified
 125              		.thumb
 126              		.thumb_func
 127              		.fpu softvfp
 128              		.type	TM_DISCO_ButtonInit, %function
 129              	TM_DISCO_ButtonInit:
 130              	.LFB111:
  31:inc/user_libs/tm_stm32f4_disco.c **** 
  32:inc/user_libs/tm_stm32f4_disco.c **** void TM_DISCO_ButtonInit(void) {
 131              		.loc 1 32 0
 132              		.cfi_startproc
 133              		@ args = 0, pretend = 0, frame = 0
 134              		@ frame_needed = 0, uses_anonymous_args = 0
 135 0028 07B5     		push	{r0, r1, r2, lr}	@
 136              	.LCFI2:
 137              		.cfi_def_cfa_offset 16
 138              		.cfi_offset 14, -4
 139              	@ inc/user_libs/tm_stm32f4_disco.c:34: 	TM_GPIO_Init(TM_DISCO_BUTTON_PORT, TM_DISCO_BUTTON_PIN, TM_
ARM GAS  /tmp/cchY05rl.s 			page 4


  33:inc/user_libs/tm_stm32f4_disco.c **** 	/* Set pin as input */
  34:inc/user_libs/tm_stm32f4_disco.c **** 	TM_GPIO_Init(TM_DISCO_BUTTON_PORT, TM_DISCO_BUTTON_PIN, TM_GPIO_Mode_IN, TM_GPIO_OType_PP, TM_DISC
 140              		.loc 1 34 0
 141 002a 0023     		movs	r3, #0	@ tmp111,
 142 002c 0222     		movs	r2, #2	@ tmp112,
 143 002e CDE90023 		strd	r2, r3, [sp]	@ tmp112, tmp111,
 144 0032 0121     		movs	r1, #1	@,
 145 0034 1A46     		mov	r2, r3	@,
 146 0036 0348     		ldr	r0, .L5	@,
 147 0038 FFF7FEFF 		bl	TM_GPIO_Init	@
 148              	.LVL1:
 149              	@ inc/user_libs/tm_stm32f4_disco.c:35: }
  35:inc/user_libs/tm_stm32f4_disco.c **** }
 150              		.loc 1 35 0
 151 003c 03B0     		add	sp, sp, #12	@,,
 152              	.LCFI3:
 153              		.cfi_def_cfa_offset 4
 154              		@ sp needed	@
 155 003e 5DF804FB 		ldr	pc, [sp], #4	@
 156              	.L6:
 157 0042 00BF     		.align	2
 158              	.L5:
 159 0044 00000240 		.word	1073872896
 160              		.cfi_endproc
 161              	.LFE111:
 162              		.size	TM_DISCO_ButtonInit, .-TM_DISCO_ButtonInit
 163              		.align	1
 164              		.global	TM_DISCO_ButtonOnPressed
 165              		.syntax unified
 166              		.thumb
 167              		.thumb_func
 168              		.fpu softvfp
 169              		.type	TM_DISCO_ButtonOnPressed, %function
 170              	TM_DISCO_ButtonOnPressed:
 171              	.LFB112:
  36:inc/user_libs/tm_stm32f4_disco.c **** 
  37:inc/user_libs/tm_stm32f4_disco.c **** uint8_t TM_DISCO_ButtonOnPressed(void) {
 172              		.loc 1 37 0
 173              		.cfi_startproc
 174              		@ args = 0, pretend = 0, frame = 0
 175              		@ frame_needed = 0, uses_anonymous_args = 0
 176              		@ link register save eliminated.
 177              	@ inc/user_libs/tm_stm32f4_disco.c:39: 	if (TM_DISCO_ButtonPressed()) {
  38:inc/user_libs/tm_stm32f4_disco.c **** 	/* If button is now pressed, but was not already pressed */
  39:inc/user_libs/tm_stm32f4_disco.c **** 	if (TM_DISCO_ButtonPressed()) {
 178              		.loc 1 39 0
 179 0048 064B     		ldr	r3, .L11	@ tmp114,
 180 004a 1869     		ldr	r0, [r3, #16]	@ _1, MEM[(struct GPIO_TypeDef *)1073872896B].IDR
 181 004c 064B     		ldr	r3, .L11+4	@ tmp126,
 182 004e 10F00100 		ands	r0, r0, #1	@ tmp115, _1,
 183 0052 02D0     		beq	.L8	@,
 184              	@ inc/user_libs/tm_stm32f4_disco.c:40: 		if (!TM_INT_DISCO_ButtonPressed) {
  40:inc/user_libs/tm_stm32f4_disco.c **** 		if (!TM_INT_DISCO_ButtonPressed) {
 185              		.loc 1 40 0
 186 0054 1A78     		ldrb	r2, [r3]	@ zero_extendqisi2	@ TM_INT_DISCO_ButtonPressed, TM_INT_DISCO_ButtonPressed
 187 0056 12B9     		cbnz	r2, .L10	@ TM_INT_DISCO_ButtonPressed,
 188              	@ inc/user_libs/tm_stm32f4_disco.c:42: 			TM_INT_DISCO_ButtonPressed = 1;
ARM GAS  /tmp/cchY05rl.s 			page 5


  41:inc/user_libs/tm_stm32f4_disco.c **** 			/* Set flag */
  42:inc/user_libs/tm_stm32f4_disco.c **** 			TM_INT_DISCO_ButtonPressed = 1;
 189              		.loc 1 42 0
 190 0058 0120     		movs	r0, #1	@ tmp120,
 191              	.L8:
 192              	@ inc/user_libs/tm_stm32f4_disco.c:49: 		TM_INT_DISCO_ButtonPressed = 0;
  43:inc/user_libs/tm_stm32f4_disco.c **** 			
  44:inc/user_libs/tm_stm32f4_disco.c **** 			/* Return button onpressed */
  45:inc/user_libs/tm_stm32f4_disco.c **** 			return 1;
  46:inc/user_libs/tm_stm32f4_disco.c **** 		}
  47:inc/user_libs/tm_stm32f4_disco.c **** 	} else {
  48:inc/user_libs/tm_stm32f4_disco.c **** 		/* Clear flag */
  49:inc/user_libs/tm_stm32f4_disco.c **** 		TM_INT_DISCO_ButtonPressed = 0;
 193              		.loc 1 49 0
 194 005a 1870     		strb	r0, [r3]	@ tmp115, TM_INT_DISCO_ButtonPressed
 195 005c 7047     		bx	lr	@
 196              	.L10:
 197              	@ inc/user_libs/tm_stm32f4_disco.c:53: 	return 0;
  50:inc/user_libs/tm_stm32f4_disco.c **** 	}
  51:inc/user_libs/tm_stm32f4_disco.c **** 	
  52:inc/user_libs/tm_stm32f4_disco.c **** 	/* Button is not pressed or it was already pressed before */
  53:inc/user_libs/tm_stm32f4_disco.c **** 	return 0;
 198              		.loc 1 53 0
 199 005e 0020     		movs	r0, #0	@ <retval>,
 200              	@ inc/user_libs/tm_stm32f4_disco.c:54: }
  54:inc/user_libs/tm_stm32f4_disco.c **** }
 201              		.loc 1 54 0
 202 0060 7047     		bx	lr	@
 203              	.L12:
 204 0062 00BF     		.align	2
 205              	.L11:
 206 0064 00000240 		.word	1073872896
 207 0068 00000000 		.word	.LANCHOR0
 208              		.cfi_endproc
 209              	.LFE112:
 210              		.size	TM_DISCO_ButtonOnPressed, .-TM_DISCO_ButtonOnPressed
 211              		.align	1
 212              		.global	TM_DISCO_ButtonOnReleased
 213              		.syntax unified
 214              		.thumb
 215              		.thumb_func
 216              		.fpu softvfp
 217              		.type	TM_DISCO_ButtonOnReleased, %function
 218              	TM_DISCO_ButtonOnReleased:
 219              	.LFB113:
  55:inc/user_libs/tm_stm32f4_disco.c **** 
  56:inc/user_libs/tm_stm32f4_disco.c **** uint8_t TM_DISCO_ButtonOnReleased(void) {
 220              		.loc 1 56 0
 221              		.cfi_startproc
 222              		@ args = 0, pretend = 0, frame = 0
 223              		@ frame_needed = 0, uses_anonymous_args = 0
 224              		@ link register save eliminated.
 225              	@ inc/user_libs/tm_stm32f4_disco.c:58: 	if (!TM_DISCO_ButtonPressed()) {
  57:inc/user_libs/tm_stm32f4_disco.c **** 	/* If button is now released, but was not already released */
  58:inc/user_libs/tm_stm32f4_disco.c **** 	if (!TM_DISCO_ButtonPressed()) {
 226              		.loc 1 58 0
 227 006c 084B     		ldr	r3, .L17	@ tmp114,
ARM GAS  /tmp/cchY05rl.s 			page 6


 228 006e 094A     		ldr	r2, .L17+4	@ tmp126,
 229 0070 1B69     		ldr	r3, [r3, #16]	@ _1, MEM[(struct GPIO_TypeDef *)1073872896B].IDR
 230 0072 13F00103 		ands	r3, r3, #1	@ tmp115, _1,
 231 0076 06D1     		bne	.L14	@,
 232              	@ inc/user_libs/tm_stm32f4_disco.c:59: 		if (TM_INT_DISCO_ButtonPressed) {
  59:inc/user_libs/tm_stm32f4_disco.c **** 		if (TM_INT_DISCO_ButtonPressed) {
 233              		.loc 1 59 0
 234 0078 1178     		ldrb	r1, [r2]	@ zero_extendqisi2	@ TM_INT_DISCO_ButtonPressed, TM_INT_DISCO_ButtonPressed
 235 007a 01F0FF00 		and	r0, r1, #255	@ TM_INT_DISCO_ButtonPressed.1_3, TM_INT_DISCO_ButtonPressed,
 236 007e 29B1     		cbz	r1, .L15	@ TM_INT_DISCO_ButtonPressed,
 237              	@ inc/user_libs/tm_stm32f4_disco.c:61: 			TM_INT_DISCO_ButtonPressed = 0;
  60:inc/user_libs/tm_stm32f4_disco.c **** 			/* Set flag */
  61:inc/user_libs/tm_stm32f4_disco.c **** 			TM_INT_DISCO_ButtonPressed = 0;
 238              		.loc 1 61 0
 239 0080 1370     		strb	r3, [r2]	@ tmp115, TM_INT_DISCO_ButtonPressed
 240              	@ inc/user_libs/tm_stm32f4_disco.c:64: 			return 1;
  62:inc/user_libs/tm_stm32f4_disco.c **** 			
  63:inc/user_libs/tm_stm32f4_disco.c **** 			/* Return button onreleased */
  64:inc/user_libs/tm_stm32f4_disco.c **** 			return 1;
 241              		.loc 1 64 0
 242 0082 0120     		movs	r0, #1	@ <retval>,
 243 0084 7047     		bx	lr	@
 244              	.L14:
 245              	@ inc/user_libs/tm_stm32f4_disco.c:68: 		TM_INT_DISCO_ButtonPressed = 1;
  65:inc/user_libs/tm_stm32f4_disco.c **** 		}
  66:inc/user_libs/tm_stm32f4_disco.c **** 	} else {
  67:inc/user_libs/tm_stm32f4_disco.c **** 		/* Set flag */
  68:inc/user_libs/tm_stm32f4_disco.c **** 		TM_INT_DISCO_ButtonPressed = 1;
 246              		.loc 1 68 0
 247 0086 0123     		movs	r3, #1	@ tmp123,
 248 0088 1370     		strb	r3, [r2]	@ tmp123, TM_INT_DISCO_ButtonPressed
 249              	@ inc/user_libs/tm_stm32f4_disco.c:72: 	return 0;
  69:inc/user_libs/tm_stm32f4_disco.c **** 	}
  70:inc/user_libs/tm_stm32f4_disco.c **** 	
  71:inc/user_libs/tm_stm32f4_disco.c **** 	/* Button is not released or it was already released before */
  72:inc/user_libs/tm_stm32f4_disco.c **** 	return 0;
 250              		.loc 1 72 0
 251 008a 0020     		movs	r0, #0	@ <retval>,
 252              	.L15:
 253              	@ inc/user_libs/tm_stm32f4_disco.c:73: }
  73:inc/user_libs/tm_stm32f4_disco.c **** }
 254              		.loc 1 73 0
 255 008c 7047     		bx	lr	@
 256              	.L18:
 257 008e 00BF     		.align	2
 258              	.L17:
 259 0090 00000240 		.word	1073872896
 260 0094 00000000 		.word	.LANCHOR0
 261              		.cfi_endproc
 262              	.LFE113:
 263              		.size	TM_DISCO_ButtonOnReleased, .-TM_DISCO_ButtonOnReleased
 264              		.bss
 265              		.set	.LANCHOR0,. + 0
 266              		.type	TM_INT_DISCO_ButtonPressed, %object
 267              		.size	TM_INT_DISCO_ButtonPressed, 1
 268              	TM_INT_DISCO_ButtonPressed:
 269 0000 00       		.space	1
ARM GAS  /tmp/cchY05rl.s 			page 7


 270              		.text
 271              	.Letext0:
 272              		.file 2 "/home/sticky/opt/gcc-arm-none-eabi-7-2017-q4-major/arm-none-eabi/include/machine/_default
 273              		.file 3 "/home/sticky/opt/gcc-arm-none-eabi-7-2017-q4-major/arm-none-eabi/include/sys/_stdint.h"
 274              		.file 4 "./inc/CMSIS/core_cm4.h"
 275              		.file 5 "./inc/system_stm32f4xx.h"
 276              		.file 6 "./inc/stm32f4xx.h"
 277              		.file 7 "inc/user_libs/tm_stm32f4_gpio.h"