ARM GAS  /tmp/cc4YzWay.s 			page 1


   1              		.cpu cortex-m4
   2              		.eabi_attribute 20, 1	@ Tag_ABI_FP_denormal
   3              		.eabi_attribute 21, 1	@ Tag_ABI_FP_exceptions
   4              		.eabi_attribute 23, 3	@ Tag_ABI_FP_number_model
   5              		.eabi_attribute 24, 1	@ Tag_ABI_align8_needed
   6              		.eabi_attribute 25, 1	@ Tag_ABI_align8_preserved
   7              		.eabi_attribute 26, 1	@ Tag_ABI_enum_size
   8              		.eabi_attribute 30, 4	@ Tag_ABI_optimization_goals
   9              		.eabi_attribute 34, 1	@ Tag_CPU_unaligned_access
  10              		.eabi_attribute 18, 4	@ Tag_ABI_PCS_wchar_t
  11              		.file	"tm_stm32f4_usb_hid_device.c"
  12              	@ GNU C11 (GNU Tools for Arm Embedded Processors 7-2017-q4-major) version 7.2.1 20170904 (release) 
  13              	@	compiled by GNU C version 4.8.4, GMP version 6.1.0, MPFR version 3.1.4, MPC version 1.0.3, isl ve
  14              	
  15              	@ GGC heuristics: --param ggc-min-expand=100 --param ggc-min-heapsize=131072
  16              	@ options passed:  -I . -I ./inc -I ./inc/CMSIS
  17              	@ -I STM32F4xx_StdPeriph_Driver/inc -I ./inc/user_libs
  18              	@ -imultilib thumb/v7e-m
  19              	@ -iprefix /home/sticky/opt/gcc-arm-none-eabi-7-2017-q4-major/bin/../lib/gcc/arm-none-eabi/7.2.1/
  20              	@ -isysroot /home/sticky/opt/gcc-arm-none-eabi-7-2017-q4-major/bin/../arm-none-eabi
  21              	@ -D__USES_INITFINI__ -D STM32F40XX -D USE_STDPERIPH_DRIVER
  22              	@ -D RUN_FROM_FLASH=1 inc/user_libs/tm_stm32f4_usb_hid_device.c
  23              	@ -mcpu=cortex-m4 -mthumb
  24              	@ -auxbase-strip inc/user_libs/tm_stm32f4_usb_hid_device.o -g -gdwarf-2 -Os
  25              	@ -Wall -Wstrict-prototypes -fomit-frame-pointer -fverbose-asm
  26              	@ options enabled:  -faggressive-loop-optimizations -falign-jumps
  27              	@ -falign-labels -falign-loops -fauto-inc-dec -fbranch-count-reg
  28              	@ -fcaller-saves -fchkp-check-incomplete-type -fchkp-check-read
  29              	@ -fchkp-check-write -fchkp-instrument-calls -fchkp-narrow-bounds
  30              	@ -fchkp-optimize -fchkp-store-bounds -fchkp-use-static-bounds
  31              	@ -fchkp-use-static-const-bounds -fchkp-use-wrappers -fcode-hoisting
  32              	@ -fcombine-stack-adjustments -fcommon -fcompare-elim -fcprop-registers
  33              	@ -fcrossjumping -fcse-follow-jumps -fdefer-pop
  34              	@ -fdelete-null-pointer-checks -fdevirtualize -fdevirtualize-speculatively
  35              	@ -fdwarf2-cfi-asm -fearly-inlining -feliminate-unused-debug-types
  36              	@ -fexpensive-optimizations -fforward-propagate -ffp-int-builtin-inexact
  37              	@ -ffunction-cse -fgcse -fgcse-lm -fgnu-runtime -fgnu-unique
  38              	@ -fguess-branch-probability -fhoist-adjacent-loads -fident -fif-conversion
  39              	@ -fif-conversion2 -findirect-inlining -finline -finline-atomics
  40              	@ -finline-functions -finline-functions-called-once
  41              	@ -finline-small-functions -fipa-bit-cp -fipa-cp -fipa-icf
  42              	@ -fipa-icf-functions -fipa-icf-variables -fipa-profile -fipa-pure-const
  43              	@ -fipa-ra -fipa-reference -fipa-sra -fipa-vrp -fira-hoist-pressure
  44              	@ -fira-share-save-slots -fira-share-spill-slots
  45              	@ -fisolate-erroneous-paths-dereference -fivopts -fkeep-static-consts
  46              	@ -fleading-underscore -flifetime-dse -flra-remat -flto-odr-type-merging
  47              	@ -fmath-errno -fmerge-constants -fmerge-debug-strings
  48              	@ -fmove-loop-invariants -fomit-frame-pointer -foptimize-sibling-calls
  49              	@ -fpartial-inlining -fpeephole -fpeephole2 -fplt -fprefetch-loop-arrays
  50              	@ -freg-struct-return -freorder-blocks -freorder-functions
  51              	@ -frerun-cse-after-loop -fsched-critical-path-heuristic
  52              	@ -fsched-dep-count-heuristic -fsched-group-heuristic -fsched-interblock
  53              	@ -fsched-last-insn-heuristic -fsched-pressure -fsched-rank-heuristic
  54              	@ -fsched-spec -fsched-spec-insn-heuristic -fsched-stalled-insns-dep
  55              	@ -fschedule-insns2 -fsection-anchors -fsemantic-interposition
  56              	@ -fshow-column -fshrink-wrap-separate -fsigned-zeros
  57              	@ -fsplit-ivs-in-unroller -fsplit-wide-types -fssa-backprop -fssa-phiopt
ARM GAS  /tmp/cc4YzWay.s 			page 2


  58              	@ -fstdarg-opt -fstore-merging -fstrict-aliasing -fstrict-overflow
  59              	@ -fstrict-volatile-bitfields -fsync-libcalls -fthread-jumps
  60              	@ -ftoplevel-reorder -ftrapping-math -ftree-bit-ccp -ftree-builtin-call-dce
  61              	@ -ftree-ccp -ftree-ch -ftree-coalesce-vars -ftree-copy-prop -ftree-cselim
  62              	@ -ftree-dce -ftree-dominator-opts -ftree-dse -ftree-forwprop -ftree-fre
  63              	@ -ftree-loop-if-convert -ftree-loop-im -ftree-loop-ivcanon
  64              	@ -ftree-loop-optimize -ftree-parallelize-loops= -ftree-phiprop -ftree-pre
  65              	@ -ftree-pta -ftree-reassoc -ftree-scev-cprop -ftree-sink -ftree-slsr
  66              	@ -ftree-sra -ftree-switch-conversion -ftree-tail-merge -ftree-ter
  67              	@ -ftree-vrp -funit-at-a-time -fvar-tracking -fvar-tracking-assignments
  68              	@ -fverbose-asm -fzero-initialized-in-bss -masm-syntax-unified
  69              	@ -mlittle-endian -mpic-data-is-text-relative -msched-prolog -mthumb
  70              	@ -munaligned-access -mvectorize-with-neon-quad
  71              	
  72              		.text
  73              	.Ltext0:
  74              		.cfi_sections	.debug_frame
  75              		.align	1
  76              		.global	TM_USB_HIDDEVICE_Init
  77              		.syntax unified
  78              		.thumb
  79              		.thumb_func
  80              		.fpu softvfp
  81              		.type	TM_USB_HIDDEVICE_Init, %function
  82              	TM_USB_HIDDEVICE_Init:
  83              	.LFB110:
  84              		.file 1 "inc/user_libs/tm_stm32f4_usb_hid_device.c"
   1:inc/user_libs/tm_stm32f4_usb_hid_device.c **** /**	
   2:inc/user_libs/tm_stm32f4_usb_hid_device.c ****  * |----------------------------------------------------------------------
   3:inc/user_libs/tm_stm32f4_usb_hid_device.c ****  * | Copyright (C) Tilen Majerle, 2014
   4:inc/user_libs/tm_stm32f4_usb_hid_device.c ****  * | 
   5:inc/user_libs/tm_stm32f4_usb_hid_device.c ****  * | This program is free software: you can redistribute it and/or modify
   6:inc/user_libs/tm_stm32f4_usb_hid_device.c ****  * | it under the terms of the GNU General Public License as published by
   7:inc/user_libs/tm_stm32f4_usb_hid_device.c ****  * | the Free Software Foundation, either version 3 of the License, or
   8:inc/user_libs/tm_stm32f4_usb_hid_device.c ****  * | any later version.
   9:inc/user_libs/tm_stm32f4_usb_hid_device.c ****  * |  
  10:inc/user_libs/tm_stm32f4_usb_hid_device.c ****  * | This program is distributed in the hope that it will be useful,
  11:inc/user_libs/tm_stm32f4_usb_hid_device.c ****  * | but WITHOUT ANY WARRANTY; without even the implied warranty of
  12:inc/user_libs/tm_stm32f4_usb_hid_device.c ****  * | MERCHANTABILITY or FITNESS FOR A PARTICULAR PURPOSE.  See the
  13:inc/user_libs/tm_stm32f4_usb_hid_device.c ****  * | GNU General Public License for more details.
  14:inc/user_libs/tm_stm32f4_usb_hid_device.c ****  * | 
  15:inc/user_libs/tm_stm32f4_usb_hid_device.c ****  * | You should have received a copy of the GNU General Public License
  16:inc/user_libs/tm_stm32f4_usb_hid_device.c ****  * | along with this program.  If not, see <http://www.gnu.org/licenses/>.
  17:inc/user_libs/tm_stm32f4_usb_hid_device.c ****  * |----------------------------------------------------------------------
  18:inc/user_libs/tm_stm32f4_usb_hid_device.c ****  */
  19:inc/user_libs/tm_stm32f4_usb_hid_device.c **** #include "tm_stm32f4_usb_hid_device.h"
  20:inc/user_libs/tm_stm32f4_usb_hid_device.c **** 
  21:inc/user_libs/tm_stm32f4_usb_hid_device.c **** extern USB_OTG_CORE_HANDLE USB_OTG_dev;
  22:inc/user_libs/tm_stm32f4_usb_hid_device.c **** extern TM_USB_HIDDEVICE_Status_t TM_USB_HIDDEVICE_INT_Status;
  23:inc/user_libs/tm_stm32f4_usb_hid_device.c **** 
  24:inc/user_libs/tm_stm32f4_usb_hid_device.c **** TM_USB_HIDDEVICE_Status_t TM_USB_HIDDEVICE_Init(void) {
  85              		.loc 1 24 0
  86              		.cfi_startproc
  87              		@ args = 0, pretend = 0, frame = 0
  88              		@ frame_needed = 0, uses_anonymous_args = 0
  89 0000 07B5     		push	{r0, r1, r2, lr}	@
  90              	.LCFI0:
ARM GAS  /tmp/cc4YzWay.s 			page 3


  91              		.cfi_def_cfa_offset 16
  92              		.cfi_offset 14, -4
  93              	@ inc/user_libs/tm_stm32f4_usb_hid_device.c:26: 	USBD_Init(&USB_OTG_dev,
  25:inc/user_libs/tm_stm32f4_usb_hid_device.c **** 	/* Initialize HID device */
  26:inc/user_libs/tm_stm32f4_usb_hid_device.c **** 	USBD_Init(&USB_OTG_dev,
  94              		.loc 1 26 0
  95 0002 074B     		ldr	r3, .L2	@ tmp114,
  96 0004 0093     		str	r3, [sp]	@ tmp114,
  97 0006 074A     		ldr	r2, .L2+4	@,
  98 0008 074B     		ldr	r3, .L2+8	@,
  99 000a 0848     		ldr	r0, .L2+12	@,
 100 000c 0121     		movs	r1, #1	@,
 101 000e FFF7FEFF 		bl	USBD_Init	@
 102              	.LVL0:
 103              	@ inc/user_libs/tm_stm32f4_usb_hid_device.c:36: 	TM_USB_HIDDEVICE_INT_Status = TM_USB_HIDDEVICE_Sta
  27:inc/user_libs/tm_stm32f4_usb_hid_device.c **** 	#ifdef USE_USB_OTG_HS 
  28:inc/user_libs/tm_stm32f4_usb_hid_device.c **** 			USB_OTG_HS_CORE_ID,
  29:inc/user_libs/tm_stm32f4_usb_hid_device.c **** 	#else            
  30:inc/user_libs/tm_stm32f4_usb_hid_device.c **** 			USB_OTG_FS_CORE_ID,
  31:inc/user_libs/tm_stm32f4_usb_hid_device.c **** 	#endif
  32:inc/user_libs/tm_stm32f4_usb_hid_device.c **** 			&USR_desc, 
  33:inc/user_libs/tm_stm32f4_usb_hid_device.c **** 			&USBD_HID_cb, 
  34:inc/user_libs/tm_stm32f4_usb_hid_device.c **** 			&USR_cb);
  35:inc/user_libs/tm_stm32f4_usb_hid_device.c **** 	/* Set not connected */
  36:inc/user_libs/tm_stm32f4_usb_hid_device.c **** 	TM_USB_HIDDEVICE_INT_Status = TM_USB_HIDDEVICE_Status_Disconnected;
 104              		.loc 1 36 0
 105 0012 074B     		ldr	r3, .L2+16	@ tmp115,
 106 0014 0220     		movs	r0, #2	@ tmp116,
 107 0016 1870     		strb	r0, [r3]	@ tmp116, TM_USB_HIDDEVICE_INT_Status
 108              	@ inc/user_libs/tm_stm32f4_usb_hid_device.c:40: }
  37:inc/user_libs/tm_stm32f4_usb_hid_device.c **** 	
  38:inc/user_libs/tm_stm32f4_usb_hid_device.c **** 	/* Device not connected */
  39:inc/user_libs/tm_stm32f4_usb_hid_device.c **** 	return TM_USB_HIDDEVICE_INT_Status;
  40:inc/user_libs/tm_stm32f4_usb_hid_device.c **** }
 109              		.loc 1 40 0
 110 0018 03B0     		add	sp, sp, #12	@,,
 111              	.LCFI1:
 112              		.cfi_def_cfa_offset 4
 113              		@ sp needed	@
 114 001a 5DF804FB 		ldr	pc, [sp], #4	@
 115              	.L3:
 116 001e 00BF     		.align	2
 117              	.L2:
 118 0020 00000000 		.word	USR_cb
 119 0024 00000000 		.word	USR_desc
 120 0028 00000000 		.word	USBD_HID_cb
 121 002c 00000000 		.word	USB_OTG_dev
 122 0030 00000000 		.word	TM_USB_HIDDEVICE_INT_Status
 123              		.cfi_endproc
 124              	.LFE110:
 125              		.size	TM_USB_HIDDEVICE_Init, .-TM_USB_HIDDEVICE_Init
 126              		.align	1
 127              		.global	TM_USB_HIDDEVICE_GetStatus
 128              		.syntax unified
 129              		.thumb
 130              		.thumb_func
 131              		.fpu softvfp
ARM GAS  /tmp/cc4YzWay.s 			page 4


 132              		.type	TM_USB_HIDDEVICE_GetStatus, %function
 133              	TM_USB_HIDDEVICE_GetStatus:
 134              	.LFB111:
  41:inc/user_libs/tm_stm32f4_usb_hid_device.c **** 
  42:inc/user_libs/tm_stm32f4_usb_hid_device.c **** TM_USB_HIDDEVICE_Status_t TM_USB_HIDDEVICE_GetStatus(void) {
 135              		.loc 1 42 0
 136              		.cfi_startproc
 137              		@ args = 0, pretend = 0, frame = 0
 138              		@ frame_needed = 0, uses_anonymous_args = 0
 139              		@ link register save eliminated.
 140              	@ inc/user_libs/tm_stm32f4_usb_hid_device.c:45: }
  43:inc/user_libs/tm_stm32f4_usb_hid_device.c **** 	/* Return status */
  44:inc/user_libs/tm_stm32f4_usb_hid_device.c **** 	return TM_USB_HIDDEVICE_INT_Status;
  45:inc/user_libs/tm_stm32f4_usb_hid_device.c **** }
 141              		.loc 1 45 0
 142 0034 014B     		ldr	r3, .L5	@ tmp112,
 143 0036 1878     		ldrb	r0, [r3]	@ zero_extendqisi2	@, TM_USB_HIDDEVICE_INT_Status
 144 0038 7047     		bx	lr	@
 145              	.L6:
 146 003a 00BF     		.align	2
 147              	.L5:
 148 003c 00000000 		.word	TM_USB_HIDDEVICE_INT_Status
 149              		.cfi_endproc
 150              	.LFE111:
 151              		.size	TM_USB_HIDDEVICE_GetStatus, .-TM_USB_HIDDEVICE_GetStatus
 152              		.align	1
 153              		.global	TM_USB_HIDDEVICE_MouseStructInit
 154              		.syntax unified
 155              		.thumb
 156              		.thumb_func
 157              		.fpu softvfp
 158              		.type	TM_USB_HIDDEVICE_MouseStructInit, %function
 159              	TM_USB_HIDDEVICE_MouseStructInit:
 160              	.LFB112:
  46:inc/user_libs/tm_stm32f4_usb_hid_device.c **** 
  47:inc/user_libs/tm_stm32f4_usb_hid_device.c **** /* Mouse */
  48:inc/user_libs/tm_stm32f4_usb_hid_device.c **** TM_USB_HIDDEVICE_Status_t TM_USB_HIDDEVICE_MouseStructInit(TM_USB_HIDDEVICE_Mouse_t* Mouse_Data) {
 161              		.loc 1 48 0
 162              		.cfi_startproc
 163              		@ args = 0, pretend = 0, frame = 0
 164              		@ frame_needed = 0, uses_anonymous_args = 0
 165              		@ link register save eliminated.
 166              	.LVL1:
 167              	@ inc/user_libs/tm_stm32f4_usb_hid_device.c:50: 	Mouse_Data->LeftButton = TM_USB_HIDDEVICE_Button_R
  49:inc/user_libs/tm_stm32f4_usb_hid_device.c **** 	/* Set defaults */
  50:inc/user_libs/tm_stm32f4_usb_hid_device.c **** 	Mouse_Data->LeftButton = TM_USB_HIDDEVICE_Button_Released;
 168              		.loc 1 50 0
 169 0040 0023     		movs	r3, #0	@ tmp112,
 170 0042 0370     		strb	r3, [r0]	@ tmp112, Mouse_Data_2(D)->LeftButton
 171              	@ inc/user_libs/tm_stm32f4_usb_hid_device.c:51: 	Mouse_Data->RightButton = TM_USB_HIDDEVICE_Button_
  51:inc/user_libs/tm_stm32f4_usb_hid_device.c **** 	Mouse_Data->RightButton = TM_USB_HIDDEVICE_Button_Released;
 172              		.loc 1 51 0
 173 0044 4370     		strb	r3, [r0, #1]	@ tmp112, Mouse_Data_2(D)->RightButton
 174              	@ inc/user_libs/tm_stm32f4_usb_hid_device.c:52: 	Mouse_Data->MiddleButton = TM_USB_HIDDEVICE_Button
  52:inc/user_libs/tm_stm32f4_usb_hid_device.c **** 	Mouse_Data->MiddleButton = TM_USB_HIDDEVICE_Button_Released;
 175              		.loc 1 52 0
 176 0046 8370     		strb	r3, [r0, #2]	@ tmp112, Mouse_Data_2(D)->MiddleButton
ARM GAS  /tmp/cc4YzWay.s 			page 5


 177              	@ inc/user_libs/tm_stm32f4_usb_hid_device.c:53: 	Mouse_Data->XAxis = 0;
  53:inc/user_libs/tm_stm32f4_usb_hid_device.c **** 	Mouse_Data->XAxis = 0;
 178              		.loc 1 53 0
 179 0048 C370     		strb	r3, [r0, #3]	@ tmp112, Mouse_Data_2(D)->XAxis
 180              	@ inc/user_libs/tm_stm32f4_usb_hid_device.c:54: 	Mouse_Data->YAxis = 0;
  54:inc/user_libs/tm_stm32f4_usb_hid_device.c **** 	Mouse_Data->YAxis = 0;
 181              		.loc 1 54 0
 182 004a 0371     		strb	r3, [r0, #4]	@ tmp112, Mouse_Data_2(D)->YAxis
 183              	@ inc/user_libs/tm_stm32f4_usb_hid_device.c:55: 	Mouse_Data->Wheel = 0;
  55:inc/user_libs/tm_stm32f4_usb_hid_device.c **** 	Mouse_Data->Wheel = 0;
 184              		.loc 1 55 0
 185 004c 4371     		strb	r3, [r0, #5]	@ tmp112, Mouse_Data_2(D)->Wheel
 186              	@ inc/user_libs/tm_stm32f4_usb_hid_device.c:59: }
  56:inc/user_libs/tm_stm32f4_usb_hid_device.c **** 	
  57:inc/user_libs/tm_stm32f4_usb_hid_device.c **** 	/* Return currect status */
  58:inc/user_libs/tm_stm32f4_usb_hid_device.c **** 	return TM_USB_HIDDEVICE_INT_Status;
  59:inc/user_libs/tm_stm32f4_usb_hid_device.c **** }
 187              		.loc 1 59 0
 188 004e 014B     		ldr	r3, .L8	@ tmp125,
 189 0050 1878     		ldrb	r0, [r3]	@ zero_extendqisi2	@, TM_USB_HIDDEVICE_INT_Status
 190              	.LVL2:
 191 0052 7047     		bx	lr	@
 192              	.L9:
 193              		.align	2
 194              	.L8:
 195 0054 00000000 		.word	TM_USB_HIDDEVICE_INT_Status
 196              		.cfi_endproc
 197              	.LFE112:
 198              		.size	TM_USB_HIDDEVICE_MouseStructInit, .-TM_USB_HIDDEVICE_MouseStructInit
 199              		.align	1
 200              		.global	TM_USB_HIDDEVICE_MouseSend
 201              		.syntax unified
 202              		.thumb
 203              		.thumb_func
 204              		.fpu softvfp
 205              		.type	TM_USB_HIDDEVICE_MouseSend, %function
 206              	TM_USB_HIDDEVICE_MouseSend:
 207              	.LFB113:
  60:inc/user_libs/tm_stm32f4_usb_hid_device.c **** 
  61:inc/user_libs/tm_stm32f4_usb_hid_device.c **** TM_USB_HIDDEVICE_Status_t TM_USB_HIDDEVICE_MouseSend(TM_USB_HIDDEVICE_Mouse_t* Mouse_Data) {
 208              		.loc 1 61 0
 209              		.cfi_startproc
 210              		@ args = 0, pretend = 0, frame = 8
 211              		@ frame_needed = 0, uses_anonymous_args = 0
 212              	.LVL3:
 213              	@ inc/user_libs/tm_stm32f4_usb_hid_device.c:65: 	if (TM_USB_HIDDEVICE_INT_Status != TM_USB_HIDDEVIC
  62:inc/user_libs/tm_stm32f4_usb_hid_device.c **** 	uint8_t buff[5]; /* 5 bytes long report */
  63:inc/user_libs/tm_stm32f4_usb_hid_device.c **** 	
  64:inc/user_libs/tm_stm32f4_usb_hid_device.c **** 	/* Check status */
  65:inc/user_libs/tm_stm32f4_usb_hid_device.c **** 	if (TM_USB_HIDDEVICE_INT_Status != TM_USB_HIDDEVICE_Status_Connected) {
 214              		.loc 1 65 0
 215 0058 124B     		ldr	r3, .L13	@ tmp131,
 216              	@ inc/user_libs/tm_stm32f4_usb_hid_device.c:61: TM_USB_HIDDEVICE_Status_t TM_USB_HIDDEVICE_MouseSen
  61:inc/user_libs/tm_stm32f4_usb_hid_device.c **** 	uint8_t buff[5]; /* 5 bytes long report */
 217              		.loc 1 61 0
 218 005a 13B5     		push	{r0, r1, r4, lr}	@
 219              	.LCFI2:
ARM GAS  /tmp/cc4YzWay.s 			page 6


 220              		.cfi_def_cfa_offset 16
 221              		.cfi_offset 4, -8
 222              		.cfi_offset 14, -4
 223              	@ inc/user_libs/tm_stm32f4_usb_hid_device.c:65: 	if (TM_USB_HIDDEVICE_INT_Status != TM_USB_HIDDEVIC
 224              		.loc 1 65 0
 225 005c 1C78     		ldrb	r4, [r3]	@ zero_extendqisi2	@ <retval>, TM_USB_HIDDEVICE_INT_Status
 226 005e 012C     		cmp	r4, #1	@ <retval>,
 227 0060 4FF00203 		mov	r3, #2	@ <retval>,
 228 0064 1BD1     		bne	.L12	@,
 229              	@ inc/user_libs/tm_stm32f4_usb_hid_device.c:70: 	buff[0] = 0x02;	/* Mouse */
  66:inc/user_libs/tm_stm32f4_usb_hid_device.c **** 		return TM_USB_HIDDEVICE_Status_Disconnected;
  67:inc/user_libs/tm_stm32f4_usb_hid_device.c **** 	}
  68:inc/user_libs/tm_stm32f4_usb_hid_device.c **** 	
  69:inc/user_libs/tm_stm32f4_usb_hid_device.c **** 	/* Report ID */
  70:inc/user_libs/tm_stm32f4_usb_hid_device.c **** 	buff[0] = 0x02;	/* Mouse */
 230              		.loc 1 70 0
 231 0066 8DF80030 		strb	r3, [sp]	@ <retval>, buff
 232              	@ inc/user_libs/tm_stm32f4_usb_hid_device.c:76: 	buff[1] |= Mouse_Data->MiddleButton << 2;	/* Bit 2
  71:inc/user_libs/tm_stm32f4_usb_hid_device.c **** 	
  72:inc/user_libs/tm_stm32f4_usb_hid_device.c **** 	/* Set buttons */
  73:inc/user_libs/tm_stm32f4_usb_hid_device.c **** 	buff[1] = 0;
  74:inc/user_libs/tm_stm32f4_usb_hid_device.c **** 	buff[1] |= Mouse_Data->LeftButton << 0;		/* Bit 0 */
  75:inc/user_libs/tm_stm32f4_usb_hid_device.c **** 	buff[1] |= Mouse_Data->RightButton << 1;	/* Bit 1 */
  76:inc/user_libs/tm_stm32f4_usb_hid_device.c **** 	buff[1] |= Mouse_Data->MiddleButton << 2;	/* Bit 2 */
 233              		.loc 1 76 0
 234 006a 8378     		ldrb	r3, [r0, #2]	@ zero_extendqisi2	@ Mouse_Data_25(D)->MiddleButton, Mouse_Data_25(D)->MiddleBut
 235              	@ inc/user_libs/tm_stm32f4_usb_hid_device.c:75: 	buff[1] |= Mouse_Data->RightButton << 1;	/* Bit 1 
  75:inc/user_libs/tm_stm32f4_usb_hid_device.c **** 	buff[1] |= Mouse_Data->MiddleButton << 2;	/* Bit 2 */
 236              		.loc 1 75 0
 237 006c 4278     		ldrb	r2, [r0, #1]	@ zero_extendqisi2	@ Mouse_Data_25(D)->RightButton, Mouse_Data_25(D)->RightButto
 238              	@ inc/user_libs/tm_stm32f4_usb_hid_device.c:76: 	buff[1] |= Mouse_Data->MiddleButton << 2;	/* Bit 2
 239              		.loc 1 76 0
 240 006e 9B00     		lsls	r3, r3, #2	@ tmp137, Mouse_Data_25(D)->MiddleButton,
 241 0070 43EA4203 		orr	r3, r3, r2, lsl #1	@ tmp140, tmp137, Mouse_Data_25(D)->RightButton,
 242 0074 0278     		ldrb	r2, [r0]	@ zero_extendqisi2	@ Mouse_Data_25(D)->LeftButton, Mouse_Data_25(D)->LeftButton
 243 0076 1343     		orrs	r3, r3, r2	@, tmp144, tmp140, Mouse_Data_25(D)->LeftButton
 244 0078 8DF80130 		strb	r3, [sp, #1]	@ tmp144, buff
 245              	@ inc/user_libs/tm_stm32f4_usb_hid_device.c:79: 	buff[2] = Mouse_Data->XAxis;
  77:inc/user_libs/tm_stm32f4_usb_hid_device.c **** 	
  78:inc/user_libs/tm_stm32f4_usb_hid_device.c **** 	/* Set X and Y offset */
  79:inc/user_libs/tm_stm32f4_usb_hid_device.c **** 	buff[2] = Mouse_Data->XAxis;
 246              		.loc 1 79 0
 247 007c C378     		ldrb	r3, [r0, #3]	@ zero_extendqisi2	@ Mouse_Data_25(D)->XAxis, Mouse_Data_25(D)->XAxis
 248 007e 8DF80230 		strb	r3, [sp, #2]	@ Mouse_Data_25(D)->XAxis, buff
 249              	@ inc/user_libs/tm_stm32f4_usb_hid_device.c:80: 	buff[3] = Mouse_Data->YAxis;
  80:inc/user_libs/tm_stm32f4_usb_hid_device.c **** 	buff[3] = Mouse_Data->YAxis;
 250              		.loc 1 80 0
 251 0082 0379     		ldrb	r3, [r0, #4]	@ zero_extendqisi2	@ Mouse_Data_25(D)->YAxis, Mouse_Data_25(D)->YAxis
 252 0084 8DF80330 		strb	r3, [sp, #3]	@ Mouse_Data_25(D)->YAxis, buff
 253              	@ inc/user_libs/tm_stm32f4_usb_hid_device.c:86: 	USBD_HID_SendReport(&USB_OTG_dev, buff, 5);
  81:inc/user_libs/tm_stm32f4_usb_hid_device.c **** 	
  82:inc/user_libs/tm_stm32f4_usb_hid_device.c **** 	/* Set wheel */
  83:inc/user_libs/tm_stm32f4_usb_hid_device.c **** 	buff[4] = Mouse_Data->Wheel;
  84:inc/user_libs/tm_stm32f4_usb_hid_device.c **** 	
  85:inc/user_libs/tm_stm32f4_usb_hid_device.c **** 	/* Send to USB */
  86:inc/user_libs/tm_stm32f4_usb_hid_device.c **** 	USBD_HID_SendReport(&USB_OTG_dev, buff, 5);
 254              		.loc 1 86 0
ARM GAS  /tmp/cc4YzWay.s 			page 7


 255 0088 0522     		movs	r2, #5	@,
 256              	@ inc/user_libs/tm_stm32f4_usb_hid_device.c:83: 	buff[4] = Mouse_Data->Wheel;
  83:inc/user_libs/tm_stm32f4_usb_hid_device.c **** 	
 257              		.loc 1 83 0
 258 008a 4379     		ldrb	r3, [r0, #5]	@ zero_extendqisi2	@ Mouse_Data_25(D)->Wheel, Mouse_Data_25(D)->Wheel
 259              	@ inc/user_libs/tm_stm32f4_usb_hid_device.c:86: 	USBD_HID_SendReport(&USB_OTG_dev, buff, 5);
 260              		.loc 1 86 0
 261 008c 0648     		ldr	r0, .L13+4	@,
 262              	.LVL4:
 263              	@ inc/user_libs/tm_stm32f4_usb_hid_device.c:83: 	buff[4] = Mouse_Data->Wheel;
  83:inc/user_libs/tm_stm32f4_usb_hid_device.c **** 	
 264              		.loc 1 83 0
 265 008e 8DF80430 		strb	r3, [sp, #4]	@ Mouse_Data_25(D)->Wheel, buff
 266              	@ inc/user_libs/tm_stm32f4_usb_hid_device.c:86: 	USBD_HID_SendReport(&USB_OTG_dev, buff, 5);
 267              		.loc 1 86 0
 268 0092 6946     		mov	r1, sp	@,
 269 0094 FFF7FEFF 		bl	USBD_HID_SendReport	@
 270              	.LVL5:
 271              	.L11:
 272              	@ inc/user_libs/tm_stm32f4_usb_hid_device.c:90: }
  87:inc/user_libs/tm_stm32f4_usb_hid_device.c **** 	
  88:inc/user_libs/tm_stm32f4_usb_hid_device.c **** 	/* Return connected */
  89:inc/user_libs/tm_stm32f4_usb_hid_device.c **** 	return TM_USB_HIDDEVICE_Status_Connected;
  90:inc/user_libs/tm_stm32f4_usb_hid_device.c **** }
 273              		.loc 1 90 0
 274 0098 2046     		mov	r0, r4	@, <retval>
 275 009a 02B0     		add	sp, sp, #8	@,,
 276              	.LCFI3:
 277              		.cfi_remember_state
 278              		.cfi_def_cfa_offset 8
 279              		@ sp needed	@
 280 009c 10BD     		pop	{r4, pc}	@
 281              	.LVL6:
 282              	.L12:
 283              	.LCFI4:
 284              		.cfi_restore_state
 285              	@ inc/user_libs/tm_stm32f4_usb_hid_device.c:66: 		return TM_USB_HIDDEVICE_Status_Disconnected;
  66:inc/user_libs/tm_stm32f4_usb_hid_device.c **** 	}
 286              		.loc 1 66 0
 287 009e 1C46     		mov	r4, r3	@ <retval>, <retval>
 288 00a0 FAE7     		b	.L11	@
 289              	.L14:
 290 00a2 00BF     		.align	2
 291              	.L13:
 292 00a4 00000000 		.word	TM_USB_HIDDEVICE_INT_Status
 293 00a8 00000000 		.word	USB_OTG_dev
 294              		.cfi_endproc
 295              	.LFE113:
 296              		.size	TM_USB_HIDDEVICE_MouseSend, .-TM_USB_HIDDEVICE_MouseSend
 297              		.align	1
 298              		.global	TM_USB_HIDDEVICE_MouseReleaseAll
 299              		.syntax unified
 300              		.thumb
 301              		.thumb_func
 302              		.fpu softvfp
 303              		.type	TM_USB_HIDDEVICE_MouseReleaseAll, %function
 304              	TM_USB_HIDDEVICE_MouseReleaseAll:
ARM GAS  /tmp/cc4YzWay.s 			page 8


 305              	.LFB114:
  91:inc/user_libs/tm_stm32f4_usb_hid_device.c **** 
  92:inc/user_libs/tm_stm32f4_usb_hid_device.c **** TM_USB_HIDDEVICE_Status_t TM_USB_HIDDEVICE_MouseReleaseAll(void) {
 306              		.loc 1 92 0
 307              		.cfi_startproc
 308              		@ args = 0, pretend = 0, frame = 8
 309              		@ frame_needed = 0, uses_anonymous_args = 0
 310 00ac 13B5     		push	{r0, r1, r4, lr}	@
 311              	.LCFI5:
 312              		.cfi_def_cfa_offset 16
 313              		.cfi_offset 4, -8
 314              		.cfi_offset 14, -4
 315              	@ inc/user_libs/tm_stm32f4_usb_hid_device.c:93: 	uint8_t buff[5] = {0, 0, 0, 0, 0}; /* 4 bytes long
  93:inc/user_libs/tm_stm32f4_usb_hid_device.c **** 	uint8_t buff[5] = {0, 0, 0, 0, 0}; /* 4 bytes long report */
 316              		.loc 1 93 0
 317 00ae 0023     		movs	r3, #0	@ tmp112,
 318 00b0 0093     		str	r3, [sp]	@ tmp112, buff
 319 00b2 8DF80430 		strb	r3, [sp, #4]	@ tmp112, buff
 320              	@ inc/user_libs/tm_stm32f4_usb_hid_device.c:96: 	if (TM_USB_HIDDEVICE_INT_Status != TM_USB_HIDDEVIC
  94:inc/user_libs/tm_stm32f4_usb_hid_device.c **** 	
  95:inc/user_libs/tm_stm32f4_usb_hid_device.c **** 	/* Check status */
  96:inc/user_libs/tm_stm32f4_usb_hid_device.c **** 	if (TM_USB_HIDDEVICE_INT_Status != TM_USB_HIDDEVICE_Status_Connected) {
 321              		.loc 1 96 0
 322 00b6 094B     		ldr	r3, .L18	@ tmp114,
 323 00b8 1C78     		ldrb	r4, [r3]	@ zero_extendqisi2	@ <retval>, TM_USB_HIDDEVICE_INT_Status
 324 00ba 012C     		cmp	r4, #1	@ <retval>,
 325 00bc 4FF00203 		mov	r3, #2	@ <retval>,
 326 00c0 09D1     		bne	.L17	@,
 327              	@ inc/user_libs/tm_stm32f4_usb_hid_device.c:104: 	USBD_HID_SendReport(&USB_OTG_dev, buff, 5);
  97:inc/user_libs/tm_stm32f4_usb_hid_device.c **** 		return TM_USB_HIDDEVICE_Status_Disconnected;
  98:inc/user_libs/tm_stm32f4_usb_hid_device.c **** 	}
  99:inc/user_libs/tm_stm32f4_usb_hid_device.c **** 	
 100:inc/user_libs/tm_stm32f4_usb_hid_device.c **** 	/* Report ID */
 101:inc/user_libs/tm_stm32f4_usb_hid_device.c **** 	buff[0] = 0x02;	/* Mouse */
 102:inc/user_libs/tm_stm32f4_usb_hid_device.c **** 	
 103:inc/user_libs/tm_stm32f4_usb_hid_device.c **** 	/* Send to USB to release all buttons and axes */
 104:inc/user_libs/tm_stm32f4_usb_hid_device.c **** 	USBD_HID_SendReport(&USB_OTG_dev, buff, 5);
 328              		.loc 1 104 0
 329 00c2 0522     		movs	r2, #5	@,
 330 00c4 6946     		mov	r1, sp	@,
 331 00c6 0648     		ldr	r0, .L18+4	@,
 332              	@ inc/user_libs/tm_stm32f4_usb_hid_device.c:101: 	buff[0] = 0x02;	/* Mouse */
 101:inc/user_libs/tm_stm32f4_usb_hid_device.c **** 	
 333              		.loc 1 101 0
 334 00c8 8DF80030 		strb	r3, [sp]	@ <retval>, buff
 335              	@ inc/user_libs/tm_stm32f4_usb_hid_device.c:104: 	USBD_HID_SendReport(&USB_OTG_dev, buff, 5);
 336              		.loc 1 104 0
 337 00cc FFF7FEFF 		bl	USBD_HID_SendReport	@
 338              	.LVL7:
 339              	.L16:
 340              	@ inc/user_libs/tm_stm32f4_usb_hid_device.c:108: }
 105:inc/user_libs/tm_stm32f4_usb_hid_device.c **** 	
 106:inc/user_libs/tm_stm32f4_usb_hid_device.c **** 	/* Return connected */
 107:inc/user_libs/tm_stm32f4_usb_hid_device.c **** 	return TM_USB_HIDDEVICE_Status_Connected;
 108:inc/user_libs/tm_stm32f4_usb_hid_device.c **** }
 341              		.loc 1 108 0
 342 00d0 2046     		mov	r0, r4	@, <retval>
ARM GAS  /tmp/cc4YzWay.s 			page 9


 343 00d2 02B0     		add	sp, sp, #8	@,,
 344              	.LCFI6:
 345              		.cfi_remember_state
 346              		.cfi_def_cfa_offset 8
 347              		@ sp needed	@
 348 00d4 10BD     		pop	{r4, pc}	@
 349              	.L17:
 350              	.LCFI7:
 351              		.cfi_restore_state
 352              	@ inc/user_libs/tm_stm32f4_usb_hid_device.c:97: 		return TM_USB_HIDDEVICE_Status_Disconnected;
  97:inc/user_libs/tm_stm32f4_usb_hid_device.c **** 	}
 353              		.loc 1 97 0
 354 00d6 1C46     		mov	r4, r3	@ <retval>, <retval>
 355 00d8 FAE7     		b	.L16	@
 356              	.L19:
 357 00da 00BF     		.align	2
 358              	.L18:
 359 00dc 00000000 		.word	TM_USB_HIDDEVICE_INT_Status
 360 00e0 00000000 		.word	USB_OTG_dev
 361              		.cfi_endproc
 362              	.LFE114:
 363              		.size	TM_USB_HIDDEVICE_MouseReleaseAll, .-TM_USB_HIDDEVICE_MouseReleaseAll
 364              		.align	1
 365              		.global	TM_USB_HIDDEVICE_GamepadStructInit
 366              		.syntax unified
 367              		.thumb
 368              		.thumb_func
 369              		.fpu softvfp
 370              		.type	TM_USB_HIDDEVICE_GamepadStructInit, %function
 371              	TM_USB_HIDDEVICE_GamepadStructInit:
 372              	.LFB115:
 109:inc/user_libs/tm_stm32f4_usb_hid_device.c **** 
 110:inc/user_libs/tm_stm32f4_usb_hid_device.c **** /* Gamepad */
 111:inc/user_libs/tm_stm32f4_usb_hid_device.c **** TM_USB_HIDDEVICE_Status_t TM_USB_HIDDEVICE_GamepadStructInit(TM_USB_HIDDEVICE_Gamepad_t* Gamepad_Da
 373              		.loc 1 111 0
 374              		.cfi_startproc
 375              		@ args = 0, pretend = 0, frame = 0
 376              		@ frame_needed = 0, uses_anonymous_args = 0
 377              		@ link register save eliminated.
 378              	.LVL8:
 379              	@ inc/user_libs/tm_stm32f4_usb_hid_device.c:113: 	Gamepad_Data->Button1 = TM_USB_HIDDEVICE_Button_R
 112:inc/user_libs/tm_stm32f4_usb_hid_device.c **** 	/* Set defaults */
 113:inc/user_libs/tm_stm32f4_usb_hid_device.c **** 	Gamepad_Data->Button1 = TM_USB_HIDDEVICE_Button_Released;
 380              		.loc 1 113 0
 381 00e4 0023     		movs	r3, #0	@ tmp112,
 382 00e6 0370     		strb	r3, [r0]	@ tmp112, Gamepad_Data_2(D)->Button1
 383              	@ inc/user_libs/tm_stm32f4_usb_hid_device.c:114: 	Gamepad_Data->Button2 = TM_USB_HIDDEVICE_Button_R
 114:inc/user_libs/tm_stm32f4_usb_hid_device.c **** 	Gamepad_Data->Button2 = TM_USB_HIDDEVICE_Button_Released;
 384              		.loc 1 114 0
 385 00e8 4370     		strb	r3, [r0, #1]	@ tmp112, Gamepad_Data_2(D)->Button2
 386              	@ inc/user_libs/tm_stm32f4_usb_hid_device.c:115: 	Gamepad_Data->Button3 = TM_USB_HIDDEVICE_Button_R
 115:inc/user_libs/tm_stm32f4_usb_hid_device.c **** 	Gamepad_Data->Button3 = TM_USB_HIDDEVICE_Button_Released;
 387              		.loc 1 115 0
 388 00ea 8370     		strb	r3, [r0, #2]	@ tmp112, Gamepad_Data_2(D)->Button3
 389              	@ inc/user_libs/tm_stm32f4_usb_hid_device.c:116: 	Gamepad_Data->Button4 = TM_USB_HIDDEVICE_Button_R
 116:inc/user_libs/tm_stm32f4_usb_hid_device.c **** 	Gamepad_Data->Button4 = TM_USB_HIDDEVICE_Button_Released;
 390              		.loc 1 116 0
ARM GAS  /tmp/cc4YzWay.s 			page 10


 391 00ec C370     		strb	r3, [r0, #3]	@ tmp112, Gamepad_Data_2(D)->Button4
 392              	@ inc/user_libs/tm_stm32f4_usb_hid_device.c:117: 	Gamepad_Data->Button5 = TM_USB_HIDDEVICE_Button_R
 117:inc/user_libs/tm_stm32f4_usb_hid_device.c **** 	Gamepad_Data->Button5 = TM_USB_HIDDEVICE_Button_Released;
 393              		.loc 1 117 0
 394 00ee 0371     		strb	r3, [r0, #4]	@ tmp112, Gamepad_Data_2(D)->Button5
 395              	@ inc/user_libs/tm_stm32f4_usb_hid_device.c:118: 	Gamepad_Data->Button6 = TM_USB_HIDDEVICE_Button_R
 118:inc/user_libs/tm_stm32f4_usb_hid_device.c **** 	Gamepad_Data->Button6 = TM_USB_HIDDEVICE_Button_Released;
 396              		.loc 1 118 0
 397 00f0 4371     		strb	r3, [r0, #5]	@ tmp112, Gamepad_Data_2(D)->Button6
 398              	@ inc/user_libs/tm_stm32f4_usb_hid_device.c:119: 	Gamepad_Data->Button7 = TM_USB_HIDDEVICE_Button_R
 119:inc/user_libs/tm_stm32f4_usb_hid_device.c **** 	Gamepad_Data->Button7 = TM_USB_HIDDEVICE_Button_Released;
 399              		.loc 1 119 0
 400 00f2 8371     		strb	r3, [r0, #6]	@ tmp112, Gamepad_Data_2(D)->Button7
 401              	@ inc/user_libs/tm_stm32f4_usb_hid_device.c:120: 	Gamepad_Data->Button8 = TM_USB_HIDDEVICE_Button_R
 120:inc/user_libs/tm_stm32f4_usb_hid_device.c **** 	Gamepad_Data->Button8 = TM_USB_HIDDEVICE_Button_Released;
 402              		.loc 1 120 0
 403 00f4 C371     		strb	r3, [r0, #7]	@ tmp112, Gamepad_Data_2(D)->Button8
 404              	@ inc/user_libs/tm_stm32f4_usb_hid_device.c:121: 	Gamepad_Data->Button9 = TM_USB_HIDDEVICE_Button_R
 121:inc/user_libs/tm_stm32f4_usb_hid_device.c **** 	Gamepad_Data->Button9 = TM_USB_HIDDEVICE_Button_Released;
 405              		.loc 1 121 0
 406 00f6 0372     		strb	r3, [r0, #8]	@ tmp112, Gamepad_Data_2(D)->Button9
 407              	@ inc/user_libs/tm_stm32f4_usb_hid_device.c:122: 	Gamepad_Data->Button10 = TM_USB_HIDDEVICE_Button_
 122:inc/user_libs/tm_stm32f4_usb_hid_device.c **** 	Gamepad_Data->Button10 = TM_USB_HIDDEVICE_Button_Released;
 408              		.loc 1 122 0
 409 00f8 4372     		strb	r3, [r0, #9]	@ tmp112, Gamepad_Data_2(D)->Button10
 410              	@ inc/user_libs/tm_stm32f4_usb_hid_device.c:123: 	Gamepad_Data->Button11 = TM_USB_HIDDEVICE_Button_
 123:inc/user_libs/tm_stm32f4_usb_hid_device.c **** 	Gamepad_Data->Button11 = TM_USB_HIDDEVICE_Button_Released;
 411              		.loc 1 123 0
 412 00fa 8372     		strb	r3, [r0, #10]	@ tmp112, Gamepad_Data_2(D)->Button11
 413              	@ inc/user_libs/tm_stm32f4_usb_hid_device.c:124: 	Gamepad_Data->Button12 = TM_USB_HIDDEVICE_Button_
 124:inc/user_libs/tm_stm32f4_usb_hid_device.c **** 	Gamepad_Data->Button12 = TM_USB_HIDDEVICE_Button_Released;
 414              		.loc 1 124 0
 415 00fc C372     		strb	r3, [r0, #11]	@ tmp112, Gamepad_Data_2(D)->Button12
 416              	@ inc/user_libs/tm_stm32f4_usb_hid_device.c:125: 	Gamepad_Data->Button13 = TM_USB_HIDDEVICE_Button_
 125:inc/user_libs/tm_stm32f4_usb_hid_device.c **** 	Gamepad_Data->Button13 = TM_USB_HIDDEVICE_Button_Released;
 417              		.loc 1 125 0
 418 00fe 0373     		strb	r3, [r0, #12]	@ tmp112, Gamepad_Data_2(D)->Button13
 419              	@ inc/user_libs/tm_stm32f4_usb_hid_device.c:126: 	Gamepad_Data->Button14 = TM_USB_HIDDEVICE_Button_
 126:inc/user_libs/tm_stm32f4_usb_hid_device.c **** 	Gamepad_Data->Button14 = TM_USB_HIDDEVICE_Button_Released;
 420              		.loc 1 126 0
 421 0100 4373     		strb	r3, [r0, #13]	@ tmp112, Gamepad_Data_2(D)->Button14
 422              	@ inc/user_libs/tm_stm32f4_usb_hid_device.c:127: 	Gamepad_Data->Button15 = TM_USB_HIDDEVICE_Button_
 127:inc/user_libs/tm_stm32f4_usb_hid_device.c **** 	Gamepad_Data->Button15 = TM_USB_HIDDEVICE_Button_Released;
 423              		.loc 1 127 0
 424 0102 8373     		strb	r3, [r0, #14]	@ tmp112, Gamepad_Data_2(D)->Button15
 425              	@ inc/user_libs/tm_stm32f4_usb_hid_device.c:128: 	Gamepad_Data->Button16 = TM_USB_HIDDEVICE_Button_
 128:inc/user_libs/tm_stm32f4_usb_hid_device.c **** 	Gamepad_Data->Button16 = TM_USB_HIDDEVICE_Button_Released;
 426              		.loc 1 128 0
 427 0104 C373     		strb	r3, [r0, #15]	@ tmp112, Gamepad_Data_2(D)->Button16
 428              	@ inc/user_libs/tm_stm32f4_usb_hid_device.c:129: 	Gamepad_Data->LeftXAxis = 0;
 129:inc/user_libs/tm_stm32f4_usb_hid_device.c **** 	Gamepad_Data->LeftXAxis = 0;
 429              		.loc 1 129 0
 430 0106 0374     		strb	r3, [r0, #16]	@ tmp112, Gamepad_Data_2(D)->LeftXAxis
 431              	@ inc/user_libs/tm_stm32f4_usb_hid_device.c:130: 	Gamepad_Data->LeftYAxis = 0;
 130:inc/user_libs/tm_stm32f4_usb_hid_device.c **** 	Gamepad_Data->LeftYAxis = 0;
 432              		.loc 1 130 0
 433 0108 4374     		strb	r3, [r0, #17]	@ tmp112, Gamepad_Data_2(D)->LeftYAxis
ARM GAS  /tmp/cc4YzWay.s 			page 11


 434              	@ inc/user_libs/tm_stm32f4_usb_hid_device.c:131: 	Gamepad_Data->RightXAxis = 0;
 131:inc/user_libs/tm_stm32f4_usb_hid_device.c **** 	Gamepad_Data->RightXAxis = 0;
 435              		.loc 1 131 0
 436 010a 8374     		strb	r3, [r0, #18]	@ tmp112, Gamepad_Data_2(D)->RightXAxis
 437              	@ inc/user_libs/tm_stm32f4_usb_hid_device.c:132: 	Gamepad_Data->RightYAxis = 0;
 132:inc/user_libs/tm_stm32f4_usb_hid_device.c **** 	Gamepad_Data->RightYAxis = 0;
 438              		.loc 1 132 0
 439 010c C374     		strb	r3, [r0, #19]	@ tmp112, Gamepad_Data_2(D)->RightYAxis
 440              	@ inc/user_libs/tm_stm32f4_usb_hid_device.c:136: }
 133:inc/user_libs/tm_stm32f4_usb_hid_device.c **** 	
 134:inc/user_libs/tm_stm32f4_usb_hid_device.c **** 	/* Return currect status */
 135:inc/user_libs/tm_stm32f4_usb_hid_device.c **** 	return TM_USB_HIDDEVICE_INT_Status;
 136:inc/user_libs/tm_stm32f4_usb_hid_device.c **** }
 441              		.loc 1 136 0
 442 010e 014B     		ldr	r3, .L21	@ tmp153,
 443 0110 1878     		ldrb	r0, [r3]	@ zero_extendqisi2	@, TM_USB_HIDDEVICE_INT_Status
 444              	.LVL9:
 445 0112 7047     		bx	lr	@
 446              	.L22:
 447              		.align	2
 448              	.L21:
 449 0114 00000000 		.word	TM_USB_HIDDEVICE_INT_Status
 450              		.cfi_endproc
 451              	.LFE115:
 452              		.size	TM_USB_HIDDEVICE_GamepadStructInit, .-TM_USB_HIDDEVICE_GamepadStructInit
 453              		.align	1
 454              		.global	TM_USB_HIDDEVICE_GamepadSend
 455              		.syntax unified
 456              		.thumb
 457              		.thumb_func
 458              		.fpu softvfp
 459              		.type	TM_USB_HIDDEVICE_GamepadSend, %function
 460              	TM_USB_HIDDEVICE_GamepadSend:
 461              	.LFB116:
 137:inc/user_libs/tm_stm32f4_usb_hid_device.c **** 
 138:inc/user_libs/tm_stm32f4_usb_hid_device.c **** TM_USB_HIDDEVICE_Status_t TM_USB_HIDDEVICE_GamepadSend(TM_USB_HIDDEVICE_Gamepad_Number_t gamepad_id
 462              		.loc 1 138 0
 463              		.cfi_startproc
 464              		@ args = 0, pretend = 0, frame = 8
 465              		@ frame_needed = 0, uses_anonymous_args = 0
 466              	.LVL10:
 467              	@ inc/user_libs/tm_stm32f4_usb_hid_device.c:142: 	if (TM_USB_HIDDEVICE_INT_Status != TM_USB_HIDDEVI
 139:inc/user_libs/tm_stm32f4_usb_hid_device.c **** 	uint8_t buff[7]; /* 7 bytes long report */
 140:inc/user_libs/tm_stm32f4_usb_hid_device.c **** 	
 141:inc/user_libs/tm_stm32f4_usb_hid_device.c **** 	/* Check status */
 142:inc/user_libs/tm_stm32f4_usb_hid_device.c **** 	if (TM_USB_HIDDEVICE_INT_Status != TM_USB_HIDDEVICE_Status_Connected) {
 468              		.loc 1 142 0
 469 0118 264B     		ldr	r3, .L26	@ tmp197,
 470              	@ inc/user_libs/tm_stm32f4_usb_hid_device.c:138: TM_USB_HIDDEVICE_Status_t TM_USB_HIDDEVICE_Gamepad
 138:inc/user_libs/tm_stm32f4_usb_hid_device.c **** 	uint8_t buff[7]; /* 7 bytes long report */
 471              		.loc 1 138 0
 472 011a 13B5     		push	{r0, r1, r4, lr}	@
 473              	.LCFI8:
 474              		.cfi_def_cfa_offset 16
 475              		.cfi_offset 4, -8
 476              		.cfi_offset 14, -4
 477              	@ inc/user_libs/tm_stm32f4_usb_hid_device.c:142: 	if (TM_USB_HIDDEVICE_INT_Status != TM_USB_HIDDEVI
ARM GAS  /tmp/cc4YzWay.s 			page 12


 478              		.loc 1 142 0
 479 011c 1C78     		ldrb	r4, [r3]	@ zero_extendqisi2	@ <retval>, TM_USB_HIDDEVICE_INT_Status
 480 011e 012C     		cmp	r4, #1	@ <retval>,
 481 0120 45D1     		bne	.L25	@,
 482              	@ inc/user_libs/tm_stm32f4_usb_hid_device.c:153: 	buff[1] |= Gamepad_Data->Button3 	<< 2;	/* Bit 2 
 143:inc/user_libs/tm_stm32f4_usb_hid_device.c **** 		return TM_USB_HIDDEVICE_Status_Disconnected;
 144:inc/user_libs/tm_stm32f4_usb_hid_device.c **** 	}
 145:inc/user_libs/tm_stm32f4_usb_hid_device.c **** 	
 146:inc/user_libs/tm_stm32f4_usb_hid_device.c **** 	/* Report ID */
 147:inc/user_libs/tm_stm32f4_usb_hid_device.c **** 	buff[0] = gamepad_id; /* gamepad id */
 148:inc/user_libs/tm_stm32f4_usb_hid_device.c **** 	
 149:inc/user_libs/tm_stm32f4_usb_hid_device.c **** 	/* Buttons pressed, byte 1 */
 150:inc/user_libs/tm_stm32f4_usb_hid_device.c **** 	buff[1] = 0;
 151:inc/user_libs/tm_stm32f4_usb_hid_device.c **** 	buff[1] |= Gamepad_Data->Button1 	<< 0;	/* Bit 0 */
 152:inc/user_libs/tm_stm32f4_usb_hid_device.c **** 	buff[1] |= Gamepad_Data->Button2 	<< 1;	/* Bit 1 */
 153:inc/user_libs/tm_stm32f4_usb_hid_device.c **** 	buff[1] |= Gamepad_Data->Button3 	<< 2;	/* Bit 2 */
 483              		.loc 1 153 0
 484 0122 8B78     		ldrb	r3, [r1, #2]	@ zero_extendqisi2	@ Gamepad_Data_91(D)->Button3, Gamepad_Data_91(D)->Button3
 485              	@ inc/user_libs/tm_stm32f4_usb_hid_device.c:152: 	buff[1] |= Gamepad_Data->Button2 	<< 1;	/* Bit 1 
 152:inc/user_libs/tm_stm32f4_usb_hid_device.c **** 	buff[1] |= Gamepad_Data->Button3 	<< 2;	/* Bit 2 */
 486              		.loc 1 152 0
 487 0124 4A78     		ldrb	r2, [r1, #1]	@ zero_extendqisi2	@ Gamepad_Data_91(D)->Button2, Gamepad_Data_91(D)->Button2
 488              	@ inc/user_libs/tm_stm32f4_usb_hid_device.c:147: 	buff[0] = gamepad_id; /* gamepad id */
 147:inc/user_libs/tm_stm32f4_usb_hid_device.c **** 	
 489              		.loc 1 147 0
 490 0126 8DF80000 		strb	r0, [sp]	@ gamepad_id, buff
 491              	@ inc/user_libs/tm_stm32f4_usb_hid_device.c:153: 	buff[1] |= Gamepad_Data->Button3 	<< 2;	/* Bit 2 
 492              		.loc 1 153 0
 493 012a 9B00     		lsls	r3, r3, #2	@ tmp202, Gamepad_Data_91(D)->Button3,
 494 012c 43EA4203 		orr	r3, r3, r2, lsl #1	@ tmp205, tmp202, Gamepad_Data_91(D)->Button2,
 495 0130 0A78     		ldrb	r2, [r1]	@ zero_extendqisi2	@ Gamepad_Data_91(D)->Button1, Gamepad_Data_91(D)->Button1
 496              	@ inc/user_libs/tm_stm32f4_usb_hid_device.c:180: 	USBD_HID_SendReport(&USB_OTG_dev, buff, 7);
 154:inc/user_libs/tm_stm32f4_usb_hid_device.c **** 	buff[1] |= Gamepad_Data->Button4 	<< 3;	/* Bit 3 */
 155:inc/user_libs/tm_stm32f4_usb_hid_device.c **** 	buff[1] |= Gamepad_Data->Button5 	<< 4;	/* Bit 4 */
 156:inc/user_libs/tm_stm32f4_usb_hid_device.c **** 	buff[1] |= Gamepad_Data->Button6 	<< 5;	/* Bit 5 */
 157:inc/user_libs/tm_stm32f4_usb_hid_device.c **** 	buff[1] |= Gamepad_Data->Button7 	<< 6;	/* Bit 6 */
 158:inc/user_libs/tm_stm32f4_usb_hid_device.c **** 	buff[1] |= Gamepad_Data->Button8 	<< 7;	/* Bit 7 */
 159:inc/user_libs/tm_stm32f4_usb_hid_device.c **** 	
 160:inc/user_libs/tm_stm32f4_usb_hid_device.c **** 	/* Buttons pressed, byte 2 */
 161:inc/user_libs/tm_stm32f4_usb_hid_device.c **** 	buff[2] = 0;
 162:inc/user_libs/tm_stm32f4_usb_hid_device.c **** 	buff[2] |= Gamepad_Data->Button9 	<< 0;	/* Bit 0 */
 163:inc/user_libs/tm_stm32f4_usb_hid_device.c **** 	buff[2] |= Gamepad_Data->Button10 	<< 1;	/* Bit 1 */
 164:inc/user_libs/tm_stm32f4_usb_hid_device.c **** 	buff[2] |= Gamepad_Data->Button11 	<< 2;	/* Bit 2 */
 165:inc/user_libs/tm_stm32f4_usb_hid_device.c **** 	buff[2] |= Gamepad_Data->Button12 	<< 3;	/* Bit 3 */
 166:inc/user_libs/tm_stm32f4_usb_hid_device.c **** 	buff[2] |= Gamepad_Data->Button13 	<< 4;	/* Bit 4 */
 167:inc/user_libs/tm_stm32f4_usb_hid_device.c **** 	buff[2] |= Gamepad_Data->Button14 	<< 5;	/* Bit 5 */
 168:inc/user_libs/tm_stm32f4_usb_hid_device.c **** 	buff[2] |= Gamepad_Data->Button15 	<< 6;	/* Bit 6 */
 169:inc/user_libs/tm_stm32f4_usb_hid_device.c **** 	buff[2] |= Gamepad_Data->Button16 	<< 7;	/* Bit 7 */
 170:inc/user_libs/tm_stm32f4_usb_hid_device.c **** 	
 171:inc/user_libs/tm_stm32f4_usb_hid_device.c **** 	/* Left joystick */
 172:inc/user_libs/tm_stm32f4_usb_hid_device.c **** 	buff[3] = Gamepad_Data->LeftXAxis;
 173:inc/user_libs/tm_stm32f4_usb_hid_device.c **** 	buff[4] = Gamepad_Data->LeftYAxis;
 174:inc/user_libs/tm_stm32f4_usb_hid_device.c **** 	
 175:inc/user_libs/tm_stm32f4_usb_hid_device.c **** 	/* Right joystick */
 176:inc/user_libs/tm_stm32f4_usb_hid_device.c **** 	buff[5] = Gamepad_Data->RightXAxis;
 177:inc/user_libs/tm_stm32f4_usb_hid_device.c **** 	buff[6] = Gamepad_Data->RightYAxis;
 178:inc/user_libs/tm_stm32f4_usb_hid_device.c **** 	
ARM GAS  /tmp/cc4YzWay.s 			page 13


 179:inc/user_libs/tm_stm32f4_usb_hid_device.c **** 	/* Send to USB gamepad data */
 180:inc/user_libs/tm_stm32f4_usb_hid_device.c **** 	USBD_HID_SendReport(&USB_OTG_dev, buff, 7);
 497              		.loc 1 180 0
 498 0132 2148     		ldr	r0, .L26+4	@,
 499              	.LVL11:
 500              	@ inc/user_libs/tm_stm32f4_usb_hid_device.c:153: 	buff[1] |= Gamepad_Data->Button3 	<< 2;	/* Bit 2 
 153:inc/user_libs/tm_stm32f4_usb_hid_device.c **** 	buff[1] |= Gamepad_Data->Button4 	<< 3;	/* Bit 3 */
 501              		.loc 1 153 0
 502 0134 1343     		orrs	r3, r3, r2	@, tmp209, tmp205, Gamepad_Data_91(D)->Button1
 503              	@ inc/user_libs/tm_stm32f4_usb_hid_device.c:154: 	buff[1] |= Gamepad_Data->Button4 	<< 3;	/* Bit 3 
 154:inc/user_libs/tm_stm32f4_usb_hid_device.c **** 	buff[1] |= Gamepad_Data->Button4 	<< 3;	/* Bit 3 */
 504              		.loc 1 154 0
 505 0136 CA78     		ldrb	r2, [r1, #3]	@ zero_extendqisi2	@ Gamepad_Data_91(D)->Button4, Gamepad_Data_91(D)->Button4
 506 0138 43EAC203 		orr	r3, r3, r2, lsl #3	@ tmp214, tmp209, Gamepad_Data_91(D)->Button4,
 507              	@ inc/user_libs/tm_stm32f4_usb_hid_device.c:155: 	buff[1] |= Gamepad_Data->Button5 	<< 4;	/* Bit 4 
 155:inc/user_libs/tm_stm32f4_usb_hid_device.c **** 	buff[1] |= Gamepad_Data->Button6 	<< 5;	/* Bit 5 */
 508              		.loc 1 155 0
 509 013c 0A79     		ldrb	r2, [r1, #4]	@ zero_extendqisi2	@ Gamepad_Data_91(D)->Button5, Gamepad_Data_91(D)->Button5
 510 013e 43EA0213 		orr	r3, r3, r2, lsl #4	@ tmp219, tmp214, Gamepad_Data_91(D)->Button5,
 511              	@ inc/user_libs/tm_stm32f4_usb_hid_device.c:156: 	buff[1] |= Gamepad_Data->Button6 	<< 5;	/* Bit 5 
 156:inc/user_libs/tm_stm32f4_usb_hid_device.c **** 	buff[1] |= Gamepad_Data->Button7 	<< 6;	/* Bit 6 */
 512              		.loc 1 156 0
 513 0142 4A79     		ldrb	r2, [r1, #5]	@ zero_extendqisi2	@ Gamepad_Data_91(D)->Button6, Gamepad_Data_91(D)->Button6
 514 0144 43EA4213 		orr	r3, r3, r2, lsl #5	@ tmp224, tmp219, Gamepad_Data_91(D)->Button6,
 515              	@ inc/user_libs/tm_stm32f4_usb_hid_device.c:157: 	buff[1] |= Gamepad_Data->Button7 	<< 6;	/* Bit 6 
 157:inc/user_libs/tm_stm32f4_usb_hid_device.c **** 	buff[1] |= Gamepad_Data->Button8 	<< 7;	/* Bit 7 */
 516              		.loc 1 157 0
 517 0148 8A79     		ldrb	r2, [r1, #6]	@ zero_extendqisi2	@ Gamepad_Data_91(D)->Button7, Gamepad_Data_91(D)->Button7
 518 014a 43EA8213 		orr	r3, r3, r2, lsl #6	@ tmp229, tmp224, Gamepad_Data_91(D)->Button7,
 519              	@ inc/user_libs/tm_stm32f4_usb_hid_device.c:158: 	buff[1] |= Gamepad_Data->Button8 	<< 7;	/* Bit 7 
 158:inc/user_libs/tm_stm32f4_usb_hid_device.c **** 	
 520              		.loc 1 158 0
 521 014e CA79     		ldrb	r2, [r1, #7]	@ zero_extendqisi2	@ Gamepad_Data_91(D)->Button8, Gamepad_Data_91(D)->Button8
 522 0150 43EAC213 		orr	r3, r3, r2, lsl #7	@ tmp234, tmp229, Gamepad_Data_91(D)->Button8,
 523 0154 8DF80130 		strb	r3, [sp, #1]	@ tmp234, buff
 524              	@ inc/user_libs/tm_stm32f4_usb_hid_device.c:164: 	buff[2] |= Gamepad_Data->Button11 	<< 2;	/* Bit 2
 164:inc/user_libs/tm_stm32f4_usb_hid_device.c **** 	buff[2] |= Gamepad_Data->Button12 	<< 3;	/* Bit 3 */
 525              		.loc 1 164 0
 526 0158 8B7A     		ldrb	r3, [r1, #10]	@ zero_extendqisi2	@ Gamepad_Data_91(D)->Button11, Gamepad_Data_91(D)->Button11
 527              	@ inc/user_libs/tm_stm32f4_usb_hid_device.c:163: 	buff[2] |= Gamepad_Data->Button10 	<< 1;	/* Bit 1
 163:inc/user_libs/tm_stm32f4_usb_hid_device.c **** 	buff[2] |= Gamepad_Data->Button11 	<< 2;	/* Bit 2 */
 528              		.loc 1 163 0
 529 015a 4A7A     		ldrb	r2, [r1, #9]	@ zero_extendqisi2	@ Gamepad_Data_91(D)->Button10, Gamepad_Data_91(D)->Button10
 530              	@ inc/user_libs/tm_stm32f4_usb_hid_device.c:164: 	buff[2] |= Gamepad_Data->Button11 	<< 2;	/* Bit 2
 164:inc/user_libs/tm_stm32f4_usb_hid_device.c **** 	buff[2] |= Gamepad_Data->Button12 	<< 3;	/* Bit 3 */
 531              		.loc 1 164 0
 532 015c 9B00     		lsls	r3, r3, #2	@ tmp239, Gamepad_Data_91(D)->Button11,
 533 015e 43EA4203 		orr	r3, r3, r2, lsl #1	@ tmp242, tmp239, Gamepad_Data_91(D)->Button10,
 534 0162 0A7A     		ldrb	r2, [r1, #8]	@ zero_extendqisi2	@ Gamepad_Data_91(D)->Button9, Gamepad_Data_91(D)->Button9
 535 0164 1343     		orrs	r3, r3, r2	@, tmp246, tmp242, Gamepad_Data_91(D)->Button9
 536              	@ inc/user_libs/tm_stm32f4_usb_hid_device.c:165: 	buff[2] |= Gamepad_Data->Button12 	<< 3;	/* Bit 3
 165:inc/user_libs/tm_stm32f4_usb_hid_device.c **** 	buff[2] |= Gamepad_Data->Button13 	<< 4;	/* Bit 4 */
 537              		.loc 1 165 0
 538 0166 CA7A     		ldrb	r2, [r1, #11]	@ zero_extendqisi2	@ Gamepad_Data_91(D)->Button12, Gamepad_Data_91(D)->Button12
 539 0168 43EAC203 		orr	r3, r3, r2, lsl #3	@ tmp251, tmp246, Gamepad_Data_91(D)->Button12,
 540              	@ inc/user_libs/tm_stm32f4_usb_hid_device.c:166: 	buff[2] |= Gamepad_Data->Button13 	<< 4;	/* Bit 4
 166:inc/user_libs/tm_stm32f4_usb_hid_device.c **** 	buff[2] |= Gamepad_Data->Button14 	<< 5;	/* Bit 5 */
ARM GAS  /tmp/cc4YzWay.s 			page 14


 541              		.loc 1 166 0
 542 016c 0A7B     		ldrb	r2, [r1, #12]	@ zero_extendqisi2	@ Gamepad_Data_91(D)->Button13, Gamepad_Data_91(D)->Button13
 543 016e 43EA0213 		orr	r3, r3, r2, lsl #4	@ tmp256, tmp251, Gamepad_Data_91(D)->Button13,
 544              	@ inc/user_libs/tm_stm32f4_usb_hid_device.c:167: 	buff[2] |= Gamepad_Data->Button14 	<< 5;	/* Bit 5
 167:inc/user_libs/tm_stm32f4_usb_hid_device.c **** 	buff[2] |= Gamepad_Data->Button15 	<< 6;	/* Bit 6 */
 545              		.loc 1 167 0
 546 0172 4A7B     		ldrb	r2, [r1, #13]	@ zero_extendqisi2	@ Gamepad_Data_91(D)->Button14, Gamepad_Data_91(D)->Button14
 547 0174 43EA4213 		orr	r3, r3, r2, lsl #5	@ tmp261, tmp256, Gamepad_Data_91(D)->Button14,
 548              	@ inc/user_libs/tm_stm32f4_usb_hid_device.c:168: 	buff[2] |= Gamepad_Data->Button15 	<< 6;	/* Bit 6
 168:inc/user_libs/tm_stm32f4_usb_hid_device.c **** 	buff[2] |= Gamepad_Data->Button16 	<< 7;	/* Bit 7 */
 549              		.loc 1 168 0
 550 0178 8A7B     		ldrb	r2, [r1, #14]	@ zero_extendqisi2	@ Gamepad_Data_91(D)->Button15, Gamepad_Data_91(D)->Button15
 551 017a 43EA8213 		orr	r3, r3, r2, lsl #6	@ tmp266, tmp261, Gamepad_Data_91(D)->Button15,
 552              	@ inc/user_libs/tm_stm32f4_usb_hid_device.c:169: 	buff[2] |= Gamepad_Data->Button16 	<< 7;	/* Bit 7
 169:inc/user_libs/tm_stm32f4_usb_hid_device.c **** 	
 553              		.loc 1 169 0
 554 017e CA7B     		ldrb	r2, [r1, #15]	@ zero_extendqisi2	@ Gamepad_Data_91(D)->Button16, Gamepad_Data_91(D)->Button16
 555 0180 43EAC213 		orr	r3, r3, r2, lsl #7	@ tmp271, tmp266, Gamepad_Data_91(D)->Button16,
 556 0184 8DF80230 		strb	r3, [sp, #2]	@ tmp271, buff
 557              	@ inc/user_libs/tm_stm32f4_usb_hid_device.c:172: 	buff[3] = Gamepad_Data->LeftXAxis;
 172:inc/user_libs/tm_stm32f4_usb_hid_device.c **** 	buff[4] = Gamepad_Data->LeftYAxis;
 558              		.loc 1 172 0
 559 0188 0B7C     		ldrb	r3, [r1, #16]	@ zero_extendqisi2	@ Gamepad_Data_91(D)->LeftXAxis, Gamepad_Data_91(D)->LeftXAx
 560 018a 8DF80330 		strb	r3, [sp, #3]	@ Gamepad_Data_91(D)->LeftXAxis, buff
 561              	@ inc/user_libs/tm_stm32f4_usb_hid_device.c:173: 	buff[4] = Gamepad_Data->LeftYAxis;
 173:inc/user_libs/tm_stm32f4_usb_hid_device.c **** 	
 562              		.loc 1 173 0
 563 018e 4B7C     		ldrb	r3, [r1, #17]	@ zero_extendqisi2	@ Gamepad_Data_91(D)->LeftYAxis, Gamepad_Data_91(D)->LeftYAx
 564 0190 8DF80430 		strb	r3, [sp, #4]	@ Gamepad_Data_91(D)->LeftYAxis, buff
 565              	@ inc/user_libs/tm_stm32f4_usb_hid_device.c:176: 	buff[5] = Gamepad_Data->RightXAxis;
 176:inc/user_libs/tm_stm32f4_usb_hid_device.c **** 	buff[6] = Gamepad_Data->RightYAxis;
 566              		.loc 1 176 0
 567 0194 8B7C     		ldrb	r3, [r1, #18]	@ zero_extendqisi2	@ Gamepad_Data_91(D)->RightXAxis, Gamepad_Data_91(D)->RightX
 568 0196 8DF80530 		strb	r3, [sp, #5]	@ Gamepad_Data_91(D)->RightXAxis, buff
 569              	@ inc/user_libs/tm_stm32f4_usb_hid_device.c:180: 	USBD_HID_SendReport(&USB_OTG_dev, buff, 7);
 570              		.loc 1 180 0
 571 019a 0722     		movs	r2, #7	@,
 572              	@ inc/user_libs/tm_stm32f4_usb_hid_device.c:177: 	buff[6] = Gamepad_Data->RightYAxis;
 177:inc/user_libs/tm_stm32f4_usb_hid_device.c **** 	
 573              		.loc 1 177 0
 574 019c CB7C     		ldrb	r3, [r1, #19]	@ zero_extendqisi2	@ Gamepad_Data_91(D)->RightYAxis, Gamepad_Data_91(D)->RightY
 575 019e 8DF80630 		strb	r3, [sp, #6]	@ Gamepad_Data_91(D)->RightYAxis, buff
 576              	@ inc/user_libs/tm_stm32f4_usb_hid_device.c:180: 	USBD_HID_SendReport(&USB_OTG_dev, buff, 7);
 577              		.loc 1 180 0
 578 01a2 6946     		mov	r1, sp	@,
 579              	.LVL12:
 580 01a4 FFF7FEFF 		bl	USBD_HID_SendReport	@
 581              	.LVL13:
 582              	.L24:
 583              	@ inc/user_libs/tm_stm32f4_usb_hid_device.c:184: }
 181:inc/user_libs/tm_stm32f4_usb_hid_device.c **** 	
 182:inc/user_libs/tm_stm32f4_usb_hid_device.c **** 	/* Return connected */
 183:inc/user_libs/tm_stm32f4_usb_hid_device.c **** 	return TM_USB_HIDDEVICE_Status_Connected;
 184:inc/user_libs/tm_stm32f4_usb_hid_device.c **** }
 584              		.loc 1 184 0
 585 01a8 2046     		mov	r0, r4	@, <retval>
 586 01aa 02B0     		add	sp, sp, #8	@,,
ARM GAS  /tmp/cc4YzWay.s 			page 15


 587              	.LCFI9:
 588              		.cfi_remember_state
 589              		.cfi_def_cfa_offset 8
 590              		@ sp needed	@
 591 01ac 10BD     		pop	{r4, pc}	@
 592              	.LVL14:
 593              	.L25:
 594              	.LCFI10:
 595              		.cfi_restore_state
 596              	@ inc/user_libs/tm_stm32f4_usb_hid_device.c:143: 		return TM_USB_HIDDEVICE_Status_Disconnected;
 143:inc/user_libs/tm_stm32f4_usb_hid_device.c **** 	}
 597              		.loc 1 143 0
 598 01ae 0224     		movs	r4, #2	@ <retval>,
 599 01b0 FAE7     		b	.L24	@
 600              	.L27:
 601 01b2 00BF     		.align	2
 602              	.L26:
 603 01b4 00000000 		.word	TM_USB_HIDDEVICE_INT_Status
 604 01b8 00000000 		.word	USB_OTG_dev
 605              		.cfi_endproc
 606              	.LFE116:
 607              		.size	TM_USB_HIDDEVICE_GamepadSend, .-TM_USB_HIDDEVICE_GamepadSend
 608              		.align	1
 609              		.global	TM_USB_HIDDEVICE_GamepadReleaseAll
 610              		.syntax unified
 611              		.thumb
 612              		.thumb_func
 613              		.fpu softvfp
 614              		.type	TM_USB_HIDDEVICE_GamepadReleaseAll, %function
 615              	TM_USB_HIDDEVICE_GamepadReleaseAll:
 616              	.LFB117:
 185:inc/user_libs/tm_stm32f4_usb_hid_device.c **** 
 186:inc/user_libs/tm_stm32f4_usb_hid_device.c **** TM_USB_HIDDEVICE_Status_t TM_USB_HIDDEVICE_GamepadReleaseAll(TM_USB_HIDDEVICE_Gamepad_Number_t game
 617              		.loc 1 186 0
 618              		.cfi_startproc
 619              		@ args = 0, pretend = 0, frame = 8
 620              		@ frame_needed = 0, uses_anonymous_args = 0
 621              	.LVL15:
 622 01bc 13B5     		push	{r0, r1, r4, lr}	@
 623              	.LCFI11:
 624              		.cfi_def_cfa_offset 16
 625              		.cfi_offset 4, -8
 626              		.cfi_offset 14, -4
 627              	@ inc/user_libs/tm_stm32f4_usb_hid_device.c:187: 	uint8_t buff[7] = {0, 0, 0, 0, 0, 0, 0}; /* 7 byt
 187:inc/user_libs/tm_stm32f4_usb_hid_device.c **** 	uint8_t buff[7] = {0, 0, 0, 0, 0, 0, 0}; /* 7 bytes long report */
 628              		.loc 1 187 0
 629 01be 0023     		movs	r3, #0	@ tmp113,
 630 01c0 0093     		str	r3, [sp]	@ tmp113, buff
 631 01c2 CDF80330 		str	r3, [sp, #3]	@ unaligned	@ tmp113, buff
 632              	@ inc/user_libs/tm_stm32f4_usb_hid_device.c:190: 	if (TM_USB_HIDDEVICE_INT_Status != TM_USB_HIDDEVI
 188:inc/user_libs/tm_stm32f4_usb_hid_device.c **** 	
 189:inc/user_libs/tm_stm32f4_usb_hid_device.c **** 	/* Check status */
 190:inc/user_libs/tm_stm32f4_usb_hid_device.c **** 	if (TM_USB_HIDDEVICE_INT_Status != TM_USB_HIDDEVICE_Status_Connected) {
 633              		.loc 1 190 0
 634 01c6 084B     		ldr	r3, .L31	@ tmp114,
 635 01c8 1C78     		ldrb	r4, [r3]	@ zero_extendqisi2	@ <retval>, TM_USB_HIDDEVICE_INT_Status
 636 01ca 012C     		cmp	r4, #1	@ <retval>,
ARM GAS  /tmp/cc4YzWay.s 			page 16


 637 01cc 09D1     		bne	.L30	@,
 638              	@ inc/user_libs/tm_stm32f4_usb_hid_device.c:195: 	buff[0] = gamepad_id;
 191:inc/user_libs/tm_stm32f4_usb_hid_device.c **** 		return TM_USB_HIDDEVICE_Status_Disconnected;
 192:inc/user_libs/tm_stm32f4_usb_hid_device.c **** 	}
 193:inc/user_libs/tm_stm32f4_usb_hid_device.c **** 	
 194:inc/user_libs/tm_stm32f4_usb_hid_device.c **** 	/* Report ID */
 195:inc/user_libs/tm_stm32f4_usb_hid_device.c **** 	buff[0] = gamepad_id;
 639              		.loc 1 195 0
 640 01ce 8DF80000 		strb	r0, [sp]	@ gamepad_id, buff
 641              	@ inc/user_libs/tm_stm32f4_usb_hid_device.c:198: 	USBD_HID_SendReport(&USB_OTG_dev, buff, 7);
 196:inc/user_libs/tm_stm32f4_usb_hid_device.c **** 	
 197:inc/user_libs/tm_stm32f4_usb_hid_device.c **** 	/* Send to USB gamepad release all buttons and joysticks */
 198:inc/user_libs/tm_stm32f4_usb_hid_device.c **** 	USBD_HID_SendReport(&USB_OTG_dev, buff, 7);
 642              		.loc 1 198 0
 643 01d2 0722     		movs	r2, #7	@,
 644 01d4 6946     		mov	r1, sp	@,
 645 01d6 0548     		ldr	r0, .L31+4	@,
 646              	.LVL16:
 647 01d8 FFF7FEFF 		bl	USBD_HID_SendReport	@
 648              	.LVL17:
 649              	.L29:
 650              	@ inc/user_libs/tm_stm32f4_usb_hid_device.c:202: }
 199:inc/user_libs/tm_stm32f4_usb_hid_device.c **** 	
 200:inc/user_libs/tm_stm32f4_usb_hid_device.c **** 	/* Return connected */
 201:inc/user_libs/tm_stm32f4_usb_hid_device.c **** 	return TM_USB_HIDDEVICE_Status_Connected;	
 202:inc/user_libs/tm_stm32f4_usb_hid_device.c **** }
 651              		.loc 1 202 0
 652 01dc 2046     		mov	r0, r4	@, <retval>
 653 01de 02B0     		add	sp, sp, #8	@,,
 654              	.LCFI12:
 655              		.cfi_remember_state
 656              		.cfi_def_cfa_offset 8
 657              		@ sp needed	@
 658 01e0 10BD     		pop	{r4, pc}	@
 659              	.LVL18:
 660              	.L30:
 661              	.LCFI13:
 662              		.cfi_restore_state
 663              	@ inc/user_libs/tm_stm32f4_usb_hid_device.c:191: 		return TM_USB_HIDDEVICE_Status_Disconnected;
 191:inc/user_libs/tm_stm32f4_usb_hid_device.c **** 	}
 664              		.loc 1 191 0
 665 01e2 0224     		movs	r4, #2	@ <retval>,
 666 01e4 FAE7     		b	.L29	@
 667              	.L32:
 668 01e6 00BF     		.align	2
 669              	.L31:
 670 01e8 00000000 		.word	TM_USB_HIDDEVICE_INT_Status
 671 01ec 00000000 		.word	USB_OTG_dev
 672              		.cfi_endproc
 673              	.LFE117:
 674              		.size	TM_USB_HIDDEVICE_GamepadReleaseAll, .-TM_USB_HIDDEVICE_GamepadReleaseAll
 675              		.align	1
 676              		.global	TM_USB_HIDDEVICE_KeyboardStructInit
 677              		.syntax unified
 678              		.thumb
 679              		.thumb_func
 680              		.fpu softvfp
ARM GAS  /tmp/cc4YzWay.s 			page 17


 681              		.type	TM_USB_HIDDEVICE_KeyboardStructInit, %function
 682              	TM_USB_HIDDEVICE_KeyboardStructInit:
 683              	.LFB118:
 203:inc/user_libs/tm_stm32f4_usb_hid_device.c **** 
 204:inc/user_libs/tm_stm32f4_usb_hid_device.c **** /* Keyboard */
 205:inc/user_libs/tm_stm32f4_usb_hid_device.c **** TM_USB_HIDDEVICE_Status_t TM_USB_HIDDEVICE_KeyboardStructInit(TM_USB_HIDDEVICE_Keyboard_t* Keyboard
 684              		.loc 1 205 0
 685              		.cfi_startproc
 686              		@ args = 0, pretend = 0, frame = 0
 687              		@ frame_needed = 0, uses_anonymous_args = 0
 688              		@ link register save eliminated.
 689              	.LVL19:
 690              	@ inc/user_libs/tm_stm32f4_usb_hid_device.c:207: 	Keyboard_Data->L_CTRL = TM_USB_HIDDEVICE_Button_R
 206:inc/user_libs/tm_stm32f4_usb_hid_device.c **** 	/* Set defaults */
 207:inc/user_libs/tm_stm32f4_usb_hid_device.c **** 	Keyboard_Data->L_CTRL = TM_USB_HIDDEVICE_Button_Released;
 691              		.loc 1 207 0
 692 01f0 0023     		movs	r3, #0	@ tmp112,
 693 01f2 0370     		strb	r3, [r0]	@ tmp112, Keyboard_Data_2(D)->L_CTRL
 694              	@ inc/user_libs/tm_stm32f4_usb_hid_device.c:208: 	Keyboard_Data->L_ALT = TM_USB_HIDDEVICE_Button_Re
 208:inc/user_libs/tm_stm32f4_usb_hid_device.c **** 	Keyboard_Data->L_ALT = TM_USB_HIDDEVICE_Button_Released;
 695              		.loc 1 208 0
 696 01f4 4370     		strb	r3, [r0, #1]	@ tmp112, Keyboard_Data_2(D)->L_ALT
 697              	@ inc/user_libs/tm_stm32f4_usb_hid_device.c:209: 	Keyboard_Data->L_SHIFT = TM_USB_HIDDEVICE_Button_
 209:inc/user_libs/tm_stm32f4_usb_hid_device.c **** 	Keyboard_Data->L_SHIFT = TM_USB_HIDDEVICE_Button_Released;
 698              		.loc 1 209 0
 699 01f6 8370     		strb	r3, [r0, #2]	@ tmp112, Keyboard_Data_2(D)->L_SHIFT
 700              	@ inc/user_libs/tm_stm32f4_usb_hid_device.c:210: 	Keyboard_Data->L_GUI = TM_USB_HIDDEVICE_Button_Re
 210:inc/user_libs/tm_stm32f4_usb_hid_device.c **** 	Keyboard_Data->L_GUI = TM_USB_HIDDEVICE_Button_Released;
 701              		.loc 1 210 0
 702 01f8 C370     		strb	r3, [r0, #3]	@ tmp112, Keyboard_Data_2(D)->L_GUI
 703              	@ inc/user_libs/tm_stm32f4_usb_hid_device.c:211: 	Keyboard_Data->R_CTRL = TM_USB_HIDDEVICE_Button_R
 211:inc/user_libs/tm_stm32f4_usb_hid_device.c **** 	Keyboard_Data->R_CTRL = TM_USB_HIDDEVICE_Button_Released;
 704              		.loc 1 211 0
 705 01fa 0371     		strb	r3, [r0, #4]	@ tmp112, Keyboard_Data_2(D)->R_CTRL
 706              	@ inc/user_libs/tm_stm32f4_usb_hid_device.c:212: 	Keyboard_Data->R_ALT = TM_USB_HIDDEVICE_Button_Re
 212:inc/user_libs/tm_stm32f4_usb_hid_device.c **** 	Keyboard_Data->R_ALT = TM_USB_HIDDEVICE_Button_Released;
 707              		.loc 1 212 0
 708 01fc 4371     		strb	r3, [r0, #5]	@ tmp112, Keyboard_Data_2(D)->R_ALT
 709              	@ inc/user_libs/tm_stm32f4_usb_hid_device.c:213: 	Keyboard_Data->R_SHIFT = TM_USB_HIDDEVICE_Button_
 213:inc/user_libs/tm_stm32f4_usb_hid_device.c **** 	Keyboard_Data->R_SHIFT = TM_USB_HIDDEVICE_Button_Released;
 710              		.loc 1 213 0
 711 01fe 8371     		strb	r3, [r0, #6]	@ tmp112, Keyboard_Data_2(D)->R_SHIFT
 712              	@ inc/user_libs/tm_stm32f4_usb_hid_device.c:214: 	Keyboard_Data->R_GUI = TM_USB_HIDDEVICE_Button_Re
 214:inc/user_libs/tm_stm32f4_usb_hid_device.c **** 	Keyboard_Data->R_GUI = TM_USB_HIDDEVICE_Button_Released;
 713              		.loc 1 214 0
 714 0200 C371     		strb	r3, [r0, #7]	@ tmp112, Keyboard_Data_2(D)->R_GUI
 715              	@ inc/user_libs/tm_stm32f4_usb_hid_device.c:215: 	Keyboard_Data->Key1 = 0;
 215:inc/user_libs/tm_stm32f4_usb_hid_device.c **** 	Keyboard_Data->Key1 = 0;
 716              		.loc 1 215 0
 717 0202 0372     		strb	r3, [r0, #8]	@ tmp112, Keyboard_Data_2(D)->Key1
 718              	@ inc/user_libs/tm_stm32f4_usb_hid_device.c:216: 	Keyboard_Data->Key2 = 0;
 216:inc/user_libs/tm_stm32f4_usb_hid_device.c **** 	Keyboard_Data->Key2 = 0;
 719              		.loc 1 216 0
 720 0204 4372     		strb	r3, [r0, #9]	@ tmp112, Keyboard_Data_2(D)->Key2
 721              	@ inc/user_libs/tm_stm32f4_usb_hid_device.c:217: 	Keyboard_Data->Key3 = 0;
 217:inc/user_libs/tm_stm32f4_usb_hid_device.c **** 	Keyboard_Data->Key3 = 0;
 722              		.loc 1 217 0
ARM GAS  /tmp/cc4YzWay.s 			page 18


 723 0206 8372     		strb	r3, [r0, #10]	@ tmp112, Keyboard_Data_2(D)->Key3
 724              	@ inc/user_libs/tm_stm32f4_usb_hid_device.c:218: 	Keyboard_Data->Key4 = 0;
 218:inc/user_libs/tm_stm32f4_usb_hid_device.c **** 	Keyboard_Data->Key4 = 0;
 725              		.loc 1 218 0
 726 0208 C372     		strb	r3, [r0, #11]	@ tmp112, Keyboard_Data_2(D)->Key4
 727              	@ inc/user_libs/tm_stm32f4_usb_hid_device.c:219: 	Keyboard_Data->Key5 = 0;
 219:inc/user_libs/tm_stm32f4_usb_hid_device.c **** 	Keyboard_Data->Key5 = 0;
 728              		.loc 1 219 0
 729 020a 0373     		strb	r3, [r0, #12]	@ tmp112, Keyboard_Data_2(D)->Key5
 730              	@ inc/user_libs/tm_stm32f4_usb_hid_device.c:220: 	Keyboard_Data->Key6 = 0;
 220:inc/user_libs/tm_stm32f4_usb_hid_device.c **** 	Keyboard_Data->Key6 = 0;
 731              		.loc 1 220 0
 732 020c 4373     		strb	r3, [r0, #13]	@ tmp112, Keyboard_Data_2(D)->Key6
 733              	@ inc/user_libs/tm_stm32f4_usb_hid_device.c:224: }
 221:inc/user_libs/tm_stm32f4_usb_hid_device.c **** 	
 222:inc/user_libs/tm_stm32f4_usb_hid_device.c **** 	/* Return currect status */
 223:inc/user_libs/tm_stm32f4_usb_hid_device.c **** 	return TM_USB_HIDDEVICE_INT_Status;
 224:inc/user_libs/tm_stm32f4_usb_hid_device.c **** }
 734              		.loc 1 224 0
 735 020e 014B     		ldr	r3, .L34	@ tmp141,
 736 0210 1878     		ldrb	r0, [r3]	@ zero_extendqisi2	@, TM_USB_HIDDEVICE_INT_Status
 737              	.LVL20:
 738 0212 7047     		bx	lr	@
 739              	.L35:
 740              		.align	2
 741              	.L34:
 742 0214 00000000 		.word	TM_USB_HIDDEVICE_INT_Status
 743              		.cfi_endproc
 744              	.LFE118:
 745              		.size	TM_USB_HIDDEVICE_KeyboardStructInit, .-TM_USB_HIDDEVICE_KeyboardStructInit
 746              		.align	1
 747              		.global	TM_USB_HIDDEVICE_KeyboardSend
 748              		.syntax unified
 749              		.thumb
 750              		.thumb_func
 751              		.fpu softvfp
 752              		.type	TM_USB_HIDDEVICE_KeyboardSend, %function
 753              	TM_USB_HIDDEVICE_KeyboardSend:
 754              	.LFB119:
 225:inc/user_libs/tm_stm32f4_usb_hid_device.c **** 
 226:inc/user_libs/tm_stm32f4_usb_hid_device.c **** TM_USB_HIDDEVICE_Status_t TM_USB_HIDDEVICE_KeyboardSend(TM_USB_HIDDEVICE_Keyboard_t* Keyboard_Data)
 755              		.loc 1 226 0
 756              		.cfi_startproc
 757              		@ args = 0, pretend = 0, frame = 16
 758              		@ frame_needed = 0, uses_anonymous_args = 0
 759              	.LVL21:
 760 0218 1FB5     		push	{r0, r1, r2, r3, r4, lr}	@
 761              	.LCFI14:
 762              		.cfi_def_cfa_offset 24
 763              		.cfi_offset 4, -8
 764              		.cfi_offset 14, -4
 765              	@ inc/user_libs/tm_stm32f4_usb_hid_device.c:227: 	uint8_t buff[9] = {0, 0, 0, 0, 0, 0, 0, 0, 0};; /
 227:inc/user_libs/tm_stm32f4_usb_hid_device.c **** 	uint8_t buff[9] = {0, 0, 0, 0, 0, 0, 0, 0, 0};; /* 9 bytes long report */
 766              		.loc 1 227 0
 767 021a 0023     		movs	r3, #0	@ tmp157,
 768 021c 0193     		str	r3, [sp, #4]	@ tmp157, buff
 769              	@ inc/user_libs/tm_stm32f4_usb_hid_device.c:230: 	if (TM_USB_HIDDEVICE_INT_Status != TM_USB_HIDDEVI
ARM GAS  /tmp/cc4YzWay.s 			page 19


 228:inc/user_libs/tm_stm32f4_usb_hid_device.c **** 	
 229:inc/user_libs/tm_stm32f4_usb_hid_device.c **** 	/* Check status */
 230:inc/user_libs/tm_stm32f4_usb_hid_device.c **** 	if (TM_USB_HIDDEVICE_INT_Status != TM_USB_HIDDEVICE_Status_Connected) {
 770              		.loc 1 230 0
 771 021e 1D4B     		ldr	r3, .L39	@ tmp159,
 772 0220 1C78     		ldrb	r4, [r3]	@ zero_extendqisi2	@ <retval>, TM_USB_HIDDEVICE_INT_Status
 773 0222 012C     		cmp	r4, #1	@ <retval>,
 774 0224 33D1     		bne	.L38	@,
 775              	@ inc/user_libs/tm_stm32f4_usb_hid_device.c:241: 	buff[1] |= Keyboard_Data->L_ALT 	<< 2;	/* Bit 2 *
 231:inc/user_libs/tm_stm32f4_usb_hid_device.c **** 		return TM_USB_HIDDEVICE_Status_Disconnected;
 232:inc/user_libs/tm_stm32f4_usb_hid_device.c **** 	}
 233:inc/user_libs/tm_stm32f4_usb_hid_device.c **** 	
 234:inc/user_libs/tm_stm32f4_usb_hid_device.c **** 	/* Report ID */
 235:inc/user_libs/tm_stm32f4_usb_hid_device.c **** 	buff[0] = 0x01; /* Keyboard */
 236:inc/user_libs/tm_stm32f4_usb_hid_device.c **** 	
 237:inc/user_libs/tm_stm32f4_usb_hid_device.c **** 	/* Control buttons */
 238:inc/user_libs/tm_stm32f4_usb_hid_device.c **** 	buff[1] = 0;
 239:inc/user_libs/tm_stm32f4_usb_hid_device.c **** 	buff[1] |= Keyboard_Data->L_CTRL 	<< 0;	/* Bit 0 */
 240:inc/user_libs/tm_stm32f4_usb_hid_device.c **** 	buff[1] |= Keyboard_Data->L_SHIFT 	<< 1;	/* Bit 1 */
 241:inc/user_libs/tm_stm32f4_usb_hid_device.c **** 	buff[1] |= Keyboard_Data->L_ALT 	<< 2;	/* Bit 2 */
 776              		.loc 1 241 0
 777 0226 4378     		ldrb	r3, [r0, #1]	@ zero_extendqisi2	@ Keyboard_Data_51(D)->L_ALT, Keyboard_Data_51(D)->L_ALT
 778              	@ inc/user_libs/tm_stm32f4_usb_hid_device.c:240: 	buff[1] |= Keyboard_Data->L_SHIFT 	<< 1;	/* Bit 1
 240:inc/user_libs/tm_stm32f4_usb_hid_device.c **** 	buff[1] |= Keyboard_Data->L_ALT 	<< 2;	/* Bit 2 */
 779              		.loc 1 240 0
 780 0228 8278     		ldrb	r2, [r0, #2]	@ zero_extendqisi2	@ Keyboard_Data_51(D)->L_SHIFT, Keyboard_Data_51(D)->L_SHIFT
 781              	@ inc/user_libs/tm_stm32f4_usb_hid_device.c:235: 	buff[0] = 0x01; /* Keyboard */
 235:inc/user_libs/tm_stm32f4_usb_hid_device.c **** 	
 782              		.loc 1 235 0
 783 022a 8DF80440 		strb	r4, [sp, #4]	@ <retval>, buff
 784              	@ inc/user_libs/tm_stm32f4_usb_hid_device.c:241: 	buff[1] |= Keyboard_Data->L_ALT 	<< 2;	/* Bit 2 *
 785              		.loc 1 241 0
 786 022e 9B00     		lsls	r3, r3, #2	@ tmp165, Keyboard_Data_51(D)->L_ALT,
 787 0230 43EA4203 		orr	r3, r3, r2, lsl #1	@ tmp168, tmp165, Keyboard_Data_51(D)->L_SHIFT,
 788 0234 0278     		ldrb	r2, [r0]	@ zero_extendqisi2	@ Keyboard_Data_51(D)->L_CTRL, Keyboard_Data_51(D)->L_CTRL
 789 0236 1343     		orrs	r3, r3, r2	@, tmp172, tmp168, Keyboard_Data_51(D)->L_CTRL
 790              	@ inc/user_libs/tm_stm32f4_usb_hid_device.c:242: 	buff[1] |= Keyboard_Data->L_GUI 	<< 3;	/* Bit 3 *
 242:inc/user_libs/tm_stm32f4_usb_hid_device.c **** 	buff[1] |= Keyboard_Data->L_GUI 	<< 3;	/* Bit 3 */
 791              		.loc 1 242 0
 792 0238 C278     		ldrb	r2, [r0, #3]	@ zero_extendqisi2	@ Keyboard_Data_51(D)->L_GUI, Keyboard_Data_51(D)->L_GUI
 793 023a 43EAC203 		orr	r3, r3, r2, lsl #3	@ tmp177, tmp172, Keyboard_Data_51(D)->L_GUI,
 794              	@ inc/user_libs/tm_stm32f4_usb_hid_device.c:243: 	buff[1] |= Keyboard_Data->R_CTRL 	<< 4;	/* Bit 4 
 243:inc/user_libs/tm_stm32f4_usb_hid_device.c **** 	buff[1] |= Keyboard_Data->R_CTRL 	<< 4;	/* Bit 4 */
 795              		.loc 1 243 0
 796 023e 0279     		ldrb	r2, [r0, #4]	@ zero_extendqisi2	@ Keyboard_Data_51(D)->R_CTRL, Keyboard_Data_51(D)->R_CTRL
 797 0240 43EA0213 		orr	r3, r3, r2, lsl #4	@ tmp182, tmp177, Keyboard_Data_51(D)->R_CTRL,
 798              	@ inc/user_libs/tm_stm32f4_usb_hid_device.c:244: 	buff[1] |= Keyboard_Data->R_SHIFT 	<< 5;	/* Bit 5
 244:inc/user_libs/tm_stm32f4_usb_hid_device.c **** 	buff[1] |= Keyboard_Data->R_SHIFT 	<< 5;	/* Bit 5 */
 799              		.loc 1 244 0
 800 0244 8279     		ldrb	r2, [r0, #6]	@ zero_extendqisi2	@ Keyboard_Data_51(D)->R_SHIFT, Keyboard_Data_51(D)->R_SHIFT
 801 0246 43EA4213 		orr	r3, r3, r2, lsl #5	@ tmp187, tmp182, Keyboard_Data_51(D)->R_SHIFT,
 802              	@ inc/user_libs/tm_stm32f4_usb_hid_device.c:245: 	buff[1] |= Keyboard_Data->R_ALT 	<< 6;	/* Bit 6 *
 245:inc/user_libs/tm_stm32f4_usb_hid_device.c **** 	buff[1] |= Keyboard_Data->R_ALT 	<< 6;	/* Bit 6 */
 803              		.loc 1 245 0
 804 024a 4279     		ldrb	r2, [r0, #5]	@ zero_extendqisi2	@ Keyboard_Data_51(D)->R_ALT, Keyboard_Data_51(D)->R_ALT
 805 024c 43EA8213 		orr	r3, r3, r2, lsl #6	@ tmp192, tmp187, Keyboard_Data_51(D)->R_ALT,
 806              	@ inc/user_libs/tm_stm32f4_usb_hid_device.c:246: 	buff[1] |= Keyboard_Data->R_GUI 	<< 7;	/* Bit 7 *
ARM GAS  /tmp/cc4YzWay.s 			page 20


 246:inc/user_libs/tm_stm32f4_usb_hid_device.c **** 	buff[1] |= Keyboard_Data->R_GUI 	<< 7;	/* Bit 7 */
 807              		.loc 1 246 0
 808 0250 C279     		ldrb	r2, [r0, #7]	@ zero_extendqisi2	@ Keyboard_Data_51(D)->R_GUI, Keyboard_Data_51(D)->R_GUI
 809 0252 43EAC213 		orr	r3, r3, r2, lsl #7	@ tmp197, tmp192, Keyboard_Data_51(D)->R_GUI,
 810 0256 8DF80530 		strb	r3, [sp, #5]	@ tmp197, buff
 811              	@ inc/user_libs/tm_stm32f4_usb_hid_device.c:252: 	buff[3] = Keyboard_Data->Key1;
 247:inc/user_libs/tm_stm32f4_usb_hid_device.c **** 	
 248:inc/user_libs/tm_stm32f4_usb_hid_device.c **** 	/* Padding */
 249:inc/user_libs/tm_stm32f4_usb_hid_device.c **** 	buff[2] = 0x00;
 250:inc/user_libs/tm_stm32f4_usb_hid_device.c **** 	
 251:inc/user_libs/tm_stm32f4_usb_hid_device.c **** 	/* Keys */
 252:inc/user_libs/tm_stm32f4_usb_hid_device.c **** 	buff[3] = Keyboard_Data->Key1;
 812              		.loc 1 252 0
 813 025a 037A     		ldrb	r3, [r0, #8]	@ zero_extendqisi2	@ Keyboard_Data_51(D)->Key1, Keyboard_Data_51(D)->Key1
 814 025c 8DF80730 		strb	r3, [sp, #7]	@ Keyboard_Data_51(D)->Key1, buff
 815              	@ inc/user_libs/tm_stm32f4_usb_hid_device.c:253: 	buff[4] = Keyboard_Data->Key2;
 253:inc/user_libs/tm_stm32f4_usb_hid_device.c **** 	buff[4] = Keyboard_Data->Key2;
 816              		.loc 1 253 0
 817 0260 437A     		ldrb	r3, [r0, #9]	@ zero_extendqisi2	@ Keyboard_Data_51(D)->Key2, Keyboard_Data_51(D)->Key2
 818 0262 8DF80830 		strb	r3, [sp, #8]	@ Keyboard_Data_51(D)->Key2, buff
 819              	@ inc/user_libs/tm_stm32f4_usb_hid_device.c:254: 	buff[5] = Keyboard_Data->Key3;
 254:inc/user_libs/tm_stm32f4_usb_hid_device.c **** 	buff[5] = Keyboard_Data->Key3;
 820              		.loc 1 254 0
 821 0266 837A     		ldrb	r3, [r0, #10]	@ zero_extendqisi2	@ Keyboard_Data_51(D)->Key3, Keyboard_Data_51(D)->Key3
 822 0268 8DF80930 		strb	r3, [sp, #9]	@ Keyboard_Data_51(D)->Key3, buff
 823              	@ inc/user_libs/tm_stm32f4_usb_hid_device.c:255: 	buff[6] = Keyboard_Data->Key4;
 255:inc/user_libs/tm_stm32f4_usb_hid_device.c **** 	buff[6] = Keyboard_Data->Key4;
 824              		.loc 1 255 0
 825 026c C37A     		ldrb	r3, [r0, #11]	@ zero_extendqisi2	@ Keyboard_Data_51(D)->Key4, Keyboard_Data_51(D)->Key4
 826 026e 8DF80A30 		strb	r3, [sp, #10]	@ Keyboard_Data_51(D)->Key4, buff
 827              	@ inc/user_libs/tm_stm32f4_usb_hid_device.c:256: 	buff[7] = Keyboard_Data->Key5;
 256:inc/user_libs/tm_stm32f4_usb_hid_device.c **** 	buff[7] = Keyboard_Data->Key5;
 828              		.loc 1 256 0
 829 0272 037B     		ldrb	r3, [r0, #12]	@ zero_extendqisi2	@ Keyboard_Data_51(D)->Key5, Keyboard_Data_51(D)->Key5
 830 0274 8DF80B30 		strb	r3, [sp, #11]	@ Keyboard_Data_51(D)->Key5, buff
 831              	@ inc/user_libs/tm_stm32f4_usb_hid_device.c:260: 	USBD_HID_SendReport(&USB_OTG_dev, buff, 9);
 257:inc/user_libs/tm_stm32f4_usb_hid_device.c **** 	buff[8] = Keyboard_Data->Key6;
 258:inc/user_libs/tm_stm32f4_usb_hid_device.c **** 	
 259:inc/user_libs/tm_stm32f4_usb_hid_device.c **** 	/* Send to USB */
 260:inc/user_libs/tm_stm32f4_usb_hid_device.c **** 	USBD_HID_SendReport(&USB_OTG_dev, buff, 9);
 832              		.loc 1 260 0
 833 0278 0922     		movs	r2, #9	@,
 834              	@ inc/user_libs/tm_stm32f4_usb_hid_device.c:257: 	buff[8] = Keyboard_Data->Key6;
 257:inc/user_libs/tm_stm32f4_usb_hid_device.c **** 	buff[8] = Keyboard_Data->Key6;
 835              		.loc 1 257 0
 836 027a 437B     		ldrb	r3, [r0, #13]	@ zero_extendqisi2	@ Keyboard_Data_51(D)->Key6, Keyboard_Data_51(D)->Key6
 837              	@ inc/user_libs/tm_stm32f4_usb_hid_device.c:260: 	USBD_HID_SendReport(&USB_OTG_dev, buff, 9);
 838              		.loc 1 260 0
 839 027c 0648     		ldr	r0, .L39+4	@,
 840              	.LVL22:
 841              	@ inc/user_libs/tm_stm32f4_usb_hid_device.c:257: 	buff[8] = Keyboard_Data->Key6;
 257:inc/user_libs/tm_stm32f4_usb_hid_device.c **** 	buff[8] = Keyboard_Data->Key6;
 842              		.loc 1 257 0
 843 027e 8DF80C30 		strb	r3, [sp, #12]	@ Keyboard_Data_51(D)->Key6, buff
 844              	@ inc/user_libs/tm_stm32f4_usb_hid_device.c:260: 	USBD_HID_SendReport(&USB_OTG_dev, buff, 9);
 845              		.loc 1 260 0
 846 0282 01A9     		add	r1, sp, #4	@,,
ARM GAS  /tmp/cc4YzWay.s 			page 21


 847 0284 FFF7FEFF 		bl	USBD_HID_SendReport	@
 848              	.LVL23:
 849              	.L37:
 850              	@ inc/user_libs/tm_stm32f4_usb_hid_device.c:264: }
 261:inc/user_libs/tm_stm32f4_usb_hid_device.c **** 	
 262:inc/user_libs/tm_stm32f4_usb_hid_device.c **** 	/* Return connected */
 263:inc/user_libs/tm_stm32f4_usb_hid_device.c **** 	return TM_USB_HIDDEVICE_Status_Connected;	
 264:inc/user_libs/tm_stm32f4_usb_hid_device.c **** }
 851              		.loc 1 264 0
 852 0288 2046     		mov	r0, r4	@, <retval>
 853 028a 04B0     		add	sp, sp, #16	@,,
 854              	.LCFI15:
 855              		.cfi_remember_state
 856              		.cfi_def_cfa_offset 8
 857              		@ sp needed	@
 858 028c 10BD     		pop	{r4, pc}	@
 859              	.LVL24:
 860              	.L38:
 861              	.LCFI16:
 862              		.cfi_restore_state
 863              	@ inc/user_libs/tm_stm32f4_usb_hid_device.c:231: 		return TM_USB_HIDDEVICE_Status_Disconnected;
 231:inc/user_libs/tm_stm32f4_usb_hid_device.c **** 	}
 864              		.loc 1 231 0
 865 028e 0224     		movs	r4, #2	@ <retval>,
 866 0290 FAE7     		b	.L37	@
 867              	.L40:
 868 0292 00BF     		.align	2
 869              	.L39:
 870 0294 00000000 		.word	TM_USB_HIDDEVICE_INT_Status
 871 0298 00000000 		.word	USB_OTG_dev
 872              		.cfi_endproc
 873              	.LFE119:
 874              		.size	TM_USB_HIDDEVICE_KeyboardSend, .-TM_USB_HIDDEVICE_KeyboardSend
 875              		.align	1
 876              		.global	TM_USB_HIDDEVICE_KeyboardReleaseAll
 877              		.syntax unified
 878              		.thumb
 879              		.thumb_func
 880              		.fpu softvfp
 881              		.type	TM_USB_HIDDEVICE_KeyboardReleaseAll, %function
 882              	TM_USB_HIDDEVICE_KeyboardReleaseAll:
 883              	.LFB120:
 265:inc/user_libs/tm_stm32f4_usb_hid_device.c **** 
 266:inc/user_libs/tm_stm32f4_usb_hid_device.c **** TM_USB_HIDDEVICE_Status_t TM_USB_HIDDEVICE_KeyboardReleaseAll(void) {
 884              		.loc 1 266 0
 885              		.cfi_startproc
 886              		@ args = 0, pretend = 0, frame = 16
 887              		@ frame_needed = 0, uses_anonymous_args = 0
 888 029c 1FB5     		push	{r0, r1, r2, r3, r4, lr}	@
 889              	.LCFI17:
 890              		.cfi_def_cfa_offset 24
 891              		.cfi_offset 4, -8
 892              		.cfi_offset 14, -4
 893              	@ inc/user_libs/tm_stm32f4_usb_hid_device.c:267: 	uint8_t buff[9] = {0, 0, 0, 0, 0, 0, 0, 0, 0}; /*
 267:inc/user_libs/tm_stm32f4_usb_hid_device.c **** 	uint8_t buff[9] = {0, 0, 0, 0, 0, 0, 0, 0, 0}; /* 9 bytes long report */
 894              		.loc 1 267 0
 895 029e 0023     		movs	r3, #0	@ tmp112,
ARM GAS  /tmp/cc4YzWay.s 			page 22


 896 02a0 CDE90133 		strd	r3, r3, [sp, #4]	@ tmp112, tmp112,,
 897 02a4 8DF80C30 		strb	r3, [sp, #12]	@ tmp112, buff
 898              	@ inc/user_libs/tm_stm32f4_usb_hid_device.c:270: 	if (TM_USB_HIDDEVICE_INT_Status != TM_USB_HIDDEVI
 268:inc/user_libs/tm_stm32f4_usb_hid_device.c **** 	
 269:inc/user_libs/tm_stm32f4_usb_hid_device.c **** 	/* Check status */
 270:inc/user_libs/tm_stm32f4_usb_hid_device.c **** 	if (TM_USB_HIDDEVICE_INT_Status != TM_USB_HIDDEVICE_Status_Connected) {
 899              		.loc 1 270 0
 900 02a8 074B     		ldr	r3, .L44	@ tmp114,
 901 02aa 1C78     		ldrb	r4, [r3]	@ zero_extendqisi2	@ <retval>, TM_USB_HIDDEVICE_INT_Status
 902 02ac 012C     		cmp	r4, #1	@ <retval>,
 903 02ae 09D1     		bne	.L43	@,
 904              	@ inc/user_libs/tm_stm32f4_usb_hid_device.c:278: 	USBD_HID_SendReport(&USB_OTG_dev, buff, 9);
 271:inc/user_libs/tm_stm32f4_usb_hid_device.c **** 		return TM_USB_HIDDEVICE_Status_Disconnected;
 272:inc/user_libs/tm_stm32f4_usb_hid_device.c **** 	}	
 273:inc/user_libs/tm_stm32f4_usb_hid_device.c **** 	
 274:inc/user_libs/tm_stm32f4_usb_hid_device.c **** 	/* Report ID */
 275:inc/user_libs/tm_stm32f4_usb_hid_device.c **** 	buff[0] = 0x01; /* Keyboard */
 276:inc/user_libs/tm_stm32f4_usb_hid_device.c **** 	
 277:inc/user_libs/tm_stm32f4_usb_hid_device.c **** 	/* Send to USB */
 278:inc/user_libs/tm_stm32f4_usb_hid_device.c **** 	USBD_HID_SendReport(&USB_OTG_dev, buff, 9);
 905              		.loc 1 278 0
 906 02b0 0922     		movs	r2, #9	@,
 907 02b2 01A9     		add	r1, sp, #4	@ tmp120,,
 908 02b4 0548     		ldr	r0, .L44+4	@,
 909              	@ inc/user_libs/tm_stm32f4_usb_hid_device.c:275: 	buff[0] = 0x01; /* Keyboard */
 275:inc/user_libs/tm_stm32f4_usb_hid_device.c **** 	
 910              		.loc 1 275 0
 911 02b6 8DF80440 		strb	r4, [sp, #4]	@ <retval>, buff
 912              	@ inc/user_libs/tm_stm32f4_usb_hid_device.c:278: 	USBD_HID_SendReport(&USB_OTG_dev, buff, 9);
 913              		.loc 1 278 0
 914 02ba FFF7FEFF 		bl	USBD_HID_SendReport	@
 915              	.LVL25:
 916              	.L42:
 917              	@ inc/user_libs/tm_stm32f4_usb_hid_device.c:282: }
 279:inc/user_libs/tm_stm32f4_usb_hid_device.c **** 	
 280:inc/user_libs/tm_stm32f4_usb_hid_device.c **** 	/* Return connected */
 281:inc/user_libs/tm_stm32f4_usb_hid_device.c **** 	return TM_USB_HIDDEVICE_Status_Connected;
 282:inc/user_libs/tm_stm32f4_usb_hid_device.c **** }
 918              		.loc 1 282 0
 919 02be 2046     		mov	r0, r4	@, <retval>
 920 02c0 04B0     		add	sp, sp, #16	@,,
 921              	.LCFI18:
 922              		.cfi_remember_state
 923              		.cfi_def_cfa_offset 8
 924              		@ sp needed	@
 925 02c2 10BD     		pop	{r4, pc}	@
 926              	.L43:
 927              	.LCFI19:
 928              		.cfi_restore_state
 929              	@ inc/user_libs/tm_stm32f4_usb_hid_device.c:271: 		return TM_USB_HIDDEVICE_Status_Disconnected;
 271:inc/user_libs/tm_stm32f4_usb_hid_device.c **** 	}	
 930              		.loc 1 271 0
 931 02c4 0224     		movs	r4, #2	@ <retval>,
 932 02c6 FAE7     		b	.L42	@
 933              	.L45:
 934              		.align	2
 935              	.L44:
ARM GAS  /tmp/cc4YzWay.s 			page 23


 936 02c8 00000000 		.word	TM_USB_HIDDEVICE_INT_Status
 937 02cc 00000000 		.word	USB_OTG_dev
 938              		.cfi_endproc
 939              	.LFE120:
 940              		.size	TM_USB_HIDDEVICE_KeyboardReleaseAll, .-TM_USB_HIDDEVICE_KeyboardReleaseAll
 941              		.align	1
 942              		.global	TM_USB_HIDDEVICE_SendCustom
 943              		.syntax unified
 944              		.thumb
 945              		.thumb_func
 946              		.fpu softvfp
 947              		.type	TM_USB_HIDDEVICE_SendCustom, %function
 948              	TM_USB_HIDDEVICE_SendCustom:
 949              	.LFB121:
 283:inc/user_libs/tm_stm32f4_usb_hid_device.c **** 
 284:inc/user_libs/tm_stm32f4_usb_hid_device.c **** /* Custom report */
 285:inc/user_libs/tm_stm32f4_usb_hid_device.c **** TM_USB_HIDDEVICE_Status_t TM_USB_HIDDEVICE_SendCustom(uint8_t* buff, uint8_t count) {
 950              		.loc 1 285 0
 951              		.cfi_startproc
 952              		@ args = 0, pretend = 0, frame = 0
 953              		@ frame_needed = 0, uses_anonymous_args = 0
 954              	.LVL26:
 955              	@ inc/user_libs/tm_stm32f4_usb_hid_device.c:287: 	if (TM_USB_HIDDEVICE_INT_Status != TM_USB_HIDDEVI
 286:inc/user_libs/tm_stm32f4_usb_hid_device.c **** 	/* Check status */
 287:inc/user_libs/tm_stm32f4_usb_hid_device.c **** 	if (TM_USB_HIDDEVICE_INT_Status != TM_USB_HIDDEVICE_Status_Connected) {
 956              		.loc 1 287 0
 957 02d0 064B     		ldr	r3, .L49	@ tmp114,
 958              	@ inc/user_libs/tm_stm32f4_usb_hid_device.c:285: TM_USB_HIDDEVICE_Status_t TM_USB_HIDDEVICE_SendCus
 285:inc/user_libs/tm_stm32f4_usb_hid_device.c **** 	/* Check status */
 959              		.loc 1 285 0
 960 02d2 10B5     		push	{r4, lr}	@
 961              	.LCFI20:
 962              		.cfi_def_cfa_offset 8
 963              		.cfi_offset 4, -8
 964              		.cfi_offset 14, -4
 965              	@ inc/user_libs/tm_stm32f4_usb_hid_device.c:287: 	if (TM_USB_HIDDEVICE_INT_Status != TM_USB_HIDDEVI
 966              		.loc 1 287 0
 967 02d4 1C78     		ldrb	r4, [r3]	@ zero_extendqisi2	@ <retval>, TM_USB_HIDDEVICE_INT_Status
 968 02d6 012C     		cmp	r4, #1	@ <retval>,
 969              	@ inc/user_libs/tm_stm32f4_usb_hid_device.c:285: TM_USB_HIDDEVICE_Status_t TM_USB_HIDDEVICE_SendCus
 285:inc/user_libs/tm_stm32f4_usb_hid_device.c **** 	/* Check status */
 970              		.loc 1 285 0
 971 02d8 0A46     		mov	r2, r1	@ count, count
 972              	@ inc/user_libs/tm_stm32f4_usb_hid_device.c:287: 	if (TM_USB_HIDDEVICE_INT_Status != TM_USB_HIDDEVI
 973              		.loc 1 287 0
 974 02da 05D1     		bne	.L48	@,
 975              	@ inc/user_libs/tm_stm32f4_usb_hid_device.c:292: 	USBD_HID_SendReport(&USB_OTG_dev, buff, count);
 288:inc/user_libs/tm_stm32f4_usb_hid_device.c **** 		return TM_USB_HIDDEVICE_Status_Disconnected;
 289:inc/user_libs/tm_stm32f4_usb_hid_device.c **** 	}	
 290:inc/user_libs/tm_stm32f4_usb_hid_device.c **** 	
 291:inc/user_libs/tm_stm32f4_usb_hid_device.c **** 	/* Send to USB */
 292:inc/user_libs/tm_stm32f4_usb_hid_device.c **** 	USBD_HID_SendReport(&USB_OTG_dev, buff, count);
 976              		.loc 1 292 0
 977 02dc 0146     		mov	r1, r0	@, buff
 978              	.LVL27:
 979 02de 0448     		ldr	r0, .L49+4	@,
 980              	.LVL28:
ARM GAS  /tmp/cc4YzWay.s 			page 24


 981 02e0 FFF7FEFF 		bl	USBD_HID_SendReport	@
 982              	.LVL29:
 983              	.L47:
 984              	@ inc/user_libs/tm_stm32f4_usb_hid_device.c:296: }
 293:inc/user_libs/tm_stm32f4_usb_hid_device.c **** 	
 294:inc/user_libs/tm_stm32f4_usb_hid_device.c **** 	/* Return connected */
 295:inc/user_libs/tm_stm32f4_usb_hid_device.c **** 	return TM_USB_HIDDEVICE_Status_Connected;
 296:inc/user_libs/tm_stm32f4_usb_hid_device.c **** }
 985              		.loc 1 296 0
 986 02e4 2046     		mov	r0, r4	@, <retval>
 987 02e6 10BD     		pop	{r4, pc}	@
 988              	.LVL30:
 989              	.L48:
 990              	@ inc/user_libs/tm_stm32f4_usb_hid_device.c:288: 		return TM_USB_HIDDEVICE_Status_Disconnected;
 288:inc/user_libs/tm_stm32f4_usb_hid_device.c **** 		return TM_USB_HIDDEVICE_Status_Disconnected;
 991              		.loc 1 288 0
 992 02e8 0224     		movs	r4, #2	@ <retval>,
 993 02ea FBE7     		b	.L47	@
 994              	.L50:
 995              		.align	2
 996              	.L49:
 997 02ec 00000000 		.word	TM_USB_HIDDEVICE_INT_Status
 998 02f0 00000000 		.word	USB_OTG_dev
 999              		.cfi_endproc
 1000              	.LFE121:
 1001              		.size	TM_USB_HIDDEVICE_SendCustom, .-TM_USB_HIDDEVICE_SendCustom
 1002              	.Letext0:
 1003              		.file 2 "/home/sticky/opt/gcc-arm-none-eabi-7-2017-q4-major/arm-none-eabi/include/machine/_default
 1004              		.file 3 "/home/sticky/opt/gcc-arm-none-eabi-7-2017-q4-major/arm-none-eabi/include/sys/_stdint.h"
 1005              		.file 4 "./inc/CMSIS/core_cm4.h"
 1006              		.file 5 "./inc/system_stm32f4xx.h"
 1007              		.file 6 "inc/user_libs/usb_regs.h"
 1008              		.file 7 "inc/user_libs/usb_core.h"
 1009              		.file 8 "inc/user_libs/usbd_hid_core.h"
 1010              		.file 9 "inc/user_libs/usbd_usr.h"
 1011              		.file 10 "inc/user_libs/usbd_desc.h"
 1012              		.file 11 "inc/user_libs/usb_defines.h"
 1013              		.file 12 "inc/user_libs/tm_stm32f4_usb_hid_device.h"
 1014              		.file 13 "inc/user_libs/usbd_core.h"