ARM GAS  /tmp/ccQkqy1T.s 			page 1


   1              		.cpu cortex-m4
   2              		.eabi_attribute 20, 1	@ Tag_ABI_FP_denormal
   3              		.eabi_attribute 21, 1	@ Tag_ABI_FP_exceptions
   4              		.eabi_attribute 23, 3	@ Tag_ABI_FP_number_model
   5              		.eabi_attribute 24, 1	@ Tag_ABI_align8_needed
   6              		.eabi_attribute 25, 1	@ Tag_ABI_align8_preserved
   7              		.eabi_attribute 26, 1	@ Tag_ABI_enum_size
   8              		.eabi_attribute 30, 4	@ Tag_ABI_optimization_goals
   9              		.eabi_attribute 34, 1	@ Tag_CPU_unaligned_access
  10              		.eabi_attribute 18, 4	@ Tag_ABI_PCS_wchar_t
  11              		.file	"usb_core.c"
  12              	@ GNU C11 (GNU Tools for Arm Embedded Processors 7-2017-q4-major) version 7.2.1 20170904 (release) 
  13              	@	compiled by GNU C version 4.8.4, GMP version 6.1.0, MPFR version 3.1.4, MPC version 1.0.3, isl ve
  14              	
  15              	@ GGC heuristics: --param ggc-min-expand=100 --param ggc-min-heapsize=131072
  16              	@ options passed:  -I . -I ./inc -I ./inc/CMSIS
  17              	@ -I STM32F4xx_StdPeriph_Driver/inc -I ./inc/user_libs
  18              	@ -imultilib thumb/v7e-m
  19              	@ -iprefix /home/sticky/opt/gcc-arm-none-eabi-7-2017-q4-major/bin/../lib/gcc/arm-none-eabi/7.2.1/
  20              	@ -isysroot /home/sticky/opt/gcc-arm-none-eabi-7-2017-q4-major/bin/../arm-none-eabi
  21              	@ -D__USES_INITFINI__ -D STM32F40XX -D USE_STDPERIPH_DRIVER
  22              	@ -D RUN_FROM_FLASH=1 inc/user_libs/usb_core.c -mcpu=cortex-m4 -mthumb
  23              	@ -auxbase-strip inc/user_libs/usb_core.o -g -gdwarf-2 -Os -Wall
  24              	@ -Wstrict-prototypes -fomit-frame-pointer -fverbose-asm
  25              	@ options enabled:  -faggressive-loop-optimizations -falign-jumps
  26              	@ -falign-labels -falign-loops -fauto-inc-dec -fbranch-count-reg
  27              	@ -fcaller-saves -fchkp-check-incomplete-type -fchkp-check-read
  28              	@ -fchkp-check-write -fchkp-instrument-calls -fchkp-narrow-bounds
  29              	@ -fchkp-optimize -fchkp-store-bounds -fchkp-use-static-bounds
  30              	@ -fchkp-use-static-const-bounds -fchkp-use-wrappers -fcode-hoisting
  31              	@ -fcombine-stack-adjustments -fcommon -fcompare-elim -fcprop-registers
  32              	@ -fcrossjumping -fcse-follow-jumps -fdefer-pop
  33              	@ -fdelete-null-pointer-checks -fdevirtualize -fdevirtualize-speculatively
  34              	@ -fdwarf2-cfi-asm -fearly-inlining -feliminate-unused-debug-types
  35              	@ -fexpensive-optimizations -fforward-propagate -ffp-int-builtin-inexact
  36              	@ -ffunction-cse -fgcse -fgcse-lm -fgnu-runtime -fgnu-unique
  37              	@ -fguess-branch-probability -fhoist-adjacent-loads -fident -fif-conversion
  38              	@ -fif-conversion2 -findirect-inlining -finline -finline-atomics
  39              	@ -finline-functions -finline-functions-called-once
  40              	@ -finline-small-functions -fipa-bit-cp -fipa-cp -fipa-icf
  41              	@ -fipa-icf-functions -fipa-icf-variables -fipa-profile -fipa-pure-const
  42              	@ -fipa-ra -fipa-reference -fipa-sra -fipa-vrp -fira-hoist-pressure
  43              	@ -fira-share-save-slots -fira-share-spill-slots
  44              	@ -fisolate-erroneous-paths-dereference -fivopts -fkeep-static-consts
  45              	@ -fleading-underscore -flifetime-dse -flra-remat -flto-odr-type-merging
  46              	@ -fmath-errno -fmerge-constants -fmerge-debug-strings
  47              	@ -fmove-loop-invariants -fomit-frame-pointer -foptimize-sibling-calls
  48              	@ -fpartial-inlining -fpeephole -fpeephole2 -fplt -fprefetch-loop-arrays
  49              	@ -freg-struct-return -freorder-blocks -freorder-functions
  50              	@ -frerun-cse-after-loop -fsched-critical-path-heuristic
  51              	@ -fsched-dep-count-heuristic -fsched-group-heuristic -fsched-interblock
  52              	@ -fsched-last-insn-heuristic -fsched-pressure -fsched-rank-heuristic
  53              	@ -fsched-spec -fsched-spec-insn-heuristic -fsched-stalled-insns-dep
  54              	@ -fschedule-insns2 -fsection-anchors -fsemantic-interposition
  55              	@ -fshow-column -fshrink-wrap-separate -fsigned-zeros
  56              	@ -fsplit-ivs-in-unroller -fsplit-wide-types -fssa-backprop -fssa-phiopt
  57              	@ -fstdarg-opt -fstore-merging -fstrict-aliasing -fstrict-overflow
ARM GAS  /tmp/ccQkqy1T.s 			page 2


  58              	@ -fstrict-volatile-bitfields -fsync-libcalls -fthread-jumps
  59              	@ -ftoplevel-reorder -ftrapping-math -ftree-bit-ccp -ftree-builtin-call-dce
  60              	@ -ftree-ccp -ftree-ch -ftree-coalesce-vars -ftree-copy-prop -ftree-cselim
  61              	@ -ftree-dce -ftree-dominator-opts -ftree-dse -ftree-forwprop -ftree-fre
  62              	@ -ftree-loop-if-convert -ftree-loop-im -ftree-loop-ivcanon
  63              	@ -ftree-loop-optimize -ftree-parallelize-loops= -ftree-phiprop -ftree-pre
  64              	@ -ftree-pta -ftree-reassoc -ftree-scev-cprop -ftree-sink -ftree-slsr
  65              	@ -ftree-sra -ftree-switch-conversion -ftree-tail-merge -ftree-ter
  66              	@ -ftree-vrp -funit-at-a-time -fvar-tracking -fvar-tracking-assignments
  67              	@ -fverbose-asm -fzero-initialized-in-bss -masm-syntax-unified
  68              	@ -mlittle-endian -mpic-data-is-text-relative -msched-prolog -mthumb
  69              	@ -munaligned-access -mvectorize-with-neon-quad
  70              	
  71              		.text
  72              	.Ltext0:
  73              		.cfi_sections	.debug_frame
  74              		.align	1
  75              		.syntax unified
  76              		.thumb
  77              		.thumb_func
  78              		.fpu softvfp
  79              		.type	USB_OTG_CoreReset.isra.1, %function
  80              	USB_OTG_CoreReset.isra.1:
  81              	.LFB147:
  82              		.file 1 "inc/user_libs/usb_core.c"
   1:inc/user_libs/usb_core.c **** /**
   2:inc/user_libs/usb_core.c ****   ******************************************************************************
   3:inc/user_libs/usb_core.c ****   * @file    usb_core.c
   4:inc/user_libs/usb_core.c ****   * @author  MCD Application Team
   5:inc/user_libs/usb_core.c ****   * @version V2.1.0
   6:inc/user_libs/usb_core.c ****   * @date    19-March-2012
   7:inc/user_libs/usb_core.c ****   * @brief   USB-OTG Core Layer
   8:inc/user_libs/usb_core.c ****   ******************************************************************************
   9:inc/user_libs/usb_core.c ****   * @attention
  10:inc/user_libs/usb_core.c ****   *
  11:inc/user_libs/usb_core.c ****   * <h2><center>&copy; COPYRIGHT 2012 STMicroelectronics</center></h2>
  12:inc/user_libs/usb_core.c ****   *
  13:inc/user_libs/usb_core.c ****   * Licensed under MCD-ST Liberty SW License Agreement V2, (the "License");
  14:inc/user_libs/usb_core.c ****   * You may not use this file except in compliance with the License.
  15:inc/user_libs/usb_core.c ****   * You may obtain a copy of the License at:
  16:inc/user_libs/usb_core.c ****   *
  17:inc/user_libs/usb_core.c ****   *        http://www.st.com/software_license_agreement_liberty_v2
  18:inc/user_libs/usb_core.c ****   *
  19:inc/user_libs/usb_core.c ****   * Unless required by applicable law or agreed to in writing, software 
  20:inc/user_libs/usb_core.c ****   * distributed under the License is distributed on an "AS IS" BASIS, 
  21:inc/user_libs/usb_core.c ****   * WITHOUT WARRANTIES OR CONDITIONS OF ANY KIND, either express or implied.
  22:inc/user_libs/usb_core.c ****   * See the License for the specific language governing permissions and
  23:inc/user_libs/usb_core.c ****   * limitations under the License.
  24:inc/user_libs/usb_core.c ****   *
  25:inc/user_libs/usb_core.c ****   ******************************************************************************
  26:inc/user_libs/usb_core.c ****   */
  27:inc/user_libs/usb_core.c **** 
  28:inc/user_libs/usb_core.c **** /* Includes ------------------------------------------------------------------*/
  29:inc/user_libs/usb_core.c **** #include "usb_core.h"
  30:inc/user_libs/usb_core.c **** #include "usb_bsp.h"
  31:inc/user_libs/usb_core.c **** 
  32:inc/user_libs/usb_core.c **** 
ARM GAS  /tmp/ccQkqy1T.s 			page 3


  33:inc/user_libs/usb_core.c **** /** @addtogroup USB_OTG_DRIVER
  34:inc/user_libs/usb_core.c **** * @{
  35:inc/user_libs/usb_core.c **** */
  36:inc/user_libs/usb_core.c **** 
  37:inc/user_libs/usb_core.c **** /** @defgroup USB_CORE 
  38:inc/user_libs/usb_core.c **** * @brief This file includes the USB-OTG Core Layer
  39:inc/user_libs/usb_core.c **** * @{
  40:inc/user_libs/usb_core.c **** */
  41:inc/user_libs/usb_core.c **** 
  42:inc/user_libs/usb_core.c **** 
  43:inc/user_libs/usb_core.c **** /** @defgroup USB_CORE_Private_Defines
  44:inc/user_libs/usb_core.c **** * @{
  45:inc/user_libs/usb_core.c **** */ 
  46:inc/user_libs/usb_core.c **** 
  47:inc/user_libs/usb_core.c **** /**
  48:inc/user_libs/usb_core.c **** * @}
  49:inc/user_libs/usb_core.c **** */ 
  50:inc/user_libs/usb_core.c **** 
  51:inc/user_libs/usb_core.c **** 
  52:inc/user_libs/usb_core.c **** /** @defgroup USB_CORE_Private_TypesDefinitions
  53:inc/user_libs/usb_core.c **** * @{
  54:inc/user_libs/usb_core.c **** */ 
  55:inc/user_libs/usb_core.c **** /**
  56:inc/user_libs/usb_core.c **** * @}
  57:inc/user_libs/usb_core.c **** */ 
  58:inc/user_libs/usb_core.c **** 
  59:inc/user_libs/usb_core.c **** 
  60:inc/user_libs/usb_core.c **** 
  61:inc/user_libs/usb_core.c **** /** @defgroup USB_CORE_Private_Macros
  62:inc/user_libs/usb_core.c **** * @{
  63:inc/user_libs/usb_core.c **** */ 
  64:inc/user_libs/usb_core.c **** /**
  65:inc/user_libs/usb_core.c **** * @}
  66:inc/user_libs/usb_core.c **** */ 
  67:inc/user_libs/usb_core.c **** 
  68:inc/user_libs/usb_core.c **** 
  69:inc/user_libs/usb_core.c **** /** @defgroup USB_CORE_Private_Variables
  70:inc/user_libs/usb_core.c **** * @{
  71:inc/user_libs/usb_core.c **** */ 
  72:inc/user_libs/usb_core.c **** /**
  73:inc/user_libs/usb_core.c **** * @}
  74:inc/user_libs/usb_core.c **** */ 
  75:inc/user_libs/usb_core.c **** 
  76:inc/user_libs/usb_core.c **** 
  77:inc/user_libs/usb_core.c **** /** @defgroup USB_CORE_Private_FunctionPrototypes
  78:inc/user_libs/usb_core.c **** * @{
  79:inc/user_libs/usb_core.c **** */ 
  80:inc/user_libs/usb_core.c **** /**
  81:inc/user_libs/usb_core.c **** * @}
  82:inc/user_libs/usb_core.c **** */ 
  83:inc/user_libs/usb_core.c **** 
  84:inc/user_libs/usb_core.c **** 
  85:inc/user_libs/usb_core.c **** /** @defgroup USB_CORE_Private_Functions
  86:inc/user_libs/usb_core.c **** * @{
  87:inc/user_libs/usb_core.c **** */ 
  88:inc/user_libs/usb_core.c **** 
  89:inc/user_libs/usb_core.c **** /**
ARM GAS  /tmp/ccQkqy1T.s 			page 4


  90:inc/user_libs/usb_core.c **** * @brief  USB_OTG_EnableCommonInt
  91:inc/user_libs/usb_core.c **** *         Initializes the commmon interrupts, used in both device and modes
  92:inc/user_libs/usb_core.c **** * @param  pdev : Selected device
  93:inc/user_libs/usb_core.c **** * @retval None
  94:inc/user_libs/usb_core.c **** */
  95:inc/user_libs/usb_core.c **** static void USB_OTG_EnableCommonInt(USB_OTG_CORE_HANDLE *pdev)
  96:inc/user_libs/usb_core.c **** {
  97:inc/user_libs/usb_core.c ****   USB_OTG_GINTMSK_TypeDef  int_mask;
  98:inc/user_libs/usb_core.c ****   
  99:inc/user_libs/usb_core.c ****   int_mask.d32 = 0;
 100:inc/user_libs/usb_core.c ****   /* Clear any pending USB_OTG Interrupts */
 101:inc/user_libs/usb_core.c **** #ifndef USE_OTG_MODE
 102:inc/user_libs/usb_core.c ****   USB_OTG_WRITE_REG32( &pdev->regs.GREGS->GOTGINT, 0xFFFFFFFF);
 103:inc/user_libs/usb_core.c **** #endif
 104:inc/user_libs/usb_core.c ****   /* Clear any pending interrupts */
 105:inc/user_libs/usb_core.c ****   USB_OTG_WRITE_REG32( &pdev->regs.GREGS->GINTSTS, 0xBFFFFFFF);
 106:inc/user_libs/usb_core.c ****   /* Enable the interrupts in the INTMSK */
 107:inc/user_libs/usb_core.c ****   int_mask.b.wkupintr = 1;
 108:inc/user_libs/usb_core.c ****   int_mask.b.usbsuspend = 1; 
 109:inc/user_libs/usb_core.c ****   
 110:inc/user_libs/usb_core.c **** #ifdef USE_OTG_MODE
 111:inc/user_libs/usb_core.c ****   int_mask.b.otgintr = 1;
 112:inc/user_libs/usb_core.c ****   int_mask.b.sessreqintr = 1;
 113:inc/user_libs/usb_core.c ****   int_mask.b.conidstschng = 1;
 114:inc/user_libs/usb_core.c **** #endif
 115:inc/user_libs/usb_core.c ****   USB_OTG_WRITE_REG32( &pdev->regs.GREGS->GINTMSK, int_mask.d32);
 116:inc/user_libs/usb_core.c **** }
 117:inc/user_libs/usb_core.c **** 
 118:inc/user_libs/usb_core.c **** /**
 119:inc/user_libs/usb_core.c **** * @brief  USB_OTG_CoreReset : Soft reset of the core
 120:inc/user_libs/usb_core.c **** * @param  pdev : Selected device
 121:inc/user_libs/usb_core.c **** * @retval USB_OTG_STS : status
 122:inc/user_libs/usb_core.c **** */
 123:inc/user_libs/usb_core.c **** static USB_OTG_STS USB_OTG_CoreReset(USB_OTG_CORE_HANDLE *pdev)
  83              		.loc 1 123 0
  84              		.cfi_startproc
  85              		@ args = 0, pretend = 0, frame = 8
  86              		@ frame_needed = 0, uses_anonymous_args = 0
  87              	.LVL0:
  88 0000 37B5     		push	{r0, r1, r2, r4, r5, lr}	@
  89              	.LCFI0:
  90              		.cfi_def_cfa_offset 24
  91              		.cfi_offset 4, -12
  92              		.cfi_offset 5, -8
  93              		.cfi_offset 14, -4
  94              	@ inc/user_libs/usb_core.c:129:   greset.d32 = 0;
 124:inc/user_libs/usb_core.c **** {
 125:inc/user_libs/usb_core.c ****   USB_OTG_STS status = USB_OTG_OK;
 126:inc/user_libs/usb_core.c ****   __IO USB_OTG_GRSTCTL_TypeDef  greset;
 127:inc/user_libs/usb_core.c ****   uint32_t count = 0;
 128:inc/user_libs/usb_core.c ****   
 129:inc/user_libs/usb_core.c ****   greset.d32 = 0;
  95              		.loc 1 129 0
  96 0002 0023     		movs	r3, #0	@ tmp121,
  97 0004 104C     		ldr	r4, .L17	@ ivtmp_25,
  98 0006 0193     		str	r3, [sp, #4]	@ tmp121, greset.d32
  99              	@ inc/user_libs/usb_core.c:123: static USB_OTG_STS USB_OTG_CoreReset(USB_OTG_CORE_HANDLE *pdev)
ARM GAS  /tmp/ccQkqy1T.s 			page 5


 123:inc/user_libs/usb_core.c **** {
 100              		.loc 1 123 0
 101 0008 0546     		mov	r5, r0	@ ISRA.4, ISRA.4
 102              	.LVL1:
 103              	.L3:
 104              	@ inc/user_libs/usb_core.c:133:     USB_OTG_BSP_uDelay(3);
 130:inc/user_libs/usb_core.c ****   /* Wait for AHB master IDLE state. */
 131:inc/user_libs/usb_core.c ****   do
 132:inc/user_libs/usb_core.c ****   {
 133:inc/user_libs/usb_core.c ****     USB_OTG_BSP_uDelay(3);
 105              		.loc 1 133 0
 106 000a 0320     		movs	r0, #3	@,
 107 000c FFF7FEFF 		bl	USB_OTG_BSP_uDelay	@
 108              	.LVL2:
 109              	@ inc/user_libs/usb_core.c:134:     greset.d32 = USB_OTG_READ_REG32(&pdev->regs.GREGS->GRSTCTL);
 134:inc/user_libs/usb_core.c ****     greset.d32 = USB_OTG_READ_REG32(&pdev->regs.GREGS->GRSTCTL);
 110              		.loc 1 134 0
 111 0010 2B68     		ldr	r3, [r5]	@ _2, *ISRA.4_24(D)
 112              	@ inc/user_libs/usb_core.c:135:     if (++count > 200000)
 135:inc/user_libs/usb_core.c ****     if (++count > 200000)
 113              		.loc 1 135 0
 114 0012 013C     		subs	r4, r4, #1	@ ivtmp_25, ivtmp_25,
 115              	.LVL3:
 116              	@ inc/user_libs/usb_core.c:134:     greset.d32 = USB_OTG_READ_REG32(&pdev->regs.GREGS->GRSTCTL);
 134:inc/user_libs/usb_core.c ****     greset.d32 = USB_OTG_READ_REG32(&pdev->regs.GREGS->GRSTCTL);
 117              		.loc 1 134 0
 118 0014 1A69     		ldr	r2, [r3, #16]	@ _3, _2->GRSTCTL
 119 0016 0192     		str	r2, [sp, #4]	@ _3, greset.d32
 120              	.LVL4:
 121              	@ inc/user_libs/usb_core.c:135:     if (++count > 200000)
 122              		.loc 1 135 0
 123 0018 13D0     		beq	.L2	@,
 124              	.LVL5:
 125              	@ inc/user_libs/usb_core.c:140:   while (greset.b.ahbidle == 0);
 136:inc/user_libs/usb_core.c ****     {
 137:inc/user_libs/usb_core.c ****       return USB_OTG_OK;
 138:inc/user_libs/usb_core.c ****     }
 139:inc/user_libs/usb_core.c ****   }
 140:inc/user_libs/usb_core.c ****   while (greset.b.ahbidle == 0);
 126              		.loc 1 140 0
 127 001a 019A     		ldr	r2, [sp, #4]	@ greset, greset
 128 001c 002A     		cmp	r2, #0	@ greset,
 129 001e F4DA     		bge	.L3	@,
 130              	.LVL6:
 131              	@ inc/user_libs/usb_core.c:143:   greset.b.csftrst = 1;
 141:inc/user_libs/usb_core.c ****   /* Core Soft Reset */
 142:inc/user_libs/usb_core.c ****   count = 0;
 143:inc/user_libs/usb_core.c ****   greset.b.csftrst = 1;
 132              		.loc 1 143 0
 133 0020 019A     		ldr	r2, [sp, #4]	@ tmp124,
 134 0022 42F00102 		orr	r2, r2, #1	@ tmp124, tmp124,
 135 0026 0192     		str	r2, [sp, #4]	@ tmp124,
 136              	@ inc/user_libs/usb_core.c:144:   USB_OTG_WRITE_REG32(&pdev->regs.GREGS->GRSTCTL, greset.d32 );
 144:inc/user_libs/usb_core.c ****   USB_OTG_WRITE_REG32(&pdev->regs.GREGS->GRSTCTL, greset.d32 );
 137              		.loc 1 144 0
 138 0028 019A     		ldr	r2, [sp, #4]	@ _7, greset.d32
 139 002a 1A61     		str	r2, [r3, #16]	@ _7, _2->GRSTCTL
ARM GAS  /tmp/ccQkqy1T.s 			page 6


 140 002c 064A     		ldr	r2, .L17	@ ivtmp_27,
 141              	.LVL7:
 142              	.L5:
 143              	@ inc/user_libs/usb_core.c:147:     greset.d32 = USB_OTG_READ_REG32(&pdev->regs.GREGS->GRSTCTL);
 145:inc/user_libs/usb_core.c ****   do
 146:inc/user_libs/usb_core.c ****   {
 147:inc/user_libs/usb_core.c ****     greset.d32 = USB_OTG_READ_REG32(&pdev->regs.GREGS->GRSTCTL);
 144              		.loc 1 147 0
 145 002e 1969     		ldr	r1, [r3, #16]	@ _9, _2->GRSTCTL
 146 0030 0191     		str	r1, [sp, #4]	@ _9, greset.d32
 147              	.LVL8:
 148              	@ inc/user_libs/usb_core.c:148:     if (++count > 200000)
 148:inc/user_libs/usb_core.c ****     if (++count > 200000)
 149              		.loc 1 148 0
 150 0032 013A     		subs	r2, r2, #1	@ ivtmp_27, ivtmp_27,
 151              	.LVL9:
 152 0034 02D0     		beq	.L4	@,
 153              	.LVL10:
 154              	@ inc/user_libs/usb_core.c:153:   while (greset.b.csftrst == 1);
 149:inc/user_libs/usb_core.c ****     {
 150:inc/user_libs/usb_core.c ****       break;
 151:inc/user_libs/usb_core.c ****     }
 152:inc/user_libs/usb_core.c ****   }
 153:inc/user_libs/usb_core.c ****   while (greset.b.csftrst == 1);
 155              		.loc 1 153 0
 156 0036 0199     		ldr	r1, [sp, #4]	@ greset, greset
 157 0038 C907     		lsls	r1, r1, #31	@, greset,
 158 003a F8D4     		bmi	.L5	@,
 159              	.LVL11:
 160              	.L4:
 161              	@ inc/user_libs/usb_core.c:155:   USB_OTG_BSP_uDelay(3);
 154:inc/user_libs/usb_core.c ****   /* Wait for 3 PHY Clocks*/
 155:inc/user_libs/usb_core.c ****   USB_OTG_BSP_uDelay(3);
 162              		.loc 1 155 0
 163 003c 0320     		movs	r0, #3	@,
 164 003e FFF7FEFF 		bl	USB_OTG_BSP_uDelay	@
 165              	.LVL12:
 166              	.L2:
 167              	@ inc/user_libs/usb_core.c:157: }
 156:inc/user_libs/usb_core.c ****   return status;
 157:inc/user_libs/usb_core.c **** }
 168              		.loc 1 157 0
 169 0042 0020     		movs	r0, #0	@,
 170 0044 03B0     		add	sp, sp, #12	@,,
 171              	.LCFI1:
 172              		.cfi_def_cfa_offset 12
 173              		@ sp needed	@
 174 0046 30BD     		pop	{r4, r5, pc}	@
 175              	.L18:
 176              		.align	2
 177              	.L17:
 178 0048 410D0300 		.word	200001
 179              		.cfi_endproc
 180              	.LFE147:
 181              		.size	USB_OTG_CoreReset.isra.1, .-USB_OTG_CoreReset.isra.1
 182              		.align	1
 183              		.global	USB_OTG_WritePacket
ARM GAS  /tmp/ccQkqy1T.s 			page 7


 184              		.syntax unified
 185              		.thumb
 186              		.thumb_func
 187              		.fpu softvfp
 188              		.type	USB_OTG_WritePacket, %function
 189              	USB_OTG_WritePacket:
 190              	.LFB112:
 158:inc/user_libs/usb_core.c **** 
 159:inc/user_libs/usb_core.c **** /**
 160:inc/user_libs/usb_core.c **** * @brief  USB_OTG_WritePacket : Writes a packet into the Tx FIFO associated 
 161:inc/user_libs/usb_core.c **** *         with the EP
 162:inc/user_libs/usb_core.c **** * @param  pdev : Selected device
 163:inc/user_libs/usb_core.c **** * @param  src : source pointer
 164:inc/user_libs/usb_core.c **** * @param  ch_ep_num : end point number
 165:inc/user_libs/usb_core.c **** * @param  bytes : No. of bytes
 166:inc/user_libs/usb_core.c **** * @retval USB_OTG_STS : status
 167:inc/user_libs/usb_core.c **** */
 168:inc/user_libs/usb_core.c **** USB_OTG_STS USB_OTG_WritePacket(USB_OTG_CORE_HANDLE *pdev, 
 169:inc/user_libs/usb_core.c ****                                 uint8_t             *src, 
 170:inc/user_libs/usb_core.c ****                                 uint8_t             ch_ep_num, 
 171:inc/user_libs/usb_core.c ****                                 uint16_t            len)
 172:inc/user_libs/usb_core.c **** {
 191              		.loc 1 172 0
 192              		.cfi_startproc
 193              		@ args = 0, pretend = 0, frame = 0
 194              		@ frame_needed = 0, uses_anonymous_args = 0
 195              	.LVL13:
 196 004c 10B5     		push	{r4, lr}	@
 197              	.LCFI2:
 198              		.cfi_def_cfa_offset 8
 199              		.cfi_offset 4, -8
 200              		.cfi_offset 14, -4
 201              	@ inc/user_libs/usb_core.c:174:   if (pdev->cfg.dma_enable == 0)
 173:inc/user_libs/usb_core.c ****   USB_OTG_STS status = USB_OTG_OK;
 174:inc/user_libs/usb_core.c ****   if (pdev->cfg.dma_enable == 0)
 202              		.loc 1 174 0
 203 004e C478     		ldrb	r4, [r0, #3]	@ zero_extendqisi2	@ pdev_4(D)->cfg.dma_enable, pdev_4(D)->cfg.dma_enable
 204 0050 44B9     		cbnz	r4, .L24	@ pdev_4(D)->cfg.dma_enable,
 205              	.LVL14:
 206              	.LBB11:
 207              	.LBB12:
 208              	.LBB13:
 209              	@ inc/user_libs/usb_core.c:180:     fifo = pdev->regs.DFIFO[ch_ep_num];
 175:inc/user_libs/usb_core.c ****   {
 176:inc/user_libs/usb_core.c ****     uint32_t count32b= 0 , i= 0;
 177:inc/user_libs/usb_core.c ****     __IO uint32_t *fifo;
 178:inc/user_libs/usb_core.c ****     
 179:inc/user_libs/usb_core.c ****     count32b =  (len + 3) / 4;
 180:inc/user_libs/usb_core.c ****     fifo = pdev->regs.DFIFO[ch_ep_num];
 210              		.loc 1 180 0
 211 0052 00EB8200 		add	r0, r0, r2, lsl #2	@ tmp158, pdev, ch_ep_num,
 212              	.LVL15:
 213              	@ inc/user_libs/usb_core.c:179:     count32b =  (len + 3) / 4;
 179:inc/user_libs/usb_core.c ****     fifo = pdev->regs.DFIFO[ch_ep_num];
 214              		.loc 1 179 0
 215 0056 0333     		adds	r3, r3, #3	@ tmp156, len,
 216              	.LVL16:
ARM GAS  /tmp/ccQkqy1T.s 			page 8


 217              	@ inc/user_libs/usb_core.c:180:     fifo = pdev->regs.DFIFO[ch_ep_num];
 218              		.loc 1 180 0
 219 0058 D0F8D000 		ldr	r0, [r0, #208]	@ fifo, pdev_4(D)->regs.DFIFO
 220              	@ inc/user_libs/usb_core.c:179:     count32b =  (len + 3) / 4;
 179:inc/user_libs/usb_core.c ****     fifo = pdev->regs.DFIFO[ch_ep_num];
 221              		.loc 1 179 0
 222 005c 9B10     		asrs	r3, r3, #2	@ count32b, tmp156,
 223              	.LVL17:
 224              	@ inc/user_libs/usb_core.c:181:     for (i = 0; i < count32b; i++, src+=4)
 181:inc/user_libs/usb_core.c ****     for (i = 0; i < count32b; i++, src+=4)
 225              		.loc 1 181 0
 226 005e 2246     		mov	r2, r4	@ i, pdev_4(D)->cfg.dma_enable
 227              	.LVL18:
 228              	.L21:
 229 0060 9342     		cmp	r3, r2	@ count32b, i
 230 0062 01D1     		bne	.L22	@,
 231              	.LVL19:
 232              	.L24:
 233              	.LBE13:
 234              	.LBE12:
 235              	.LBE11:
 236              	@ inc/user_libs/usb_core.c:187: }
 182:inc/user_libs/usb_core.c ****     {
 183:inc/user_libs/usb_core.c ****       USB_OTG_WRITE_REG32( fifo, *((__packed uint32_t *)src) );
 184:inc/user_libs/usb_core.c ****     }
 185:inc/user_libs/usb_core.c ****   }
 186:inc/user_libs/usb_core.c ****   return status;
 187:inc/user_libs/usb_core.c **** }
 237              		.loc 1 187 0
 238 0064 0020     		movs	r0, #0	@,
 239 0066 10BD     		pop	{r4, pc}	@
 240              	.LVL20:
 241              	.L22:
 242              	.LBB16:
 243              	.LBB15:
 244              	.LBB14:
 245              	@ inc/user_libs/usb_core.c:183:       USB_OTG_WRITE_REG32( fifo, *((__packed uint32_t *)src) );
 183:inc/user_libs/usb_core.c ****     }
 246              		.loc 1 183 0
 247 0068 51F82240 		ldr	r4, [r1, r2, lsl #2]	@ _16, MEM[base: src_8(D), index: i_17, step: 4, offset: 0B]
 248 006c 0460     		str	r4, [r0]	@ _16, *fifo_14
 249              	@ inc/user_libs/usb_core.c:181:     for (i = 0; i < count32b; i++, src+=4)
 181:inc/user_libs/usb_core.c ****     for (i = 0; i < count32b; i++, src+=4)
 250              		.loc 1 181 0
 251 006e 0132     		adds	r2, r2, #1	@ i, i,
 252              	.LVL21:
 253 0070 F6E7     		b	.L21	@
 254              	.LBE14:
 255              	.LBE15:
 256              	.LBE16:
 257              		.cfi_endproc
 258              	.LFE112:
 259              		.size	USB_OTG_WritePacket, .-USB_OTG_WritePacket
 260              		.align	1
 261              		.global	USB_OTG_ReadPacket
 262              		.syntax unified
 263              		.thumb
ARM GAS  /tmp/ccQkqy1T.s 			page 9


 264              		.thumb_func
 265              		.fpu softvfp
 266              		.type	USB_OTG_ReadPacket, %function
 267              	USB_OTG_ReadPacket:
 268              	.LFB113:
 188:inc/user_libs/usb_core.c **** 
 189:inc/user_libs/usb_core.c **** 
 190:inc/user_libs/usb_core.c **** /**
 191:inc/user_libs/usb_core.c **** * @brief  USB_OTG_ReadPacket : Reads a packet from the Rx FIFO
 192:inc/user_libs/usb_core.c **** * @param  pdev : Selected device
 193:inc/user_libs/usb_core.c **** * @param  dest : Destination Pointer
 194:inc/user_libs/usb_core.c **** * @param  bytes : No. of bytes
 195:inc/user_libs/usb_core.c **** * @retval None
 196:inc/user_libs/usb_core.c **** */
 197:inc/user_libs/usb_core.c **** void *USB_OTG_ReadPacket(USB_OTG_CORE_HANDLE *pdev, 
 198:inc/user_libs/usb_core.c ****                          uint8_t *dest, 
 199:inc/user_libs/usb_core.c ****                          uint16_t len)
 200:inc/user_libs/usb_core.c **** {
 269              		.loc 1 200 0
 270              		.cfi_startproc
 271              		@ args = 0, pretend = 0, frame = 0
 272              		@ frame_needed = 0, uses_anonymous_args = 0
 273              	.LVL22:
 274 0072 10B5     		push	{r4, lr}	@
 275              	.LCFI3:
 276              		.cfi_def_cfa_offset 8
 277              		.cfi_offset 4, -8
 278              		.cfi_offset 14, -4
 279              	@ inc/user_libs/usb_core.c:202:   uint32_t count32b = (len + 3) / 4;
 201:inc/user_libs/usb_core.c ****   uint32_t i=0;
 202:inc/user_libs/usb_core.c ****   uint32_t count32b = (len + 3) / 4;
 280              		.loc 1 202 0
 281 0074 0332     		adds	r2, r2, #3	@ tmp122, len,
 282              	.LVL23:
 283              	@ inc/user_libs/usb_core.c:204:   __IO uint32_t *fifo = pdev->regs.DFIFO[0];
 203:inc/user_libs/usb_core.c ****   
 204:inc/user_libs/usb_core.c ****   __IO uint32_t *fifo = pdev->regs.DFIFO[0];
 284              		.loc 1 204 0
 285 0076 D0F8D030 		ldr	r3, [r0, #208]	@ fifo, pdev_11(D)->regs.DFIFO
 286              	@ inc/user_libs/usb_core.c:202:   uint32_t count32b = (len + 3) / 4;
 202:inc/user_libs/usb_core.c ****   
 287              		.loc 1 202 0
 288 007a 9210     		asrs	r2, r2, #2	@ count32b, tmp122,
 289              	.LVL24:
 290              	@ inc/user_libs/usb_core.c:206:   for ( i = 0; i < count32b; i++, dest += 4 )
 205:inc/user_libs/usb_core.c ****   
 206:inc/user_libs/usb_core.c ****   for ( i = 0; i < count32b; i++, dest += 4 )
 291              		.loc 1 206 0
 292 007c 0020     		movs	r0, #0	@ i,
 293              	.LVL25:
 294              	.L26:
 295              	@ inc/user_libs/usb_core.c:206:   for ( i = 0; i < count32b; i++, dest += 4 )
 296              		.loc 1 206 0 is_stmt 0 discriminator 1
 297 007e 9042     		cmp	r0, r2	@ i, count32b
 298 0080 02D1     		bne	.L27	@,
 299              	@ inc/user_libs/usb_core.c:212: }
 207:inc/user_libs/usb_core.c ****   {
ARM GAS  /tmp/ccQkqy1T.s 			page 10


 208:inc/user_libs/usb_core.c ****     *(__packed uint32_t *)dest = USB_OTG_READ_REG32(fifo);
 209:inc/user_libs/usb_core.c ****     
 210:inc/user_libs/usb_core.c ****   }
 211:inc/user_libs/usb_core.c ****   return ((void *)dest);
 212:inc/user_libs/usb_core.c **** }
 300              		.loc 1 212 0 is_stmt 1
 301 0082 01EB8000 		add	r0, r1, r0, lsl #2	@, dest, i,
 302              	.LVL26:
 303 0086 10BD     		pop	{r4, pc}	@
 304              	.LVL27:
 305              	.L27:
 306              	@ inc/user_libs/usb_core.c:208:     *(__packed uint32_t *)dest = USB_OTG_READ_REG32(fifo);
 208:inc/user_libs/usb_core.c ****     
 307              		.loc 1 208 0 discriminator 3
 308 0088 1C68     		ldr	r4, [r3]	@ _4, *fifo_12
 309 008a 41F82040 		str	r4, [r1, r0, lsl #2]	@ _4, MEM[base: dest_13(D), index: i_6, step: 4, offset: 0B]
 310              	@ inc/user_libs/usb_core.c:206:   for ( i = 0; i < count32b; i++, dest += 4 )
 206:inc/user_libs/usb_core.c ****   {
 311              		.loc 1 206 0 discriminator 3
 312 008e 0130     		adds	r0, r0, #1	@ i, i,
 313              	.LVL28:
 314 0090 F5E7     		b	.L26	@
 315              		.cfi_endproc
 316              	.LFE113:
 317              		.size	USB_OTG_ReadPacket, .-USB_OTG_ReadPacket
 318              		.align	1
 319              		.global	USB_OTG_SelectCore
 320              		.syntax unified
 321              		.thumb
 322              		.thumb_func
 323              		.fpu softvfp
 324              		.type	USB_OTG_SelectCore, %function
 325              	USB_OTG_SelectCore:
 326              	.LFB114:
 213:inc/user_libs/usb_core.c **** 
 214:inc/user_libs/usb_core.c **** /**
 215:inc/user_libs/usb_core.c **** * @brief  USB_OTG_SelectCore 
 216:inc/user_libs/usb_core.c **** *         Initialize core registers address.
 217:inc/user_libs/usb_core.c **** * @param  pdev : Selected device
 218:inc/user_libs/usb_core.c **** * @param  coreID : USB OTG Core ID
 219:inc/user_libs/usb_core.c **** * @retval USB_OTG_STS : status
 220:inc/user_libs/usb_core.c **** */
 221:inc/user_libs/usb_core.c **** USB_OTG_STS USB_OTG_SelectCore(USB_OTG_CORE_HANDLE *pdev, 
 222:inc/user_libs/usb_core.c ****                                USB_OTG_CORE_ID_TypeDef coreID)
 223:inc/user_libs/usb_core.c **** {
 327              		.loc 1 223 0
 328              		.cfi_startproc
 329              		@ args = 0, pretend = 0, frame = 0
 330              		@ frame_needed = 0, uses_anonymous_args = 0
 331              	.LVL29:
 332              	@ inc/user_libs/usb_core.c:230:   pdev->cfg.speed            = USB_OTG_SPEED_FULL;
 224:inc/user_libs/usb_core.c ****   uint32_t i , baseAddress = 0;
 225:inc/user_libs/usb_core.c ****   USB_OTG_STS status = USB_OTG_OK;
 226:inc/user_libs/usb_core.c ****   
 227:inc/user_libs/usb_core.c ****   pdev->cfg.dma_enable       = 0;
 228:inc/user_libs/usb_core.c ****   
 229:inc/user_libs/usb_core.c ****   /* at startup the core is in FS mode */
ARM GAS  /tmp/ccQkqy1T.s 			page 11


 230:inc/user_libs/usb_core.c ****   pdev->cfg.speed            = USB_OTG_SPEED_FULL;
 333              		.loc 1 230 0
 334 0092 0123     		movs	r3, #1	@ tmp157,
 335              	@ inc/user_libs/usb_core.c:223: {
 223:inc/user_libs/usb_core.c ****   uint32_t i , baseAddress = 0;
 336              		.loc 1 223 0
 337 0094 30B5     		push	{r4, r5, lr}	@
 338              	.LCFI4:
 339              		.cfi_def_cfa_offset 12
 340              		.cfi_offset 4, -12
 341              		.cfi_offset 5, -8
 342              		.cfi_offset 14, -4
 343              	@ inc/user_libs/usb_core.c:234:   if (coreID == USB_OTG_FS_CORE_ID)
 231:inc/user_libs/usb_core.c ****   pdev->cfg.mps              = USB_OTG_FS_MAX_PACKET_SIZE ;    
 232:inc/user_libs/usb_core.c ****   
 233:inc/user_libs/usb_core.c ****   /* initialize device cfg following its address */
 234:inc/user_libs/usb_core.c ****   if (coreID == USB_OTG_FS_CORE_ID)
 344              		.loc 1 234 0
 345 0096 0129     		cmp	r1, #1	@ coreID,
 346              	@ inc/user_libs/usb_core.c:230:   pdev->cfg.speed            = USB_OTG_SPEED_FULL;
 230:inc/user_libs/usb_core.c ****   pdev->cfg.mps              = USB_OTG_FS_MAX_PACKET_SIZE ;    
 347              		.loc 1 230 0
 348 0098 4380     		strh	r3, [r0, #2]	@ movhi	@ tmp157, MEM[(void *)pdev_38(D) + 2B]
 349              	@ inc/user_libs/usb_core.c:227:   pdev->cfg.dma_enable       = 0;
 227:inc/user_libs/usb_core.c ****   
 350              		.loc 1 227 0
 351 009a 4FF04003 		mov	r3, #64	@ tmp159,
 352 009e 8380     		strh	r3, [r0, #4]	@ movhi	@ tmp159, MEM[(void *)pdev_38(D) + 4B]
 353              	@ inc/user_libs/usb_core.c:234:   if (coreID == USB_OTG_FS_CORE_ID)
 354              		.loc 1 234 0
 355 00a0 3BD1     		bne	.L29	@,
 356              	.LVL30:
 357              	@ inc/user_libs/usb_core.c:238:     pdev->cfg.host_channels    = 8 ;
 235:inc/user_libs/usb_core.c ****   {
 236:inc/user_libs/usb_core.c ****     baseAddress                = USB_OTG_FS_BASE_ADDR;
 237:inc/user_libs/usb_core.c ****     pdev->cfg.coreID           = USB_OTG_FS_CORE_ID;
 238:inc/user_libs/usb_core.c ****     pdev->cfg.host_channels    = 8 ;
 358              		.loc 1 238 0
 359 00a2 4FF48163 		mov	r3, #1032	@ tmp161,
 360 00a6 0380     		strh	r3, [r0]	@ movhi	@ tmp161, MEM[(unsigned char *)pdev_38(D)]
 361              	@ inc/user_libs/usb_core.c:240:     pdev->cfg.TotalFifoSize    = 320; /* in 32-bits */
 239:inc/user_libs/usb_core.c ****     pdev->cfg.dev_endpoints    = 4 ;
 240:inc/user_libs/usb_core.c ****     pdev->cfg.TotalFifoSize    = 320; /* in 32-bits */
 362              		.loc 1 240 0
 363 00a8 4FF4A073 		mov	r3, #320	@ tmp163,
 364 00ac C380     		strh	r3, [r0, #6]	@ movhi	@ tmp163, pdev_38(D)->cfg.TotalFifoSize
 365              	@ inc/user_libs/usb_core.c:241:     pdev->cfg.phy_itface       = USB_OTG_EMBEDDED_PHY;     
 241:inc/user_libs/usb_core.c ****     pdev->cfg.phy_itface       = USB_OTG_EMBEDDED_PHY;     
 366              		.loc 1 241 0
 367 00ae 0223     		movs	r3, #2	@ tmp164,
 368 00b0 0372     		strb	r3, [r0, #8]	@ tmp164, pdev_38(D)->cfg.phy_itface
 369              	@ inc/user_libs/usb_core.c:248:     pdev->cfg.low_power        = 1;    
 242:inc/user_libs/usb_core.c ****     
 243:inc/user_libs/usb_core.c **** #ifdef USB_OTG_FS_SOF_OUTPUT_ENABLED    
 244:inc/user_libs/usb_core.c ****     pdev->cfg.Sof_output       = 1;    
 245:inc/user_libs/usb_core.c **** #endif 
 246:inc/user_libs/usb_core.c ****     
ARM GAS  /tmp/ccQkqy1T.s 			page 12


 247:inc/user_libs/usb_core.c **** #ifdef USB_OTG_FS_LOW_PWR_MGMT_SUPPORT    
 248:inc/user_libs/usb_core.c ****     pdev->cfg.low_power        = 1;    
 370              		.loc 1 248 0
 371 00b2 40F20113 		movw	r3, #257	@ tmp167,
 372 00b6 4381     		strh	r3, [r0, #10]	@ movhi	@ tmp167, MEM[(unsigned char *)pdev_38(D) + 10B]
 373              	@ inc/user_libs/usb_core.c:236:     baseAddress                = USB_OTG_FS_BASE_ADDR;
 236:inc/user_libs/usb_core.c ****     pdev->cfg.coreID           = USB_OTG_FS_CORE_ID;
 374              		.loc 1 236 0
 375 00b8 4FF0A043 		mov	r3, #1342177280	@ baseAddress,
 376              	.LVL31:
 377              	.L30:
 378              	@ inc/user_libs/usb_core.c:283:   pdev->regs.DREGS =  (USB_OTG_DREGS  *)  (baseAddress + \
 249:inc/user_libs/usb_core.c **** #endif     
 250:inc/user_libs/usb_core.c ****   }
 251:inc/user_libs/usb_core.c ****   else if (coreID == USB_OTG_HS_CORE_ID)
 252:inc/user_libs/usb_core.c ****   {
 253:inc/user_libs/usb_core.c ****     baseAddress                = USB_OTG_HS_BASE_ADDR;
 254:inc/user_libs/usb_core.c ****     pdev->cfg.coreID           = USB_OTG_HS_CORE_ID;    
 255:inc/user_libs/usb_core.c ****     pdev->cfg.host_channels    = 12 ;
 256:inc/user_libs/usb_core.c ****     pdev->cfg.dev_endpoints    = 6 ;
 257:inc/user_libs/usb_core.c ****     pdev->cfg.TotalFifoSize    = 1280;/* in 32-bits */
 258:inc/user_libs/usb_core.c ****     
 259:inc/user_libs/usb_core.c **** #ifdef USB_OTG_ULPI_PHY_ENABLED
 260:inc/user_libs/usb_core.c ****     pdev->cfg.phy_itface       = USB_OTG_ULPI_PHY;
 261:inc/user_libs/usb_core.c **** #else    
 262:inc/user_libs/usb_core.c **** #ifdef USB_OTG_EMBEDDED_PHY_ENABLED
 263:inc/user_libs/usb_core.c ****     pdev->cfg.phy_itface       = USB_OTG_EMBEDDED_PHY;
 264:inc/user_libs/usb_core.c **** #endif  
 265:inc/user_libs/usb_core.c **** #endif      
 266:inc/user_libs/usb_core.c ****     
 267:inc/user_libs/usb_core.c **** #ifdef USB_OTG_HS_INTERNAL_DMA_ENABLED    
 268:inc/user_libs/usb_core.c ****     pdev->cfg.dma_enable       = 1;    
 269:inc/user_libs/usb_core.c **** #endif
 270:inc/user_libs/usb_core.c ****     
 271:inc/user_libs/usb_core.c **** #ifdef USB_OTG_HS_SOF_OUTPUT_ENABLED    
 272:inc/user_libs/usb_core.c ****     pdev->cfg.Sof_output       = 1;    
 273:inc/user_libs/usb_core.c **** #endif 
 274:inc/user_libs/usb_core.c ****     
 275:inc/user_libs/usb_core.c **** #ifdef USB_OTG_HS_LOW_PWR_MGMT_SUPPORT    
 276:inc/user_libs/usb_core.c ****     pdev->cfg.low_power        = 1;    
 277:inc/user_libs/usb_core.c **** #endif 
 278:inc/user_libs/usb_core.c ****     
 279:inc/user_libs/usb_core.c ****   }
 280:inc/user_libs/usb_core.c ****   
 281:inc/user_libs/usb_core.c ****   pdev->regs.GREGS = (USB_OTG_GREGS *)(baseAddress + \
 282:inc/user_libs/usb_core.c ****     USB_OTG_CORE_GLOBAL_REGS_OFFSET);
 283:inc/user_libs/usb_core.c ****   pdev->regs.DREGS =  (USB_OTG_DREGS  *)  (baseAddress + \
 379              		.loc 1 283 0
 380 00bc 03F50062 		add	r2, r3, #2048	@ tmp174, baseAddress,
 381 00c0 4478     		ldrb	r4, [r0, #1]	@ zero_extendqisi2	@ pdev_38(D)->cfg.dev_endpoints, pdev_38(D)->cfg.dev_endpoint
 382 00c2 0261     		str	r2, [r0, #16]	@ tmp174, pdev_38(D)->regs.DREGS
 383              	.LVL32:
 384 00c4 00F11802 		add	r2, r0, #24	@ ivtmp.130, pdev,
 385              	@ inc/user_libs/usb_core.c:281:   pdev->regs.GREGS = (USB_OTG_GREGS *)(baseAddress + \
 281:inc/user_libs/usb_core.c ****     USB_OTG_CORE_GLOBAL_REGS_OFFSET);
 386              		.loc 1 281 0
 387 00c8 C360     		str	r3, [r0, #12]	@ baseAddress, pdev_38(D)->regs.GREGS
ARM GAS  /tmp/ccQkqy1T.s 			page 13


 388 00ca 03F51061 		add	r1, r3, #2304	@ ivtmp.122, baseAddress,
 389              	.LVL33:
 390 00ce 02EB8404 		add	r4, r2, r4, lsl #2	@ _99, ivtmp.130, pdev_38(D)->cfg.dev_endpoints,
 391              	.LVL34:
 392              	.L31:
 393              	@ inc/user_libs/usb_core.c:286:   for (i = 0; i < pdev->cfg.dev_endpoints; i++)
 284:inc/user_libs/usb_core.c ****     USB_OTG_DEV_GLOBAL_REG_OFFSET);
 285:inc/user_libs/usb_core.c ****   
 286:inc/user_libs/usb_core.c ****   for (i = 0; i < pdev->cfg.dev_endpoints; i++)
 394              		.loc 1 286 0 discriminator 1
 395 00d2 A242     		cmp	r2, r4	@ ivtmp.130, _99
 396 00d4 2DD1     		bne	.L32	@,
 397              	@ inc/user_libs/usb_core.c:295:   pdev->regs.HREGS = (USB_OTG_HREGS *)(baseAddress + \
 287:inc/user_libs/usb_core.c ****   {
 288:inc/user_libs/usb_core.c ****     pdev->regs.INEP_REGS[i]  = (USB_OTG_INEPREGS *)  \
 289:inc/user_libs/usb_core.c ****       (baseAddress + USB_OTG_DEV_IN_EP_REG_OFFSET + \
 290:inc/user_libs/usb_core.c ****         (i * USB_OTG_EP_REG_OFFSET));
 291:inc/user_libs/usb_core.c ****     pdev->regs.OUTEP_REGS[i] = (USB_OTG_OUTEPREGS *) \
 292:inc/user_libs/usb_core.c ****       (baseAddress + USB_OTG_DEV_OUT_EP_REG_OFFSET + \
 293:inc/user_libs/usb_core.c ****         (i * USB_OTG_EP_REG_OFFSET));
 294:inc/user_libs/usb_core.c ****   }
 295:inc/user_libs/usb_core.c ****   pdev->regs.HREGS = (USB_OTG_HREGS *)(baseAddress + \
 398              		.loc 1 295 0
 399 00d6 03F58062 		add	r2, r3, #1024	@ tmp181, baseAddress,
 400 00da 4261     		str	r2, [r0, #20]	@ tmp181, pdev_38(D)->regs.HREGS
 401              	@ inc/user_libs/usb_core.c:299:   for (i = 0; i < pdev->cfg.host_channels; i++)
 296:inc/user_libs/usb_core.c ****     USB_OTG_HOST_GLOBAL_REG_OFFSET);
 297:inc/user_libs/usb_core.c ****   pdev->regs.HPRT0 = (uint32_t *)(baseAddress + USB_OTG_HOST_PORT_REGS_OFFSET);
 298:inc/user_libs/usb_core.c ****   
 299:inc/user_libs/usb_core.c ****   for (i = 0; i < pdev->cfg.host_channels; i++)
 402              		.loc 1 299 0
 403 00dc 0446     		mov	r4, r0	@ ivtmp.114, pdev
 404              	@ inc/user_libs/usb_core.c:297:   pdev->regs.HPRT0 = (uint32_t *)(baseAddress + USB_OTG_HOST_PORT_R
 297:inc/user_libs/usb_core.c ****   
 405              		.loc 1 297 0
 406 00de 03F58862 		add	r2, r3, #1088	@ tmp182, baseAddress,
 407 00e2 C0F8CC20 		str	r2, [r0, #204]	@ tmp182, pdev_38(D)->regs.HPRT0
 408              	.LVL35:
 409              	@ inc/user_libs/usb_core.c:299:   for (i = 0; i < pdev->cfg.host_channels; i++)
 410              		.loc 1 299 0
 411 00e6 14F8902B 		ldrb	r2, [r4], #144	@ zero_extendqisi2	@ _21, pdev_38(D)->cfg.host_channels
 412 00ea 03EB4215 		add	r5, r3, r2, lsl #5	@ tmp183, baseAddress, _21,
 413 00ee 03F5A061 		add	r1, r3, #1280	@ ivtmp.106, baseAddress,
 414 00f2 05F5A065 		add	r5, r5, #1280	@ _86, tmp183,
 415              	.LVL36:
 416              	.L33:
 417              	@ inc/user_libs/usb_core.c:299:   for (i = 0; i < pdev->cfg.host_channels; i++)
 418              		.loc 1 299 0 is_stmt 0 discriminator 1
 419 00f6 A942     		cmp	r1, r5	@ ivtmp.106, _86
 420 00f8 22D1     		bne	.L34	@,
 421 00fa 03EB0232 		add	r2, r3, r2, lsl #12	@ tmp188, baseAddress, _21,
 422 00fe 03F58051 		add	r1, r3, #4096	@ ivtmp.90, baseAddress,
 423 0102 00F1D004 		add	r4, r0, #208	@ ivtmp.98, pdev,
 424 0106 02F58052 		add	r2, r2, #4096	@ _74, tmp188,
 425              	.L35:
 426              	@ inc/user_libs/usb_core.c:305:   for (i = 0; i < pdev->cfg.host_channels; i++)
 300:inc/user_libs/usb_core.c ****   {
ARM GAS  /tmp/ccQkqy1T.s 			page 14


 301:inc/user_libs/usb_core.c ****     pdev->regs.HC_REGS[i] = (USB_OTG_HC_REGS *)(baseAddress + \
 302:inc/user_libs/usb_core.c ****       USB_OTG_HOST_CHAN_REGS_OFFSET + \
 303:inc/user_libs/usb_core.c ****         (i * USB_OTG_CHAN_REGS_OFFSET));
 304:inc/user_libs/usb_core.c ****   }
 305:inc/user_libs/usb_core.c ****   for (i = 0; i < pdev->cfg.host_channels; i++)
 427              		.loc 1 305 0 is_stmt 1 discriminator 1
 428 010a 9142     		cmp	r1, r2	@ ivtmp.90, _74
 429 010c 1CD1     		bne	.L36	@,
 430              	@ inc/user_libs/usb_core.c:310:   pdev->regs.PCGCCTL = (uint32_t *)(baseAddress + USB_OTG_PCGCCTL_O
 306:inc/user_libs/usb_core.c ****   {
 307:inc/user_libs/usb_core.c ****     pdev->regs.DFIFO[i] = (uint32_t *)(baseAddress + USB_OTG_DATA_FIFO_OFFSET +\
 308:inc/user_libs/usb_core.c ****       (i * USB_OTG_DATA_FIFO_SIZE));
 309:inc/user_libs/usb_core.c ****   }
 310:inc/user_libs/usb_core.c ****   pdev->regs.PCGCCTL = (uint32_t *)(baseAddress + USB_OTG_PCGCCTL_OFFSET);
 431              		.loc 1 310 0
 432 010e 03F56063 		add	r3, r3, #3584	@ tmp189, baseAddress,
 433              	.LVL37:
 434 0112 C0F80C31 		str	r3, [r0, #268]	@ tmp189, pdev_38(D)->regs.PCGCCTL
 435              	@ inc/user_libs/usb_core.c:313: }
 311:inc/user_libs/usb_core.c ****   
 312:inc/user_libs/usb_core.c ****   return status;
 313:inc/user_libs/usb_core.c **** }
 436              		.loc 1 313 0
 437 0116 0020     		movs	r0, #0	@,
 438              	.LVL38:
 439 0118 30BD     		pop	{r4, r5, pc}	@
 440              	.LVL39:
 441              	.L29:
 442              	@ inc/user_libs/usb_core.c:251:   else if (coreID == USB_OTG_HS_CORE_ID)
 251:inc/user_libs/usb_core.c ****   {
 443              		.loc 1 251 0
 444 011a 41B9     		cbnz	r1, .L37	@ coreID,
 445              	.LVL40:
 446              	@ inc/user_libs/usb_core.c:255:     pdev->cfg.host_channels    = 12 ;
 255:inc/user_libs/usb_core.c ****     pdev->cfg.dev_endpoints    = 6 ;
 447              		.loc 1 255 0
 448 011c 40F20C63 		movw	r3, #1548	@ tmp171,
 449 0120 0380     		strh	r3, [r0]	@ movhi	@ tmp171, MEM[(unsigned char *)pdev_38(D)]
 450              	@ inc/user_libs/usb_core.c:257:     pdev->cfg.TotalFifoSize    = 1280;/* in 32-bits */
 257:inc/user_libs/usb_core.c ****     
 451              		.loc 1 257 0
 452 0122 4FF4A063 		mov	r3, #1280	@ tmp173,
 453 0126 C380     		strh	r3, [r0, #6]	@ movhi	@ tmp173, pdev_38(D)->cfg.TotalFifoSize
 454              	@ inc/user_libs/usb_core.c:254:     pdev->cfg.coreID           = USB_OTG_HS_CORE_ID;    
 254:inc/user_libs/usb_core.c ****     pdev->cfg.host_channels    = 12 ;
 455              		.loc 1 254 0
 456 0128 C172     		strb	r1, [r0, #11]	@ coreID, pdev_38(D)->cfg.coreID
 457              	@ inc/user_libs/usb_core.c:253:     baseAddress                = USB_OTG_HS_BASE_ADDR;
 253:inc/user_libs/usb_core.c ****     pdev->cfg.coreID           = USB_OTG_HS_CORE_ID;    
 458              		.loc 1 253 0
 459 012a 0A4B     		ldr	r3, .L38	@ baseAddress,
 460 012c C6E7     		b	.L30	@
 461              	.LVL41:
 462              	.L37:
 463              	@ inc/user_libs/usb_core.c:224:   uint32_t i , baseAddress = 0;
 224:inc/user_libs/usb_core.c ****   USB_OTG_STS status = USB_OTG_OK;
 464              		.loc 1 224 0
ARM GAS  /tmp/ccQkqy1T.s 			page 15


 465 012e 0023     		movs	r3, #0	@ baseAddress,
 466 0130 C4E7     		b	.L30	@
 467              	.LVL42:
 468              	.L32:
 469              	@ inc/user_libs/usb_core.c:288:     pdev->regs.INEP_REGS[i]  = (USB_OTG_INEPREGS *)  \
 288:inc/user_libs/usb_core.c ****       (baseAddress + USB_OTG_DEV_IN_EP_REG_OFFSET + \
 470              		.loc 1 288 0 discriminator 3
 471 0132 42F8041B 		str	r1, [r2], #4	@ ivtmp.122, MEM[base: _100, offset: 0B]
 472              	@ inc/user_libs/usb_core.c:291:     pdev->regs.OUTEP_REGS[i] = (USB_OTG_OUTEPREGS *) \
 291:inc/user_libs/usb_core.c ****       (baseAddress + USB_OTG_DEV_OUT_EP_REG_OFFSET + \
 473              		.loc 1 291 0 discriminator 3
 474 0136 01F50075 		add	r5, r1, #512	@ tmp180, ivtmp.122,
 475 013a 9563     		str	r5, [r2, #56]	@ tmp180, MEM[base: _103, offset: 56B]
 476 013c 2031     		adds	r1, r1, #32	@ ivtmp.122, ivtmp.122,
 477 013e C8E7     		b	.L31	@
 478              	.L34:
 479              	@ inc/user_libs/usb_core.c:301:     pdev->regs.HC_REGS[i] = (USB_OTG_HC_REGS *)(baseAddress + \
 301:inc/user_libs/usb_core.c ****       USB_OTG_HOST_CHAN_REGS_OFFSET + \
 480              		.loc 1 301 0 discriminator 3
 481 0140 44F8041B 		str	r1, [r4], #4	@ ivtmp.106, MEM[base: _87, offset: 0B]
 482 0144 2031     		adds	r1, r1, #32	@ ivtmp.106, ivtmp.106,
 483 0146 D6E7     		b	.L33	@
 484              	.L36:
 485              	@ inc/user_libs/usb_core.c:307:     pdev->regs.DFIFO[i] = (uint32_t *)(baseAddress + USB_OTG_DATA_F
 307:inc/user_libs/usb_core.c ****       (i * USB_OTG_DATA_FIFO_SIZE));
 486              		.loc 1 307 0 discriminator 3
 487 0148 44F8041B 		str	r1, [r4], #4	@ ivtmp.90, MEM[base: _75, offset: 0B]
 488 014c 01F58051 		add	r1, r1, #4096	@ ivtmp.90, ivtmp.90,
 489 0150 DBE7     		b	.L35	@
 490              	.L39:
 491 0152 00BF     		.align	2
 492              	.L38:
 493 0154 00000440 		.word	1074003968
 494              		.cfi_endproc
 495              	.LFE114:
 496              		.size	USB_OTG_SelectCore, .-USB_OTG_SelectCore
 497              		.align	1
 498              		.global	USB_OTG_CoreInit
 499              		.syntax unified
 500              		.thumb
 501              		.thumb_func
 502              		.fpu softvfp
 503              		.type	USB_OTG_CoreInit, %function
 504              	USB_OTG_CoreInit:
 505              	.LFB115:
 314:inc/user_libs/usb_core.c **** 
 315:inc/user_libs/usb_core.c **** 
 316:inc/user_libs/usb_core.c **** /**
 317:inc/user_libs/usb_core.c **** * @brief  USB_OTG_CoreInit
 318:inc/user_libs/usb_core.c **** *         Initializes the USB_OTG controller registers and prepares the core
 319:inc/user_libs/usb_core.c **** *         device mode or host mode operation.
 320:inc/user_libs/usb_core.c **** * @param  pdev : Selected device
 321:inc/user_libs/usb_core.c **** * @retval USB_OTG_STS : status
 322:inc/user_libs/usb_core.c **** */
 323:inc/user_libs/usb_core.c **** USB_OTG_STS USB_OTG_CoreInit(USB_OTG_CORE_HANDLE *pdev)
 324:inc/user_libs/usb_core.c **** {
 506              		.loc 1 324 0
ARM GAS  /tmp/ccQkqy1T.s 			page 16


 507              		.cfi_startproc
 508              		@ args = 0, pretend = 0, frame = 0
 509              		@ frame_needed = 0, uses_anonymous_args = 0
 510              	.LVL43:
 511 0158 38B5     		push	{r3, r4, r5, lr}	@
 512              	.LCFI5:
 513              		.cfi_def_cfa_offset 16
 514              		.cfi_offset 3, -16
 515              		.cfi_offset 4, -12
 516              		.cfi_offset 5, -8
 517              		.cfi_offset 14, -4
 518              	@ inc/user_libs/usb_core.c:324: {
 519              		.loc 1 324 0
 520 015a 0546     		mov	r5, r0	@ pdev, pdev
 521              	@ inc/user_libs/usb_core.c:332:   ahbcfg.d32 = 0;
 325:inc/user_libs/usb_core.c ****   USB_OTG_STS status = USB_OTG_OK;
 326:inc/user_libs/usb_core.c ****   USB_OTG_GUSBCFG_TypeDef  usbcfg;
 327:inc/user_libs/usb_core.c ****   USB_OTG_GCCFG_TypeDef    gccfg;
 328:inc/user_libs/usb_core.c ****   USB_OTG_GAHBCFG_TypeDef  ahbcfg;
 329:inc/user_libs/usb_core.c ****   
 330:inc/user_libs/usb_core.c ****   usbcfg.d32 = 0;
 331:inc/user_libs/usb_core.c ****   gccfg.d32 = 0;
 332:inc/user_libs/usb_core.c ****   ahbcfg.d32 = 0;
 522              		.loc 1 332 0
 523 015c 0024     		movs	r4, #0	@ ahbcfg,
 524              	.LVL44:
 525              	@ inc/user_libs/usb_core.c:336:   if (pdev->cfg.phy_itface == USB_OTG_ULPI_PHY)
 333:inc/user_libs/usb_core.c ****   
 334:inc/user_libs/usb_core.c ****   
 335:inc/user_libs/usb_core.c ****   
 336:inc/user_libs/usb_core.c ****   if (pdev->cfg.phy_itface == USB_OTG_ULPI_PHY)
 526              		.loc 1 336 0
 527 015e 2B7A     		ldrb	r3, [r5, #8]	@ zero_extendqisi2	@ pdev_28(D)->cfg.phy_itface, pdev_28(D)->cfg.phy_itface
 528 0160 50F80C2F 		ldr	r2, [r0, #12]!	@ pretmp_64, pdev_28(D)->regs.GREGS
 529              	.LVL45:
 530 0164 012B     		cmp	r3, #1	@ pdev_28(D)->cfg.phy_itface,
 531 0166 2AD1     		bne	.L41	@,
 532              	@ inc/user_libs/usb_core.c:338:     gccfg.d32 = USB_OTG_READ_REG32(&pdev->regs.GREGS->GCCFG);
 337:inc/user_libs/usb_core.c ****   {
 338:inc/user_libs/usb_core.c ****     gccfg.d32 = USB_OTG_READ_REG32(&pdev->regs.GREGS->GCCFG);
 533              		.loc 1 338 0
 534 0168 936B     		ldr	r3, [r2, #56]	@ gccfg, pretmp_64->GCCFG
 535              	.LVL46:
 536              	@ inc/user_libs/usb_core.c:341:     if (pdev->cfg.Sof_output)
 339:inc/user_libs/usb_core.c ****     gccfg.b.pwdn = 0;
 340:inc/user_libs/usb_core.c ****     
 341:inc/user_libs/usb_core.c ****     if (pdev->cfg.Sof_output)
 537              		.loc 1 341 0
 538 016a 697A     		ldrb	r1, [r5, #9]	@ zero_extendqisi2	@ pdev_28(D)->cfg.Sof_output, pdev_28(D)->cfg.Sof_output
 539              	.LVL47:
 540              	@ inc/user_libs/usb_core.c:339:     gccfg.b.pwdn = 0;
 339:inc/user_libs/usb_core.c ****     gccfg.b.pwdn = 0;
 541              		.loc 1 339 0
 542 016c 64F31043 		bfi	r3, r4, #16, #1	@ gccfg, ahbcfg,,
 543              	@ inc/user_libs/usb_core.c:341:     if (pdev->cfg.Sof_output)
 544              		.loc 1 341 0
 545 0170 09B1     		cbz	r1, .L42	@ pdev_28(D)->cfg.Sof_output,
ARM GAS  /tmp/ccQkqy1T.s 			page 17


 546              	@ inc/user_libs/usb_core.c:343:       gccfg.b.sofouten = 1;   
 342:inc/user_libs/usb_core.c ****     {
 343:inc/user_libs/usb_core.c ****       gccfg.b.sofouten = 1;   
 547              		.loc 1 343 0
 548 0172 43F48013 		orr	r3, r3, #1048576	@ gccfg, gccfg,
 549              	.LVL48:
 550              	.L42:
 551              	@ inc/user_libs/usb_core.c:345:     USB_OTG_WRITE_REG32 (&pdev->regs.GREGS->GCCFG, gccfg.d32);
 344:inc/user_libs/usb_core.c ****     }
 345:inc/user_libs/usb_core.c ****     USB_OTG_WRITE_REG32 (&pdev->regs.GREGS->GCCFG, gccfg.d32);
 552              		.loc 1 345 0
 553 0176 9363     		str	r3, [r2, #56]	@ gccfg, pretmp_64->GCCFG
 554              	@ inc/user_libs/usb_core.c:349:     usbcfg.d32 = USB_OTG_READ_REG32(&pdev->regs.GREGS->GUSBCFG);
 346:inc/user_libs/usb_core.c ****     
 347:inc/user_libs/usb_core.c ****     /* Init The ULPI Interface */
 348:inc/user_libs/usb_core.c ****     usbcfg.d32 = 0;
 349:inc/user_libs/usb_core.c ****     usbcfg.d32 = USB_OTG_READ_REG32(&pdev->regs.GREGS->GUSBCFG);
 555              		.loc 1 349 0
 556 0178 D368     		ldr	r3, [r2, #12]	@ _6, pretmp_64->GUSBCFG
 557              	.LVL49:
 558              	@ inc/user_libs/usb_core.c:351:     usbcfg.b.physel            = 0; /* HS Interface */
 350:inc/user_libs/usb_core.c ****     
 351:inc/user_libs/usb_core.c ****     usbcfg.b.physel            = 0; /* HS Interface */
 559              		.loc 1 351 0
 560 017a 6FF38613 		bfc	r3, #6, #1	@ usbcfg,,
 561              	.LVL50:
 562              	@ inc/user_libs/usb_core.c:359:     usbcfg.b.term_sel_dl_pulse = 0; /* Data line pulsing using utmi
 352:inc/user_libs/usb_core.c **** #ifdef USB_OTG_INTERNAL_VBUS_ENABLED
 353:inc/user_libs/usb_core.c ****     usbcfg.b.ulpi_ext_vbus_drv = 0; /* Use internal VBUS */
 354:inc/user_libs/usb_core.c **** #else
 355:inc/user_libs/usb_core.c **** #ifdef USB_OTG_EXTERNAL_VBUS_ENABLED    
 356:inc/user_libs/usb_core.c ****     usbcfg.b.ulpi_ext_vbus_drv = 1; /* Use external VBUS */
 357:inc/user_libs/usb_core.c **** #endif
 358:inc/user_libs/usb_core.c **** #endif 
 359:inc/user_libs/usb_core.c ****     usbcfg.b.term_sel_dl_pulse = 0; /* Data line pulsing using utmi_txvalid */    
 563              		.loc 1 359 0
 564 017e 6FF39653 		bfc	r3, #22, #1	@ usbcfg,,
 565              	@ inc/user_libs/usb_core.c:361:     usbcfg.b.ulpi_fsls = 0;
 360:inc/user_libs/usb_core.c ****     
 361:inc/user_libs/usb_core.c ****     usbcfg.b.ulpi_fsls = 0;
 566              		.loc 1 361 0
 567 0182 6FF35143 		bfc	r3, #17, #1	@ usbcfg,,
 568              	@ inc/user_libs/usb_core.c:362:     usbcfg.b.ulpi_clk_sus_m = 0;
 362:inc/user_libs/usb_core.c ****     usbcfg.b.ulpi_clk_sus_m = 0;
 569              		.loc 1 362 0
 570 0186 6FF3D343 		bfc	r3, #19, #1	@ usbcfg,,
 571              	@ inc/user_libs/usb_core.c:363:     USB_OTG_WRITE_REG32 (&pdev->regs.GREGS->GUSBCFG, usbcfg.d32);
 363:inc/user_libs/usb_core.c ****     USB_OTG_WRITE_REG32 (&pdev->regs.GREGS->GUSBCFG, usbcfg.d32);
 572              		.loc 1 363 0
 573 018a D360     		str	r3, [r2, #12]	@ usbcfg, pretmp_64->GUSBCFG
 574              	@ inc/user_libs/usb_core.c:366:     USB_OTG_CoreReset(pdev);
 364:inc/user_libs/usb_core.c ****     
 365:inc/user_libs/usb_core.c ****     /* Reset after a PHY select  */
 366:inc/user_libs/usb_core.c ****     USB_OTG_CoreReset(pdev);
 575              		.loc 1 366 0
 576 018c FFF738FF 		bl	USB_OTG_CoreReset.isra.1	@
 577              	.LVL51:
ARM GAS  /tmp/ccQkqy1T.s 			page 18


 578              	@ inc/user_libs/usb_core.c:368:     if(pdev->cfg.dma_enable == 1)
 367:inc/user_libs/usb_core.c ****     
 368:inc/user_libs/usb_core.c ****     if(pdev->cfg.dma_enable == 1)
 579              		.loc 1 368 0
 580 0190 EB78     		ldrb	r3, [r5, #3]	@ zero_extendqisi2	@ pdev_28(D)->cfg.dma_enable, pdev_28(D)->cfg.dma_enable
 581 0192 012B     		cmp	r3, #1	@ pdev_28(D)->cfg.dma_enable,
 582 0194 06D1     		bne	.L43	@,
 583              	@ inc/user_libs/usb_core.c:371:       ahbcfg.b.hburstlen = 5; /* 64 x 32-bits*/
 369:inc/user_libs/usb_core.c ****     {
 370:inc/user_libs/usb_core.c ****       
 371:inc/user_libs/usb_core.c ****       ahbcfg.b.hburstlen = 5; /* 64 x 32-bits*/
 584              		.loc 1 371 0
 585 0196 0523     		movs	r3, #5	@ tmp139,
 586 0198 63F34404 		bfi	r4, r3, #1, #4	@ ahbcfg, tmp139,,
 587              	@ inc/user_libs/usb_core.c:373:       USB_OTG_WRITE_REG32(&pdev->regs.GREGS->GAHBCFG, ahbcfg.d32);
 372:inc/user_libs/usb_core.c ****       ahbcfg.b.dmaenable = 1;
 373:inc/user_libs/usb_core.c ****       USB_OTG_WRITE_REG32(&pdev->regs.GREGS->GAHBCFG, ahbcfg.d32);
 588              		.loc 1 373 0
 589 019c EB68     		ldr	r3, [r5, #12]	@ _9, pdev_28(D)->regs.GREGS
 590              	@ inc/user_libs/usb_core.c:372:       ahbcfg.b.dmaenable = 1;
 372:inc/user_libs/usb_core.c ****       ahbcfg.b.dmaenable = 1;
 591              		.loc 1 372 0
 592 019e 44F02004 		orr	r4, r4, #32	@ ahbcfg, ahbcfg,
 593              	.LVL52:
 594              	@ inc/user_libs/usb_core.c:373:       USB_OTG_WRITE_REG32(&pdev->regs.GREGS->GAHBCFG, ahbcfg.d32);
 595              		.loc 1 373 0
 596 01a2 9C60     		str	r4, [r3, #8]	@ ahbcfg, _9->GAHBCFG
 597              	.L43:
 598              	@ inc/user_libs/usb_core.c:404:   if(pdev->cfg.dma_enable == 1)
 374:inc/user_libs/usb_core.c ****       
 375:inc/user_libs/usb_core.c ****     }    
 376:inc/user_libs/usb_core.c ****   }
 377:inc/user_libs/usb_core.c ****   else /* FS interface (embedded Phy) */
 378:inc/user_libs/usb_core.c ****   {
 379:inc/user_libs/usb_core.c ****     
 380:inc/user_libs/usb_core.c ****     usbcfg.d32 = USB_OTG_READ_REG32(&pdev->regs.GREGS->GUSBCFG);;
 381:inc/user_libs/usb_core.c ****     usbcfg.b.physel  = 1; /* FS Interface */
 382:inc/user_libs/usb_core.c ****     USB_OTG_WRITE_REG32 (&pdev->regs.GREGS->GUSBCFG, usbcfg.d32);
 383:inc/user_libs/usb_core.c ****     /* Reset after a PHY select and set Host mode */
 384:inc/user_libs/usb_core.c ****     USB_OTG_CoreReset(pdev);
 385:inc/user_libs/usb_core.c ****     /* Deactivate the power down*/
 386:inc/user_libs/usb_core.c ****     gccfg.d32 = 0;
 387:inc/user_libs/usb_core.c ****     gccfg.b.pwdn = 1;
 388:inc/user_libs/usb_core.c ****     
 389:inc/user_libs/usb_core.c ****     gccfg.b.vbussensingA = 1 ;
 390:inc/user_libs/usb_core.c ****     gccfg.b.vbussensingB = 1 ;     
 391:inc/user_libs/usb_core.c **** #ifndef VBUS_SENSING_ENABLED
 392:inc/user_libs/usb_core.c ****     gccfg.b.disablevbussensing = 1; 
 393:inc/user_libs/usb_core.c **** #endif    
 394:inc/user_libs/usb_core.c ****     
 395:inc/user_libs/usb_core.c ****     if(pdev->cfg.Sof_output)
 396:inc/user_libs/usb_core.c ****     {
 397:inc/user_libs/usb_core.c ****       gccfg.b.sofouten = 1;  
 398:inc/user_libs/usb_core.c ****     }
 399:inc/user_libs/usb_core.c ****     
 400:inc/user_libs/usb_core.c ****     USB_OTG_WRITE_REG32 (&pdev->regs.GREGS->GCCFG, gccfg.d32);
 401:inc/user_libs/usb_core.c ****     USB_OTG_BSP_mDelay(20);
ARM GAS  /tmp/ccQkqy1T.s 			page 19


 402:inc/user_libs/usb_core.c ****   }
 403:inc/user_libs/usb_core.c ****   /* case the HS core is working in FS mode */
 404:inc/user_libs/usb_core.c ****   if(pdev->cfg.dma_enable == 1)
 599              		.loc 1 404 0
 600 01a4 EB78     		ldrb	r3, [r5, #3]	@ zero_extendqisi2	@ pdev_28(D)->cfg.dma_enable, pdev_28(D)->cfg.dma_enable
 601 01a6 012B     		cmp	r3, #1	@ pdev_28(D)->cfg.dma_enable,
 602 01a8 07D1     		bne	.L45	@,
 603              	@ inc/user_libs/usb_core.c:407:     ahbcfg.d32 = USB_OTG_READ_REG32(&pdev->regs.GREGS->GAHBCFG);
 405:inc/user_libs/usb_core.c ****   {
 406:inc/user_libs/usb_core.c ****     
 407:inc/user_libs/usb_core.c ****     ahbcfg.d32 = USB_OTG_READ_REG32(&pdev->regs.GREGS->GAHBCFG);
 604              		.loc 1 407 0
 605 01aa EB68     		ldr	r3, [r5, #12]	@ _18, pdev_28(D)->regs.GREGS
 606 01ac 9C68     		ldr	r4, [r3, #8]	@ _19, _18->GAHBCFG
 607              	.LVL53:
 608              	@ inc/user_libs/usb_core.c:408:     ahbcfg.b.hburstlen = 5; /* 64 x 32-bits*/
 408:inc/user_libs/usb_core.c ****     ahbcfg.b.hburstlen = 5; /* 64 x 32-bits*/
 609              		.loc 1 408 0
 610 01ae 0522     		movs	r2, #5	@ tmp148,
 611 01b0 62F34404 		bfi	r4, r2, #1, #4	@ ahbcfg, tmp148,,
 612              	.LVL54:
 613              	@ inc/user_libs/usb_core.c:409:     ahbcfg.b.dmaenable = 1;
 409:inc/user_libs/usb_core.c ****     ahbcfg.b.dmaenable = 1;
 614              		.loc 1 409 0
 615 01b4 44F02004 		orr	r4, r4, #32	@ ahbcfg, ahbcfg,
 616              	.LVL55:
 617              	@ inc/user_libs/usb_core.c:410:     USB_OTG_WRITE_REG32(&pdev->regs.GREGS->GAHBCFG, ahbcfg.d32);
 410:inc/user_libs/usb_core.c ****     USB_OTG_WRITE_REG32(&pdev->regs.GREGS->GAHBCFG, ahbcfg.d32);
 618              		.loc 1 410 0
 619 01b8 9C60     		str	r4, [r3, #8]	@ ahbcfg, _18->GAHBCFG
 620              	.L45:
 621              	@ inc/user_libs/usb_core.c:422: }
 411:inc/user_libs/usb_core.c ****     
 412:inc/user_libs/usb_core.c ****   }
 413:inc/user_libs/usb_core.c ****   /* initialize OTG features */
 414:inc/user_libs/usb_core.c **** #ifdef  USE_OTG_MODE
 415:inc/user_libs/usb_core.c ****   usbcfg.d32 = USB_OTG_READ_REG32(&pdev->regs.GREGS->GUSBCFG);
 416:inc/user_libs/usb_core.c ****   usbcfg.b.hnpcap = 1;
 417:inc/user_libs/usb_core.c ****   usbcfg.b.srpcap = 1;
 418:inc/user_libs/usb_core.c ****   USB_OTG_WRITE_REG32(&pdev->regs.GREGS->GUSBCFG, usbcfg.d32);
 419:inc/user_libs/usb_core.c ****   USB_OTG_EnableCommonInt(pdev);
 420:inc/user_libs/usb_core.c **** #endif
 421:inc/user_libs/usb_core.c ****   return status;
 422:inc/user_libs/usb_core.c **** }
 622              		.loc 1 422 0
 623 01ba 0020     		movs	r0, #0	@,
 624 01bc 38BD     		pop	{r3, r4, r5, pc}	@
 625              	.LVL56:
 626              	.L41:
 627              	@ inc/user_libs/usb_core.c:380:     usbcfg.d32 = USB_OTG_READ_REG32(&pdev->regs.GREGS->GUSBCFG);;
 380:inc/user_libs/usb_core.c ****     usbcfg.b.physel  = 1; /* FS Interface */
 628              		.loc 1 380 0
 629 01be D368     		ldr	r3, [r2, #12]	@ _12, pretmp_64->GUSBCFG
 630              	@ inc/user_libs/usb_core.c:381:     usbcfg.b.physel  = 1; /* FS Interface */
 381:inc/user_libs/usb_core.c ****     USB_OTG_WRITE_REG32 (&pdev->regs.GREGS->GUSBCFG, usbcfg.d32);
 631              		.loc 1 381 0
 632 01c0 43F04003 		orr	r3, r3, #64	@ usbcfg, _12,
ARM GAS  /tmp/ccQkqy1T.s 			page 20


 633              	.LVL57:
 634              	@ inc/user_libs/usb_core.c:382:     USB_OTG_WRITE_REG32 (&pdev->regs.GREGS->GUSBCFG, usbcfg.d32);
 382:inc/user_libs/usb_core.c ****     /* Reset after a PHY select and set Host mode */
 635              		.loc 1 382 0
 636 01c4 D360     		str	r3, [r2, #12]	@ usbcfg, pretmp_64->GUSBCFG
 637              	@ inc/user_libs/usb_core.c:384:     USB_OTG_CoreReset(pdev);
 384:inc/user_libs/usb_core.c ****     /* Deactivate the power down*/
 638              		.loc 1 384 0
 639 01c6 FFF71BFF 		bl	USB_OTG_CoreReset.isra.1	@
 640              	.LVL58:
 641              	@ inc/user_libs/usb_core.c:395:     if(pdev->cfg.Sof_output)
 395:inc/user_libs/usb_core.c ****     {
 642              		.loc 1 395 0
 643 01ca 6B7A     		ldrb	r3, [r5, #9]	@ zero_extendqisi2	@ pdev_28(D)->cfg.Sof_output, pdev_28(D)->cfg.Sof_output
 644              	@ inc/user_libs/usb_core.c:400:     USB_OTG_WRITE_REG32 (&pdev->regs.GREGS->GCCFG, gccfg.d32);
 400:inc/user_libs/usb_core.c ****     USB_OTG_BSP_mDelay(20);
 645              		.loc 1 400 0
 646 01cc EA68     		ldr	r2, [r5, #12]	@ _15, pdev_28(D)->regs.GREGS
 647              	@ inc/user_libs/usb_core.c:397:       gccfg.b.sofouten = 1;  
 397:inc/user_libs/usb_core.c ****     }
 648              		.loc 1 397 0
 649 01ce 002B     		cmp	r3, #0	@ pdev_28(D)->cfg.Sof_output,
 650 01d0 0CBF     		ite	eq
 651 01d2 4FF45023 		moveq	r3, #851968	@ gccfg,
 652 01d6 4FF4E813 		movne	r3, #1900544	@ gccfg,
 653              	.LVL59:
 654              	@ inc/user_libs/usb_core.c:400:     USB_OTG_WRITE_REG32 (&pdev->regs.GREGS->GCCFG, gccfg.d32);
 400:inc/user_libs/usb_core.c ****     USB_OTG_BSP_mDelay(20);
 655              		.loc 1 400 0
 656 01da 9363     		str	r3, [r2, #56]	@ gccfg, _15->GCCFG
 657              	@ inc/user_libs/usb_core.c:401:     USB_OTG_BSP_mDelay(20);
 401:inc/user_libs/usb_core.c ****   }
 658              		.loc 1 401 0
 659 01dc 1420     		movs	r0, #20	@,
 660 01de FFF7FEFF 		bl	USB_OTG_BSP_mDelay	@
 661              	.LVL60:
 662 01e2 DFE7     		b	.L43	@
 663              		.cfi_endproc
 664              	.LFE115:
 665              		.size	USB_OTG_CoreInit, .-USB_OTG_CoreInit
 666              		.align	1
 667              		.global	USB_OTG_EnableGlobalInt
 668              		.syntax unified
 669              		.thumb
 670              		.thumb_func
 671              		.fpu softvfp
 672              		.type	USB_OTG_EnableGlobalInt, %function
 673              	USB_OTG_EnableGlobalInt:
 674              	.LFB116:
 423:inc/user_libs/usb_core.c **** /**
 424:inc/user_libs/usb_core.c **** * @brief  USB_OTG_EnableGlobalInt
 425:inc/user_libs/usb_core.c **** *         Enables the controller's Global Int in the AHB Config reg
 426:inc/user_libs/usb_core.c **** * @param  pdev : Selected device
 427:inc/user_libs/usb_core.c **** * @retval USB_OTG_STS : status
 428:inc/user_libs/usb_core.c **** */
 429:inc/user_libs/usb_core.c **** USB_OTG_STS USB_OTG_EnableGlobalInt(USB_OTG_CORE_HANDLE *pdev)
 430:inc/user_libs/usb_core.c **** {
ARM GAS  /tmp/ccQkqy1T.s 			page 21


 675              		.loc 1 430 0
 676              		.cfi_startproc
 677              		@ args = 0, pretend = 0, frame = 0
 678              		@ frame_needed = 0, uses_anonymous_args = 0
 679              		@ link register save eliminated.
 680              	.LVL61:
 681              	@ inc/user_libs/usb_core.c:436:   USB_OTG_MODIFY_REG32(&pdev->regs.GREGS->GAHBCFG, 0, ahbcfg.d32);
 431:inc/user_libs/usb_core.c ****   USB_OTG_STS status = USB_OTG_OK;
 432:inc/user_libs/usb_core.c ****   USB_OTG_GAHBCFG_TypeDef  ahbcfg;
 433:inc/user_libs/usb_core.c ****   
 434:inc/user_libs/usb_core.c ****   ahbcfg.d32 = 0;
 435:inc/user_libs/usb_core.c ****   ahbcfg.b.glblintrmsk = 1; /* Enable interrupts */
 436:inc/user_libs/usb_core.c ****   USB_OTG_MODIFY_REG32(&pdev->regs.GREGS->GAHBCFG, 0, ahbcfg.d32);
 682              		.loc 1 436 0
 683 01e4 C268     		ldr	r2, [r0, #12]	@ _1, pdev_8(D)->regs.GREGS
 684 01e6 9368     		ldr	r3, [r2, #8]	@ _2, _1->GAHBCFG
 685 01e8 43F00103 		orr	r3, r3, #1	@ _4, _2,
 686 01ec 9360     		str	r3, [r2, #8]	@ _4, _1->GAHBCFG
 687              	@ inc/user_libs/usb_core.c:438: }
 437:inc/user_libs/usb_core.c ****   return status;
 438:inc/user_libs/usb_core.c **** }
 688              		.loc 1 438 0
 689 01ee 0020     		movs	r0, #0	@,
 690              	.LVL62:
 691 01f0 7047     		bx	lr	@
 692              		.cfi_endproc
 693              	.LFE116:
 694              		.size	USB_OTG_EnableGlobalInt, .-USB_OTG_EnableGlobalInt
 695              		.align	1
 696              		.global	USB_OTG_DisableGlobalInt
 697              		.syntax unified
 698              		.thumb
 699              		.thumb_func
 700              		.fpu softvfp
 701              		.type	USB_OTG_DisableGlobalInt, %function
 702              	USB_OTG_DisableGlobalInt:
 703              	.LFB117:
 439:inc/user_libs/usb_core.c **** 
 440:inc/user_libs/usb_core.c **** 
 441:inc/user_libs/usb_core.c **** /**
 442:inc/user_libs/usb_core.c **** * @brief  USB_OTG_DisableGlobalInt
 443:inc/user_libs/usb_core.c **** *         Enables the controller's Global Int in the AHB Config reg
 444:inc/user_libs/usb_core.c **** * @param  pdev : Selected device
 445:inc/user_libs/usb_core.c **** * @retval USB_OTG_STS : status
 446:inc/user_libs/usb_core.c **** */
 447:inc/user_libs/usb_core.c **** USB_OTG_STS USB_OTG_DisableGlobalInt(USB_OTG_CORE_HANDLE *pdev)
 448:inc/user_libs/usb_core.c **** {
 704              		.loc 1 448 0
 705              		.cfi_startproc
 706              		@ args = 0, pretend = 0, frame = 0
 707              		@ frame_needed = 0, uses_anonymous_args = 0
 708              		@ link register save eliminated.
 709              	.LVL63:
 710              	@ inc/user_libs/usb_core.c:453:   USB_OTG_MODIFY_REG32(&pdev->regs.GREGS->GAHBCFG, ahbcfg.d32, 0);
 449:inc/user_libs/usb_core.c ****   USB_OTG_STS status = USB_OTG_OK;
 450:inc/user_libs/usb_core.c ****   USB_OTG_GAHBCFG_TypeDef  ahbcfg;
 451:inc/user_libs/usb_core.c ****   ahbcfg.d32 = 0;
ARM GAS  /tmp/ccQkqy1T.s 			page 22


 452:inc/user_libs/usb_core.c ****   ahbcfg.b.glblintrmsk = 1; /* Enable interrupts */
 453:inc/user_libs/usb_core.c ****   USB_OTG_MODIFY_REG32(&pdev->regs.GREGS->GAHBCFG, ahbcfg.d32, 0);
 711              		.loc 1 453 0
 712 01f2 C268     		ldr	r2, [r0, #12]	@ _1, pdev_9(D)->regs.GREGS
 713 01f4 9368     		ldr	r3, [r2, #8]	@ _2, _1->GAHBCFG
 714 01f6 23F00103 		bic	r3, r3, #1	@ _5, _2,
 715 01fa 9360     		str	r3, [r2, #8]	@ _5, _1->GAHBCFG
 716              	@ inc/user_libs/usb_core.c:455: }
 454:inc/user_libs/usb_core.c ****   return status;
 455:inc/user_libs/usb_core.c **** }
 717              		.loc 1 455 0
 718 01fc 0020     		movs	r0, #0	@,
 719              	.LVL64:
 720 01fe 7047     		bx	lr	@
 721              		.cfi_endproc
 722              	.LFE117:
 723              		.size	USB_OTG_DisableGlobalInt, .-USB_OTG_DisableGlobalInt
 724              		.align	1
 725              		.global	USB_OTG_FlushTxFifo
 726              		.syntax unified
 727              		.thumb
 728              		.thumb_func
 729              		.fpu softvfp
 730              		.type	USB_OTG_FlushTxFifo, %function
 731              	USB_OTG_FlushTxFifo:
 732              	.LFB118:
 456:inc/user_libs/usb_core.c **** 
 457:inc/user_libs/usb_core.c **** 
 458:inc/user_libs/usb_core.c **** /**
 459:inc/user_libs/usb_core.c **** * @brief  USB_OTG_FlushTxFifo : Flush a Tx FIFO
 460:inc/user_libs/usb_core.c **** * @param  pdev : Selected device
 461:inc/user_libs/usb_core.c **** * @param  num : FO num
 462:inc/user_libs/usb_core.c **** * @retval USB_OTG_STS : status
 463:inc/user_libs/usb_core.c **** */
 464:inc/user_libs/usb_core.c **** USB_OTG_STS USB_OTG_FlushTxFifo (USB_OTG_CORE_HANDLE *pdev , uint32_t num )
 465:inc/user_libs/usb_core.c **** {
 733              		.loc 1 465 0
 734              		.cfi_startproc
 735              		@ args = 0, pretend = 0, frame = 8
 736              		@ frame_needed = 0, uses_anonymous_args = 0
 737              	.LVL65:
 738 0200 07B5     		push	{r0, r1, r2, lr}	@
 739              	.LCFI6:
 740              		.cfi_def_cfa_offset 16
 741              		.cfi_offset 14, -4
 742              	@ inc/user_libs/usb_core.c:470:   greset.d32 = 0;
 466:inc/user_libs/usb_core.c ****   USB_OTG_STS status = USB_OTG_OK;
 467:inc/user_libs/usb_core.c ****   __IO USB_OTG_GRSTCTL_TypeDef  greset;
 468:inc/user_libs/usb_core.c ****   
 469:inc/user_libs/usb_core.c ****   uint32_t count = 0;
 470:inc/user_libs/usb_core.c ****   greset.d32 = 0;
 743              		.loc 1 470 0
 744 0202 0023     		movs	r3, #0	@ tmp119,
 745 0204 0193     		str	r3, [sp, #4]	@ tmp119, greset.d32
 746              	@ inc/user_libs/usb_core.c:471:   greset.b.txfflsh = 1;
 471:inc/user_libs/usb_core.c ****   greset.b.txfflsh = 1;
 747              		.loc 1 471 0
ARM GAS  /tmp/ccQkqy1T.s 			page 23


 748 0206 019B     		ldr	r3, [sp, #4]	@ tmp120,
 749 0208 43F02003 		orr	r3, r3, #32	@ tmp120, tmp120,
 750 020c 0193     		str	r3, [sp, #4]	@ tmp120,
 751              	@ inc/user_libs/usb_core.c:472:   greset.b.txfnum  = num;
 472:inc/user_libs/usb_core.c ****   greset.b.txfnum  = num;
 752              		.loc 1 472 0
 753 020e 019B     		ldr	r3, [sp, #4]	@ _1,
 754 0210 61F38A13 		bfi	r3, r1, #6, #5	@ _1, num,,
 755 0214 0193     		str	r3, [sp, #4]	@ _1,
 756              	@ inc/user_libs/usb_core.c:473:   USB_OTG_WRITE_REG32( &pdev->regs.GREGS->GRSTCTL, greset.d32 );
 473:inc/user_libs/usb_core.c ****   USB_OTG_WRITE_REG32( &pdev->regs.GREGS->GRSTCTL, greset.d32 );
 757              		.loc 1 473 0
 758 0216 C268     		ldr	r2, [r0, #12]	@ _2, pdev_13(D)->regs.GREGS
 759 0218 019B     		ldr	r3, [sp, #4]	@ _3, greset.d32
 760 021a 1361     		str	r3, [r2, #16]	@ _3, _2->GRSTCTL
 761 021c 074B     		ldr	r3, .L62	@ ivtmp_18,
 762              	.LVL66:
 763              	.L55:
 764              	@ inc/user_libs/usb_core.c:476:     greset.d32 = USB_OTG_READ_REG32( &pdev->regs.GREGS->GRSTCTL);
 474:inc/user_libs/usb_core.c ****   do
 475:inc/user_libs/usb_core.c ****   {
 476:inc/user_libs/usb_core.c ****     greset.d32 = USB_OTG_READ_REG32( &pdev->regs.GREGS->GRSTCTL);
 765              		.loc 1 476 0
 766 021e 1169     		ldr	r1, [r2, #16]	@ _4, _2->GRSTCTL
 767 0220 0191     		str	r1, [sp, #4]	@ _4, greset.d32
 768              	.LVL67:
 769              	@ inc/user_libs/usb_core.c:477:     if (++count > 200000)
 477:inc/user_libs/usb_core.c ****     if (++count > 200000)
 770              		.loc 1 477 0
 771 0222 013B     		subs	r3, r3, #1	@ ivtmp_18, ivtmp_18,
 772              	.LVL68:
 773 0224 02D0     		beq	.L54	@,
 774              	.LVL69:
 775              	@ inc/user_libs/usb_core.c:482:   while (greset.b.txfflsh == 1);
 478:inc/user_libs/usb_core.c ****     {
 479:inc/user_libs/usb_core.c ****       break;
 480:inc/user_libs/usb_core.c ****     }
 481:inc/user_libs/usb_core.c ****   }
 482:inc/user_libs/usb_core.c ****   while (greset.b.txfflsh == 1);
 776              		.loc 1 482 0
 777 0226 0199     		ldr	r1, [sp, #4]	@ greset, greset
 778 0228 8906     		lsls	r1, r1, #26	@, greset,
 779 022a F8D4     		bmi	.L55	@,
 780              	.LVL70:
 781              	.L54:
 782              	@ inc/user_libs/usb_core.c:484:   USB_OTG_BSP_uDelay(3);
 483:inc/user_libs/usb_core.c ****   /* Wait for 3 PHY Clocks*/
 484:inc/user_libs/usb_core.c ****   USB_OTG_BSP_uDelay(3);
 783              		.loc 1 484 0
 784 022c 0320     		movs	r0, #3	@,
 785              	.LVL71:
 786 022e FFF7FEFF 		bl	USB_OTG_BSP_uDelay	@
 787              	.LVL72:
 788              	@ inc/user_libs/usb_core.c:486: }
 485:inc/user_libs/usb_core.c ****   return status;
 486:inc/user_libs/usb_core.c **** }
 789              		.loc 1 486 0
ARM GAS  /tmp/ccQkqy1T.s 			page 24


 790 0232 0020     		movs	r0, #0	@,
 791 0234 03B0     		add	sp, sp, #12	@,,
 792              	.LCFI7:
 793              		.cfi_def_cfa_offset 4
 794              		@ sp needed	@
 795 0236 5DF804FB 		ldr	pc, [sp], #4	@
 796              	.L63:
 797 023a 00BF     		.align	2
 798              	.L62:
 799 023c 410D0300 		.word	200001
 800              		.cfi_endproc
 801              	.LFE118:
 802              		.size	USB_OTG_FlushTxFifo, .-USB_OTG_FlushTxFifo
 803              		.align	1
 804              		.global	USB_OTG_FlushRxFifo
 805              		.syntax unified
 806              		.thumb
 807              		.thumb_func
 808              		.fpu softvfp
 809              		.type	USB_OTG_FlushRxFifo, %function
 810              	USB_OTG_FlushRxFifo:
 811              	.LFB119:
 487:inc/user_libs/usb_core.c **** 
 488:inc/user_libs/usb_core.c **** 
 489:inc/user_libs/usb_core.c **** /**
 490:inc/user_libs/usb_core.c **** * @brief  USB_OTG_FlushRxFifo : Flush a Rx FIFO
 491:inc/user_libs/usb_core.c **** * @param  pdev : Selected device
 492:inc/user_libs/usb_core.c **** * @retval USB_OTG_STS : status
 493:inc/user_libs/usb_core.c **** */
 494:inc/user_libs/usb_core.c **** USB_OTG_STS USB_OTG_FlushRxFifo( USB_OTG_CORE_HANDLE *pdev )
 495:inc/user_libs/usb_core.c **** {
 812              		.loc 1 495 0
 813              		.cfi_startproc
 814              		@ args = 0, pretend = 0, frame = 8
 815              		@ frame_needed = 0, uses_anonymous_args = 0
 816              	.LVL73:
 817 0240 07B5     		push	{r0, r1, r2, lr}	@
 818              	.LCFI8:
 819              		.cfi_def_cfa_offset 16
 820              		.cfi_offset 14, -4
 821              	@ inc/user_libs/usb_core.c:500:   greset.d32 = 0;
 496:inc/user_libs/usb_core.c ****   USB_OTG_STS status = USB_OTG_OK;
 497:inc/user_libs/usb_core.c ****   __IO USB_OTG_GRSTCTL_TypeDef  greset;
 498:inc/user_libs/usb_core.c ****   uint32_t count = 0;
 499:inc/user_libs/usb_core.c ****   
 500:inc/user_libs/usb_core.c ****   greset.d32 = 0;
 822              		.loc 1 500 0
 823 0242 0023     		movs	r3, #0	@ tmp117,
 824 0244 0193     		str	r3, [sp, #4]	@ tmp117, greset.d32
 825              	@ inc/user_libs/usb_core.c:501:   greset.b.rxfflsh = 1;
 501:inc/user_libs/usb_core.c ****   greset.b.rxfflsh = 1;
 826              		.loc 1 501 0
 827 0246 019B     		ldr	r3, [sp, #4]	@ tmp118,
 828 0248 43F01003 		orr	r3, r3, #16	@ tmp118, tmp118,
 829 024c 0193     		str	r3, [sp, #4]	@ tmp118,
 830              	@ inc/user_libs/usb_core.c:502:   USB_OTG_WRITE_REG32( &pdev->regs.GREGS->GRSTCTL, greset.d32 );
 502:inc/user_libs/usb_core.c ****   USB_OTG_WRITE_REG32( &pdev->regs.GREGS->GRSTCTL, greset.d32 );
ARM GAS  /tmp/ccQkqy1T.s 			page 25


 831              		.loc 1 502 0
 832 024e C268     		ldr	r2, [r0, #12]	@ _1, pdev_10(D)->regs.GREGS
 833 0250 019B     		ldr	r3, [sp, #4]	@ _2, greset.d32
 834 0252 1361     		str	r3, [r2, #16]	@ _2, _1->GRSTCTL
 835 0254 074B     		ldr	r3, .L73	@ ivtmp_15,
 836              	.LVL74:
 837              	.L66:
 838              	@ inc/user_libs/usb_core.c:505:     greset.d32 = USB_OTG_READ_REG32( &pdev->regs.GREGS->GRSTCTL);
 503:inc/user_libs/usb_core.c ****   do
 504:inc/user_libs/usb_core.c ****   {
 505:inc/user_libs/usb_core.c ****     greset.d32 = USB_OTG_READ_REG32( &pdev->regs.GREGS->GRSTCTL);
 839              		.loc 1 505 0
 840 0256 1169     		ldr	r1, [r2, #16]	@ _3, _1->GRSTCTL
 841 0258 0191     		str	r1, [sp, #4]	@ _3, greset.d32
 842              	.LVL75:
 843              	@ inc/user_libs/usb_core.c:506:     if (++count > 200000)
 506:inc/user_libs/usb_core.c ****     if (++count > 200000)
 844              		.loc 1 506 0
 845 025a 013B     		subs	r3, r3, #1	@ ivtmp_15, ivtmp_15,
 846              	.LVL76:
 847 025c 02D0     		beq	.L65	@,
 848              	.LVL77:
 849              	@ inc/user_libs/usb_core.c:511:   while (greset.b.rxfflsh == 1);
 507:inc/user_libs/usb_core.c ****     {
 508:inc/user_libs/usb_core.c ****       break;
 509:inc/user_libs/usb_core.c ****     }
 510:inc/user_libs/usb_core.c ****   }
 511:inc/user_libs/usb_core.c ****   while (greset.b.rxfflsh == 1);
 850              		.loc 1 511 0
 851 025e 0199     		ldr	r1, [sp, #4]	@ greset, greset
 852 0260 C906     		lsls	r1, r1, #27	@, greset,
 853 0262 F8D4     		bmi	.L66	@,
 854              	.LVL78:
 855              	.L65:
 856              	@ inc/user_libs/usb_core.c:513:   USB_OTG_BSP_uDelay(3);
 512:inc/user_libs/usb_core.c ****   /* Wait for 3 PHY Clocks*/
 513:inc/user_libs/usb_core.c ****   USB_OTG_BSP_uDelay(3);
 857              		.loc 1 513 0
 858 0264 0320     		movs	r0, #3	@,
 859              	.LVL79:
 860 0266 FFF7FEFF 		bl	USB_OTG_BSP_uDelay	@
 861              	.LVL80:
 862              	@ inc/user_libs/usb_core.c:515: }
 514:inc/user_libs/usb_core.c ****   return status;
 515:inc/user_libs/usb_core.c **** }
 863              		.loc 1 515 0
 864 026a 0020     		movs	r0, #0	@,
 865 026c 03B0     		add	sp, sp, #12	@,,
 866              	.LCFI9:
 867              		.cfi_def_cfa_offset 4
 868              		@ sp needed	@
 869 026e 5DF804FB 		ldr	pc, [sp], #4	@
 870              	.L74:
 871 0272 00BF     		.align	2
 872              	.L73:
 873 0274 410D0300 		.word	200001
 874              		.cfi_endproc
ARM GAS  /tmp/ccQkqy1T.s 			page 26


 875              	.LFE119:
 876              		.size	USB_OTG_FlushRxFifo, .-USB_OTG_FlushRxFifo
 877              		.align	1
 878              		.global	USB_OTG_SetCurrentMode
 879              		.syntax unified
 880              		.thumb
 881              		.thumb_func
 882              		.fpu softvfp
 883              		.type	USB_OTG_SetCurrentMode, %function
 884              	USB_OTG_SetCurrentMode:
 885              	.LFB120:
 516:inc/user_libs/usb_core.c **** 
 517:inc/user_libs/usb_core.c **** 
 518:inc/user_libs/usb_core.c **** /**
 519:inc/user_libs/usb_core.c **** * @brief  USB_OTG_SetCurrentMode : Set ID line
 520:inc/user_libs/usb_core.c **** * @param  pdev : Selected device
 521:inc/user_libs/usb_core.c **** * @param  mode :  (Host/device)
 522:inc/user_libs/usb_core.c **** * @retval USB_OTG_STS : status
 523:inc/user_libs/usb_core.c **** */
 524:inc/user_libs/usb_core.c **** USB_OTG_STS USB_OTG_SetCurrentMode(USB_OTG_CORE_HANDLE *pdev , uint8_t mode)
 525:inc/user_libs/usb_core.c **** {
 886              		.loc 1 525 0
 887              		.cfi_startproc
 888              		@ args = 0, pretend = 0, frame = 0
 889              		@ frame_needed = 0, uses_anonymous_args = 0
 890              	.LVL81:
 891              	@ inc/user_libs/usb_core.c:529:   usbcfg.d32 = USB_OTG_READ_REG32(&pdev->regs.GREGS->GUSBCFG);
 526:inc/user_libs/usb_core.c ****   USB_OTG_STS status = USB_OTG_OK;
 527:inc/user_libs/usb_core.c ****   USB_OTG_GUSBCFG_TypeDef  usbcfg;
 528:inc/user_libs/usb_core.c ****   
 529:inc/user_libs/usb_core.c ****   usbcfg.d32 = USB_OTG_READ_REG32(&pdev->regs.GREGS->GUSBCFG);
 892              		.loc 1 529 0
 893 0278 C268     		ldr	r2, [r0, #12]	@ _1, pdev_6(D)->regs.GREGS
 894              	@ inc/user_libs/usb_core.c:525: {
 525:inc/user_libs/usb_core.c ****   USB_OTG_STS status = USB_OTG_OK;
 895              		.loc 1 525 0
 896 027a 08B5     		push	{r3, lr}	@
 897              	.LCFI10:
 898              		.cfi_def_cfa_offset 8
 899              		.cfi_offset 3, -8
 900              		.cfi_offset 14, -4
 901              	@ inc/user_libs/usb_core.c:529:   usbcfg.d32 = USB_OTG_READ_REG32(&pdev->regs.GREGS->GUSBCFG);
 902              		.loc 1 529 0
 903 027c D368     		ldr	r3, [r2, #12]	@ usbcfg, _1->GUSBCFG
 904              	.LVL82:
 905              	@ inc/user_libs/usb_core.c:534:   if ( mode == HOST_MODE)
 530:inc/user_libs/usb_core.c ****   
 531:inc/user_libs/usb_core.c ****   usbcfg.b.force_host = 0;
 532:inc/user_libs/usb_core.c ****   usbcfg.b.force_dev = 0;
 533:inc/user_libs/usb_core.c ****   
 534:inc/user_libs/usb_core.c ****   if ( mode == HOST_MODE)
 906              		.loc 1 534 0
 907 027e 0129     		cmp	r1, #1	@ mode,
 908              	@ inc/user_libs/usb_core.c:531:   usbcfg.b.force_host = 0;
 531:inc/user_libs/usb_core.c ****   usbcfg.b.force_dev = 0;
 909              		.loc 1 531 0
 910 0280 6FF35D73 		bfc	r3, #29, #1	@ usbcfg,,
ARM GAS  /tmp/ccQkqy1T.s 			page 27


 911              	@ inc/user_libs/usb_core.c:532:   usbcfg.b.force_dev = 0;
 532:inc/user_libs/usb_core.c ****   
 912              		.loc 1 532 0
 913 0284 6FF39E73 		bfc	r3, #30, #1	@ usbcfg,,
 914              	@ inc/user_libs/usb_core.c:534:   if ( mode == HOST_MODE)
 915              		.loc 1 534 0
 916 0288 07D1     		bne	.L76	@,
 917              	@ inc/user_libs/usb_core.c:536:     usbcfg.b.force_host = 1;
 535:inc/user_libs/usb_core.c ****   {
 536:inc/user_libs/usb_core.c ****     usbcfg.b.force_host = 1;
 918              		.loc 1 536 0
 919 028a 43F00053 		orr	r3, r3, #536870912	@ usbcfg, usbcfg,
 920              	.LVL83:
 921              	.L77:
 922              	@ inc/user_libs/usb_core.c:543:   USB_OTG_WRITE_REG32(&pdev->regs.GREGS->GUSBCFG, usbcfg.d32);
 537:inc/user_libs/usb_core.c ****   }
 538:inc/user_libs/usb_core.c ****   else if ( mode == DEVICE_MODE)
 539:inc/user_libs/usb_core.c ****   {
 540:inc/user_libs/usb_core.c ****     usbcfg.b.force_dev = 1;
 541:inc/user_libs/usb_core.c ****   }
 542:inc/user_libs/usb_core.c ****   
 543:inc/user_libs/usb_core.c ****   USB_OTG_WRITE_REG32(&pdev->regs.GREGS->GUSBCFG, usbcfg.d32);
 923              		.loc 1 543 0
 924 028e D360     		str	r3, [r2, #12]	@ usbcfg, _1->GUSBCFG
 925              	@ inc/user_libs/usb_core.c:544:   USB_OTG_BSP_mDelay(50);
 544:inc/user_libs/usb_core.c ****   USB_OTG_BSP_mDelay(50);
 926              		.loc 1 544 0
 927 0290 3220     		movs	r0, #50	@,
 928              	.LVL84:
 929 0292 FFF7FEFF 		bl	USB_OTG_BSP_mDelay	@
 930              	.LVL85:
 931              	@ inc/user_libs/usb_core.c:546: }
 545:inc/user_libs/usb_core.c ****   return status;
 546:inc/user_libs/usb_core.c **** }
 932              		.loc 1 546 0
 933 0296 0020     		movs	r0, #0	@,
 934 0298 08BD     		pop	{r3, pc}	@
 935              	.LVL86:
 936              	.L76:
 937              	@ inc/user_libs/usb_core.c:538:   else if ( mode == DEVICE_MODE)
 538:inc/user_libs/usb_core.c ****   {
 938              		.loc 1 538 0
 939 029a 0029     		cmp	r1, #0	@ mode
 940 029c F7D1     		bne	.L77	@
 941              	@ inc/user_libs/usb_core.c:540:     usbcfg.b.force_dev = 1;
 540:inc/user_libs/usb_core.c ****   }
 942              		.loc 1 540 0
 943 029e 43F08043 		orr	r3, r3, #1073741824	@ usbcfg, usbcfg,
 944              	.LVL87:
 945 02a2 F4E7     		b	.L77	@
 946              		.cfi_endproc
 947              	.LFE120:
 948              		.size	USB_OTG_SetCurrentMode, .-USB_OTG_SetCurrentMode
 949              		.align	1
 950              		.global	USB_OTG_GetMode
 951              		.syntax unified
 952              		.thumb
ARM GAS  /tmp/ccQkqy1T.s 			page 28


 953              		.thumb_func
 954              		.fpu softvfp
 955              		.type	USB_OTG_GetMode, %function
 956              	USB_OTG_GetMode:
 957              	.LFB121:
 547:inc/user_libs/usb_core.c **** 
 548:inc/user_libs/usb_core.c **** 
 549:inc/user_libs/usb_core.c **** /**
 550:inc/user_libs/usb_core.c **** * @brief  USB_OTG_GetMode : Get current mode
 551:inc/user_libs/usb_core.c **** * @param  pdev : Selected device
 552:inc/user_libs/usb_core.c **** * @retval current mode
 553:inc/user_libs/usb_core.c **** */
 554:inc/user_libs/usb_core.c **** uint32_t USB_OTG_GetMode(USB_OTG_CORE_HANDLE *pdev)
 555:inc/user_libs/usb_core.c **** {
 958              		.loc 1 555 0
 959              		.cfi_startproc
 960              		@ args = 0, pretend = 0, frame = 0
 961              		@ frame_needed = 0, uses_anonymous_args = 0
 962              		@ link register save eliminated.
 963              	.LVL88:
 964              	@ inc/user_libs/usb_core.c:556:   return (USB_OTG_READ_REG32(&pdev->regs.GREGS->GINTSTS ) & 0x1);
 556:inc/user_libs/usb_core.c ****   return (USB_OTG_READ_REG32(&pdev->regs.GREGS->GINTSTS ) & 0x1);
 965              		.loc 1 556 0
 966 02a4 C368     		ldr	r3, [r0, #12]	@ _1, pdev_4(D)->regs.GREGS
 967 02a6 5869     		ldr	r0, [r3, #20]	@ _2, _1->GINTSTS
 968              	.LVL89:
 969              	@ inc/user_libs/usb_core.c:557: }
 557:inc/user_libs/usb_core.c **** }
 970              		.loc 1 557 0
 971 02a8 00F00100 		and	r0, r0, #1	@, _2,
 972 02ac 7047     		bx	lr	@
 973              		.cfi_endproc
 974              	.LFE121:
 975              		.size	USB_OTG_GetMode, .-USB_OTG_GetMode
 976              		.align	1
 977              		.global	USB_OTG_IsDeviceMode
 978              		.syntax unified
 979              		.thumb
 980              		.thumb_func
 981              		.fpu softvfp
 982              		.type	USB_OTG_IsDeviceMode, %function
 983              	USB_OTG_IsDeviceMode:
 984              	.LFB122:
 558:inc/user_libs/usb_core.c **** 
 559:inc/user_libs/usb_core.c **** 
 560:inc/user_libs/usb_core.c **** /**
 561:inc/user_libs/usb_core.c **** * @brief  USB_OTG_IsDeviceMode : Check if it is device mode
 562:inc/user_libs/usb_core.c **** * @param  pdev : Selected device
 563:inc/user_libs/usb_core.c **** * @retval num_in_ep
 564:inc/user_libs/usb_core.c **** */
 565:inc/user_libs/usb_core.c **** uint8_t USB_OTG_IsDeviceMode(USB_OTG_CORE_HANDLE *pdev)
 566:inc/user_libs/usb_core.c **** {
 985              		.loc 1 566 0
 986              		.cfi_startproc
 987              		@ args = 0, pretend = 0, frame = 0
 988              		@ frame_needed = 0, uses_anonymous_args = 0
 989              		@ link register save eliminated.
ARM GAS  /tmp/ccQkqy1T.s 			page 29


 990              	.LVL90:
 991              	.LBB17:
 992              	.LBB18:
 993              	@ inc/user_libs/usb_core.c:556:   return (USB_OTG_READ_REG32(&pdev->regs.GREGS->GINTSTS ) & 0x1);
 556:inc/user_libs/usb_core.c **** }
 994              		.loc 1 556 0
 995 02ae C368     		ldr	r3, [r0, #12]	@ _5, pdev_3(D)->regs.GREGS
 996 02b0 5869     		ldr	r0, [r3, #20]	@ _6, _5->GINTSTS
 997              	.LVL91:
 998              	.LBE18:
 999              	.LBE17:
 1000              	@ inc/user_libs/usb_core.c:567:   return (USB_OTG_GetMode(pdev) != HOST_MODE);
 567:inc/user_libs/usb_core.c ****   return (USB_OTG_GetMode(pdev) != HOST_MODE);
 1001              		.loc 1 567 0
 1002 02b2 C043     		mvns	r0, r0	@ tmp117, _6
 1003              	@ inc/user_libs/usb_core.c:568: }
 568:inc/user_libs/usb_core.c **** }
 1004              		.loc 1 568 0
 1005 02b4 00F00100 		and	r0, r0, #1	@, tmp117,
 1006 02b8 7047     		bx	lr	@
 1007              		.cfi_endproc
 1008              	.LFE122:
 1009              		.size	USB_OTG_IsDeviceMode, .-USB_OTG_IsDeviceMode
 1010              		.align	1
 1011              		.global	USB_OTG_IsHostMode
 1012              		.syntax unified
 1013              		.thumb
 1014              		.thumb_func
 1015              		.fpu softvfp
 1016              		.type	USB_OTG_IsHostMode, %function
 1017              	USB_OTG_IsHostMode:
 1018              	.LFB123:
 569:inc/user_libs/usb_core.c **** 
 570:inc/user_libs/usb_core.c **** 
 571:inc/user_libs/usb_core.c **** /**
 572:inc/user_libs/usb_core.c **** * @brief  USB_OTG_IsHostMode : Check if it is host mode
 573:inc/user_libs/usb_core.c **** * @param  pdev : Selected device
 574:inc/user_libs/usb_core.c **** * @retval num_in_ep
 575:inc/user_libs/usb_core.c **** */
 576:inc/user_libs/usb_core.c **** uint8_t USB_OTG_IsHostMode(USB_OTG_CORE_HANDLE *pdev)
 577:inc/user_libs/usb_core.c **** {
 1019              		.loc 1 577 0
 1020              		.cfi_startproc
 1021              		@ args = 0, pretend = 0, frame = 0
 1022              		@ frame_needed = 0, uses_anonymous_args = 0
 1023              		@ link register save eliminated.
 1024              	.LVL92:
 1025              	.LBB19:
 1026              	.LBB20:
 1027              	@ inc/user_libs/usb_core.c:556:   return (USB_OTG_READ_REG32(&pdev->regs.GREGS->GINTSTS ) & 0x1);
 556:inc/user_libs/usb_core.c **** }
 1028              		.loc 1 556 0
 1029 02ba C368     		ldr	r3, [r0, #12]	@ _5, pdev_3(D)->regs.GREGS
 1030 02bc 5869     		ldr	r0, [r3, #20]	@ _6, _5->GINTSTS
 1031              	.LVL93:
 1032              	.LBE20:
 1033              	.LBE19:
ARM GAS  /tmp/ccQkqy1T.s 			page 30


 1034              	@ inc/user_libs/usb_core.c:579: }
 578:inc/user_libs/usb_core.c ****   return (USB_OTG_GetMode(pdev) == HOST_MODE);
 579:inc/user_libs/usb_core.c **** }
 1035              		.loc 1 579 0
 1036 02be 00F00100 		and	r0, r0, #1	@, _6,
 1037 02c2 7047     		bx	lr	@
 1038              		.cfi_endproc
 1039              	.LFE123:
 1040              		.size	USB_OTG_IsHostMode, .-USB_OTG_IsHostMode
 1041              		.align	1
 1042              		.global	USB_OTG_ReadCoreItr
 1043              		.syntax unified
 1044              		.thumb
 1045              		.thumb_func
 1046              		.fpu softvfp
 1047              		.type	USB_OTG_ReadCoreItr, %function
 1048              	USB_OTG_ReadCoreItr:
 1049              	.LFB124:
 580:inc/user_libs/usb_core.c **** 
 581:inc/user_libs/usb_core.c **** 
 582:inc/user_libs/usb_core.c **** /**
 583:inc/user_libs/usb_core.c **** * @brief  USB_OTG_ReadCoreItr : returns the Core Interrupt register
 584:inc/user_libs/usb_core.c **** * @param  pdev : Selected device
 585:inc/user_libs/usb_core.c **** * @retval Status
 586:inc/user_libs/usb_core.c **** */
 587:inc/user_libs/usb_core.c **** uint32_t USB_OTG_ReadCoreItr(USB_OTG_CORE_HANDLE *pdev)
 588:inc/user_libs/usb_core.c **** {
 1050              		.loc 1 588 0
 1051              		.cfi_startproc
 1052              		@ args = 0, pretend = 0, frame = 0
 1053              		@ frame_needed = 0, uses_anonymous_args = 0
 1054              		@ link register save eliminated.
 1055              	.LVL94:
 1056              	@ inc/user_libs/usb_core.c:590:   v = USB_OTG_READ_REG32(&pdev->regs.GREGS->GINTSTS);
 589:inc/user_libs/usb_core.c ****   uint32_t v = 0;
 590:inc/user_libs/usb_core.c ****   v = USB_OTG_READ_REG32(&pdev->regs.GREGS->GINTSTS);
 1057              		.loc 1 590 0
 1058 02c4 C368     		ldr	r3, [r0, #12]	@ _1, pdev_3(D)->regs.GREGS
 1059 02c6 5869     		ldr	r0, [r3, #20]	@ v, _1->GINTSTS
 1060              	.LVL95:
 1061              	@ inc/user_libs/usb_core.c:591:   v &= USB_OTG_READ_REG32(&pdev->regs.GREGS->GINTMSK);
 591:inc/user_libs/usb_core.c ****   v &= USB_OTG_READ_REG32(&pdev->regs.GREGS->GINTMSK);
 1062              		.loc 1 591 0
 1063 02c8 9B69     		ldr	r3, [r3, #24]	@ _5, _1->GINTMSK
 1064              	.LVL96:
 1065              	@ inc/user_libs/usb_core.c:593: }
 592:inc/user_libs/usb_core.c ****   return v;
 593:inc/user_libs/usb_core.c **** }
 1066              		.loc 1 593 0
 1067 02ca 1840     		ands	r0, r0, r3	@,, v, _5
 1068              	.LVL97:
 1069 02cc 7047     		bx	lr	@
 1070              		.cfi_endproc
 1071              	.LFE124:
 1072              		.size	USB_OTG_ReadCoreItr, .-USB_OTG_ReadCoreItr
 1073              		.align	1
 1074              		.global	USB_OTG_ReadOtgItr
ARM GAS  /tmp/ccQkqy1T.s 			page 31


 1075              		.syntax unified
 1076              		.thumb
 1077              		.thumb_func
 1078              		.fpu softvfp
 1079              		.type	USB_OTG_ReadOtgItr, %function
 1080              	USB_OTG_ReadOtgItr:
 1081              	.LFB125:
 594:inc/user_libs/usb_core.c **** 
 595:inc/user_libs/usb_core.c **** 
 596:inc/user_libs/usb_core.c **** /**
 597:inc/user_libs/usb_core.c **** * @brief  USB_OTG_ReadOtgItr : returns the USB_OTG Interrupt register
 598:inc/user_libs/usb_core.c **** * @param  pdev : Selected device
 599:inc/user_libs/usb_core.c **** * @retval Status
 600:inc/user_libs/usb_core.c **** */
 601:inc/user_libs/usb_core.c **** uint32_t USB_OTG_ReadOtgItr (USB_OTG_CORE_HANDLE *pdev)
 602:inc/user_libs/usb_core.c **** {
 1082              		.loc 1 602 0
 1083              		.cfi_startproc
 1084              		@ args = 0, pretend = 0, frame = 0
 1085              		@ frame_needed = 0, uses_anonymous_args = 0
 1086              		@ link register save eliminated.
 1087              	.LVL98:
 1088              	@ inc/user_libs/usb_core.c:603:   return (USB_OTG_READ_REG32 (&pdev->regs.GREGS->GOTGINT));
 603:inc/user_libs/usb_core.c ****   return (USB_OTG_READ_REG32 (&pdev->regs.GREGS->GOTGINT));
 1089              		.loc 1 603 0
 1090 02ce C368     		ldr	r3, [r0, #12]	@ _1, pdev_3(D)->regs.GREGS
 1091 02d0 5868     		ldr	r0, [r3, #4]	@ <retval>, _1->GOTGINT
 1092              	.LVL99:
 1093              	@ inc/user_libs/usb_core.c:604: }
 604:inc/user_libs/usb_core.c **** }
 1094              		.loc 1 604 0
 1095 02d2 7047     		bx	lr	@
 1096              		.cfi_endproc
 1097              	.LFE125:
 1098              		.size	USB_OTG_ReadOtgItr, .-USB_OTG_ReadOtgItr
 1099              		.align	1
 1100              		.global	USB_OTG_InitDevSpeed
 1101              		.syntax unified
 1102              		.thumb
 1103              		.thumb_func
 1104              		.fpu softvfp
 1105              		.type	USB_OTG_InitDevSpeed, %function
 1106              	USB_OTG_InitDevSpeed:
 1107              	.LFB126:
 605:inc/user_libs/usb_core.c **** 
 606:inc/user_libs/usb_core.c **** #ifdef USE_HOST_MODE
 607:inc/user_libs/usb_core.c **** /**
 608:inc/user_libs/usb_core.c **** * @brief  USB_OTG_CoreInitHost : Initializes USB_OTG controller for host mode
 609:inc/user_libs/usb_core.c **** * @param  pdev : Selected device
 610:inc/user_libs/usb_core.c **** * @retval status
 611:inc/user_libs/usb_core.c **** */
 612:inc/user_libs/usb_core.c **** USB_OTG_STS USB_OTG_CoreInitHost(USB_OTG_CORE_HANDLE *pdev)
 613:inc/user_libs/usb_core.c **** {
 614:inc/user_libs/usb_core.c ****   USB_OTG_STS                     status = USB_OTG_OK;
 615:inc/user_libs/usb_core.c ****   USB_OTG_FSIZ_TypeDef            nptxfifosize;
 616:inc/user_libs/usb_core.c ****   USB_OTG_FSIZ_TypeDef            ptxfifosize;  
 617:inc/user_libs/usb_core.c ****   USB_OTG_HCFG_TypeDef            hcfg;
ARM GAS  /tmp/ccQkqy1T.s 			page 32


 618:inc/user_libs/usb_core.c ****   
 619:inc/user_libs/usb_core.c **** #ifdef USE_OTG_MODE
 620:inc/user_libs/usb_core.c ****   USB_OTG_OTGCTL_TypeDef          gotgctl;
 621:inc/user_libs/usb_core.c **** #endif
 622:inc/user_libs/usb_core.c ****   
 623:inc/user_libs/usb_core.c ****   uint32_t                        i = 0;
 624:inc/user_libs/usb_core.c ****   
 625:inc/user_libs/usb_core.c ****   nptxfifosize.d32 = 0;  
 626:inc/user_libs/usb_core.c ****   ptxfifosize.d32 = 0;
 627:inc/user_libs/usb_core.c **** #ifdef USE_OTG_MODE
 628:inc/user_libs/usb_core.c ****   gotgctl.d32 = 0;
 629:inc/user_libs/usb_core.c **** #endif
 630:inc/user_libs/usb_core.c ****   hcfg.d32 = 0;
 631:inc/user_libs/usb_core.c ****   
 632:inc/user_libs/usb_core.c ****   
 633:inc/user_libs/usb_core.c ****   /* configure charge pump IO */
 634:inc/user_libs/usb_core.c ****   USB_OTG_BSP_ConfigVBUS(pdev);
 635:inc/user_libs/usb_core.c ****   
 636:inc/user_libs/usb_core.c ****   /* Restart the Phy Clock */
 637:inc/user_libs/usb_core.c ****   USB_OTG_WRITE_REG32(pdev->regs.PCGCCTL, 0);
 638:inc/user_libs/usb_core.c ****   
 639:inc/user_libs/usb_core.c ****   /* Initialize Host Configuration Register */
 640:inc/user_libs/usb_core.c ****   if (pdev->cfg.phy_itface == USB_OTG_ULPI_PHY)
 641:inc/user_libs/usb_core.c ****   {
 642:inc/user_libs/usb_core.c ****     USB_OTG_InitFSLSPClkSel(pdev , HCFG_30_60_MHZ); 
 643:inc/user_libs/usb_core.c ****   }
 644:inc/user_libs/usb_core.c ****   else
 645:inc/user_libs/usb_core.c ****   {
 646:inc/user_libs/usb_core.c ****     USB_OTG_InitFSLSPClkSel(pdev , HCFG_48_MHZ); 
 647:inc/user_libs/usb_core.c ****   }
 648:inc/user_libs/usb_core.c ****   USB_OTG_ResetPort(pdev);
 649:inc/user_libs/usb_core.c ****   
 650:inc/user_libs/usb_core.c ****   hcfg.d32 = USB_OTG_READ_REG32(&pdev->regs.HREGS->HCFG);
 651:inc/user_libs/usb_core.c ****   hcfg.b.fslssupp = 0;
 652:inc/user_libs/usb_core.c ****   USB_OTG_WRITE_REG32(&pdev->regs.HREGS->HCFG, hcfg.d32);
 653:inc/user_libs/usb_core.c ****   
 654:inc/user_libs/usb_core.c ****   /* Configure data FIFO sizes */
 655:inc/user_libs/usb_core.c ****   /* Rx FIFO */
 656:inc/user_libs/usb_core.c **** #ifdef USB_OTG_FS_CORE
 657:inc/user_libs/usb_core.c ****   if(pdev->cfg.coreID == USB_OTG_FS_CORE_ID)
 658:inc/user_libs/usb_core.c ****   {
 659:inc/user_libs/usb_core.c ****     /* set Rx FIFO size */
 660:inc/user_libs/usb_core.c ****     USB_OTG_WRITE_REG32(&pdev->regs.GREGS->GRXFSIZ, RX_FIFO_FS_SIZE);
 661:inc/user_libs/usb_core.c ****     nptxfifosize.b.startaddr = RX_FIFO_FS_SIZE;   
 662:inc/user_libs/usb_core.c ****     nptxfifosize.b.depth = TXH_NP_FS_FIFOSIZ;  
 663:inc/user_libs/usb_core.c ****     USB_OTG_WRITE_REG32(&pdev->regs.GREGS->DIEPTXF0_HNPTXFSIZ, nptxfifosize.d32);
 664:inc/user_libs/usb_core.c ****     
 665:inc/user_libs/usb_core.c ****     ptxfifosize.b.startaddr = RX_FIFO_FS_SIZE + TXH_NP_FS_FIFOSIZ;
 666:inc/user_libs/usb_core.c ****     ptxfifosize.b.depth     = TXH_P_FS_FIFOSIZ;
 667:inc/user_libs/usb_core.c ****     USB_OTG_WRITE_REG32(&pdev->regs.GREGS->HPTXFSIZ, ptxfifosize.d32);      
 668:inc/user_libs/usb_core.c ****   }
 669:inc/user_libs/usb_core.c **** #endif
 670:inc/user_libs/usb_core.c **** #ifdef USB_OTG_HS_CORE  
 671:inc/user_libs/usb_core.c ****   if (pdev->cfg.coreID == USB_OTG_HS_CORE_ID)
 672:inc/user_libs/usb_core.c ****   {
 673:inc/user_libs/usb_core.c ****     /* set Rx FIFO size */
 674:inc/user_libs/usb_core.c ****     USB_OTG_WRITE_REG32(&pdev->regs.GREGS->GRXFSIZ, RX_FIFO_HS_SIZE);
ARM GAS  /tmp/ccQkqy1T.s 			page 33


 675:inc/user_libs/usb_core.c ****     nptxfifosize.b.startaddr = RX_FIFO_HS_SIZE;   
 676:inc/user_libs/usb_core.c ****     nptxfifosize.b.depth = TXH_NP_HS_FIFOSIZ;  
 677:inc/user_libs/usb_core.c ****     USB_OTG_WRITE_REG32(&pdev->regs.GREGS->DIEPTXF0_HNPTXFSIZ, nptxfifosize.d32);
 678:inc/user_libs/usb_core.c ****     
 679:inc/user_libs/usb_core.c ****     ptxfifosize.b.startaddr = RX_FIFO_HS_SIZE + TXH_NP_HS_FIFOSIZ;
 680:inc/user_libs/usb_core.c ****     ptxfifosize.b.depth     = TXH_P_HS_FIFOSIZ;
 681:inc/user_libs/usb_core.c ****     USB_OTG_WRITE_REG32(&pdev->regs.GREGS->HPTXFSIZ, ptxfifosize.d32);      
 682:inc/user_libs/usb_core.c ****   }
 683:inc/user_libs/usb_core.c **** #endif  
 684:inc/user_libs/usb_core.c ****   
 685:inc/user_libs/usb_core.c **** #ifdef USE_OTG_MODE
 686:inc/user_libs/usb_core.c ****   /* Clear Host Set HNP Enable in the USB_OTG Control Register */
 687:inc/user_libs/usb_core.c ****   gotgctl.b.hstsethnpen = 1;
 688:inc/user_libs/usb_core.c ****   USB_OTG_MODIFY_REG32( &pdev->regs.GREGS->GOTGCTL, gotgctl.d32, 0);
 689:inc/user_libs/usb_core.c **** #endif
 690:inc/user_libs/usb_core.c ****   
 691:inc/user_libs/usb_core.c ****   /* Make sure the FIFOs are flushed. */
 692:inc/user_libs/usb_core.c ****   USB_OTG_FlushTxFifo(pdev, 0x10 );         /* all Tx FIFOs */
 693:inc/user_libs/usb_core.c ****   USB_OTG_FlushRxFifo(pdev);
 694:inc/user_libs/usb_core.c ****   
 695:inc/user_libs/usb_core.c ****   
 696:inc/user_libs/usb_core.c ****   /* Clear all pending HC Interrupts */
 697:inc/user_libs/usb_core.c ****   for (i = 0; i < pdev->cfg.host_channels; i++)
 698:inc/user_libs/usb_core.c ****   {
 699:inc/user_libs/usb_core.c ****     USB_OTG_WRITE_REG32( &pdev->regs.HC_REGS[i]->HCINT, 0xFFFFFFFF );
 700:inc/user_libs/usb_core.c ****     USB_OTG_WRITE_REG32( &pdev->regs.HC_REGS[i]->HCINTMSK, 0 );
 701:inc/user_libs/usb_core.c ****   }
 702:inc/user_libs/usb_core.c **** #ifndef USE_OTG_MODE
 703:inc/user_libs/usb_core.c ****   USB_OTG_DriveVbus(pdev, 1);
 704:inc/user_libs/usb_core.c **** #endif
 705:inc/user_libs/usb_core.c ****   
 706:inc/user_libs/usb_core.c ****   USB_OTG_EnableHostInt(pdev);
 707:inc/user_libs/usb_core.c ****   return status;
 708:inc/user_libs/usb_core.c **** }
 709:inc/user_libs/usb_core.c **** 
 710:inc/user_libs/usb_core.c **** /**
 711:inc/user_libs/usb_core.c **** * @brief  USB_OTG_IsEvenFrame 
 712:inc/user_libs/usb_core.c **** *         This function returns the frame number for sof packet
 713:inc/user_libs/usb_core.c **** * @param  pdev : Selected device
 714:inc/user_libs/usb_core.c **** * @retval Frame number
 715:inc/user_libs/usb_core.c **** */
 716:inc/user_libs/usb_core.c **** uint8_t USB_OTG_IsEvenFrame (USB_OTG_CORE_HANDLE *pdev) 
 717:inc/user_libs/usb_core.c **** {
 718:inc/user_libs/usb_core.c ****   return !(USB_OTG_READ_REG32(&pdev->regs.HREGS->HFNUM) & 0x1);
 719:inc/user_libs/usb_core.c **** }
 720:inc/user_libs/usb_core.c **** 
 721:inc/user_libs/usb_core.c **** /**
 722:inc/user_libs/usb_core.c **** * @brief  USB_OTG_DriveVbus : set/reset vbus
 723:inc/user_libs/usb_core.c **** * @param  pdev : Selected device
 724:inc/user_libs/usb_core.c **** * @param  state : VBUS state
 725:inc/user_libs/usb_core.c **** * @retval None
 726:inc/user_libs/usb_core.c **** */
 727:inc/user_libs/usb_core.c **** void USB_OTG_DriveVbus (USB_OTG_CORE_HANDLE *pdev, uint8_t state)
 728:inc/user_libs/usb_core.c **** {
 729:inc/user_libs/usb_core.c ****   USB_OTG_HPRT0_TypeDef     hprt0;
 730:inc/user_libs/usb_core.c ****   
 731:inc/user_libs/usb_core.c ****   hprt0.d32 = 0;
ARM GAS  /tmp/ccQkqy1T.s 			page 34


 732:inc/user_libs/usb_core.c ****   
 733:inc/user_libs/usb_core.c ****   /* enable disable the external charge pump */
 734:inc/user_libs/usb_core.c ****   USB_OTG_BSP_DriveVBUS(pdev, state);
 735:inc/user_libs/usb_core.c ****   
 736:inc/user_libs/usb_core.c ****   /* Turn on the Host port power. */
 737:inc/user_libs/usb_core.c ****   hprt0.d32 = USB_OTG_ReadHPRT0(pdev);
 738:inc/user_libs/usb_core.c ****   if ((hprt0.b.prtpwr == 0 ) && (state == 1 ))
 739:inc/user_libs/usb_core.c ****   {
 740:inc/user_libs/usb_core.c ****     hprt0.b.prtpwr = 1;
 741:inc/user_libs/usb_core.c ****     USB_OTG_WRITE_REG32(pdev->regs.HPRT0, hprt0.d32);
 742:inc/user_libs/usb_core.c ****   }
 743:inc/user_libs/usb_core.c ****   if ((hprt0.b.prtpwr == 1 ) && (state == 0 ))
 744:inc/user_libs/usb_core.c ****   {
 745:inc/user_libs/usb_core.c ****     hprt0.b.prtpwr = 0;
 746:inc/user_libs/usb_core.c ****     USB_OTG_WRITE_REG32(pdev->regs.HPRT0, hprt0.d32);
 747:inc/user_libs/usb_core.c ****   }
 748:inc/user_libs/usb_core.c ****   
 749:inc/user_libs/usb_core.c ****   USB_OTG_BSP_mDelay(200);
 750:inc/user_libs/usb_core.c **** }
 751:inc/user_libs/usb_core.c **** /**
 752:inc/user_libs/usb_core.c **** * @brief  USB_OTG_EnableHostInt: Enables the Host mode interrupts
 753:inc/user_libs/usb_core.c **** * @param  pdev : Selected device
 754:inc/user_libs/usb_core.c **** * @retval USB_OTG_STS : status
 755:inc/user_libs/usb_core.c **** */
 756:inc/user_libs/usb_core.c **** USB_OTG_STS USB_OTG_EnableHostInt(USB_OTG_CORE_HANDLE *pdev)
 757:inc/user_libs/usb_core.c **** {
 758:inc/user_libs/usb_core.c ****   USB_OTG_STS       status = USB_OTG_OK;
 759:inc/user_libs/usb_core.c ****   USB_OTG_GINTMSK_TypeDef  intmsk;
 760:inc/user_libs/usb_core.c ****   intmsk.d32 = 0;
 761:inc/user_libs/usb_core.c ****   /* Disable all interrupts. */
 762:inc/user_libs/usb_core.c ****   USB_OTG_WRITE_REG32(&pdev->regs.GREGS->GINTMSK, 0);
 763:inc/user_libs/usb_core.c ****   
 764:inc/user_libs/usb_core.c ****   /* Clear any pending interrupts. */
 765:inc/user_libs/usb_core.c ****   USB_OTG_WRITE_REG32(&pdev->regs.GREGS->GINTSTS, 0xFFFFFFFF);
 766:inc/user_libs/usb_core.c ****   
 767:inc/user_libs/usb_core.c ****   /* Enable the common interrupts */
 768:inc/user_libs/usb_core.c ****   USB_OTG_EnableCommonInt(pdev);
 769:inc/user_libs/usb_core.c ****   
 770:inc/user_libs/usb_core.c ****   if (pdev->cfg.dma_enable == 0)
 771:inc/user_libs/usb_core.c ****   {  
 772:inc/user_libs/usb_core.c ****     intmsk.b.rxstsqlvl  = 1;
 773:inc/user_libs/usb_core.c ****   }  
 774:inc/user_libs/usb_core.c ****   intmsk.b.portintr   = 1;
 775:inc/user_libs/usb_core.c ****   intmsk.b.hcintr     = 1;
 776:inc/user_libs/usb_core.c ****   intmsk.b.disconnect = 1;  
 777:inc/user_libs/usb_core.c ****   intmsk.b.sofintr    = 1;  
 778:inc/user_libs/usb_core.c ****   intmsk.b.incomplisoout  = 1; 
 779:inc/user_libs/usb_core.c ****   USB_OTG_MODIFY_REG32(&pdev->regs.GREGS->GINTMSK, intmsk.d32, intmsk.d32);
 780:inc/user_libs/usb_core.c ****   return status;
 781:inc/user_libs/usb_core.c **** }
 782:inc/user_libs/usb_core.c **** 
 783:inc/user_libs/usb_core.c **** /**
 784:inc/user_libs/usb_core.c **** * @brief  USB_OTG_InitFSLSPClkSel : Initializes the FSLSPClkSel field of the 
 785:inc/user_libs/usb_core.c **** *         HCFG register on the PHY type
 786:inc/user_libs/usb_core.c **** * @param  pdev : Selected device
 787:inc/user_libs/usb_core.c **** * @param  freq : clock frequency
 788:inc/user_libs/usb_core.c **** * @retval None
ARM GAS  /tmp/ccQkqy1T.s 			page 35


 789:inc/user_libs/usb_core.c **** */
 790:inc/user_libs/usb_core.c **** void USB_OTG_InitFSLSPClkSel(USB_OTG_CORE_HANDLE *pdev , uint8_t freq)
 791:inc/user_libs/usb_core.c **** {
 792:inc/user_libs/usb_core.c ****   USB_OTG_HCFG_TypeDef   hcfg;
 793:inc/user_libs/usb_core.c ****   
 794:inc/user_libs/usb_core.c ****   hcfg.d32 = USB_OTG_READ_REG32(&pdev->regs.HREGS->HCFG);
 795:inc/user_libs/usb_core.c ****   hcfg.b.fslspclksel = freq;
 796:inc/user_libs/usb_core.c ****   USB_OTG_WRITE_REG32(&pdev->regs.HREGS->HCFG, hcfg.d32);
 797:inc/user_libs/usb_core.c **** }
 798:inc/user_libs/usb_core.c **** 
 799:inc/user_libs/usb_core.c **** 
 800:inc/user_libs/usb_core.c **** /**
 801:inc/user_libs/usb_core.c **** * @brief  USB_OTG_ReadHPRT0 : Reads HPRT0 to modify later
 802:inc/user_libs/usb_core.c **** * @param  pdev : Selected device
 803:inc/user_libs/usb_core.c **** * @retval HPRT0 value
 804:inc/user_libs/usb_core.c **** */
 805:inc/user_libs/usb_core.c **** uint32_t USB_OTG_ReadHPRT0(USB_OTG_CORE_HANDLE *pdev)
 806:inc/user_libs/usb_core.c **** {
 807:inc/user_libs/usb_core.c ****   USB_OTG_HPRT0_TypeDef  hprt0;
 808:inc/user_libs/usb_core.c ****   
 809:inc/user_libs/usb_core.c ****   hprt0.d32 = USB_OTG_READ_REG32(pdev->regs.HPRT0);
 810:inc/user_libs/usb_core.c ****   hprt0.b.prtena = 0;
 811:inc/user_libs/usb_core.c ****   hprt0.b.prtconndet = 0;
 812:inc/user_libs/usb_core.c ****   hprt0.b.prtenchng = 0;
 813:inc/user_libs/usb_core.c ****   hprt0.b.prtovrcurrchng = 0;
 814:inc/user_libs/usb_core.c ****   return hprt0.d32;
 815:inc/user_libs/usb_core.c **** }
 816:inc/user_libs/usb_core.c **** 
 817:inc/user_libs/usb_core.c **** 
 818:inc/user_libs/usb_core.c **** /**
 819:inc/user_libs/usb_core.c **** * @brief  USB_OTG_ReadHostAllChannels_intr : Register PCD Callbacks
 820:inc/user_libs/usb_core.c **** * @param  pdev : Selected device
 821:inc/user_libs/usb_core.c **** * @retval Status
 822:inc/user_libs/usb_core.c **** */
 823:inc/user_libs/usb_core.c **** uint32_t USB_OTG_ReadHostAllChannels_intr (USB_OTG_CORE_HANDLE *pdev)
 824:inc/user_libs/usb_core.c **** {
 825:inc/user_libs/usb_core.c ****   return (USB_OTG_READ_REG32 (&pdev->regs.HREGS->HAINT));
 826:inc/user_libs/usb_core.c **** }
 827:inc/user_libs/usb_core.c **** 
 828:inc/user_libs/usb_core.c **** 
 829:inc/user_libs/usb_core.c **** /**
 830:inc/user_libs/usb_core.c **** * @brief  USB_OTG_ResetPort : Reset Host Port
 831:inc/user_libs/usb_core.c **** * @param  pdev : Selected device
 832:inc/user_libs/usb_core.c **** * @retval status
 833:inc/user_libs/usb_core.c **** * @note : (1)The application must wait at least 10 ms (+ 10 ms security)
 834:inc/user_libs/usb_core.c **** *   before clearing the reset bit.
 835:inc/user_libs/usb_core.c **** */
 836:inc/user_libs/usb_core.c **** uint32_t USB_OTG_ResetPort(USB_OTG_CORE_HANDLE *pdev)
 837:inc/user_libs/usb_core.c **** {
 838:inc/user_libs/usb_core.c ****   USB_OTG_HPRT0_TypeDef  hprt0;
 839:inc/user_libs/usb_core.c ****   
 840:inc/user_libs/usb_core.c ****   hprt0.d32 = USB_OTG_ReadHPRT0(pdev);
 841:inc/user_libs/usb_core.c ****   hprt0.b.prtrst = 1;
 842:inc/user_libs/usb_core.c ****   USB_OTG_WRITE_REG32(pdev->regs.HPRT0, hprt0.d32);
 843:inc/user_libs/usb_core.c ****   USB_OTG_BSP_mDelay (10);                                /* See Note #1 */
 844:inc/user_libs/usb_core.c ****   hprt0.b.prtrst = 0;
 845:inc/user_libs/usb_core.c ****   USB_OTG_WRITE_REG32(pdev->regs.HPRT0, hprt0.d32);
ARM GAS  /tmp/ccQkqy1T.s 			page 36


 846:inc/user_libs/usb_core.c ****   USB_OTG_BSP_mDelay (20);   
 847:inc/user_libs/usb_core.c ****   return 1;
 848:inc/user_libs/usb_core.c **** }
 849:inc/user_libs/usb_core.c **** 
 850:inc/user_libs/usb_core.c **** 
 851:inc/user_libs/usb_core.c **** /**
 852:inc/user_libs/usb_core.c **** * @brief  USB_OTG_HC_Init : Prepares a host channel for transferring packets
 853:inc/user_libs/usb_core.c **** * @param  pdev : Selected device
 854:inc/user_libs/usb_core.c **** * @param  hc_num : channel number
 855:inc/user_libs/usb_core.c **** * @retval USB_OTG_STS : status
 856:inc/user_libs/usb_core.c **** */
 857:inc/user_libs/usb_core.c **** USB_OTG_STS USB_OTG_HC_Init(USB_OTG_CORE_HANDLE *pdev , uint8_t hc_num)
 858:inc/user_libs/usb_core.c **** {
 859:inc/user_libs/usb_core.c ****   USB_OTG_STS status = USB_OTG_OK;
 860:inc/user_libs/usb_core.c ****   uint32_t intr_enable = 0;
 861:inc/user_libs/usb_core.c ****   USB_OTG_HCINTMSK_TypeDef  hcintmsk;
 862:inc/user_libs/usb_core.c ****   USB_OTG_GINTMSK_TypeDef    gintmsk;
 863:inc/user_libs/usb_core.c ****   USB_OTG_HCCHAR_TypeDef     hcchar;
 864:inc/user_libs/usb_core.c ****   USB_OTG_HCINTn_TypeDef     hcint;
 865:inc/user_libs/usb_core.c ****   
 866:inc/user_libs/usb_core.c ****   
 867:inc/user_libs/usb_core.c ****   gintmsk.d32 = 0;
 868:inc/user_libs/usb_core.c ****   hcintmsk.d32 = 0;
 869:inc/user_libs/usb_core.c ****   hcchar.d32 = 0;
 870:inc/user_libs/usb_core.c ****   
 871:inc/user_libs/usb_core.c ****   /* Clear old interrupt conditions for this host channel. */
 872:inc/user_libs/usb_core.c ****   hcint.d32 = 0xFFFFFFFF;
 873:inc/user_libs/usb_core.c ****   USB_OTG_WRITE_REG32(&pdev->regs.HC_REGS[hc_num]->HCINT, hcint.d32);
 874:inc/user_libs/usb_core.c ****   
 875:inc/user_libs/usb_core.c ****   /* Enable channel interrupts required for this transfer. */
 876:inc/user_libs/usb_core.c ****   hcintmsk.d32 = 0;
 877:inc/user_libs/usb_core.c ****   
 878:inc/user_libs/usb_core.c ****   if (pdev->cfg.dma_enable == 1)
 879:inc/user_libs/usb_core.c ****   {
 880:inc/user_libs/usb_core.c ****     hcintmsk.b.ahberr = 1;
 881:inc/user_libs/usb_core.c ****   }
 882:inc/user_libs/usb_core.c ****   
 883:inc/user_libs/usb_core.c ****   switch (pdev->host.hc[hc_num].ep_type) 
 884:inc/user_libs/usb_core.c ****   {
 885:inc/user_libs/usb_core.c ****   case EP_TYPE_CTRL:
 886:inc/user_libs/usb_core.c ****   case EP_TYPE_BULK:
 887:inc/user_libs/usb_core.c ****     hcintmsk.b.xfercompl = 1;
 888:inc/user_libs/usb_core.c ****     hcintmsk.b.stall = 1;
 889:inc/user_libs/usb_core.c ****     hcintmsk.b.xacterr = 1;
 890:inc/user_libs/usb_core.c ****     hcintmsk.b.datatglerr = 1;
 891:inc/user_libs/usb_core.c ****     hcintmsk.b.nak = 1;  
 892:inc/user_libs/usb_core.c ****     if (pdev->host.hc[hc_num].ep_is_in) 
 893:inc/user_libs/usb_core.c ****     {
 894:inc/user_libs/usb_core.c ****       hcintmsk.b.bblerr = 1;
 895:inc/user_libs/usb_core.c ****     } 
 896:inc/user_libs/usb_core.c ****     else 
 897:inc/user_libs/usb_core.c ****     {
 898:inc/user_libs/usb_core.c ****       hcintmsk.b.nyet = 1;
 899:inc/user_libs/usb_core.c ****       if (pdev->host.hc[hc_num].do_ping) 
 900:inc/user_libs/usb_core.c ****       {
 901:inc/user_libs/usb_core.c ****         hcintmsk.b.ack = 1;
 902:inc/user_libs/usb_core.c ****       }
ARM GAS  /tmp/ccQkqy1T.s 			page 37


 903:inc/user_libs/usb_core.c ****     }
 904:inc/user_libs/usb_core.c ****     break;
 905:inc/user_libs/usb_core.c ****   case EP_TYPE_INTR:
 906:inc/user_libs/usb_core.c ****     hcintmsk.b.xfercompl = 1;
 907:inc/user_libs/usb_core.c ****     hcintmsk.b.nak = 1;
 908:inc/user_libs/usb_core.c ****     hcintmsk.b.stall = 1;
 909:inc/user_libs/usb_core.c ****     hcintmsk.b.xacterr = 1;
 910:inc/user_libs/usb_core.c ****     hcintmsk.b.datatglerr = 1;
 911:inc/user_libs/usb_core.c ****     hcintmsk.b.frmovrun = 1;
 912:inc/user_libs/usb_core.c ****     
 913:inc/user_libs/usb_core.c ****     if (pdev->host.hc[hc_num].ep_is_in) 
 914:inc/user_libs/usb_core.c ****     {
 915:inc/user_libs/usb_core.c ****       hcintmsk.b.bblerr = 1;
 916:inc/user_libs/usb_core.c ****     }
 917:inc/user_libs/usb_core.c ****     
 918:inc/user_libs/usb_core.c ****     break;
 919:inc/user_libs/usb_core.c ****   case EP_TYPE_ISOC:
 920:inc/user_libs/usb_core.c ****     hcintmsk.b.xfercompl = 1;
 921:inc/user_libs/usb_core.c ****     hcintmsk.b.frmovrun = 1;
 922:inc/user_libs/usb_core.c ****     hcintmsk.b.ack = 1;
 923:inc/user_libs/usb_core.c ****     
 924:inc/user_libs/usb_core.c ****     if (pdev->host.hc[hc_num].ep_is_in) 
 925:inc/user_libs/usb_core.c ****     {
 926:inc/user_libs/usb_core.c ****       hcintmsk.b.xacterr = 1;
 927:inc/user_libs/usb_core.c ****       hcintmsk.b.bblerr = 1;
 928:inc/user_libs/usb_core.c ****     }
 929:inc/user_libs/usb_core.c ****     break;
 930:inc/user_libs/usb_core.c ****   }
 931:inc/user_libs/usb_core.c ****   
 932:inc/user_libs/usb_core.c ****   
 933:inc/user_libs/usb_core.c ****   USB_OTG_WRITE_REG32(&pdev->regs.HC_REGS[hc_num]->HCINTMSK, hcintmsk.d32);
 934:inc/user_libs/usb_core.c ****   
 935:inc/user_libs/usb_core.c ****   
 936:inc/user_libs/usb_core.c ****   /* Enable the top level host channel interrupt. */
 937:inc/user_libs/usb_core.c ****   intr_enable = (1 << hc_num);
 938:inc/user_libs/usb_core.c ****   USB_OTG_MODIFY_REG32(&pdev->regs.HREGS->HAINTMSK, 0, intr_enable);
 939:inc/user_libs/usb_core.c ****   
 940:inc/user_libs/usb_core.c ****   /* Make sure host channel interrupts are enabled. */
 941:inc/user_libs/usb_core.c ****   gintmsk.b.hcintr = 1;
 942:inc/user_libs/usb_core.c ****   USB_OTG_MODIFY_REG32(&pdev->regs.GREGS->GINTMSK, 0, gintmsk.d32);
 943:inc/user_libs/usb_core.c ****   
 944:inc/user_libs/usb_core.c ****   /* Program the HCCHAR register */
 945:inc/user_libs/usb_core.c ****   hcchar.d32 = 0;
 946:inc/user_libs/usb_core.c ****   hcchar.b.devaddr = pdev->host.hc[hc_num].dev_addr;
 947:inc/user_libs/usb_core.c ****   hcchar.b.epnum   = pdev->host.hc[hc_num].ep_num;
 948:inc/user_libs/usb_core.c ****   hcchar.b.epdir   = pdev->host.hc[hc_num].ep_is_in;
 949:inc/user_libs/usb_core.c ****   hcchar.b.lspddev = (pdev->host.hc[hc_num].speed == HPRT0_PRTSPD_LOW_SPEED);
 950:inc/user_libs/usb_core.c ****   hcchar.b.eptype  = pdev->host.hc[hc_num].ep_type;
 951:inc/user_libs/usb_core.c ****   hcchar.b.mps     = pdev->host.hc[hc_num].max_packet;
 952:inc/user_libs/usb_core.c ****   if (pdev->host.hc[hc_num].ep_type == HCCHAR_INTR)
 953:inc/user_libs/usb_core.c ****   {
 954:inc/user_libs/usb_core.c ****     hcchar.b.oddfrm  = 1;
 955:inc/user_libs/usb_core.c ****   }
 956:inc/user_libs/usb_core.c ****   USB_OTG_WRITE_REG32(&pdev->regs.HC_REGS[hc_num]->HCCHAR, hcchar.d32);
 957:inc/user_libs/usb_core.c ****   return status;
 958:inc/user_libs/usb_core.c **** }
 959:inc/user_libs/usb_core.c **** 
ARM GAS  /tmp/ccQkqy1T.s 			page 38


 960:inc/user_libs/usb_core.c **** 
 961:inc/user_libs/usb_core.c **** /**
 962:inc/user_libs/usb_core.c **** * @brief  USB_OTG_HC_StartXfer : Start transfer
 963:inc/user_libs/usb_core.c **** * @param  pdev : Selected device
 964:inc/user_libs/usb_core.c **** * @param  hc_num : channel number
 965:inc/user_libs/usb_core.c **** * @retval USB_OTG_STS : status
 966:inc/user_libs/usb_core.c **** */
 967:inc/user_libs/usb_core.c **** USB_OTG_STS USB_OTG_HC_StartXfer(USB_OTG_CORE_HANDLE *pdev , uint8_t hc_num)
 968:inc/user_libs/usb_core.c **** {
 969:inc/user_libs/usb_core.c ****   USB_OTG_STS status = USB_OTG_OK;
 970:inc/user_libs/usb_core.c ****   USB_OTG_HCCHAR_TypeDef   hcchar;
 971:inc/user_libs/usb_core.c ****   USB_OTG_HCTSIZn_TypeDef  hctsiz;
 972:inc/user_libs/usb_core.c ****   USB_OTG_HNPTXSTS_TypeDef hnptxsts; 
 973:inc/user_libs/usb_core.c ****   USB_OTG_HPTXSTS_TypeDef  hptxsts; 
 974:inc/user_libs/usb_core.c ****   USB_OTG_GINTMSK_TypeDef  intmsk;
 975:inc/user_libs/usb_core.c ****   uint16_t                 len_words = 0;   
 976:inc/user_libs/usb_core.c ****   
 977:inc/user_libs/usb_core.c ****   uint16_t num_packets;
 978:inc/user_libs/usb_core.c ****   uint16_t max_hc_pkt_count;
 979:inc/user_libs/usb_core.c ****   
 980:inc/user_libs/usb_core.c ****   max_hc_pkt_count = 256;
 981:inc/user_libs/usb_core.c ****   hctsiz.d32 = 0;
 982:inc/user_libs/usb_core.c ****   hcchar.d32 = 0;
 983:inc/user_libs/usb_core.c ****   intmsk.d32 = 0;
 984:inc/user_libs/usb_core.c ****   
 985:inc/user_libs/usb_core.c ****   /* Compute the expected number of packets associated to the transfer */
 986:inc/user_libs/usb_core.c ****   if (pdev->host.hc[hc_num].xfer_len > 0)
 987:inc/user_libs/usb_core.c ****   {
 988:inc/user_libs/usb_core.c ****     num_packets = (pdev->host.hc[hc_num].xfer_len + \
 989:inc/user_libs/usb_core.c ****       pdev->host.hc[hc_num].max_packet - 1) / pdev->host.hc[hc_num].max_packet;
 990:inc/user_libs/usb_core.c ****     
 991:inc/user_libs/usb_core.c ****     if (num_packets > max_hc_pkt_count)
 992:inc/user_libs/usb_core.c ****     {
 993:inc/user_libs/usb_core.c ****       num_packets = max_hc_pkt_count;
 994:inc/user_libs/usb_core.c ****       pdev->host.hc[hc_num].xfer_len = num_packets * \
 995:inc/user_libs/usb_core.c ****         pdev->host.hc[hc_num].max_packet;
 996:inc/user_libs/usb_core.c ****     }
 997:inc/user_libs/usb_core.c ****   }
 998:inc/user_libs/usb_core.c ****   else
 999:inc/user_libs/usb_core.c ****   {
1000:inc/user_libs/usb_core.c ****     num_packets = 1;
1001:inc/user_libs/usb_core.c ****   }
1002:inc/user_libs/usb_core.c ****   if (pdev->host.hc[hc_num].ep_is_in)
1003:inc/user_libs/usb_core.c ****   {
1004:inc/user_libs/usb_core.c ****     pdev->host.hc[hc_num].xfer_len = num_packets * \
1005:inc/user_libs/usb_core.c ****       pdev->host.hc[hc_num].max_packet;
1006:inc/user_libs/usb_core.c ****   }
1007:inc/user_libs/usb_core.c ****   /* Initialize the HCTSIZn register */
1008:inc/user_libs/usb_core.c ****   hctsiz.b.xfersize = pdev->host.hc[hc_num].xfer_len;
1009:inc/user_libs/usb_core.c ****   hctsiz.b.pktcnt = num_packets;
1010:inc/user_libs/usb_core.c ****   hctsiz.b.pid = pdev->host.hc[hc_num].data_pid;
1011:inc/user_libs/usb_core.c ****   USB_OTG_WRITE_REG32(&pdev->regs.HC_REGS[hc_num]->HCTSIZ, hctsiz.d32);
1012:inc/user_libs/usb_core.c ****   
1013:inc/user_libs/usb_core.c ****   if (pdev->cfg.dma_enable == 1)
1014:inc/user_libs/usb_core.c ****   {
1015:inc/user_libs/usb_core.c ****     USB_OTG_WRITE_REG32(&pdev->regs.HC_REGS[hc_num]->HCDMA, (unsigned int)pdev->host.hc[hc_num].xfe
1016:inc/user_libs/usb_core.c ****   }
ARM GAS  /tmp/ccQkqy1T.s 			page 39


1017:inc/user_libs/usb_core.c ****   
1018:inc/user_libs/usb_core.c ****   
1019:inc/user_libs/usb_core.c ****   hcchar.d32 = USB_OTG_READ_REG32(&pdev->regs.HC_REGS[hc_num]->HCCHAR);
1020:inc/user_libs/usb_core.c ****   hcchar.b.oddfrm = USB_OTG_IsEvenFrame(pdev);
1021:inc/user_libs/usb_core.c ****   
1022:inc/user_libs/usb_core.c ****   /* Set host channel enable */
1023:inc/user_libs/usb_core.c ****   hcchar.b.chen = 1;
1024:inc/user_libs/usb_core.c ****   hcchar.b.chdis = 0;
1025:inc/user_libs/usb_core.c ****   USB_OTG_WRITE_REG32(&pdev->regs.HC_REGS[hc_num]->HCCHAR, hcchar.d32);
1026:inc/user_libs/usb_core.c ****   
1027:inc/user_libs/usb_core.c ****   if (pdev->cfg.dma_enable == 0) /* Slave mode */
1028:inc/user_libs/usb_core.c ****   {  
1029:inc/user_libs/usb_core.c ****     if((pdev->host.hc[hc_num].ep_is_in == 0) && 
1030:inc/user_libs/usb_core.c ****        (pdev->host.hc[hc_num].xfer_len > 0))
1031:inc/user_libs/usb_core.c ****     {
1032:inc/user_libs/usb_core.c ****       switch(pdev->host.hc[hc_num].ep_type) 
1033:inc/user_libs/usb_core.c ****       {
1034:inc/user_libs/usb_core.c ****         /* Non periodic transfer */
1035:inc/user_libs/usb_core.c ****       case EP_TYPE_CTRL:
1036:inc/user_libs/usb_core.c ****       case EP_TYPE_BULK:
1037:inc/user_libs/usb_core.c ****         
1038:inc/user_libs/usb_core.c ****         hnptxsts.d32 = USB_OTG_READ_REG32(&pdev->regs.GREGS->HNPTXSTS);
1039:inc/user_libs/usb_core.c ****         len_words = (pdev->host.hc[hc_num].xfer_len + 3) / 4;
1040:inc/user_libs/usb_core.c ****         
1041:inc/user_libs/usb_core.c ****         /* check if there is enough space in FIFO space */
1042:inc/user_libs/usb_core.c ****         if(len_words > hnptxsts.b.nptxfspcavail)
1043:inc/user_libs/usb_core.c ****         {
1044:inc/user_libs/usb_core.c ****           /* need to process data in nptxfempty interrupt */
1045:inc/user_libs/usb_core.c ****           intmsk.b.nptxfempty = 1;
1046:inc/user_libs/usb_core.c ****           USB_OTG_MODIFY_REG32( &pdev->regs.GREGS->GINTMSK, 0, intmsk.d32);  
1047:inc/user_libs/usb_core.c ****         }
1048:inc/user_libs/usb_core.c ****         
1049:inc/user_libs/usb_core.c ****         break;
1050:inc/user_libs/usb_core.c ****         /* Periodic transfer */
1051:inc/user_libs/usb_core.c ****       case EP_TYPE_INTR:
1052:inc/user_libs/usb_core.c ****       case EP_TYPE_ISOC:
1053:inc/user_libs/usb_core.c ****         hptxsts.d32 = USB_OTG_READ_REG32(&pdev->regs.HREGS->HPTXSTS);
1054:inc/user_libs/usb_core.c ****         len_words = (pdev->host.hc[hc_num].xfer_len + 3) / 4;
1055:inc/user_libs/usb_core.c ****         /* check if there is enough space in FIFO space */
1056:inc/user_libs/usb_core.c ****         if(len_words > hptxsts.b.ptxfspcavail) /* split the transfer */
1057:inc/user_libs/usb_core.c ****         {
1058:inc/user_libs/usb_core.c ****           /* need to process data in ptxfempty interrupt */
1059:inc/user_libs/usb_core.c ****           intmsk.b.ptxfempty = 1;
1060:inc/user_libs/usb_core.c ****           USB_OTG_MODIFY_REG32( &pdev->regs.GREGS->GINTMSK, 0, intmsk.d32);  
1061:inc/user_libs/usb_core.c ****         }
1062:inc/user_libs/usb_core.c ****         break;
1063:inc/user_libs/usb_core.c ****         
1064:inc/user_libs/usb_core.c ****       default:
1065:inc/user_libs/usb_core.c ****         break;
1066:inc/user_libs/usb_core.c ****       }
1067:inc/user_libs/usb_core.c ****       
1068:inc/user_libs/usb_core.c ****       /* Write packet into the Tx FIFO. */
1069:inc/user_libs/usb_core.c ****       USB_OTG_WritePacket(pdev, 
1070:inc/user_libs/usb_core.c ****                           pdev->host.hc[hc_num].xfer_buff , 
1071:inc/user_libs/usb_core.c ****                           hc_num, pdev->host.hc[hc_num].xfer_len);
1072:inc/user_libs/usb_core.c ****     }
1073:inc/user_libs/usb_core.c ****   }
ARM GAS  /tmp/ccQkqy1T.s 			page 40


1074:inc/user_libs/usb_core.c ****   return status;
1075:inc/user_libs/usb_core.c **** }
1076:inc/user_libs/usb_core.c **** 
1077:inc/user_libs/usb_core.c **** 
1078:inc/user_libs/usb_core.c **** /**
1079:inc/user_libs/usb_core.c **** * @brief  USB_OTG_HC_Halt : Halt channel
1080:inc/user_libs/usb_core.c **** * @param  pdev : Selected device
1081:inc/user_libs/usb_core.c **** * @param  hc_num : channel number
1082:inc/user_libs/usb_core.c **** * @retval USB_OTG_STS : status
1083:inc/user_libs/usb_core.c **** */
1084:inc/user_libs/usb_core.c **** USB_OTG_STS USB_OTG_HC_Halt(USB_OTG_CORE_HANDLE *pdev , uint8_t hc_num)
1085:inc/user_libs/usb_core.c **** {
1086:inc/user_libs/usb_core.c ****   USB_OTG_STS status = USB_OTG_OK;
1087:inc/user_libs/usb_core.c ****   USB_OTG_HNPTXSTS_TypeDef            nptxsts;
1088:inc/user_libs/usb_core.c ****   USB_OTG_HPTXSTS_TypeDef             hptxsts;
1089:inc/user_libs/usb_core.c ****   USB_OTG_HCCHAR_TypeDef              hcchar;
1090:inc/user_libs/usb_core.c ****   
1091:inc/user_libs/usb_core.c ****   nptxsts.d32 = 0;
1092:inc/user_libs/usb_core.c ****   hptxsts.d32 = 0;
1093:inc/user_libs/usb_core.c ****   hcchar.d32 = USB_OTG_READ_REG32(&pdev->regs.HC_REGS[hc_num]->HCCHAR);
1094:inc/user_libs/usb_core.c ****   hcchar.b.chen = 1;
1095:inc/user_libs/usb_core.c ****   hcchar.b.chdis = 1;
1096:inc/user_libs/usb_core.c ****   
1097:inc/user_libs/usb_core.c ****   /* Check for space in the request queue to issue the halt. */
1098:inc/user_libs/usb_core.c ****   if (hcchar.b.eptype == HCCHAR_CTRL || hcchar.b.eptype == HCCHAR_BULK)
1099:inc/user_libs/usb_core.c ****   {
1100:inc/user_libs/usb_core.c ****     nptxsts.d32 = USB_OTG_READ_REG32(&pdev->regs.GREGS->HNPTXSTS);
1101:inc/user_libs/usb_core.c ****     if (nptxsts.b.nptxqspcavail == 0)
1102:inc/user_libs/usb_core.c ****     {
1103:inc/user_libs/usb_core.c ****       hcchar.b.chen = 0;
1104:inc/user_libs/usb_core.c ****     }
1105:inc/user_libs/usb_core.c ****   }
1106:inc/user_libs/usb_core.c ****   else
1107:inc/user_libs/usb_core.c ****   {
1108:inc/user_libs/usb_core.c ****     hptxsts.d32 = USB_OTG_READ_REG32(&pdev->regs.HREGS->HPTXSTS);
1109:inc/user_libs/usb_core.c ****     if (hptxsts.b.ptxqspcavail == 0)
1110:inc/user_libs/usb_core.c ****     {
1111:inc/user_libs/usb_core.c ****       hcchar.b.chen = 0;
1112:inc/user_libs/usb_core.c ****     }
1113:inc/user_libs/usb_core.c ****   }
1114:inc/user_libs/usb_core.c ****   USB_OTG_WRITE_REG32(&pdev->regs.HC_REGS[hc_num]->HCCHAR, hcchar.d32);
1115:inc/user_libs/usb_core.c ****   return status;
1116:inc/user_libs/usb_core.c **** }
1117:inc/user_libs/usb_core.c **** 
1118:inc/user_libs/usb_core.c **** /**
1119:inc/user_libs/usb_core.c **** * @brief  Issue a ping token
1120:inc/user_libs/usb_core.c **** * @param  None
1121:inc/user_libs/usb_core.c **** * @retval : None
1122:inc/user_libs/usb_core.c **** */
1123:inc/user_libs/usb_core.c **** USB_OTG_STS USB_OTG_HC_DoPing(USB_OTG_CORE_HANDLE *pdev , uint8_t hc_num)
1124:inc/user_libs/usb_core.c **** {
1125:inc/user_libs/usb_core.c ****   USB_OTG_STS               status = USB_OTG_OK;
1126:inc/user_libs/usb_core.c ****   USB_OTG_HCCHAR_TypeDef    hcchar;
1127:inc/user_libs/usb_core.c ****   USB_OTG_HCTSIZn_TypeDef   hctsiz;  
1128:inc/user_libs/usb_core.c ****   
1129:inc/user_libs/usb_core.c ****   hctsiz.d32 = 0;
1130:inc/user_libs/usb_core.c ****   hctsiz.b.dopng = 1;
ARM GAS  /tmp/ccQkqy1T.s 			page 41


1131:inc/user_libs/usb_core.c ****   hctsiz.b.pktcnt = 1;
1132:inc/user_libs/usb_core.c ****   USB_OTG_WRITE_REG32(&pdev->regs.HC_REGS[hc_num]->HCTSIZ, hctsiz.d32);
1133:inc/user_libs/usb_core.c ****   
1134:inc/user_libs/usb_core.c ****   hcchar.d32 = USB_OTG_READ_REG32(&pdev->regs.HC_REGS[hc_num]->HCCHAR);
1135:inc/user_libs/usb_core.c ****   hcchar.b.chen = 1;
1136:inc/user_libs/usb_core.c ****   hcchar.b.chdis = 0;
1137:inc/user_libs/usb_core.c ****   USB_OTG_WRITE_REG32(&pdev->regs.HC_REGS[hc_num]->HCCHAR, hcchar.d32);
1138:inc/user_libs/usb_core.c ****   return status;  
1139:inc/user_libs/usb_core.c **** }
1140:inc/user_libs/usb_core.c **** 
1141:inc/user_libs/usb_core.c **** /**
1142:inc/user_libs/usb_core.c **** * @brief  Stop the device and clean up fifo's
1143:inc/user_libs/usb_core.c **** * @param  None
1144:inc/user_libs/usb_core.c **** * @retval : None
1145:inc/user_libs/usb_core.c **** */
1146:inc/user_libs/usb_core.c **** void USB_OTG_StopHost(USB_OTG_CORE_HANDLE *pdev)
1147:inc/user_libs/usb_core.c **** {
1148:inc/user_libs/usb_core.c ****   USB_OTG_HCCHAR_TypeDef  hcchar;
1149:inc/user_libs/usb_core.c ****   uint32_t                i;
1150:inc/user_libs/usb_core.c ****   
1151:inc/user_libs/usb_core.c ****   USB_OTG_WRITE_REG32(&pdev->regs.HREGS->HAINTMSK , 0);
1152:inc/user_libs/usb_core.c ****   USB_OTG_WRITE_REG32(&pdev->regs.HREGS->HAINT,      0xFFFFFFFF);
1153:inc/user_libs/usb_core.c ****   /* Flush out any leftover queued requests. */
1154:inc/user_libs/usb_core.c ****   
1155:inc/user_libs/usb_core.c ****   for (i = 0; i < pdev->cfg.host_channels; i++)
1156:inc/user_libs/usb_core.c ****   {
1157:inc/user_libs/usb_core.c ****     hcchar.d32 = USB_OTG_READ_REG32(&pdev->regs.HC_REGS[i]->HCCHAR);
1158:inc/user_libs/usb_core.c ****     hcchar.b.chen = 0;
1159:inc/user_libs/usb_core.c ****     hcchar.b.chdis = 1;
1160:inc/user_libs/usb_core.c ****     hcchar.b.epdir = 0;
1161:inc/user_libs/usb_core.c ****     USB_OTG_WRITE_REG32(&pdev->regs.HC_REGS[i]->HCCHAR, hcchar.d32);
1162:inc/user_libs/usb_core.c ****   }
1163:inc/user_libs/usb_core.c ****   
1164:inc/user_libs/usb_core.c ****   /* Flush the FIFO */
1165:inc/user_libs/usb_core.c ****   USB_OTG_FlushRxFifo(pdev);
1166:inc/user_libs/usb_core.c ****   USB_OTG_FlushTxFifo(pdev ,  0x10 );  
1167:inc/user_libs/usb_core.c **** }
1168:inc/user_libs/usb_core.c **** #endif
1169:inc/user_libs/usb_core.c **** #ifdef USE_DEVICE_MODE
1170:inc/user_libs/usb_core.c **** /*         PCD Core Layer       */
1171:inc/user_libs/usb_core.c **** 
1172:inc/user_libs/usb_core.c **** /**
1173:inc/user_libs/usb_core.c **** * @brief  USB_OTG_InitDevSpeed :Initializes the DevSpd field of DCFG register 
1174:inc/user_libs/usb_core.c **** *         depending the PHY type and the enumeration speed of the device.
1175:inc/user_libs/usb_core.c **** * @param  pdev : Selected device
1176:inc/user_libs/usb_core.c **** * @retval : None
1177:inc/user_libs/usb_core.c **** */
1178:inc/user_libs/usb_core.c **** void USB_OTG_InitDevSpeed(USB_OTG_CORE_HANDLE *pdev , uint8_t speed)
1179:inc/user_libs/usb_core.c **** {
 1108              		.loc 1 1179 0
 1109              		.cfi_startproc
 1110              		@ args = 0, pretend = 0, frame = 0
 1111              		@ frame_needed = 0, uses_anonymous_args = 0
 1112              		@ link register save eliminated.
 1113              	.LVL100:
 1114              	@ inc/user_libs/usb_core.c:1182:   dcfg.d32 = USB_OTG_READ_REG32(&pdev->regs.DREGS->DCFG);
1180:inc/user_libs/usb_core.c ****   USB_OTG_DCFG_TypeDef   dcfg;
ARM GAS  /tmp/ccQkqy1T.s 			page 42


1181:inc/user_libs/usb_core.c ****   
1182:inc/user_libs/usb_core.c ****   dcfg.d32 = USB_OTG_READ_REG32(&pdev->regs.DREGS->DCFG);
 1115              		.loc 1 1182 0
 1116 02d4 0269     		ldr	r2, [r0, #16]	@ _1, pdev_6(D)->regs.DREGS
 1117 02d6 1368     		ldr	r3, [r2]	@ _2, _1->DCFG
 1118              	@ inc/user_libs/usb_core.c:1183:   dcfg.b.devspd = speed;
1183:inc/user_libs/usb_core.c ****   dcfg.b.devspd = speed;
 1119              		.loc 1 1183 0
 1120 02d8 61F30103 		bfi	r3, r1, #0, #2	@ dcfg, speed,,
 1121              	.LVL101:
 1122              	@ inc/user_libs/usb_core.c:1184:   USB_OTG_WRITE_REG32(&pdev->regs.DREGS->DCFG, dcfg.d32);
1184:inc/user_libs/usb_core.c ****   USB_OTG_WRITE_REG32(&pdev->regs.DREGS->DCFG, dcfg.d32);
 1123              		.loc 1 1184 0
 1124 02dc 1360     		str	r3, [r2]	@ dcfg, _1->DCFG
 1125              	@ inc/user_libs/usb_core.c:1185: }
1185:inc/user_libs/usb_core.c **** }
 1126              		.loc 1 1185 0
 1127 02de 7047     		bx	lr	@
 1128              		.cfi_endproc
 1129              	.LFE126:
 1130              		.size	USB_OTG_InitDevSpeed, .-USB_OTG_InitDevSpeed
 1131              		.align	1
 1132              		.global	USB_OTG_EnableDevInt
 1133              		.syntax unified
 1134              		.thumb
 1135              		.thumb_func
 1136              		.fpu softvfp
 1137              		.type	USB_OTG_EnableDevInt, %function
 1138              	USB_OTG_EnableDevInt:
 1139              	.LFB128:
1186:inc/user_libs/usb_core.c **** 
1187:inc/user_libs/usb_core.c **** 
1188:inc/user_libs/usb_core.c **** /**
1189:inc/user_libs/usb_core.c **** * @brief  USB_OTG_CoreInitDev : Initializes the USB_OTG controller registers 
1190:inc/user_libs/usb_core.c **** *         for device mode
1191:inc/user_libs/usb_core.c **** * @param  pdev : Selected device
1192:inc/user_libs/usb_core.c **** * @retval USB_OTG_STS : status
1193:inc/user_libs/usb_core.c **** */
1194:inc/user_libs/usb_core.c **** USB_OTG_STS USB_OTG_CoreInitDev (USB_OTG_CORE_HANDLE *pdev)
1195:inc/user_libs/usb_core.c **** {
1196:inc/user_libs/usb_core.c ****   USB_OTG_STS             status       = USB_OTG_OK;
1197:inc/user_libs/usb_core.c ****   USB_OTG_DEPCTL_TypeDef  depctl;
1198:inc/user_libs/usb_core.c ****   uint32_t i;
1199:inc/user_libs/usb_core.c ****   USB_OTG_DCFG_TypeDef    dcfg;
1200:inc/user_libs/usb_core.c ****   USB_OTG_FSIZ_TypeDef    nptxfifosize;
1201:inc/user_libs/usb_core.c ****   USB_OTG_FSIZ_TypeDef    txfifosize;
1202:inc/user_libs/usb_core.c ****   USB_OTG_DIEPMSK_TypeDef msk;
1203:inc/user_libs/usb_core.c ****   USB_OTG_DTHRCTL_TypeDef dthrctl;  
1204:inc/user_libs/usb_core.c ****   
1205:inc/user_libs/usb_core.c ****   depctl.d32 = 0;
1206:inc/user_libs/usb_core.c ****   dcfg.d32 = 0;
1207:inc/user_libs/usb_core.c ****   nptxfifosize.d32 = 0;
1208:inc/user_libs/usb_core.c ****   txfifosize.d32 = 0;
1209:inc/user_libs/usb_core.c ****   msk.d32 = 0;
1210:inc/user_libs/usb_core.c ****   
1211:inc/user_libs/usb_core.c ****   /* Restart the Phy Clock */
1212:inc/user_libs/usb_core.c ****   USB_OTG_WRITE_REG32(pdev->regs.PCGCCTL, 0);
ARM GAS  /tmp/ccQkqy1T.s 			page 43


1213:inc/user_libs/usb_core.c ****   /* Device configuration register */
1214:inc/user_libs/usb_core.c ****   dcfg.d32 = USB_OTG_READ_REG32( &pdev->regs.DREGS->DCFG);
1215:inc/user_libs/usb_core.c ****   dcfg.b.perfrint = DCFG_FRAME_INTERVAL_80;
1216:inc/user_libs/usb_core.c ****   USB_OTG_WRITE_REG32( &pdev->regs.DREGS->DCFG, dcfg.d32 );
1217:inc/user_libs/usb_core.c ****   
1218:inc/user_libs/usb_core.c **** #ifdef USB_OTG_FS_CORE
1219:inc/user_libs/usb_core.c ****   if(pdev->cfg.coreID == USB_OTG_FS_CORE_ID  )
1220:inc/user_libs/usb_core.c ****   {  
1221:inc/user_libs/usb_core.c ****     
1222:inc/user_libs/usb_core.c ****     /* Set Full speed phy */
1223:inc/user_libs/usb_core.c ****     USB_OTG_InitDevSpeed (pdev , USB_OTG_SPEED_PARAM_FULL);
1224:inc/user_libs/usb_core.c ****     
1225:inc/user_libs/usb_core.c ****     /* set Rx FIFO size */
1226:inc/user_libs/usb_core.c ****     USB_OTG_WRITE_REG32(&pdev->regs.GREGS->GRXFSIZ, RX_FIFO_FS_SIZE);
1227:inc/user_libs/usb_core.c ****     
1228:inc/user_libs/usb_core.c ****     /* EP0 TX*/
1229:inc/user_libs/usb_core.c ****     nptxfifosize.b.depth     = TX0_FIFO_FS_SIZE;
1230:inc/user_libs/usb_core.c ****     nptxfifosize.b.startaddr = RX_FIFO_FS_SIZE;
1231:inc/user_libs/usb_core.c ****     USB_OTG_WRITE_REG32( &pdev->regs.GREGS->DIEPTXF0_HNPTXFSIZ, nptxfifosize.d32 );
1232:inc/user_libs/usb_core.c ****     
1233:inc/user_libs/usb_core.c ****     
1234:inc/user_libs/usb_core.c ****     /* EP1 TX*/
1235:inc/user_libs/usb_core.c ****     txfifosize.b.startaddr = nptxfifosize.b.startaddr + nptxfifosize.b.depth;
1236:inc/user_libs/usb_core.c ****     txfifosize.b.depth = TX1_FIFO_FS_SIZE;
1237:inc/user_libs/usb_core.c ****     USB_OTG_WRITE_REG32( &pdev->regs.GREGS->DIEPTXF[0], txfifosize.d32 );
1238:inc/user_libs/usb_core.c ****     
1239:inc/user_libs/usb_core.c ****     
1240:inc/user_libs/usb_core.c ****     /* EP2 TX*/
1241:inc/user_libs/usb_core.c ****     txfifosize.b.startaddr += txfifosize.b.depth;
1242:inc/user_libs/usb_core.c ****     txfifosize.b.depth = TX2_FIFO_FS_SIZE;
1243:inc/user_libs/usb_core.c ****     USB_OTG_WRITE_REG32( &pdev->regs.GREGS->DIEPTXF[1], txfifosize.d32 );
1244:inc/user_libs/usb_core.c ****     
1245:inc/user_libs/usb_core.c ****     
1246:inc/user_libs/usb_core.c ****     /* EP3 TX*/  
1247:inc/user_libs/usb_core.c ****     txfifosize.b.startaddr += txfifosize.b.depth;
1248:inc/user_libs/usb_core.c ****     txfifosize.b.depth = TX3_FIFO_FS_SIZE;
1249:inc/user_libs/usb_core.c ****     USB_OTG_WRITE_REG32( &pdev->regs.GREGS->DIEPTXF[2], txfifosize.d32 );
1250:inc/user_libs/usb_core.c ****   }
1251:inc/user_libs/usb_core.c **** #endif
1252:inc/user_libs/usb_core.c **** #ifdef USB_OTG_HS_CORE
1253:inc/user_libs/usb_core.c ****   if(pdev->cfg.coreID == USB_OTG_HS_CORE_ID  )
1254:inc/user_libs/usb_core.c ****   {
1255:inc/user_libs/usb_core.c ****     
1256:inc/user_libs/usb_core.c ****     /* Set High speed phy */
1257:inc/user_libs/usb_core.c ****     
1258:inc/user_libs/usb_core.c ****     if(pdev->cfg.phy_itface  == USB_OTG_ULPI_PHY)
1259:inc/user_libs/usb_core.c ****     {
1260:inc/user_libs/usb_core.c ****       USB_OTG_InitDevSpeed (pdev , USB_OTG_SPEED_PARAM_HIGH);
1261:inc/user_libs/usb_core.c ****     }
1262:inc/user_libs/usb_core.c ****     else /* set High speed phy in Full speed mode */
1263:inc/user_libs/usb_core.c ****     {
1264:inc/user_libs/usb_core.c ****       USB_OTG_InitDevSpeed (pdev , USB_OTG_SPEED_PARAM_HIGH_IN_FULL);
1265:inc/user_libs/usb_core.c ****     }
1266:inc/user_libs/usb_core.c ****     
1267:inc/user_libs/usb_core.c ****     /* set Rx FIFO size */
1268:inc/user_libs/usb_core.c ****     USB_OTG_WRITE_REG32(&pdev->regs.GREGS->GRXFSIZ, RX_FIFO_HS_SIZE);
1269:inc/user_libs/usb_core.c ****     
ARM GAS  /tmp/ccQkqy1T.s 			page 44


1270:inc/user_libs/usb_core.c ****     /* EP0 TX*/
1271:inc/user_libs/usb_core.c ****     nptxfifosize.b.depth     = TX0_FIFO_HS_SIZE;
1272:inc/user_libs/usb_core.c ****     nptxfifosize.b.startaddr = RX_FIFO_HS_SIZE;
1273:inc/user_libs/usb_core.c ****     USB_OTG_WRITE_REG32( &pdev->regs.GREGS->DIEPTXF0_HNPTXFSIZ, nptxfifosize.d32 );
1274:inc/user_libs/usb_core.c ****     
1275:inc/user_libs/usb_core.c ****     
1276:inc/user_libs/usb_core.c ****     /* EP1 TX*/
1277:inc/user_libs/usb_core.c ****     txfifosize.b.startaddr = nptxfifosize.b.startaddr + nptxfifosize.b.depth;
1278:inc/user_libs/usb_core.c ****     txfifosize.b.depth = TX1_FIFO_HS_SIZE;
1279:inc/user_libs/usb_core.c ****     USB_OTG_WRITE_REG32( &pdev->regs.GREGS->DIEPTXF[0], txfifosize.d32 );
1280:inc/user_libs/usb_core.c ****     
1281:inc/user_libs/usb_core.c ****     
1282:inc/user_libs/usb_core.c ****     /* EP2 TX*/
1283:inc/user_libs/usb_core.c ****     txfifosize.b.startaddr += txfifosize.b.depth;
1284:inc/user_libs/usb_core.c ****     txfifosize.b.depth = TX2_FIFO_HS_SIZE;
1285:inc/user_libs/usb_core.c ****     USB_OTG_WRITE_REG32( &pdev->regs.GREGS->DIEPTXF[1], txfifosize.d32 );
1286:inc/user_libs/usb_core.c ****     
1287:inc/user_libs/usb_core.c ****     
1288:inc/user_libs/usb_core.c ****     /* EP3 TX*/  
1289:inc/user_libs/usb_core.c ****     txfifosize.b.startaddr += txfifosize.b.depth;
1290:inc/user_libs/usb_core.c ****     txfifosize.b.depth = TX3_FIFO_HS_SIZE;
1291:inc/user_libs/usb_core.c ****     USB_OTG_WRITE_REG32( &pdev->regs.GREGS->DIEPTXF[2], txfifosize.d32 );
1292:inc/user_libs/usb_core.c ****     
1293:inc/user_libs/usb_core.c ****     /* EP4 TX*/
1294:inc/user_libs/usb_core.c ****     txfifosize.b.startaddr += txfifosize.b.depth;
1295:inc/user_libs/usb_core.c ****     txfifosize.b.depth = TX4_FIFO_HS_SIZE;
1296:inc/user_libs/usb_core.c ****     USB_OTG_WRITE_REG32( &pdev->regs.GREGS->DIEPTXF[3], txfifosize.d32 );
1297:inc/user_libs/usb_core.c ****     
1298:inc/user_libs/usb_core.c ****     
1299:inc/user_libs/usb_core.c ****     /* EP5 TX*/  
1300:inc/user_libs/usb_core.c ****     txfifosize.b.startaddr += txfifosize.b.depth;
1301:inc/user_libs/usb_core.c ****     txfifosize.b.depth = TX5_FIFO_HS_SIZE;
1302:inc/user_libs/usb_core.c ****     USB_OTG_WRITE_REG32( &pdev->regs.GREGS->DIEPTXF[4], txfifosize.d32 );
1303:inc/user_libs/usb_core.c ****   }
1304:inc/user_libs/usb_core.c **** #endif  
1305:inc/user_libs/usb_core.c ****   /* Flush the FIFOs */
1306:inc/user_libs/usb_core.c ****   USB_OTG_FlushTxFifo(pdev , 0x10); /* all Tx FIFOs */
1307:inc/user_libs/usb_core.c ****   USB_OTG_FlushRxFifo(pdev);
1308:inc/user_libs/usb_core.c ****   /* Clear all pending Device Interrupts */
1309:inc/user_libs/usb_core.c ****   USB_OTG_WRITE_REG32( &pdev->regs.DREGS->DIEPMSK, 0 );
1310:inc/user_libs/usb_core.c ****   USB_OTG_WRITE_REG32( &pdev->regs.DREGS->DOEPMSK, 0 );
1311:inc/user_libs/usb_core.c ****   USB_OTG_WRITE_REG32( &pdev->regs.DREGS->DAINT, 0xFFFFFFFF );
1312:inc/user_libs/usb_core.c ****   USB_OTG_WRITE_REG32( &pdev->regs.DREGS->DAINTMSK, 0 );
1313:inc/user_libs/usb_core.c ****   
1314:inc/user_libs/usb_core.c ****   for (i = 0; i < pdev->cfg.dev_endpoints; i++)
1315:inc/user_libs/usb_core.c ****   {
1316:inc/user_libs/usb_core.c ****     depctl.d32 = USB_OTG_READ_REG32(&pdev->regs.INEP_REGS[i]->DIEPCTL);
1317:inc/user_libs/usb_core.c ****     if (depctl.b.epena)
1318:inc/user_libs/usb_core.c ****     {
1319:inc/user_libs/usb_core.c ****       depctl.d32 = 0;
1320:inc/user_libs/usb_core.c ****       depctl.b.epdis = 1;
1321:inc/user_libs/usb_core.c ****       depctl.b.snak = 1;
1322:inc/user_libs/usb_core.c ****     }
1323:inc/user_libs/usb_core.c ****     else
1324:inc/user_libs/usb_core.c ****     {
1325:inc/user_libs/usb_core.c ****       depctl.d32 = 0;
1326:inc/user_libs/usb_core.c ****     }
ARM GAS  /tmp/ccQkqy1T.s 			page 45


1327:inc/user_libs/usb_core.c ****     USB_OTG_WRITE_REG32( &pdev->regs.INEP_REGS[i]->DIEPCTL, depctl.d32);
1328:inc/user_libs/usb_core.c ****     USB_OTG_WRITE_REG32( &pdev->regs.INEP_REGS[i]->DIEPTSIZ, 0);
1329:inc/user_libs/usb_core.c ****     USB_OTG_WRITE_REG32( &pdev->regs.INEP_REGS[i]->DIEPINT, 0xFF);
1330:inc/user_libs/usb_core.c ****   }
1331:inc/user_libs/usb_core.c ****   for (i = 0; i <  pdev->cfg.dev_endpoints; i++)
1332:inc/user_libs/usb_core.c ****   {
1333:inc/user_libs/usb_core.c ****     USB_OTG_DEPCTL_TypeDef  depctl;
1334:inc/user_libs/usb_core.c ****     depctl.d32 = USB_OTG_READ_REG32(&pdev->regs.OUTEP_REGS[i]->DOEPCTL);
1335:inc/user_libs/usb_core.c ****     if (depctl.b.epena)
1336:inc/user_libs/usb_core.c ****     {
1337:inc/user_libs/usb_core.c ****       depctl.d32 = 0;
1338:inc/user_libs/usb_core.c ****       depctl.b.epdis = 1;
1339:inc/user_libs/usb_core.c ****       depctl.b.snak = 1;
1340:inc/user_libs/usb_core.c ****     }
1341:inc/user_libs/usb_core.c ****     else
1342:inc/user_libs/usb_core.c ****     {
1343:inc/user_libs/usb_core.c ****       depctl.d32 = 0;
1344:inc/user_libs/usb_core.c ****     }
1345:inc/user_libs/usb_core.c ****     USB_OTG_WRITE_REG32( &pdev->regs.OUTEP_REGS[i]->DOEPCTL, depctl.d32);
1346:inc/user_libs/usb_core.c ****     USB_OTG_WRITE_REG32( &pdev->regs.OUTEP_REGS[i]->DOEPTSIZ, 0);
1347:inc/user_libs/usb_core.c ****     USB_OTG_WRITE_REG32( &pdev->regs.OUTEP_REGS[i]->DOEPINT, 0xFF);
1348:inc/user_libs/usb_core.c ****   }
1349:inc/user_libs/usb_core.c ****   msk.d32 = 0;
1350:inc/user_libs/usb_core.c ****   msk.b.txfifoundrn = 1;
1351:inc/user_libs/usb_core.c ****   USB_OTG_MODIFY_REG32(&pdev->regs.DREGS->DIEPMSK, msk.d32, msk.d32);
1352:inc/user_libs/usb_core.c ****   
1353:inc/user_libs/usb_core.c ****   if (pdev->cfg.dma_enable == 1)
1354:inc/user_libs/usb_core.c ****   {
1355:inc/user_libs/usb_core.c ****     dthrctl.d32 = 0;
1356:inc/user_libs/usb_core.c ****     dthrctl.b.non_iso_thr_en = 1;
1357:inc/user_libs/usb_core.c ****     dthrctl.b.iso_thr_en = 1;
1358:inc/user_libs/usb_core.c ****     dthrctl.b.tx_thr_len = 64;
1359:inc/user_libs/usb_core.c ****     dthrctl.b.rx_thr_en = 1;
1360:inc/user_libs/usb_core.c ****     dthrctl.b.rx_thr_len = 64;
1361:inc/user_libs/usb_core.c ****     USB_OTG_WRITE_REG32(&pdev->regs.DREGS->DTHRCTL, dthrctl.d32);  
1362:inc/user_libs/usb_core.c ****   }
1363:inc/user_libs/usb_core.c ****   USB_OTG_EnableDevInt(pdev);
1364:inc/user_libs/usb_core.c ****   return status;
1365:inc/user_libs/usb_core.c **** }
1366:inc/user_libs/usb_core.c **** 
1367:inc/user_libs/usb_core.c **** 
1368:inc/user_libs/usb_core.c **** /**
1369:inc/user_libs/usb_core.c **** * @brief  USB_OTG_EnableDevInt : Enables the Device mode interrupts
1370:inc/user_libs/usb_core.c **** * @param  pdev : Selected device
1371:inc/user_libs/usb_core.c **** * @retval USB_OTG_STS : status
1372:inc/user_libs/usb_core.c **** */
1373:inc/user_libs/usb_core.c **** USB_OTG_STS USB_OTG_EnableDevInt(USB_OTG_CORE_HANDLE *pdev)
1374:inc/user_libs/usb_core.c **** {
 1140              		.loc 1 1374 0
 1141              		.cfi_startproc
 1142              		@ args = 0, pretend = 0, frame = 0
 1143              		@ frame_needed = 0, uses_anonymous_args = 0
 1144              	.LVL102:
 1145 02e0 10B5     		push	{r4, lr}	@
 1146              	.LCFI11:
 1147              		.cfi_def_cfa_offset 8
 1148              		.cfi_offset 4, -8
ARM GAS  /tmp/ccQkqy1T.s 			page 46


 1149              		.cfi_offset 14, -4
 1150              	@ inc/user_libs/usb_core.c:1381:   USB_OTG_WRITE_REG32( &pdev->regs.GREGS->GINTMSK, 0);
1375:inc/user_libs/usb_core.c ****   USB_OTG_STS status = USB_OTG_OK;
1376:inc/user_libs/usb_core.c ****   USB_OTG_GINTMSK_TypeDef  intmsk;
1377:inc/user_libs/usb_core.c ****   
1378:inc/user_libs/usb_core.c ****   intmsk.d32 = 0;
1379:inc/user_libs/usb_core.c ****   
1380:inc/user_libs/usb_core.c ****   /* Disable all interrupts. */
1381:inc/user_libs/usb_core.c ****   USB_OTG_WRITE_REG32( &pdev->regs.GREGS->GINTMSK, 0);
 1151              		.loc 1 1381 0
 1152 02e2 C268     		ldr	r2, [r0, #12]	@ _1, pdev_12(D)->regs.GREGS
 1153              	@ inc/user_libs/usb_core.c:1378:   intmsk.d32 = 0;
1378:inc/user_libs/usb_core.c ****   
 1154              		.loc 1 1378 0
 1155 02e4 0023     		movs	r3, #0	@ intmsk,
 1156              	.LVL103:
 1157              	@ inc/user_libs/usb_core.c:1383:   USB_OTG_WRITE_REG32( &pdev->regs.GREGS->GINTSTS, 0xBFFFFFFF);
1382:inc/user_libs/usb_core.c ****   /* Clear any pending interrupts */
1383:inc/user_libs/usb_core.c ****   USB_OTG_WRITE_REG32( &pdev->regs.GREGS->GINTSTS, 0xBFFFFFFF);
 1158              		.loc 1 1383 0
 1159 02e6 6FF08041 		mvn	r1, #1073741824	@ tmp121,
 1160              	.LBB23:
 1161              	.LBB24:
 1162              	@ inc/user_libs/usb_core.c:102:   USB_OTG_WRITE_REG32( &pdev->regs.GREGS->GOTGINT, 0xFFFFFFFF);
 102:inc/user_libs/usb_core.c **** #endif
 1163              		.loc 1 102 0
 1164 02ea 4FF0FF34 		mov	r4, #-1	@ tmp122,
 1165              	.LVL104:
 1166              	.LBE24:
 1167              	.LBE23:
 1168              	@ inc/user_libs/usb_core.c:1381:   USB_OTG_WRITE_REG32( &pdev->regs.GREGS->GINTMSK, 0);
1381:inc/user_libs/usb_core.c ****   /* Clear any pending interrupts */
 1169              		.loc 1 1381 0
 1170 02ee 9361     		str	r3, [r2, #24]	@ intmsk, _1->GINTMSK
 1171              	@ inc/user_libs/usb_core.c:1383:   USB_OTG_WRITE_REG32( &pdev->regs.GREGS->GINTSTS, 0xBFFFFFFF);
 1172              		.loc 1 1383 0
 1173 02f0 5161     		str	r1, [r2, #20]	@ tmp121, _1->GINTSTS
 1174              	.LVL105:
 1175              	.LBB26:
 1176              	.LBB25:
 1177              	@ inc/user_libs/usb_core.c:102:   USB_OTG_WRITE_REG32( &pdev->regs.GREGS->GOTGINT, 0xFFFFFFFF);
 102:inc/user_libs/usb_core.c **** #endif
 1178              		.loc 1 102 0
 1179 02f2 5460     		str	r4, [r2, #4]	@ tmp122, _1->GOTGINT
 1180              	@ inc/user_libs/usb_core.c:105:   USB_OTG_WRITE_REG32( &pdev->regs.GREGS->GINTSTS, 0xBFFFFFFF);
 105:inc/user_libs/usb_core.c ****   /* Enable the interrupts in the INTMSK */
 1181              		.loc 1 105 0
 1182 02f4 5161     		str	r1, [r2, #20]	@ tmp121, _1->GINTSTS
 1183              	@ inc/user_libs/usb_core.c:108:   int_mask.b.usbsuspend = 1; 
 108:inc/user_libs/usb_core.c ****   
 1184              		.loc 1 108 0
 1185 02f6 0949     		ldr	r1, .L86	@ int_mask,
 1186              	.LVL106:
 1187              	@ inc/user_libs/usb_core.c:115:   USB_OTG_WRITE_REG32( &pdev->regs.GREGS->GINTMSK, int_mask.d32);
 115:inc/user_libs/usb_core.c **** }
 1188              		.loc 1 115 0
 1189 02f8 9161     		str	r1, [r2, #24]	@ int_mask, _1->GINTMSK
ARM GAS  /tmp/ccQkqy1T.s 			page 47


 1190              	.LBE25:
 1191              	.LBE26:
 1192              	@ inc/user_libs/usb_core.c:1387:   if (pdev->cfg.dma_enable == 0)
1384:inc/user_libs/usb_core.c ****   /* Enable the common interrupts */
1385:inc/user_libs/usb_core.c ****   USB_OTG_EnableCommonInt(pdev);
1386:inc/user_libs/usb_core.c ****   
1387:inc/user_libs/usb_core.c ****   if (pdev->cfg.dma_enable == 0)
 1193              		.loc 1 1387 0
 1194 02fa C178     		ldrb	r1, [r0, #3]	@ zero_extendqisi2	@ pdev_12(D)->cfg.dma_enable, pdev_12(D)->cfg.dma_enable
 1195              	.LVL107:
 1196 02fc 9942     		cmp	r1, r3	@ pdev_12(D)->cfg.dma_enable,
 1197              	.LVL108:
 1198              	@ inc/user_libs/usb_core.c:1389:     intmsk.b.rxstsqlvl = 1;
1388:inc/user_libs/usb_core.c ****   {
1389:inc/user_libs/usb_core.c ****     intmsk.b.rxstsqlvl = 1;
 1199              		.loc 1 1389 0
 1200 02fe 08BF     		it	eq
 1201 0300 1023     		moveq	r3, #16	@ intmsk,
 1202              	.LVL109:
 1203              	@ inc/user_libs/usb_core.c:1404:   intmsk.b.otgintr    = 1;    
1390:inc/user_libs/usb_core.c ****   }
1391:inc/user_libs/usb_core.c ****   
1392:inc/user_libs/usb_core.c ****   /* Enable interrupts matching to the Device mode ONLY */
1393:inc/user_libs/usb_core.c ****   intmsk.b.usbsuspend = 1;
1394:inc/user_libs/usb_core.c ****   intmsk.b.usbreset   = 1;
1395:inc/user_libs/usb_core.c ****   intmsk.b.enumdone   = 1;
1396:inc/user_libs/usb_core.c ****   intmsk.b.inepintr   = 1;
1397:inc/user_libs/usb_core.c ****   intmsk.b.outepintr  = 1;
1398:inc/user_libs/usb_core.c ****   intmsk.b.sofintr    = 1; 
1399:inc/user_libs/usb_core.c ****   
1400:inc/user_libs/usb_core.c ****   intmsk.b.incomplisoin    = 1; 
1401:inc/user_libs/usb_core.c ****   intmsk.b.incomplisoout    = 1;   
1402:inc/user_libs/usb_core.c **** #ifdef VBUS_SENSING_ENABLED
1403:inc/user_libs/usb_core.c ****   intmsk.b.sessreqintr    = 1; 
1404:inc/user_libs/usb_core.c ****   intmsk.b.otgintr    = 1;    
 1204              		.loc 1 1404 0
 1205 0302 43F08043 		orr	r3, r3, #1073741824	@ intmsk, intmsk,
 1206              	.LVL110:
 1207 0306 43F47013 		orr	r3, r3, #3932160	@ intmsk, intmsk,
 1208              	.LVL111:
 1209              	@ inc/user_libs/usb_core.c:1406:   USB_OTG_MODIFY_REG32( &pdev->regs.GREGS->GINTMSK, intmsk.d32, in
1405:inc/user_libs/usb_core.c **** #endif  
1406:inc/user_libs/usb_core.c ****   USB_OTG_MODIFY_REG32( &pdev->regs.GREGS->GINTMSK, intmsk.d32, intmsk.d32);
 1210              		.loc 1 1406 0
 1211 030a 9169     		ldr	r1, [r2, #24]	@ _4, _1->GINTMSK
 1212              	.LVL112:
 1213              	@ inc/user_libs/usb_core.c:1404:   intmsk.b.otgintr    = 1;    
1404:inc/user_libs/usb_core.c **** #endif  
 1214              		.loc 1 1404 0
 1215 030c 43F46053 		orr	r3, r3, #14336	@ intmsk, intmsk,
 1216              	.LVL113:
 1217 0310 43F00C03 		orr	r3, r3, #12	@ intmsk, intmsk,
 1218              	.LVL114:
 1219              	@ inc/user_libs/usb_core.c:1406:   USB_OTG_MODIFY_REG32( &pdev->regs.GREGS->GINTMSK, intmsk.d32, in
 1220              		.loc 1 1406 0
 1221 0314 0B43     		orrs	r3, r3, r1	@, _8, intmsk, _4
 1222              	.LVL115:
ARM GAS  /tmp/ccQkqy1T.s 			page 48


 1223 0316 9361     		str	r3, [r2, #24]	@ _8, _1->GINTMSK
 1224              	@ inc/user_libs/usb_core.c:1408: }
1407:inc/user_libs/usb_core.c ****   return status;
1408:inc/user_libs/usb_core.c **** }
 1225              		.loc 1 1408 0
 1226 0318 0020     		movs	r0, #0	@,
 1227              	.LVL116:
 1228 031a 10BD     		pop	{r4, pc}	@
 1229              	.L87:
 1230              		.align	2
 1231              	.L86:
 1232 031c 00080080 		.word	-2147481600
 1233              		.cfi_endproc
 1234              	.LFE128:
 1235              		.size	USB_OTG_EnableDevInt, .-USB_OTG_EnableDevInt
 1236              		.align	1
 1237              		.global	USB_OTG_CoreInitDev
 1238              		.syntax unified
 1239              		.thumb
 1240              		.thumb_func
 1241              		.fpu softvfp
 1242              		.type	USB_OTG_CoreInitDev, %function
 1243              	USB_OTG_CoreInitDev:
 1244              	.LFB127:
1195:inc/user_libs/usb_core.c ****   USB_OTG_STS             status       = USB_OTG_OK;
 1245              		.loc 1 1195 0
 1246              		.cfi_startproc
 1247              		@ args = 0, pretend = 0, frame = 0
 1248              		@ frame_needed = 0, uses_anonymous_args = 0
 1249              	.LVL117:
 1250 0320 F8B5     		push	{r3, r4, r5, r6, r7, lr}	@
 1251              	.LCFI12:
 1252              		.cfi_def_cfa_offset 24
 1253              		.cfi_offset 3, -24
 1254              		.cfi_offset 4, -20
 1255              		.cfi_offset 5, -16
 1256              		.cfi_offset 6, -12
 1257              		.cfi_offset 7, -8
 1258              		.cfi_offset 14, -4
 1259              	@ inc/user_libs/usb_core.c:1212:   USB_OTG_WRITE_REG32(pdev->regs.PCGCCTL, 0);
1212:inc/user_libs/usb_core.c ****   /* Device configuration register */
 1260              		.loc 1 1212 0
 1261 0322 D0F80C31 		ldr	r3, [r0, #268]	@ _1, pdev_44(D)->regs.PCGCCTL
 1262              	@ inc/user_libs/usb_core.c:1214:   dcfg.d32 = USB_OTG_READ_REG32( &pdev->regs.DREGS->DCFG);
1214:inc/user_libs/usb_core.c ****   dcfg.b.perfrint = DCFG_FRAME_INTERVAL_80;
 1263              		.loc 1 1214 0
 1264 0326 0269     		ldr	r2, [r0, #16]	@ _2, pdev_44(D)->regs.DREGS
 1265              	@ inc/user_libs/usb_core.c:1212:   USB_OTG_WRITE_REG32(pdev->regs.PCGCCTL, 0);
1212:inc/user_libs/usb_core.c ****   /* Device configuration register */
 1266              		.loc 1 1212 0
 1267 0328 0021     		movs	r1, #0	@ tmp160,
 1268 032a 1960     		str	r1, [r3]	@ tmp160, *_1
 1269              	@ inc/user_libs/usb_core.c:1214:   dcfg.d32 = USB_OTG_READ_REG32( &pdev->regs.DREGS->DCFG);
1214:inc/user_libs/usb_core.c ****   dcfg.b.perfrint = DCFG_FRAME_INTERVAL_80;
 1270              		.loc 1 1214 0
 1271 032c 1368     		ldr	r3, [r2]	@ _3, _2->DCFG
 1272              	@ inc/user_libs/usb_core.c:1215:   dcfg.b.perfrint = DCFG_FRAME_INTERVAL_80;
ARM GAS  /tmp/ccQkqy1T.s 			page 49


1215:inc/user_libs/usb_core.c ****   USB_OTG_WRITE_REG32( &pdev->regs.DREGS->DCFG, dcfg.d32 );
 1273              		.loc 1 1215 0
 1274 032e 61F3CC23 		bfi	r3, r1, #11, #2	@ dcfg, tmp160,,
 1275              	.LVL118:
 1276              	@ inc/user_libs/usb_core.c:1216:   USB_OTG_WRITE_REG32( &pdev->regs.DREGS->DCFG, dcfg.d32 );
1216:inc/user_libs/usb_core.c ****   
 1277              		.loc 1 1216 0
 1278 0332 1360     		str	r3, [r2]	@ dcfg, _2->DCFG
 1279              	@ inc/user_libs/usb_core.c:1219:   if(pdev->cfg.coreID == USB_OTG_FS_CORE_ID  )
1219:inc/user_libs/usb_core.c ****   {  
 1280              		.loc 1 1219 0
 1281 0334 C37A     		ldrb	r3, [r0, #11]	@ zero_extendqisi2	@ pdev_44(D)->cfg.coreID, pdev_44(D)->cfg.coreID
 1282              	.LVL119:
 1283 0336 012B     		cmp	r3, #1	@ pdev_44(D)->cfg.coreID,
 1284              	@ inc/user_libs/usb_core.c:1195: {
1195:inc/user_libs/usb_core.c ****   USB_OTG_STS             status       = USB_OTG_OK;
 1285              		.loc 1 1195 0
 1286 0338 0446     		mov	r4, r0	@ pdev, pdev
 1287              	@ inc/user_libs/usb_core.c:1219:   if(pdev->cfg.coreID == USB_OTG_FS_CORE_ID  )
1219:inc/user_libs/usb_core.c ****   {  
 1288              		.loc 1 1219 0
 1289 033a 12D1     		bne	.L89	@,
 1290              	@ inc/user_libs/usb_core.c:1223:     USB_OTG_InitDevSpeed (pdev , USB_OTG_SPEED_PARAM_FULL);
1223:inc/user_libs/usb_core.c ****     
 1291              		.loc 1 1223 0
 1292 033c 0321     		movs	r1, #3	@,
 1293 033e FFF7FEFF 		bl	USB_OTG_InitDevSpeed	@
 1294              	.LVL120:
 1295              	@ inc/user_libs/usb_core.c:1226:     USB_OTG_WRITE_REG32(&pdev->regs.GREGS->GRXFSIZ, RX_FIFO_FS_SIZ
1226:inc/user_libs/usb_core.c ****     
 1296              		.loc 1 1226 0
 1297 0342 C368     		ldr	r3, [r0, #12]	@ _6, pdev_44(D)->regs.GREGS
 1298 0344 8022     		movs	r2, #128	@ tmp162,
 1299 0346 5A62     		str	r2, [r3, #36]	@ tmp162, _6->GRXFSIZ
 1300              	.LVL121:
 1301              	@ inc/user_libs/usb_core.c:1230:     nptxfifosize.b.startaddr = RX_FIFO_FS_SIZE;
1230:inc/user_libs/usb_core.c ****     USB_OTG_WRITE_REG32( &pdev->regs.GREGS->DIEPTXF0_HNPTXFSIZ, nptxfifosize.d32 );
 1302              		.loc 1 1230 0
 1303 0348 02F58002 		add	r2, r2, #4194304	@ nptxfifosize, nptxfifosize,
 1304              	.LVL122:
 1305              	@ inc/user_libs/usb_core.c:1231:     USB_OTG_WRITE_REG32( &pdev->regs.GREGS->DIEPTXF0_HNPTXFSIZ, np
1231:inc/user_libs/usb_core.c ****     
 1306              		.loc 1 1231 0
 1307 034c 9A62     		str	r2, [r3, #40]	@ nptxfifosize, _6->DIEPTXF0_HNPTXFSIZ
 1308              	.LVL123:
 1309              	@ inc/user_libs/usb_core.c:1235:     txfifosize.b.startaddr = nptxfifosize.b.startaddr + nptxfifosi
1235:inc/user_libs/usb_core.c ****     txfifosize.b.depth = TX1_FIFO_FS_SIZE;
 1310              		.loc 1 1235 0
 1311 034e 02F14012 		add	r2, r2, #4194368	@ txfifosize, txfifosize,
 1312              	.LVL124:
 1313              	@ inc/user_libs/usb_core.c:1237:     USB_OTG_WRITE_REG32( &pdev->regs.GREGS->DIEPTXF[0], txfifosize
1237:inc/user_libs/usb_core.c ****     
 1314              		.loc 1 1237 0
 1315 0352 C3F80421 		str	r2, [r3, #260]	@ txfifosize, _6->DIEPTXF
 1316              	@ inc/user_libs/usb_core.c:1241:     txfifosize.b.startaddr += txfifosize.b.depth;
1241:inc/user_libs/usb_core.c ****     txfifosize.b.depth = TX2_FIFO_FS_SIZE;
 1317              		.loc 1 1241 0
ARM GAS  /tmp/ccQkqy1T.s 			page 50


 1318 0356 4FF4A072 		mov	r2, #320	@ txfifosize,
 1319              	.LVL125:
 1320              	@ inc/user_libs/usb_core.c:1243:     USB_OTG_WRITE_REG32( &pdev->regs.GREGS->DIEPTXF[1], txfifosize
1243:inc/user_libs/usb_core.c ****     
 1321              		.loc 1 1243 0
 1322 035a C3F80821 		str	r2, [r3, #264]	@ txfifosize, _6->DIEPTXF
 1323              	@ inc/user_libs/usb_core.c:1249:     USB_OTG_WRITE_REG32( &pdev->regs.GREGS->DIEPTXF[2], txfifosize
1249:inc/user_libs/usb_core.c ****   }
 1324              		.loc 1 1249 0
 1325 035e C3F80C21 		str	r2, [r3, #268]	@ txfifosize, _6->DIEPTXF
 1326              	.L89:
 1327              	@ inc/user_libs/usb_core.c:1306:   USB_OTG_FlushTxFifo(pdev , 0x10); /* all Tx FIFOs */
1306:inc/user_libs/usb_core.c ****   USB_OTG_FlushRxFifo(pdev);
 1328              		.loc 1 1306 0
 1329 0362 1021     		movs	r1, #16	@,
 1330 0364 2046     		mov	r0, r4	@, pdev
 1331              	.LVL126:
 1332 0366 FFF7FEFF 		bl	USB_OTG_FlushTxFifo	@
 1333              	.LVL127:
 1334              	@ inc/user_libs/usb_core.c:1307:   USB_OTG_FlushRxFifo(pdev);
1307:inc/user_libs/usb_core.c ****   /* Clear all pending Device Interrupts */
 1335              		.loc 1 1307 0
 1336 036a 2046     		mov	r0, r4	@, pdev
 1337 036c FFF7FEFF 		bl	USB_OTG_FlushRxFifo	@
 1338              	.LVL128:
 1339              	@ inc/user_libs/usb_core.c:1309:   USB_OTG_WRITE_REG32( &pdev->regs.DREGS->DIEPMSK, 0 );
1309:inc/user_libs/usb_core.c ****   USB_OTG_WRITE_REG32( &pdev->regs.DREGS->DOEPMSK, 0 );
 1340              		.loc 1 1309 0
 1341 0370 2269     		ldr	r2, [r4, #16]	@ _11, pdev_44(D)->regs.DREGS
 1342 0372 2069     		ldr	r0, [r4, #16]	@ _24, pdev_44(D)->regs.DREGS
 1343 0374 0023     		movs	r3, #0	@ tmp163,
 1344              	@ inc/user_libs/usb_core.c:1311:   USB_OTG_WRITE_REG32( &pdev->regs.DREGS->DAINT, 0xFFFFFFFF );
1311:inc/user_libs/usb_core.c ****   USB_OTG_WRITE_REG32( &pdev->regs.DREGS->DAINTMSK, 0 );
 1345              		.loc 1 1311 0
 1346 0376 4FF0FF31 		mov	r1, #-1	@ tmp165,
 1347              	@ inc/user_libs/usb_core.c:1309:   USB_OTG_WRITE_REG32( &pdev->regs.DREGS->DIEPMSK, 0 );
1309:inc/user_libs/usb_core.c ****   USB_OTG_WRITE_REG32( &pdev->regs.DREGS->DOEPMSK, 0 );
 1348              		.loc 1 1309 0
 1349 037a 1361     		str	r3, [r2, #16]	@ tmp163, _11->DIEPMSK
 1350              	@ inc/user_libs/usb_core.c:1310:   USB_OTG_WRITE_REG32( &pdev->regs.DREGS->DOEPMSK, 0 );
1310:inc/user_libs/usb_core.c ****   USB_OTG_WRITE_REG32( &pdev->regs.DREGS->DAINT, 0xFFFFFFFF );
 1351              		.loc 1 1310 0
 1352 037c 5361     		str	r3, [r2, #20]	@ tmp163, _11->DOEPMSK
 1353              	@ inc/user_libs/usb_core.c:1311:   USB_OTG_WRITE_REG32( &pdev->regs.DREGS->DAINT, 0xFFFFFFFF );
1311:inc/user_libs/usb_core.c ****   USB_OTG_WRITE_REG32( &pdev->regs.DREGS->DAINTMSK, 0 );
 1354              		.loc 1 1311 0
 1355 037e 9161     		str	r1, [r2, #24]	@ tmp165, _11->DAINT
 1356              	@ inc/user_libs/usb_core.c:1312:   USB_OTG_WRITE_REG32( &pdev->regs.DREGS->DAINTMSK, 0 );
1312:inc/user_libs/usb_core.c ****   
 1357              		.loc 1 1312 0
 1358 0380 D361     		str	r3, [r2, #28]	@ tmp163, _11->DAINTMSK
 1359              	.LVL129:
 1360 0382 6578     		ldrb	r5, [r4, #1]	@ zero_extendqisi2	@ pdev_44(D)->cfg.dev_endpoints, pdev_44(D)->cfg.dev_endpoint
 1361 0384 04F11802 		add	r2, r4, #24	@ ivtmp.191, pdev,
 1362 0388 02EB8505 		add	r5, r2, r5, lsl #2	@ _112, ivtmp.191, pdev_44(D)->cfg.dev_endpoints,
 1363              	@ inc/user_libs/usb_core.c:1329:     USB_OTG_WRITE_REG32( &pdev->regs.INEP_REGS[i]->DIEPINT, 0xFF);
1329:inc/user_libs/usb_core.c ****   }
ARM GAS  /tmp/ccQkqy1T.s 			page 51


 1364              		.loc 1 1329 0
 1365 038c FF26     		movs	r6, #255	@ tmp189,
 1366              	.LVL130:
 1367              	.L90:
 1368              	@ inc/user_libs/usb_core.c:1314:   for (i = 0; i < pdev->cfg.dev_endpoints; i++)
1314:inc/user_libs/usb_core.c ****   {
 1369              		.loc 1 1314 0 discriminator 1
 1370 038e 9542     		cmp	r5, r2	@ _112, ivtmp.191
 1371 0390 15D1     		bne	.L93	@,
 1372              	@ inc/user_libs/usb_core.c:1331:   for (i = 0; i <  pdev->cfg.dev_endpoints; i++)
1331:inc/user_libs/usb_core.c ****   {
 1373              		.loc 1 1331 0
 1374 0392 0023     		movs	r3, #0	@ i,
 1375 0394 04F15401 		add	r1, r4, #84	@ ivtmp.184, pdev,
 1376 0398 1D46     		mov	r5, r3	@ tmp186, i
 1377              	.LBB27:
 1378              	@ inc/user_libs/usb_core.c:1347:     USB_OTG_WRITE_REG32( &pdev->regs.OUTEP_REGS[i]->DOEPINT, 0xFF)
1347:inc/user_libs/usb_core.c ****   }
 1379              		.loc 1 1347 0
 1380 039a FF26     		movs	r6, #255	@ tmp187,
 1381              	.LVL131:
 1382              	.L94:
 1383              	.LBE27:
 1384              	@ inc/user_libs/usb_core.c:1331:   for (i = 0; i <  pdev->cfg.dev_endpoints; i++)
1331:inc/user_libs/usb_core.c ****   {
 1385              		.loc 1 1331 0 discriminator 1
 1386 039c 6278     		ldrb	r2, [r4, #1]	@ zero_extendqisi2	@ pdev_44(D)->cfg.dev_endpoints, pdev_44(D)->cfg.dev_endpoint
 1387 039e 9A42     		cmp	r2, r3	@ pdev_44(D)->cfg.dev_endpoints, i
 1388 03a0 19D8     		bhi	.L97	@,
 1389              	@ inc/user_libs/usb_core.c:1351:   USB_OTG_MODIFY_REG32(&pdev->regs.DREGS->DIEPMSK, msk.d32, msk.d3
1351:inc/user_libs/usb_core.c ****   
 1390              		.loc 1 1351 0
 1391 03a2 0369     		ldr	r3, [r0, #16]	@ _25, _24->DIEPMSK
 1392              	.LVL132:
 1393 03a4 43F48073 		orr	r3, r3, #256	@ _29, _25,
 1394 03a8 0361     		str	r3, [r0, #16]	@ _29, _24->DIEPMSK
 1395              	@ inc/user_libs/usb_core.c:1353:   if (pdev->cfg.dma_enable == 1)
1353:inc/user_libs/usb_core.c ****   {
 1396              		.loc 1 1353 0
 1397 03aa E378     		ldrb	r3, [r4, #3]	@ zero_extendqisi2	@ pdev_44(D)->cfg.dma_enable, pdev_44(D)->cfg.dma_enable
 1398 03ac 012B     		cmp	r3, #1	@ pdev_44(D)->cfg.dma_enable,
 1399              	@ inc/user_libs/usb_core.c:1355:     dthrctl.d32 = 0;
1355:inc/user_libs/usb_core.c ****     dthrctl.b.non_iso_thr_en = 1;
 1400              		.loc 1 1355 0
 1401 03ae 04BF     		itt	eq
 1402 03b0 0F4B     		ldreq	r3, .L99	@ dthrctl,
 1403              	.LVL133:
 1404              	@ inc/user_libs/usb_core.c:1361:     USB_OTG_WRITE_REG32(&pdev->regs.DREGS->DTHRCTL, dthrctl.d32); 
1361:inc/user_libs/usb_core.c ****   }
 1405              		.loc 1 1361 0
 1406 03b2 0363     		streq	r3, [r0, #48]	@ dthrctl, _24->DTHRCTL
 1407              	@ inc/user_libs/usb_core.c:1363:   USB_OTG_EnableDevInt(pdev);
1363:inc/user_libs/usb_core.c ****   return status;
 1408              		.loc 1 1363 0
 1409 03b4 2046     		mov	r0, r4	@, pdev
 1410 03b6 FFF7FEFF 		bl	USB_OTG_EnableDevInt	@
 1411              	.LVL134:
ARM GAS  /tmp/ccQkqy1T.s 			page 52


 1412              	@ inc/user_libs/usb_core.c:1365: }
1365:inc/user_libs/usb_core.c **** 
 1413              		.loc 1 1365 0
 1414 03ba 0020     		movs	r0, #0	@,
 1415 03bc F8BD     		pop	{r3, r4, r5, r6, r7, pc}	@
 1416              	.LVL135:
 1417              	.L93:
 1418              	@ inc/user_libs/usb_core.c:1316:     depctl.d32 = USB_OTG_READ_REG32(&pdev->regs.INEP_REGS[i]->DIEP
1316:inc/user_libs/usb_core.c ****     if (depctl.b.epena)
 1419              		.loc 1 1316 0
 1420 03be 52F8041B 		ldr	r1, [r2], #4	@ _12, MEM[base: _10, offset: 0B]
 1421 03c2 0F68     		ldr	r7, [r1]	@ _13, _12->DIEPCTL
 1422              	.LVL136:
 1423              	@ inc/user_libs/usb_core.c:1319:       depctl.d32 = 0;
1319:inc/user_libs/usb_core.c ****       depctl.b.epdis = 1;
 1424              		.loc 1 1319 0
 1425 03c4 002F     		cmp	r7, #0	@ _13,
 1426 03c6 ACBF     		ite	ge
 1427 03c8 0027     		movge	r7, #0	@ depctl,
 1428 03ca 4FF09047 		movlt	r7, #1207959552	@ depctl,
 1429              	.LVL137:
 1430              	@ inc/user_libs/usb_core.c:1327:     USB_OTG_WRITE_REG32( &pdev->regs.INEP_REGS[i]->DIEPCTL, depctl
1327:inc/user_libs/usb_core.c ****     USB_OTG_WRITE_REG32( &pdev->regs.INEP_REGS[i]->DIEPTSIZ, 0);
 1431              		.loc 1 1327 0
 1432 03ce 0F60     		str	r7, [r1]	@ depctl, _12->DIEPCTL
 1433              	@ inc/user_libs/usb_core.c:1328:     USB_OTG_WRITE_REG32( &pdev->regs.INEP_REGS[i]->DIEPTSIZ, 0);
1328:inc/user_libs/usb_core.c ****     USB_OTG_WRITE_REG32( &pdev->regs.INEP_REGS[i]->DIEPINT, 0xFF);
 1434              		.loc 1 1328 0
 1435 03d0 0B61     		str	r3, [r1, #16]	@ tmp188, _12->DIEPTSIZ
 1436              	@ inc/user_libs/usb_core.c:1329:     USB_OTG_WRITE_REG32( &pdev->regs.INEP_REGS[i]->DIEPINT, 0xFF);
1329:inc/user_libs/usb_core.c ****   }
 1437              		.loc 1 1329 0
 1438 03d2 8E60     		str	r6, [r1, #8]	@ tmp189, _12->DIEPINT
 1439 03d4 DBE7     		b	.L90	@
 1440              	.LVL138:
 1441              	.L97:
 1442              	.LBB28:
 1443              	@ inc/user_libs/usb_core.c:1334:     depctl.d32 = USB_OTG_READ_REG32(&pdev->regs.OUTEP_REGS[i]->DOE
1334:inc/user_libs/usb_core.c ****     if (depctl.b.epena)
 1444              		.loc 1 1334 0
 1445 03d6 51F8042B 		ldr	r2, [r1], #4	@ _18, MEM[base: _27, offset: 0B]
 1446 03da 1768     		ldr	r7, [r2]	@ _19, _18->DOEPCTL
 1447              	.LVL139:
 1448              	@ inc/user_libs/usb_core.c:1337:       depctl.d32 = 0;
1337:inc/user_libs/usb_core.c ****       depctl.b.epdis = 1;
 1449              		.loc 1 1337 0
 1450 03dc 002F     		cmp	r7, #0	@ _19,
 1451 03de ACBF     		ite	ge
 1452 03e0 0027     		movge	r7, #0	@ depctl,
 1453 03e2 4FF09047 		movlt	r7, #1207959552	@ depctl,
 1454              	.LVL140:
 1455              	@ inc/user_libs/usb_core.c:1345:     USB_OTG_WRITE_REG32( &pdev->regs.OUTEP_REGS[i]->DOEPCTL, depct
1345:inc/user_libs/usb_core.c ****     USB_OTG_WRITE_REG32( &pdev->regs.OUTEP_REGS[i]->DOEPTSIZ, 0);
 1456              		.loc 1 1345 0
 1457 03e6 1760     		str	r7, [r2]	@ depctl, _18->DOEPCTL
 1458              	.LBE28:
 1459              	@ inc/user_libs/usb_core.c:1331:   for (i = 0; i <  pdev->cfg.dev_endpoints; i++)
ARM GAS  /tmp/ccQkqy1T.s 			page 53


1331:inc/user_libs/usb_core.c ****   {
 1460              		.loc 1 1331 0
 1461 03e8 0133     		adds	r3, r3, #1	@ i, i,
 1462              	.LVL141:
 1463              	.LBB29:
 1464              	@ inc/user_libs/usb_core.c:1346:     USB_OTG_WRITE_REG32( &pdev->regs.OUTEP_REGS[i]->DOEPTSIZ, 0);
1346:inc/user_libs/usb_core.c ****     USB_OTG_WRITE_REG32( &pdev->regs.OUTEP_REGS[i]->DOEPINT, 0xFF);
 1465              		.loc 1 1346 0
 1466 03ea 1561     		str	r5, [r2, #16]	@ tmp186, _18->DOEPTSIZ
 1467              	@ inc/user_libs/usb_core.c:1347:     USB_OTG_WRITE_REG32( &pdev->regs.OUTEP_REGS[i]->DOEPINT, 0xFF)
1347:inc/user_libs/usb_core.c ****   }
 1468              		.loc 1 1347 0
 1469 03ec 9660     		str	r6, [r2, #8]	@ tmp187, _18->DOEPINT
 1470 03ee D5E7     		b	.L94	@
 1471              	.L100:
 1472              		.align	2
 1473              	.L99:
 1474 03f0 03018100 		.word	8454403
 1475              	.LBE29:
 1476              		.cfi_endproc
 1477              	.LFE127:
 1478              		.size	USB_OTG_CoreInitDev, .-USB_OTG_CoreInitDev
 1479              		.align	1
 1480              		.global	USB_OTG_GetDeviceSpeed
 1481              		.syntax unified
 1482              		.thumb
 1483              		.thumb_func
 1484              		.fpu softvfp
 1485              		.type	USB_OTG_GetDeviceSpeed, %function
 1486              	USB_OTG_GetDeviceSpeed:
 1487              	.LFB129:
1409:inc/user_libs/usb_core.c **** 
1410:inc/user_libs/usb_core.c **** 
1411:inc/user_libs/usb_core.c **** /**
1412:inc/user_libs/usb_core.c **** * @brief  USB_OTG_GetDeviceSpeed
1413:inc/user_libs/usb_core.c **** *         Get the device speed from the device status register
1414:inc/user_libs/usb_core.c **** * @param  None
1415:inc/user_libs/usb_core.c **** * @retval status
1416:inc/user_libs/usb_core.c **** */
1417:inc/user_libs/usb_core.c **** enum USB_OTG_SPEED USB_OTG_GetDeviceSpeed (USB_OTG_CORE_HANDLE *pdev)
1418:inc/user_libs/usb_core.c **** {
 1488              		.loc 1 1418 0
 1489              		.cfi_startproc
 1490              		@ args = 0, pretend = 0, frame = 0
 1491              		@ frame_needed = 0, uses_anonymous_args = 0
 1492              		@ link register save eliminated.
 1493              	.LVL142:
 1494              	@ inc/user_libs/usb_core.c:1423:   dsts.d32 = USB_OTG_READ_REG32(&pdev->regs.DREGS->DSTS);
1419:inc/user_libs/usb_core.c ****   USB_OTG_DSTS_TypeDef  dsts;
1420:inc/user_libs/usb_core.c ****   enum USB_OTG_SPEED speed = USB_SPEED_UNKNOWN;
1421:inc/user_libs/usb_core.c ****   
1422:inc/user_libs/usb_core.c ****   
1423:inc/user_libs/usb_core.c ****   dsts.d32 = USB_OTG_READ_REG32(&pdev->regs.DREGS->DSTS);
 1495              		.loc 1 1423 0
 1496 03f4 0369     		ldr	r3, [r0, #16]	@ _1, pdev_6(D)->regs.DREGS
 1497 03f6 9B68     		ldr	r3, [r3, #8]	@ _2, _1->DSTS
 1498              	@ inc/user_libs/usb_core.c:1425:   switch (dsts.b.enumspd)
ARM GAS  /tmp/ccQkqy1T.s 			page 54


1424:inc/user_libs/usb_core.c ****   
1425:inc/user_libs/usb_core.c ****   switch (dsts.b.enumspd)
 1499              		.loc 1 1425 0
 1500 03f8 C3F34103 		ubfx	r3, r3, #1, #2	@ tmp117, _2,,
 1501 03fc 022B     		cmp	r3, #2	@ tmp117,
 1502 03fe 04D0     		beq	.L103	@,
 1503 0400 01D8     		bhi	.L104	@,
 1504 0402 012B     		cmp	r3, #1	@ tmp117,
 1505 0404 03D1     		bne	.L109	@,
 1506              	.L104:
 1507              	@ inc/user_libs/usb_core.c:1432:     speed = USB_SPEED_FULL;
1426:inc/user_libs/usb_core.c ****   {
1427:inc/user_libs/usb_core.c ****   case DSTS_ENUMSPD_HS_PHY_30MHZ_OR_60MHZ:
1428:inc/user_libs/usb_core.c ****     speed = USB_SPEED_HIGH;
1429:inc/user_libs/usb_core.c ****     break;
1430:inc/user_libs/usb_core.c ****   case DSTS_ENUMSPD_FS_PHY_30MHZ_OR_60MHZ:
1431:inc/user_libs/usb_core.c ****   case DSTS_ENUMSPD_FS_PHY_48MHZ:
1432:inc/user_libs/usb_core.c ****     speed = USB_SPEED_FULL;
 1508              		.loc 1 1432 0
 1509 0406 0220     		movs	r0, #2	@ <retval>,
 1510              	.LVL143:
 1511 0408 7047     		bx	lr	@
 1512              	.LVL144:
 1513              	.L103:
 1514              	@ inc/user_libs/usb_core.c:1436:     speed = USB_SPEED_LOW;
1433:inc/user_libs/usb_core.c ****     break;
1434:inc/user_libs/usb_core.c ****     
1435:inc/user_libs/usb_core.c ****   case DSTS_ENUMSPD_LS_PHY_6MHZ:
1436:inc/user_libs/usb_core.c ****     speed = USB_SPEED_LOW;
 1515              		.loc 1 1436 0
 1516 040a 0120     		movs	r0, #1	@ <retval>,
 1517              	.LVL145:
 1518              	@ inc/user_libs/usb_core.c:1437:     break;
1437:inc/user_libs/usb_core.c ****     break;
 1519              		.loc 1 1437 0
 1520 040c 7047     		bx	lr	@
 1521              	.LVL146:
 1522              	.L109:
 1523              	@ inc/user_libs/usb_core.c:1428:     speed = USB_SPEED_HIGH;
1428:inc/user_libs/usb_core.c ****     break;
 1524              		.loc 1 1428 0
 1525 040e 0320     		movs	r0, #3	@ <retval>,
 1526              	.LVL147:
 1527              	@ inc/user_libs/usb_core.c:1441: }
1438:inc/user_libs/usb_core.c ****   }
1439:inc/user_libs/usb_core.c ****   
1440:inc/user_libs/usb_core.c ****   return speed;
1441:inc/user_libs/usb_core.c **** }
 1528              		.loc 1 1441 0
 1529 0410 7047     		bx	lr	@
 1530              		.cfi_endproc
 1531              	.LFE129:
 1532              		.size	USB_OTG_GetDeviceSpeed, .-USB_OTG_GetDeviceSpeed
 1533              		.align	1
 1534              		.global	USB_OTG_EP0Activate
 1535              		.syntax unified
 1536              		.thumb
ARM GAS  /tmp/ccQkqy1T.s 			page 55


 1537              		.thumb_func
 1538              		.fpu softvfp
 1539              		.type	USB_OTG_EP0Activate, %function
 1540              	USB_OTG_EP0Activate:
 1541              	.LFB130:
1442:inc/user_libs/usb_core.c **** /**
1443:inc/user_libs/usb_core.c **** * @brief  enables EP0 OUT to receive SETUP packets and configures EP0
1444:inc/user_libs/usb_core.c **** *   for transmitting packets
1445:inc/user_libs/usb_core.c **** * @param  None
1446:inc/user_libs/usb_core.c **** * @retval USB_OTG_STS : status
1447:inc/user_libs/usb_core.c **** */
1448:inc/user_libs/usb_core.c **** USB_OTG_STS  USB_OTG_EP0Activate(USB_OTG_CORE_HANDLE *pdev)
1449:inc/user_libs/usb_core.c **** {
 1542              		.loc 1 1449 0
 1543              		.cfi_startproc
 1544              		@ args = 0, pretend = 0, frame = 0
 1545              		@ frame_needed = 0, uses_anonymous_args = 0
 1546              		@ link register save eliminated.
 1547              	.LVL148:
 1548              	@ inc/user_libs/usb_core.c:1457:   dsts.d32 = USB_OTG_READ_REG32(&pdev->regs.DREGS->DSTS);
1450:inc/user_libs/usb_core.c ****   USB_OTG_STS             status = USB_OTG_OK;
1451:inc/user_libs/usb_core.c ****   USB_OTG_DSTS_TypeDef    dsts;
1452:inc/user_libs/usb_core.c ****   USB_OTG_DEPCTL_TypeDef  diepctl;
1453:inc/user_libs/usb_core.c ****   USB_OTG_DCTL_TypeDef    dctl;
1454:inc/user_libs/usb_core.c ****   
1455:inc/user_libs/usb_core.c ****   dctl.d32 = 0;
1456:inc/user_libs/usb_core.c ****   /* Read the Device Status and Endpoint 0 Control registers */
1457:inc/user_libs/usb_core.c ****   dsts.d32 = USB_OTG_READ_REG32(&pdev->regs.DREGS->DSTS);
 1549              		.loc 1 1457 0
 1550 0412 0369     		ldr	r3, [r0, #16]	@ _1, pdev_15(D)->regs.DREGS
 1551              	@ inc/user_libs/usb_core.c:1458:   diepctl.d32 = USB_OTG_READ_REG32(&pdev->regs.INEP_REGS[0]->DIEPC
1458:inc/user_libs/usb_core.c ****   diepctl.d32 = USB_OTG_READ_REG32(&pdev->regs.INEP_REGS[0]->DIEPCTL);
 1552              		.loc 1 1458 0
 1553 0414 8069     		ldr	r0, [r0, #24]	@ _3, pdev_15(D)->regs.INEP_REGS
 1554              	.LVL149:
 1555              	@ inc/user_libs/usb_core.c:1457:   dsts.d32 = USB_OTG_READ_REG32(&pdev->regs.DREGS->DSTS);
1457:inc/user_libs/usb_core.c ****   diepctl.d32 = USB_OTG_READ_REG32(&pdev->regs.INEP_REGS[0]->DIEPCTL);
 1556              		.loc 1 1457 0
 1557 0416 9968     		ldr	r1, [r3, #8]	@ _2, _1->DSTS
 1558              	@ inc/user_libs/usb_core.c:1458:   diepctl.d32 = USB_OTG_READ_REG32(&pdev->regs.INEP_REGS[0]->DIEPC
 1559              		.loc 1 1458 0
 1560 0418 0268     		ldr	r2, [r0]	@ diepctl, _3->DIEPCTL
 1561              	.LVL150:
 1562              	@ inc/user_libs/usb_core.c:1460:   switch (dsts.b.enumspd)
1459:inc/user_libs/usb_core.c ****   /* Set the MPS of the IN EP based on the enumeration speed */
1460:inc/user_libs/usb_core.c ****   switch (dsts.b.enumspd)
 1563              		.loc 1 1460 0
 1564 041a C1F34101 		ubfx	r1, r1, #1, #2	@ tmp125, _2,,
 1565 041e 0229     		cmp	r1, #2	@ tmp125,
 1566              	@ inc/user_libs/usb_core.c:1468:     diepctl.b.mps = DEP0CTL_MPS_8;
1461:inc/user_libs/usb_core.c ****   {
1462:inc/user_libs/usb_core.c ****   case DSTS_ENUMSPD_HS_PHY_30MHZ_OR_60MHZ:
1463:inc/user_libs/usb_core.c ****   case DSTS_ENUMSPD_FS_PHY_30MHZ_OR_60MHZ:
1464:inc/user_libs/usb_core.c ****   case DSTS_ENUMSPD_FS_PHY_48MHZ:
1465:inc/user_libs/usb_core.c ****     diepctl.b.mps = DEP0CTL_MPS_64;
1466:inc/user_libs/usb_core.c ****     break;
1467:inc/user_libs/usb_core.c ****   case DSTS_ENUMSPD_LS_PHY_6MHZ:
ARM GAS  /tmp/ccQkqy1T.s 			page 56


1468:inc/user_libs/usb_core.c ****     diepctl.b.mps = DEP0CTL_MPS_8;
 1567              		.loc 1 1468 0
 1568 0420 0ABF     		itet	eq
 1569 0422 0321     		moveq	r1, #3	@ tmp126,
 1570              	@ inc/user_libs/usb_core.c:1465:     diepctl.b.mps = DEP0CTL_MPS_64;
1465:inc/user_libs/usb_core.c ****     break;
 1571              		.loc 1 1465 0
 1572 0424 6FF30A02 		bfcne	r2, #0, #11	@ diepctl,,
 1573              	@ inc/user_libs/usb_core.c:1468:     diepctl.b.mps = DEP0CTL_MPS_8;
 1574              		.loc 1 1468 0
 1575 0428 61F30A02 		bfieq	r2, r1, #0, #11	@ diepctl, tmp126,,
 1576              	@ inc/user_libs/usb_core.c:1471:   USB_OTG_WRITE_REG32(&pdev->regs.INEP_REGS[0]->DIEPCTL, diepctl.d
1469:inc/user_libs/usb_core.c ****     break;
1470:inc/user_libs/usb_core.c ****   }
1471:inc/user_libs/usb_core.c ****   USB_OTG_WRITE_REG32(&pdev->regs.INEP_REGS[0]->DIEPCTL, diepctl.d32);
 1577              		.loc 1 1471 0
 1578 042c 0260     		str	r2, [r0]	@ diepctl, _3->DIEPCTL
 1579              	@ inc/user_libs/usb_core.c:1473:   USB_OTG_MODIFY_REG32(&pdev->regs.DREGS->DCTL, dctl.d32, dctl.d32
1472:inc/user_libs/usb_core.c ****   dctl.b.cgnpinnak = 1;
1473:inc/user_libs/usb_core.c ****   USB_OTG_MODIFY_REG32(&pdev->regs.DREGS->DCTL, dctl.d32, dctl.d32);
 1580              		.loc 1 1473 0
 1581 042e 5A68     		ldr	r2, [r3, #4]	@ _7, _1->DCTL
 1582              	.LVL151:
 1583 0430 42F48072 		orr	r2, r2, #256	@ _11, _7,
 1584 0434 5A60     		str	r2, [r3, #4]	@ _11, _1->DCTL
 1585              	@ inc/user_libs/usb_core.c:1475: }
1474:inc/user_libs/usb_core.c ****   return status;
1475:inc/user_libs/usb_core.c **** }
 1586              		.loc 1 1475 0
 1587 0436 0020     		movs	r0, #0	@,
 1588 0438 7047     		bx	lr	@
 1589              		.cfi_endproc
 1590              	.LFE130:
 1591              		.size	USB_OTG_EP0Activate, .-USB_OTG_EP0Activate
 1592              		.align	1
 1593              		.global	USB_OTG_EPActivate
 1594              		.syntax unified
 1595              		.thumb
 1596              		.thumb_func
 1597              		.fpu softvfp
 1598              		.type	USB_OTG_EPActivate, %function
 1599              	USB_OTG_EPActivate:
 1600              	.LFB131:
1476:inc/user_libs/usb_core.c **** 
1477:inc/user_libs/usb_core.c **** 
1478:inc/user_libs/usb_core.c **** /**
1479:inc/user_libs/usb_core.c **** * @brief  USB_OTG_EPActivate : Activates an EP
1480:inc/user_libs/usb_core.c **** * @param  pdev : Selected device
1481:inc/user_libs/usb_core.c **** * @retval USB_OTG_STS : status
1482:inc/user_libs/usb_core.c **** */
1483:inc/user_libs/usb_core.c **** USB_OTG_STS USB_OTG_EPActivate(USB_OTG_CORE_HANDLE *pdev , USB_OTG_EP *ep)
1484:inc/user_libs/usb_core.c **** {
 1601              		.loc 1 1484 0
 1602              		.cfi_startproc
 1603              		@ args = 0, pretend = 0, frame = 0
 1604              		@ frame_needed = 0, uses_anonymous_args = 0
 1605              	.LVL152:
ARM GAS  /tmp/ccQkqy1T.s 			page 57


 1606 043a 0B78     		ldrb	r3, [r1]	@ zero_extendqisi2	@ _48, ep_30(D)->num
 1607 043c 30B5     		push	{r4, r5, lr}	@
 1608              	.LCFI13:
 1609              		.cfi_def_cfa_offset 12
 1610              		.cfi_offset 4, -12
 1611              		.cfi_offset 5, -8
 1612              		.cfi_offset 14, -4
 1613 043e 0122     		movs	r2, #1	@ tmp138,
 1614              	@ inc/user_libs/usb_core.c:1494:   if (ep->is_in == 1)
1485:inc/user_libs/usb_core.c ****   USB_OTG_STS status = USB_OTG_OK;
1486:inc/user_libs/usb_core.c ****   USB_OTG_DEPCTL_TypeDef  depctl;
1487:inc/user_libs/usb_core.c ****   USB_OTG_DAINT_TypeDef  daintmsk;
1488:inc/user_libs/usb_core.c ****   __IO uint32_t *addr;
1489:inc/user_libs/usb_core.c ****   
1490:inc/user_libs/usb_core.c ****   
1491:inc/user_libs/usb_core.c ****   depctl.d32 = 0;
1492:inc/user_libs/usb_core.c ****   daintmsk.d32 = 0;
1493:inc/user_libs/usb_core.c ****   /* Read DEPCTLn register */
1494:inc/user_libs/usb_core.c ****   if (ep->is_in == 1)
 1615              		.loc 1 1494 0
 1616 0440 4D78     		ldrb	r5, [r1, #1]	@ zero_extendqisi2	@ ep_30(D)->is_in, ep_30(D)->is_in
 1617 0442 9A40     		lsls	r2, r2, r3	@ tmp137, tmp138, _48
 1618              	@ inc/user_libs/usb_core.c:1496:     addr = &pdev->regs.INEP_REGS[ep->num]->DIEPCTL;
1495:inc/user_libs/usb_core.c ****   {
1496:inc/user_libs/usb_core.c ****     addr = &pdev->regs.INEP_REGS[ep->num]->DIEPCTL;
 1619              		.loc 1 1496 0
 1620 0444 00EB8303 		add	r3, r0, r3, lsl #2	@ tmp141, pdev, _48,
 1621              	@ inc/user_libs/usb_core.c:1494:   if (ep->is_in == 1)
1494:inc/user_libs/usb_core.c ****   {
 1622              		.loc 1 1494 0
 1623 0448 012D     		cmp	r5, #1	@ ep_30(D)->is_in,
 1624              	@ inc/user_libs/usb_core.c:1496:     addr = &pdev->regs.INEP_REGS[ep->num]->DIEPCTL;
 1625              		.loc 1 1496 0
 1626 044a 0CBF     		ite	eq
 1627 044c 9D69     		ldreq	r5, [r3, #24]	@ addr, pdev_31(D)->regs.INEP_REGS
 1628              	.LVL153:
 1629              	@ inc/user_libs/usb_core.c:1501:     addr = &pdev->regs.OUTEP_REGS[ep->num]->DOEPCTL;
1497:inc/user_libs/usb_core.c ****     daintmsk.ep.in = 1 << ep->num;
1498:inc/user_libs/usb_core.c ****   }
1499:inc/user_libs/usb_core.c ****   else
1500:inc/user_libs/usb_core.c ****   {
1501:inc/user_libs/usb_core.c ****     addr = &pdev->regs.OUTEP_REGS[ep->num]->DOEPCTL;
 1630              		.loc 1 1501 0
 1631 044e 5D6D     		ldrne	r5, [r3, #84]	@ addr, pdev_31(D)->regs.OUTEP_REGS
 1632              	.LVL154:
 1633              	@ inc/user_libs/usb_core.c:1506:   depctl.d32 = USB_OTG_READ_REG32(addr);
1502:inc/user_libs/usb_core.c ****     daintmsk.ep.out = 1 << ep->num;
1503:inc/user_libs/usb_core.c ****   }
1504:inc/user_libs/usb_core.c ****   /* If the EP is already active don't change the EP Control
1505:inc/user_libs/usb_core.c ****   * register. */
1506:inc/user_libs/usb_core.c ****   depctl.d32 = USB_OTG_READ_REG32(addr);
 1634              		.loc 1 1506 0
 1635 0450 2B68     		ldr	r3, [r5]	@ depctl, *addr_24
 1636              	.LVL155:
 1637 0452 92B2     		uxth	r2, r2	@ _51, tmp137
 1638              	@ inc/user_libs/usb_core.c:1492:   daintmsk.d32 = 0;
1492:inc/user_libs/usb_core.c ****   /* Read DEPCTLn register */
ARM GAS  /tmp/ccQkqy1T.s 			page 58


 1639              		.loc 1 1492 0
 1640 0454 4FF00004 		mov	r4, #0	@ daintmsk,
 1641              	.LVL156:
 1642              	@ inc/user_libs/usb_core.c:1497:     daintmsk.ep.in = 1 << ep->num;
1497:inc/user_libs/usb_core.c ****     daintmsk.ep.in = 1 << ep->num;
 1643              		.loc 1 1497 0
 1644 0458 0CBF     		ite	eq
 1645 045a 62F30F04 		bfieq	r4, r2, #0, #16	@ daintmsk, _51,,
 1646              	.LVL157:
 1647              	@ inc/user_libs/usb_core.c:1502:     daintmsk.ep.out = 1 << ep->num;
1502:inc/user_libs/usb_core.c ****     daintmsk.ep.out = 1 << ep->num;
 1648              		.loc 1 1502 0
 1649 045e 62F31F44 		bfine	r4, r2, #16, #16	@ daintmsk, _51,,
 1650              	@ inc/user_libs/usb_core.c:1507:   if (!depctl.b.usbactep)
1507:inc/user_libs/usb_core.c ****   if (!depctl.b.usbactep)
 1651              		.loc 1 1507 0
 1652 0462 1A04     		lsls	r2, r3, #16	@, depctl,
 1653 0464 0DD4     		bmi	.L117	@,
 1654              	@ inc/user_libs/usb_core.c:1509:     depctl.b.mps    = ep->maxpacket;
1508:inc/user_libs/usb_core.c ****   {
1509:inc/user_libs/usb_core.c ****     depctl.b.mps    = ep->maxpacket;
 1655              		.loc 1 1509 0
 1656 0466 8A68     		ldr	r2, [r1, #8]	@ ep_30(D)->maxpacket, ep_30(D)->maxpacket
 1657 0468 62F30A03 		bfi	r3, r2, #0, #11	@ depctl, ep_30(D)->maxpacket,,
 1658              	@ inc/user_libs/usb_core.c:1510:     depctl.b.eptype = ep->type;
1510:inc/user_libs/usb_core.c ****     depctl.b.eptype = ep->type;
 1659              		.loc 1 1510 0
 1660 046c CA78     		ldrb	r2, [r1, #3]	@ zero_extendqisi2	@ ep_30(D)->type, ep_30(D)->type
 1661 046e 62F39343 		bfi	r3, r2, #18, #2	@ depctl, ep_30(D)->type,,
 1662              	@ inc/user_libs/usb_core.c:1511:     depctl.b.txfnum = ep->tx_fifo_num;
1511:inc/user_libs/usb_core.c ****     depctl.b.txfnum = ep->tx_fifo_num;
 1663              		.loc 1 1511 0
 1664 0472 CA88     		ldrh	r2, [r1, #6]	@ ep_30(D)->tx_fifo_num, ep_30(D)->tx_fifo_num
 1665 0474 62F39953 		bfi	r3, r2, #22, #4	@ depctl, ep_30(D)->tx_fifo_num,,
 1666              	@ inc/user_libs/usb_core.c:1513:     depctl.b.usbactep = 1;
1512:inc/user_libs/usb_core.c ****     depctl.b.setd0pid = 1;
1513:inc/user_libs/usb_core.c ****     depctl.b.usbactep = 1;
 1667              		.loc 1 1513 0
 1668 0478 43F08053 		orr	r3, r3, #268435456	@ depctl, depctl,
 1669              	.LVL158:
 1670 047c 43F40043 		orr	r3, r3, #32768	@ depctl, depctl,
 1671              	.LVL159:
 1672              	@ inc/user_libs/usb_core.c:1514:     USB_OTG_WRITE_REG32(addr, depctl.d32);
1514:inc/user_libs/usb_core.c ****     USB_OTG_WRITE_REG32(addr, depctl.d32);
 1673              		.loc 1 1514 0
 1674 0480 2B60     		str	r3, [r5]	@ depctl, *addr_24
 1675              	.L117:
 1676              	@ inc/user_libs/usb_core.c:1524:     USB_OTG_MODIFY_REG32(&pdev->regs.DREGS->DAINTMSK, 0, daintmsk.
1515:inc/user_libs/usb_core.c ****   }
1516:inc/user_libs/usb_core.c ****   /* Enable the Interrupt for this EP */
1517:inc/user_libs/usb_core.c **** #ifdef USB_OTG_HS_DEDICATED_EP1_ENABLED
1518:inc/user_libs/usb_core.c ****   if((ep->num == 1)&&(pdev->cfg.coreID == USB_OTG_HS_CORE_ID))
1519:inc/user_libs/usb_core.c ****   {
1520:inc/user_libs/usb_core.c ****     USB_OTG_MODIFY_REG32(&pdev->regs.DREGS->DEACHMSK, 0, daintmsk.d32);
1521:inc/user_libs/usb_core.c ****   }
1522:inc/user_libs/usb_core.c ****   else
1523:inc/user_libs/usb_core.c **** #endif   
ARM GAS  /tmp/ccQkqy1T.s 			page 59


1524:inc/user_libs/usb_core.c ****     USB_OTG_MODIFY_REG32(&pdev->regs.DREGS->DAINTMSK, 0, daintmsk.d32);
 1677              		.loc 1 1524 0
 1678 0482 0369     		ldr	r3, [r0, #16]	@ _20, pdev_31(D)->regs.DREGS
 1679              	.LVL160:
 1680 0484 DA69     		ldr	r2, [r3, #28]	@ _21, _20->DAINTMSK
 1681 0486 1443     		orrs	r4, r4, r2	@, _23, daintmsk, _21
 1682              	.LVL161:
 1683 0488 DC61     		str	r4, [r3, #28]	@ _23, _20->DAINTMSK
 1684              	@ inc/user_libs/usb_core.c:1526: }
1525:inc/user_libs/usb_core.c ****   return status;
1526:inc/user_libs/usb_core.c **** }
 1685              		.loc 1 1526 0
 1686 048a 0020     		movs	r0, #0	@,
 1687              	.LVL162:
 1688 048c 30BD     		pop	{r4, r5, pc}	@
 1689              		.cfi_endproc
 1690              	.LFE131:
 1691              		.size	USB_OTG_EPActivate, .-USB_OTG_EPActivate
 1692              		.align	1
 1693              		.global	USB_OTG_EPDeactivate
 1694              		.syntax unified
 1695              		.thumb
 1696              		.thumb_func
 1697              		.fpu softvfp
 1698              		.type	USB_OTG_EPDeactivate, %function
 1699              	USB_OTG_EPDeactivate:
 1700              	.LFB132:
1527:inc/user_libs/usb_core.c **** 
1528:inc/user_libs/usb_core.c **** 
1529:inc/user_libs/usb_core.c **** /**
1530:inc/user_libs/usb_core.c **** * @brief  USB_OTG_EPDeactivate : Deactivates an EP
1531:inc/user_libs/usb_core.c **** * @param  pdev : Selected device
1532:inc/user_libs/usb_core.c **** * @retval USB_OTG_STS : status
1533:inc/user_libs/usb_core.c **** */
1534:inc/user_libs/usb_core.c **** USB_OTG_STS USB_OTG_EPDeactivate(USB_OTG_CORE_HANDLE *pdev , USB_OTG_EP *ep)
1535:inc/user_libs/usb_core.c **** {
 1701              		.loc 1 1535 0
 1702              		.cfi_startproc
 1703              		@ args = 0, pretend = 0, frame = 0
 1704              		@ frame_needed = 0, uses_anonymous_args = 0
 1705              	.LVL163:
 1706 048e 30B5     		push	{r4, r5, lr}	@
 1707              	.LCFI14:
 1708              		.cfi_def_cfa_offset 12
 1709              		.cfi_offset 4, -12
 1710              		.cfi_offset 5, -8
 1711              		.cfi_offset 14, -4
 1712 0490 0B78     		ldrb	r3, [r1]	@ zero_extendqisi2	@ _35, ep_23(D)->num
 1713              	@ inc/user_libs/usb_core.c:1544:   if (ep->is_in == 1)
1536:inc/user_libs/usb_core.c ****   USB_OTG_STS status = USB_OTG_OK;
1537:inc/user_libs/usb_core.c ****   USB_OTG_DEPCTL_TypeDef  depctl;
1538:inc/user_libs/usb_core.c ****   USB_OTG_DAINT_TypeDef  daintmsk;
1539:inc/user_libs/usb_core.c ****   __IO uint32_t *addr;
1540:inc/user_libs/usb_core.c ****   
1541:inc/user_libs/usb_core.c ****   depctl.d32 = 0;
1542:inc/user_libs/usb_core.c ****   daintmsk.d32 = 0;  
1543:inc/user_libs/usb_core.c ****   /* Read DEPCTLn register */
ARM GAS  /tmp/ccQkqy1T.s 			page 60


1544:inc/user_libs/usb_core.c ****   if (ep->is_in == 1)
 1714              		.loc 1 1544 0
 1715 0492 4978     		ldrb	r1, [r1, #1]	@ zero_extendqisi2	@ ep_23(D)->is_in, ep_23(D)->is_in
 1716              	.LVL164:
 1717 0494 0122     		movs	r2, #1	@ tmp130,
 1718 0496 9A40     		lsls	r2, r2, r3	@ tmp129, tmp130, _35
 1719              	@ inc/user_libs/usb_core.c:1546:     addr = &pdev->regs.INEP_REGS[ep->num]->DIEPCTL;
1545:inc/user_libs/usb_core.c ****   {
1546:inc/user_libs/usb_core.c ****     addr = &pdev->regs.INEP_REGS[ep->num]->DIEPCTL;
 1720              		.loc 1 1546 0
 1721 0498 00EB8303 		add	r3, r0, r3, lsl #2	@ tmp133, pdev, _35,
 1722              	@ inc/user_libs/usb_core.c:1544:   if (ep->is_in == 1)
1544:inc/user_libs/usb_core.c ****   {
 1723              		.loc 1 1544 0
 1724 049c 0129     		cmp	r1, #1	@ ep_23(D)->is_in,
 1725              	@ inc/user_libs/usb_core.c:1541:   depctl.d32 = 0;
1541:inc/user_libs/usb_core.c ****   daintmsk.d32 = 0;  
 1726              		.loc 1 1541 0
 1727 049e 4FF00005 		mov	r5, #0	@ depctl,
 1728              	.LVL165:
 1729              	@ inc/user_libs/usb_core.c:1542:   daintmsk.d32 = 0;  
1542:inc/user_libs/usb_core.c ****   /* Read DEPCTLn register */
 1730              		.loc 1 1542 0
 1731 04a2 2C46     		mov	r4, r5	@ daintmsk, depctl
 1732              	.LVL166:
 1733              	@ inc/user_libs/usb_core.c:1546:     addr = &pdev->regs.INEP_REGS[ep->num]->DIEPCTL;
 1734              		.loc 1 1546 0
 1735 04a4 0CBF     		ite	eq
 1736 04a6 9B69     		ldreq	r3, [r3, #24]	@ addr, pdev_24(D)->regs.INEP_REGS
 1737              	.LVL167:
 1738              	@ inc/user_libs/usb_core.c:1551:     addr = &pdev->regs.OUTEP_REGS[ep->num]->DOEPCTL;
1547:inc/user_libs/usb_core.c ****     daintmsk.ep.in = 1 << ep->num;
1548:inc/user_libs/usb_core.c ****   }
1549:inc/user_libs/usb_core.c ****   else
1550:inc/user_libs/usb_core.c ****   {
1551:inc/user_libs/usb_core.c ****     addr = &pdev->regs.OUTEP_REGS[ep->num]->DOEPCTL;
 1739              		.loc 1 1551 0
 1740 04a8 5B6D     		ldrne	r3, [r3, #84]	@ addr, pdev_24(D)->regs.OUTEP_REGS
 1741              	.LVL168:
 1742 04aa 92B2     		uxth	r2, r2	@ _39, tmp129
 1743              	@ inc/user_libs/usb_core.c:1547:     daintmsk.ep.in = 1 << ep->num;
1547:inc/user_libs/usb_core.c ****     daintmsk.ep.in = 1 << ep->num;
 1744              		.loc 1 1547 0
 1745 04ac 0CBF     		ite	eq
 1746 04ae 62F30F04 		bfieq	r4, r2, #0, #16	@ daintmsk, _39,,
 1747              	.LVL169:
 1748              	@ inc/user_libs/usb_core.c:1552:     daintmsk.ep.out = 1 << ep->num;
1552:inc/user_libs/usb_core.c ****     daintmsk.ep.out = 1 << ep->num;
 1749              		.loc 1 1552 0
 1750 04b2 62F31F44 		bfine	r4, r2, #16, #16	@ daintmsk, _39,,
 1751              	@ inc/user_libs/usb_core.c:1554:   depctl.b.usbactep = 0;
1553:inc/user_libs/usb_core.c ****   }
1554:inc/user_libs/usb_core.c ****   depctl.b.usbactep = 0;
 1752              		.loc 1 1554 0
 1753 04b6 6FF3CF35 		bfc	r5, #15, #1	@ depctl,,
 1754              	@ inc/user_libs/usb_core.c:1565:     USB_OTG_MODIFY_REG32(&pdev->regs.DREGS->DAINTMSK, daintmsk.d32
1555:inc/user_libs/usb_core.c ****   USB_OTG_WRITE_REG32(addr, depctl.d32);
ARM GAS  /tmp/ccQkqy1T.s 			page 61


1556:inc/user_libs/usb_core.c ****   /* Disable the Interrupt for this EP */
1557:inc/user_libs/usb_core.c ****   
1558:inc/user_libs/usb_core.c **** #ifdef USB_OTG_HS_DEDICATED_EP1_ENABLED
1559:inc/user_libs/usb_core.c ****   if((ep->num == 1)&&(pdev->cfg.coreID == USB_OTG_HS_CORE_ID))
1560:inc/user_libs/usb_core.c ****   {
1561:inc/user_libs/usb_core.c ****     USB_OTG_MODIFY_REG32(&pdev->regs.DREGS->DEACHMSK, daintmsk.d32, 0);
1562:inc/user_libs/usb_core.c ****   }
1563:inc/user_libs/usb_core.c ****   else
1564:inc/user_libs/usb_core.c **** #endif    
1565:inc/user_libs/usb_core.c ****     USB_OTG_MODIFY_REG32(&pdev->regs.DREGS->DAINTMSK, daintmsk.d32, 0);
 1755              		.loc 1 1565 0
 1756 04ba 0269     		ldr	r2, [r0, #16]	@ _13, pdev_24(D)->regs.DREGS
 1757              	@ inc/user_libs/usb_core.c:1555:   USB_OTG_WRITE_REG32(addr, depctl.d32);
1555:inc/user_libs/usb_core.c ****   USB_OTG_WRITE_REG32(addr, depctl.d32);
 1758              		.loc 1 1555 0
 1759 04bc 1D60     		str	r5, [r3]	@ depctl, *addr_18
 1760              	@ inc/user_libs/usb_core.c:1565:     USB_OTG_MODIFY_REG32(&pdev->regs.DREGS->DAINTMSK, daintmsk.d32
 1761              		.loc 1 1565 0
 1762 04be D369     		ldr	r3, [r2, #28]	@ _14, _13->DAINTMSK
 1763              	.LVL170:
 1764 04c0 23EA0403 		bic	r3, r3, r4	@ _17, _14, daintmsk
 1765 04c4 D361     		str	r3, [r2, #28]	@ _17, _13->DAINTMSK
 1766              	@ inc/user_libs/usb_core.c:1567: }
1566:inc/user_libs/usb_core.c ****   return status;
1567:inc/user_libs/usb_core.c **** }
 1767              		.loc 1 1567 0
 1768 04c6 0020     		movs	r0, #0	@,
 1769              	.LVL171:
 1770 04c8 30BD     		pop	{r4, r5, pc}	@
 1771              		.cfi_endproc
 1772              	.LFE132:
 1773              		.size	USB_OTG_EPDeactivate, .-USB_OTG_EPDeactivate
 1774              		.align	1
 1775              		.global	USB_OTG_EPStartXfer
 1776              		.syntax unified
 1777              		.thumb
 1778              		.thumb_func
 1779              		.fpu softvfp
 1780              		.type	USB_OTG_EPStartXfer, %function
 1781              	USB_OTG_EPStartXfer:
 1782              	.LFB133:
1568:inc/user_libs/usb_core.c **** 
1569:inc/user_libs/usb_core.c **** 
1570:inc/user_libs/usb_core.c **** /**
1571:inc/user_libs/usb_core.c **** * @brief  USB_OTG_EPStartXfer : Handle the setup for data xfer for an EP and 
1572:inc/user_libs/usb_core.c **** *         starts the xfer
1573:inc/user_libs/usb_core.c **** * @param  pdev : Selected device
1574:inc/user_libs/usb_core.c **** * @retval USB_OTG_STS : status
1575:inc/user_libs/usb_core.c **** */
1576:inc/user_libs/usb_core.c **** USB_OTG_STS USB_OTG_EPStartXfer(USB_OTG_CORE_HANDLE *pdev , USB_OTG_EP *ep)
1577:inc/user_libs/usb_core.c **** {
 1783              		.loc 1 1577 0
 1784              		.cfi_startproc
 1785              		@ args = 0, pretend = 0, frame = 0
 1786              		@ frame_needed = 0, uses_anonymous_args = 0
 1787              	.LVL172:
 1788 04ca F8B5     		push	{r3, r4, r5, r6, r7, lr}	@
ARM GAS  /tmp/ccQkqy1T.s 			page 62


 1789              	.LCFI15:
 1790              		.cfi_def_cfa_offset 24
 1791              		.cfi_offset 3, -24
 1792              		.cfi_offset 4, -20
 1793              		.cfi_offset 5, -16
 1794              		.cfi_offset 6, -12
 1795              		.cfi_offset 7, -8
 1796              		.cfi_offset 14, -4
 1797              	@ inc/user_libs/usb_core.c:1587:   if (ep->is_in == 1)
1578:inc/user_libs/usb_core.c ****   USB_OTG_STS status = USB_OTG_OK;
1579:inc/user_libs/usb_core.c ****   USB_OTG_DEPCTL_TypeDef     depctl;
1580:inc/user_libs/usb_core.c ****   USB_OTG_DEPXFRSIZ_TypeDef  deptsiz;
1581:inc/user_libs/usb_core.c ****   USB_OTG_DSTS_TypeDef       dsts;    
1582:inc/user_libs/usb_core.c ****   uint32_t fifoemptymsk = 0;  
1583:inc/user_libs/usb_core.c ****   
1584:inc/user_libs/usb_core.c ****   depctl.d32 = 0;
1585:inc/user_libs/usb_core.c ****   deptsiz.d32 = 0;
1586:inc/user_libs/usb_core.c ****   /* IN endpoint */
1587:inc/user_libs/usb_core.c ****   if (ep->is_in == 1)
 1798              		.loc 1 1587 0
 1799 04cc 91F801C0 		ldrb	ip, [r1, #1]	@ zero_extendqisi2	@ ep_69(D)->is_in, ep_69(D)->is_in
 1800 04d0 0A78     		ldrb	r2, [r1]	@ zero_extendqisi2	@ pretmp_121, ep_69(D)->num
 1801 04d2 4B69     		ldr	r3, [r1, #20]	@ pretmp_120, ep_69(D)->xfer_len
 1802 04d4 CE78     		ldrb	r6, [r1, #3]	@ zero_extendqisi2	@ pretmp_116, ep_69(D)->type
 1803 04d6 BCF1010F 		cmp	ip, #1	@ ep_69(D)->is_in,
 1804 04da 41D1     		bne	.L122	@,
 1805              	@ inc/user_libs/usb_core.c:1589:     depctl.d32  = USB_OTG_READ_REG32(&(pdev->regs.INEP_REGS[ep->nu
1588:inc/user_libs/usb_core.c ****   {
1589:inc/user_libs/usb_core.c ****     depctl.d32  = USB_OTG_READ_REG32(&(pdev->regs.INEP_REGS[ep->num]->DIEPCTL));
 1806              		.loc 1 1589 0
 1807 04dc 00EB8204 		add	r4, r0, r2, lsl #2	@ tmp165, pdev, pretmp_121,
 1808 04e0 A769     		ldr	r7, [r4, #24]	@ _4, pdev_70(D)->regs.INEP_REGS
 1809 04e2 3C68     		ldr	r4, [r7]	@ depctl, _4->DIEPCTL
 1810              	.LVL173:
 1811              	@ inc/user_libs/usb_core.c:1590:     deptsiz.d32 = USB_OTG_READ_REG32(&(pdev->regs.INEP_REGS[ep->nu
1590:inc/user_libs/usb_core.c ****     deptsiz.d32 = USB_OTG_READ_REG32(&(pdev->regs.INEP_REGS[ep->num]->DIEPTSIZ));
 1812              		.loc 1 1590 0
 1813 04e4 3D69     		ldr	r5, [r7, #16]	@ deptsiz, _4->DIEPTSIZ
 1814              	.LVL174:
 1815              	@ inc/user_libs/usb_core.c:1594:       deptsiz.b.xfersize = 0;
1591:inc/user_libs/usb_core.c ****     /* Zero Length Packet? */
1592:inc/user_libs/usb_core.c ****     if (ep->xfer_len == 0)
1593:inc/user_libs/usb_core.c ****     {
1594:inc/user_libs/usb_core.c ****       deptsiz.b.xfersize = 0;
 1816              		.loc 1 1594 0
 1817 04e6 63F31205 		bfi	r5, r3, #0, #19	@ deptsiz, pretmp_120,,
 1818              	@ inc/user_libs/usb_core.c:1592:     if (ep->xfer_len == 0)
1592:inc/user_libs/usb_core.c ****     {
 1819              		.loc 1 1592 0
 1820 04ea 93B9     		cbnz	r3, .L123	@ pretmp_120,
 1821              	@ inc/user_libs/usb_core.c:1595:       deptsiz.b.pktcnt = 1;
1595:inc/user_libs/usb_core.c ****       deptsiz.b.pktcnt = 1;
 1822              		.loc 1 1595 0
 1823 04ec 6CF3DC45 		bfi	r5, ip, #19, #10	@ deptsiz, ep_69(D)->is_in,,
 1824              	.L124:
 1825              	@ inc/user_libs/usb_core.c:1612:     USB_OTG_WRITE_REG32(&pdev->regs.INEP_REGS[ep->num]->DIEPTSIZ, 
1596:inc/user_libs/usb_core.c ****     }
ARM GAS  /tmp/ccQkqy1T.s 			page 63


1597:inc/user_libs/usb_core.c ****     else
1598:inc/user_libs/usb_core.c ****     {
1599:inc/user_libs/usb_core.c ****       /* Program the transfer size and packet count
1600:inc/user_libs/usb_core.c ****       * as follows: xfersize = N * maxpacket +
1601:inc/user_libs/usb_core.c ****       * short_packet pktcnt = N + (short_packet
1602:inc/user_libs/usb_core.c ****       * exist ? 1 : 0)
1603:inc/user_libs/usb_core.c ****       */
1604:inc/user_libs/usb_core.c ****       deptsiz.b.xfersize = ep->xfer_len;
1605:inc/user_libs/usb_core.c ****       deptsiz.b.pktcnt = (ep->xfer_len - 1 + ep->maxpacket) / ep->maxpacket;
1606:inc/user_libs/usb_core.c ****       
1607:inc/user_libs/usb_core.c ****       if (ep->type == EP_TYPE_ISOC)
1608:inc/user_libs/usb_core.c ****       {
1609:inc/user_libs/usb_core.c ****         deptsiz.b.mc = 1;
1610:inc/user_libs/usb_core.c ****       }       
1611:inc/user_libs/usb_core.c ****     }
1612:inc/user_libs/usb_core.c ****     USB_OTG_WRITE_REG32(&pdev->regs.INEP_REGS[ep->num]->DIEPTSIZ, deptsiz.d32);
 1826              		.loc 1 1612 0
 1827 04f0 3D61     		str	r5, [r7, #16]	@ deptsiz, _4->DIEPTSIZ
 1828              	@ inc/user_libs/usb_core.c:1614:     if (pdev->cfg.dma_enable == 1)
1613:inc/user_libs/usb_core.c ****     
1614:inc/user_libs/usb_core.c ****     if (pdev->cfg.dma_enable == 1)
 1829              		.loc 1 1614 0
 1830 04f2 C578     		ldrb	r5, [r0, #3]	@ zero_extendqisi2	@ pdev_70(D)->cfg.dma_enable, pdev_70(D)->cfg.dma_enable
 1831              	.LVL175:
 1832 04f4 012D     		cmp	r5, #1	@ pdev_70(D)->cfg.dma_enable,
 1833 04f6 1BD1     		bne	.L125	@,
 1834              	@ inc/user_libs/usb_core.c:1616:       USB_OTG_WRITE_REG32(&pdev->regs.INEP_REGS[ep->num]->DIEPDMA,
1615:inc/user_libs/usb_core.c ****     {
1616:inc/user_libs/usb_core.c ****       USB_OTG_WRITE_REG32(&pdev->regs.INEP_REGS[ep->num]->DIEPDMA, ep->dma_addr);
 1835              		.loc 1 1616 0
 1836 04f8 0D69     		ldr	r5, [r1, #16]	@ _20, ep_69(D)->dma_addr
 1837 04fa 7D61     		str	r5, [r7, #20]	@ _20, _4->DIEPDMA
 1838              	@ inc/user_libs/usb_core.c:1632:     if (ep->type == EP_TYPE_ISOC)
1617:inc/user_libs/usb_core.c ****     }
1618:inc/user_libs/usb_core.c ****     else
1619:inc/user_libs/usb_core.c ****     {
1620:inc/user_libs/usb_core.c ****       if (ep->type != EP_TYPE_ISOC)
1621:inc/user_libs/usb_core.c ****       {
1622:inc/user_libs/usb_core.c ****         /* Enable the Tx FIFO Empty Interrupt for this EP */
1623:inc/user_libs/usb_core.c ****         if (ep->xfer_len > 0)
1624:inc/user_libs/usb_core.c ****         {
1625:inc/user_libs/usb_core.c ****           fifoemptymsk = 1 << ep->num;
1626:inc/user_libs/usb_core.c ****           USB_OTG_MODIFY_REG32(&pdev->regs.DREGS->DIEPEMPMSK, 0, fifoemptymsk);
1627:inc/user_libs/usb_core.c ****         }
1628:inc/user_libs/usb_core.c ****       }
1629:inc/user_libs/usb_core.c ****     }
1630:inc/user_libs/usb_core.c ****     
1631:inc/user_libs/usb_core.c ****     
1632:inc/user_libs/usb_core.c ****     if (ep->type == EP_TYPE_ISOC)
 1839              		.loc 1 1632 0
 1840 04fc 012E     		cmp	r6, #1	@ pretmp_116,
 1841 04fe 24D1     		bne	.L127	@,
 1842              	.L126:
 1843              	@ inc/user_libs/usb_core.c:1634:       dsts.d32 = USB_OTG_READ_REG32(&pdev->regs.DREGS->DSTS);
1633:inc/user_libs/usb_core.c ****     {
1634:inc/user_libs/usb_core.c ****       dsts.d32 = USB_OTG_READ_REG32(&pdev->regs.DREGS->DSTS);
 1844              		.loc 1 1634 0
ARM GAS  /tmp/ccQkqy1T.s 			page 64


 1845 0500 0569     		ldr	r5, [r0, #16]	@ _28, pdev_70(D)->regs.DREGS
 1846 0502 AD68     		ldr	r5, [r5, #8]	@ _29, _28->DSTS
 1847              	@ inc/user_libs/usb_core.c:1636:       if (((dsts.b.soffn)&0x1) == 0)
1635:inc/user_libs/usb_core.c ****       
1636:inc/user_libs/usb_core.c ****       if (((dsts.b.soffn)&0x1) == 0)
 1848              		.loc 1 1636 0
 1849 0504 ED05     		lsls	r5, r5, #23	@, _29,
 1850              	@ inc/user_libs/usb_core.c:1638:         depctl.b.setd1pid = 1;
1637:inc/user_libs/usb_core.c ****       {
1638:inc/user_libs/usb_core.c ****         depctl.b.setd1pid = 1;
 1851              		.loc 1 1638 0
 1852 0506 54BF     		ite	pl
 1853 0508 44F00054 		orrpl	r4, r4, #536870912	@ depctl, depctl,
 1854              	.LVL176:
 1855              	@ inc/user_libs/usb_core.c:1642:         depctl.b.setd0pid = 1;
1639:inc/user_libs/usb_core.c ****       }
1640:inc/user_libs/usb_core.c ****       else
1641:inc/user_libs/usb_core.c ****       {
1642:inc/user_libs/usb_core.c ****         depctl.b.setd0pid = 1;
 1856              		.loc 1 1642 0
 1857 050c 44F08054 		orrmi	r4, r4, #268435456	@ depctl, depctl,
 1858              	.LVL177:
 1859 0510 1BE0     		b	.L127	@
 1860              	.LVL178:
 1861              	.L123:
 1862              	@ inc/user_libs/usb_core.c:1605:       deptsiz.b.pktcnt = (ep->xfer_len - 1 + ep->maxpacket) / ep->
1605:inc/user_libs/usb_core.c ****       
 1863              		.loc 1 1605 0
 1864 0512 D1F808E0 		ldr	lr, [r1, #8]	@ _9, ep_69(D)->maxpacket
 1865 0516 0EEB030C 		add	ip, lr, r3	@ tmp168, _9, pretmp_120
 1866 051a 0CF1FF3C 		add	ip, ip, #-1	@ tmp169, tmp168,
 1867              	@ inc/user_libs/usb_core.c:1607:       if (ep->type == EP_TYPE_ISOC)
1607:inc/user_libs/usb_core.c ****       {
 1868              		.loc 1 1607 0
 1869 051e 012E     		cmp	r6, #1	@ pretmp_116,
 1870              	@ inc/user_libs/usb_core.c:1605:       deptsiz.b.pktcnt = (ep->xfer_len - 1 + ep->maxpacket) / ep->
1605:inc/user_libs/usb_core.c ****       
 1871              		.loc 1 1605 0
 1872 0520 BCFBFEFC 		udiv	ip, ip, lr	@ tmp171, tmp169, _9
 1873 0524 6CF3DC45 		bfi	r5, ip, #19, #10	@ deptsiz, tmp171,,
 1874              	@ inc/user_libs/usb_core.c:1609:         deptsiz.b.mc = 1;
1609:inc/user_libs/usb_core.c ****       }       
 1875              		.loc 1 1609 0
 1876 0528 08BF     		it	eq
 1877 052a 66F35E75 		bfieq	r5, r6, #29, #2	@ deptsiz, pretmp_116,,
 1878 052e DFE7     		b	.L124	@
 1879              	.LVL179:
 1880              	.L125:
 1881              	@ inc/user_libs/usb_core.c:1620:       if (ep->type != EP_TYPE_ISOC)
1620:inc/user_libs/usb_core.c ****       {
 1882              		.loc 1 1620 0
 1883 0530 012E     		cmp	r6, #1	@ pretmp_116,
 1884 0532 E5D0     		beq	.L126	@,
 1885              	@ inc/user_libs/usb_core.c:1623:         if (ep->xfer_len > 0)
1623:inc/user_libs/usb_core.c ****         {
 1886              		.loc 1 1623 0
 1887 0534 4BB1     		cbz	r3, .L127	@ pretmp_120,
ARM GAS  /tmp/ccQkqy1T.s 			page 65


 1888              	.LVL180:
 1889              	@ inc/user_libs/usb_core.c:1626:           USB_OTG_MODIFY_REG32(&pdev->regs.DREGS->DIEPEMPMSK, 0, f
1626:inc/user_libs/usb_core.c ****         }
 1890              		.loc 1 1626 0
 1891 0536 D0F810C0 		ldr	ip, [r0, #16]	@ _24, pdev_70(D)->regs.DREGS
 1892              	@ inc/user_libs/usb_core.c:1625:           fifoemptymsk = 1 << ep->num;
1625:inc/user_libs/usb_core.c ****           USB_OTG_MODIFY_REG32(&pdev->regs.DREGS->DIEPEMPMSK, 0, fifoemptymsk);
 1893              		.loc 1 1625 0
 1894 053a 0125     		movs	r5, #1	@ tmp176,
 1895              	@ inc/user_libs/usb_core.c:1626:           USB_OTG_MODIFY_REG32(&pdev->regs.DREGS->DIEPEMPMSK, 0, f
1626:inc/user_libs/usb_core.c ****         }
 1896              		.loc 1 1626 0
 1897 053c DCF834E0 		ldr	lr, [ip, #52]	@ _25, _24->DIEPEMPMSK
 1898              	@ inc/user_libs/usb_core.c:1625:           fifoemptymsk = 1 << ep->num;
1625:inc/user_libs/usb_core.c ****           USB_OTG_MODIFY_REG32(&pdev->regs.DREGS->DIEPEMPMSK, 0, fifoemptymsk);
 1899              		.loc 1 1625 0
 1900 0540 9540     		lsls	r5, r5, r2	@ fifoemptymsk, tmp176, pretmp_121
 1901              	.LVL181:
 1902              	@ inc/user_libs/usb_core.c:1626:           USB_OTG_MODIFY_REG32(&pdev->regs.DREGS->DIEPEMPMSK, 0, f
1626:inc/user_libs/usb_core.c ****         }
 1903              		.loc 1 1626 0
 1904 0542 45EA0E05 		orr	r5, r5, lr	@ _26, fifoemptymsk, _25
 1905              	.LVL182:
 1906 0546 CCF83450 		str	r5, [ip, #52]	@ _26, _24->DIEPEMPMSK
 1907              	.LVL183:
 1908              	.L127:
 1909              	@ inc/user_libs/usb_core.c:1648:     depctl.b.epena = 1;
1643:inc/user_libs/usb_core.c ****       }
1644:inc/user_libs/usb_core.c ****     } 
1645:inc/user_libs/usb_core.c ****     
1646:inc/user_libs/usb_core.c ****     /* EP enable, IN data in FIFO */
1647:inc/user_libs/usb_core.c ****     depctl.b.cnak = 1;
1648:inc/user_libs/usb_core.c ****     depctl.b.epena = 1;
 1910              		.loc 1 1648 0
 1911 054a 44F00444 		orr	r4, r4, #-2080374784	@ depctl, depctl,
 1912              	.LVL184:
 1913              	@ inc/user_libs/usb_core.c:1651:     if (ep->type == EP_TYPE_ISOC)
1649:inc/user_libs/usb_core.c ****     USB_OTG_WRITE_REG32(&pdev->regs.INEP_REGS[ep->num]->DIEPCTL, depctl.d32);
1650:inc/user_libs/usb_core.c ****     
1651:inc/user_libs/usb_core.c ****     if (ep->type == EP_TYPE_ISOC)
 1914              		.loc 1 1651 0
 1915 054e 012E     		cmp	r6, #1	@ pretmp_116,
 1916              	.LVL185:
 1917              	@ inc/user_libs/usb_core.c:1649:     USB_OTG_WRITE_REG32(&pdev->regs.INEP_REGS[ep->num]->DIEPCTL, d
1649:inc/user_libs/usb_core.c ****     USB_OTG_WRITE_REG32(&pdev->regs.INEP_REGS[ep->num]->DIEPCTL, depctl.d32);
 1918              		.loc 1 1649 0
 1919 0550 3C60     		str	r4, [r7]	@ depctl, _4->DIEPCTL
 1920              	@ inc/user_libs/usb_core.c:1651:     if (ep->type == EP_TYPE_ISOC)
 1921              		.loc 1 1651 0
 1922 0552 03D1     		bne	.L130	@,
 1923              	@ inc/user_libs/usb_core.c:1653:       USB_OTG_WritePacket(pdev, ep->xfer_buff, ep->num, ep->xfer_l
1652:inc/user_libs/usb_core.c ****     {
1653:inc/user_libs/usb_core.c ****       USB_OTG_WritePacket(pdev, ep->xfer_buff, ep->num, ep->xfer_len);   
 1924              		.loc 1 1653 0
 1925 0554 9BB2     		uxth	r3, r3	@, pretmp_120
 1926 0556 C968     		ldr	r1, [r1, #12]	@, ep_69(D)->xfer_buff
 1927              	.LVL186:
ARM GAS  /tmp/ccQkqy1T.s 			page 66


 1928 0558 FFF7FEFF 		bl	USB_OTG_WritePacket	@
 1929              	.LVL187:
 1930              	.L130:
 1931              	@ inc/user_libs/usb_core.c:1699: }
1654:inc/user_libs/usb_core.c ****     }    
1655:inc/user_libs/usb_core.c ****   }
1656:inc/user_libs/usb_core.c ****   else
1657:inc/user_libs/usb_core.c ****   {
1658:inc/user_libs/usb_core.c ****     /* OUT endpoint */
1659:inc/user_libs/usb_core.c ****     depctl.d32  = USB_OTG_READ_REG32(&(pdev->regs.OUTEP_REGS[ep->num]->DOEPCTL));
1660:inc/user_libs/usb_core.c ****     deptsiz.d32 = USB_OTG_READ_REG32(&(pdev->regs.OUTEP_REGS[ep->num]->DOEPTSIZ));
1661:inc/user_libs/usb_core.c ****     /* Program the transfer size and packet count as follows:
1662:inc/user_libs/usb_core.c ****     * pktcnt = N
1663:inc/user_libs/usb_core.c ****     * xfersize = N * maxpacket
1664:inc/user_libs/usb_core.c ****     */
1665:inc/user_libs/usb_core.c ****     if (ep->xfer_len == 0)
1666:inc/user_libs/usb_core.c ****     {
1667:inc/user_libs/usb_core.c ****       deptsiz.b.xfersize = ep->maxpacket;
1668:inc/user_libs/usb_core.c ****       deptsiz.b.pktcnt = 1;
1669:inc/user_libs/usb_core.c ****     }
1670:inc/user_libs/usb_core.c ****     else
1671:inc/user_libs/usb_core.c ****     {
1672:inc/user_libs/usb_core.c ****       deptsiz.b.pktcnt = (ep->xfer_len + (ep->maxpacket - 1)) / ep->maxpacket;
1673:inc/user_libs/usb_core.c ****       deptsiz.b.xfersize = deptsiz.b.pktcnt * ep->maxpacket;
1674:inc/user_libs/usb_core.c ****     }
1675:inc/user_libs/usb_core.c ****     USB_OTG_WRITE_REG32(&pdev->regs.OUTEP_REGS[ep->num]->DOEPTSIZ, deptsiz.d32);
1676:inc/user_libs/usb_core.c ****     
1677:inc/user_libs/usb_core.c ****     if (pdev->cfg.dma_enable == 1)
1678:inc/user_libs/usb_core.c ****     {
1679:inc/user_libs/usb_core.c ****       USB_OTG_WRITE_REG32(&pdev->regs.OUTEP_REGS[ep->num]->DOEPDMA, ep->dma_addr);
1680:inc/user_libs/usb_core.c ****     }
1681:inc/user_libs/usb_core.c ****     
1682:inc/user_libs/usb_core.c ****     if (ep->type == EP_TYPE_ISOC)
1683:inc/user_libs/usb_core.c ****     {
1684:inc/user_libs/usb_core.c ****       if (ep->even_odd_frame)
1685:inc/user_libs/usb_core.c ****       {
1686:inc/user_libs/usb_core.c ****         depctl.b.setd1pid = 1;
1687:inc/user_libs/usb_core.c ****       }
1688:inc/user_libs/usb_core.c ****       else
1689:inc/user_libs/usb_core.c ****       {
1690:inc/user_libs/usb_core.c ****         depctl.b.setd0pid = 1;
1691:inc/user_libs/usb_core.c ****       }
1692:inc/user_libs/usb_core.c ****     }
1693:inc/user_libs/usb_core.c ****     /* EP enable */
1694:inc/user_libs/usb_core.c ****     depctl.b.cnak = 1;
1695:inc/user_libs/usb_core.c ****     depctl.b.epena = 1;
1696:inc/user_libs/usb_core.c ****     USB_OTG_WRITE_REG32(&pdev->regs.OUTEP_REGS[ep->num]->DOEPCTL, depctl.d32);
1697:inc/user_libs/usb_core.c ****   }
1698:inc/user_libs/usb_core.c ****   return status;
1699:inc/user_libs/usb_core.c **** }
 1932              		.loc 1 1699 0
 1933 055c 0020     		movs	r0, #0	@,
 1934 055e F8BD     		pop	{r3, r4, r5, r6, r7, pc}	@
 1935              	.LVL188:
 1936              	.L122:
 1937              	@ inc/user_libs/usb_core.c:1659:     depctl.d32  = USB_OTG_READ_REG32(&(pdev->regs.OUTEP_REGS[ep->n
1659:inc/user_libs/usb_core.c ****     deptsiz.d32 = USB_OTG_READ_REG32(&(pdev->regs.OUTEP_REGS[ep->num]->DOEPTSIZ));
ARM GAS  /tmp/ccQkqy1T.s 			page 67


 1938              		.loc 1 1659 0
 1939 0560 00EB8202 		add	r2, r0, r2, lsl #2	@ tmp188, pdev, pretmp_121,
 1940 0564 D1F808C0 		ldr	ip, [r1, #8]	@ pretmp_112, ep_69(D)->maxpacket
 1941 0568 526D     		ldr	r2, [r2, #84]	@ _37, pdev_70(D)->regs.OUTEP_REGS
 1942 056a CCF31207 		ubfx	r7, ip, #0, #19	@ _119, pretmp_112,,
 1943 056e 1468     		ldr	r4, [r2]	@ depctl, _37->DOEPCTL
 1944              	.LVL189:
 1945              	@ inc/user_libs/usb_core.c:1660:     deptsiz.d32 = USB_OTG_READ_REG32(&(pdev->regs.OUTEP_REGS[ep->n
1660:inc/user_libs/usb_core.c ****     /* Program the transfer size and packet count as follows:
 1946              		.loc 1 1660 0
 1947 0570 1569     		ldr	r5, [r2, #16]	@ deptsiz, _37->DOEPTSIZ
 1948              	.LVL190:
 1949              	@ inc/user_libs/usb_core.c:1665:     if (ep->xfer_len == 0)
1665:inc/user_libs/usb_core.c ****     {
 1950              		.loc 1 1665 0
 1951 0572 A3B9     		cbnz	r3, .L131	@ pretmp_120,
 1952              	@ inc/user_libs/usb_core.c:1667:       deptsiz.b.xfersize = ep->maxpacket;
1667:inc/user_libs/usb_core.c ****       deptsiz.b.pktcnt = 1;
 1953              		.loc 1 1667 0
 1954 0574 67F31205 		bfi	r5, r7, #0, #19	@ deptsiz, _119,,
 1955              	@ inc/user_libs/usb_core.c:1668:       deptsiz.b.pktcnt = 1;
1668:inc/user_libs/usb_core.c ****     }
 1956              		.loc 1 1668 0
 1957 0578 0123     		movs	r3, #1	@ tmp191,
 1958 057a 63F3DC45 		bfi	r5, r3, #19, #10	@ deptsiz, tmp191,,
 1959              	.L132:
 1960              	@ inc/user_libs/usb_core.c:1675:     USB_OTG_WRITE_REG32(&pdev->regs.OUTEP_REGS[ep->num]->DOEPTSIZ,
1675:inc/user_libs/usb_core.c ****     
 1961              		.loc 1 1675 0
 1962 057e 1561     		str	r5, [r2, #16]	@ deptsiz, _37->DOEPTSIZ
 1963              	@ inc/user_libs/usb_core.c:1677:     if (pdev->cfg.dma_enable == 1)
1677:inc/user_libs/usb_core.c ****     {
 1964              		.loc 1 1677 0
 1965 0580 C378     		ldrb	r3, [r0, #3]	@ zero_extendqisi2	@ pdev_70(D)->cfg.dma_enable, pdev_70(D)->cfg.dma_enable
 1966 0582 012B     		cmp	r3, #1	@ pdev_70(D)->cfg.dma_enable,
 1967              	@ inc/user_libs/usb_core.c:1679:       USB_OTG_WRITE_REG32(&pdev->regs.OUTEP_REGS[ep->num]->DOEPDMA
1679:inc/user_libs/usb_core.c ****     }
 1968              		.loc 1 1679 0
 1969 0584 04BF     		itt	eq
 1970 0586 0B69     		ldreq	r3, [r1, #16]	@ _56, ep_69(D)->dma_addr
 1971 0588 5361     		streq	r3, [r2, #20]	@ _56, _37->DOEPDMA
 1972              	@ inc/user_libs/usb_core.c:1682:     if (ep->type == EP_TYPE_ISOC)
1682:inc/user_libs/usb_core.c ****     {
 1973              		.loc 1 1682 0
 1974 058a 012E     		cmp	r6, #1	@ pretmp_116,
 1975 058c 03D1     		bne	.L134	@,
 1976              	@ inc/user_libs/usb_core.c:1684:       if (ep->even_odd_frame)
1684:inc/user_libs/usb_core.c ****       {
 1977              		.loc 1 1684 0
 1978 058e 4B79     		ldrb	r3, [r1, #5]	@ zero_extendqisi2	@ ep_69(D)->even_odd_frame, ep_69(D)->even_odd_frame
 1979 0590 8BB1     		cbz	r3, .L135	@ ep_69(D)->even_odd_frame,
 1980              	@ inc/user_libs/usb_core.c:1686:         depctl.b.setd1pid = 1;
1686:inc/user_libs/usb_core.c ****       }
 1981              		.loc 1 1686 0
 1982 0592 44F00054 		orr	r4, r4, #536870912	@ depctl, depctl,
 1983              	.LVL191:
 1984              	.L134:
ARM GAS  /tmp/ccQkqy1T.s 			page 68


 1985              	@ inc/user_libs/usb_core.c:1695:     depctl.b.epena = 1;
1695:inc/user_libs/usb_core.c ****     USB_OTG_WRITE_REG32(&pdev->regs.OUTEP_REGS[ep->num]->DOEPCTL, depctl.d32);
 1986              		.loc 1 1695 0
 1987 0596 44F00444 		orr	r4, r4, #-2080374784	@ depctl, depctl,
 1988              	.LVL192:
 1989              	@ inc/user_libs/usb_core.c:1696:     USB_OTG_WRITE_REG32(&pdev->regs.OUTEP_REGS[ep->num]->DOEPCTL, 
1696:inc/user_libs/usb_core.c ****   }
 1990              		.loc 1 1696 0
 1991 059a 1460     		str	r4, [r2]	@ depctl, _37->DOEPCTL
 1992 059c DEE7     		b	.L130	@
 1993              	.L131:
 1994              	@ inc/user_libs/usb_core.c:1672:       deptsiz.b.pktcnt = (ep->xfer_len + (ep->maxpacket - 1)) / ep
1672:inc/user_libs/usb_core.c ****       deptsiz.b.xfersize = deptsiz.b.pktcnt * ep->maxpacket;
 1995              		.loc 1 1672 0
 1996 059e 6344     		add	r3, r3, ip	@ tmp192, pretmp_112
 1997 05a0 013B     		subs	r3, r3, #1	@ tmp193, tmp192,
 1998 05a2 B3FBFCF3 		udiv	r3, r3, ip	@ tmp195, tmp193, pretmp_112
 1999 05a6 C3F30903 		ubfx	r3, r3, #0, #10	@ _47, tmp195,,
 2000 05aa 63F3DC45 		bfi	r5, r3, #19, #10	@ deptsiz, _47,,
 2001              	@ inc/user_libs/usb_core.c:1673:       deptsiz.b.xfersize = deptsiz.b.pktcnt * ep->maxpacket;
1673:inc/user_libs/usb_core.c ****     }
 2002              		.loc 1 1673 0
 2003 05ae 7B43     		muls	r3, r7, r3	@ tmp201, _119
 2004 05b0 63F31205 		bfi	r5, r3, #0, #19	@ deptsiz, tmp201,,
 2005 05b4 E3E7     		b	.L132	@
 2006              	.L135:
 2007              	@ inc/user_libs/usb_core.c:1690:         depctl.b.setd0pid = 1;
1690:inc/user_libs/usb_core.c ****       }
 2008              		.loc 1 1690 0
 2009 05b6 44F08054 		orr	r4, r4, #268435456	@ depctl, depctl,
 2010              	.LVL193:
 2011 05ba ECE7     		b	.L134	@
 2012              		.cfi_endproc
 2013              	.LFE133:
 2014              		.size	USB_OTG_EPStartXfer, .-USB_OTG_EPStartXfer
 2015              		.align	1
 2016              		.global	USB_OTG_EP0StartXfer
 2017              		.syntax unified
 2018              		.thumb
 2019              		.thumb_func
 2020              		.fpu softvfp
 2021              		.type	USB_OTG_EP0StartXfer, %function
 2022              	USB_OTG_EP0StartXfer:
 2023              	.LFB134:
1700:inc/user_libs/usb_core.c **** 
1701:inc/user_libs/usb_core.c **** 
1702:inc/user_libs/usb_core.c **** /**
1703:inc/user_libs/usb_core.c **** * @brief  USB_OTG_EP0StartXfer : Handle the setup for a data xfer for EP0 and 
1704:inc/user_libs/usb_core.c **** *         starts the xfer
1705:inc/user_libs/usb_core.c **** * @param  pdev : Selected device
1706:inc/user_libs/usb_core.c **** * @retval USB_OTG_STS : status
1707:inc/user_libs/usb_core.c **** */
1708:inc/user_libs/usb_core.c **** USB_OTG_STS USB_OTG_EP0StartXfer(USB_OTG_CORE_HANDLE *pdev , USB_OTG_EP *ep)
1709:inc/user_libs/usb_core.c **** {
 2024              		.loc 1 1709 0
 2025              		.cfi_startproc
 2026              		@ args = 0, pretend = 0, frame = 8
ARM GAS  /tmp/ccQkqy1T.s 			page 69


 2027              		@ frame_needed = 0, uses_anonymous_args = 0
 2028              	.LVL194:
 2029 05bc F7B5     		push	{r0, r1, r2, r4, r5, r6, r7, lr}	@
 2030              	.LCFI16:
 2031              		.cfi_def_cfa_offset 32
 2032              		.cfi_offset 4, -20
 2033              		.cfi_offset 5, -16
 2034              		.cfi_offset 6, -12
 2035              		.cfi_offset 7, -8
 2036              		.cfi_offset 14, -4
 2037              	@ inc/user_libs/usb_core.c:1719:   if (ep->is_in == 1)
1710:inc/user_libs/usb_core.c ****   USB_OTG_STS                 status = USB_OTG_OK;
1711:inc/user_libs/usb_core.c ****   USB_OTG_DEPCTL_TypeDef      depctl;
1712:inc/user_libs/usb_core.c ****   USB_OTG_DEP0XFRSIZ_TypeDef  deptsiz;
1713:inc/user_libs/usb_core.c ****   USB_OTG_INEPREGS          *in_regs;
1714:inc/user_libs/usb_core.c ****   uint32_t fifoemptymsk = 0;
1715:inc/user_libs/usb_core.c ****   
1716:inc/user_libs/usb_core.c ****   depctl.d32   = 0;
1717:inc/user_libs/usb_core.c ****   deptsiz.d32  = 0;
1718:inc/user_libs/usb_core.c ****   /* IN endpoint */
1719:inc/user_libs/usb_core.c ****   if (ep->is_in == 1)
 2038              		.loc 1 1719 0
 2039 05be 4F78     		ldrb	r7, [r1, #1]	@ zero_extendqisi2	@ ep_47(D)->is_in, ep_47(D)->is_in
 2040 05c0 4E69     		ldr	r6, [r1, #20]	@ pretmp_85, ep_47(D)->xfer_len
 2041 05c2 012F     		cmp	r7, #1	@ ep_47(D)->is_in,
 2042 05c4 3AD1     		bne	.L146	@,
 2043              	@ inc/user_libs/usb_core.c:1721:     in_regs = pdev->regs.INEP_REGS[0];
1720:inc/user_libs/usb_core.c ****   {
1721:inc/user_libs/usb_core.c ****     in_regs = pdev->regs.INEP_REGS[0];
 2044              		.loc 1 1721 0
 2045 05c6 8569     		ldr	r5, [r0, #24]	@ in_regs, pdev_48(D)->regs.INEP_REGS
 2046              	.LVL195:
 2047              	@ inc/user_libs/usb_core.c:1722:     depctl.d32  = USB_OTG_READ_REG32(&in_regs->DIEPCTL);
1722:inc/user_libs/usb_core.c ****     depctl.d32  = USB_OTG_READ_REG32(&in_regs->DIEPCTL);
 2048              		.loc 1 1722 0
 2049 05c8 2C68     		ldr	r4, [r5]	@ depctl, in_regs_61->DIEPCTL
 2050              	.LVL196:
 2051              	@ inc/user_libs/usb_core.c:1723:     deptsiz.d32 = USB_OTG_READ_REG32(&in_regs->DIEPTSIZ);
1723:inc/user_libs/usb_core.c ****     deptsiz.d32 = USB_OTG_READ_REG32(&in_regs->DIEPTSIZ);
 2052              		.loc 1 1723 0
 2053 05ca 2B69     		ldr	r3, [r5, #16]	@ _3, in_regs_61->DIEPTSIZ
 2054 05cc 0093     		str	r3, [sp]	@ _3, deptsiz.d32
 2055 05ce DAB2     		uxtb	r2, r3	@ deptsiz.b.xfersize, _3
 2056 05d0 C3F30743 		ubfx	r3, r3, #16, #8	@ deptsiz.b.pktcnt, _3,,
 2057              	@ inc/user_libs/usb_core.c:1725:     if (ep->xfer_len == 0)
1724:inc/user_libs/usb_core.c ****     /* Zero Length Packet? */
1725:inc/user_libs/usb_core.c ****     if (ep->xfer_len == 0)
 2058              		.loc 1 1725 0
 2059 05d4 16BB     		cbnz	r6, .L147	@ pretmp_85,
 2060              	@ inc/user_libs/usb_core.c:1727:       deptsiz.b.xfersize = 0;
1726:inc/user_libs/usb_core.c ****     {
1727:inc/user_libs/usb_core.c ****       deptsiz.b.xfersize = 0;
 2061              		.loc 1 1727 0
 2062 05d6 66F30602 		bfi	r2, r6, #0, #7	@ deptsiz.b.xfersize, pretmp_85,,
 2063 05da 8DF80020 		strb	r2, [sp]	@ deptsiz.b.xfersize, deptsiz.b.xfersize
 2064              	@ inc/user_libs/usb_core.c:1728:       deptsiz.b.pktcnt = 1;
1728:inc/user_libs/usb_core.c ****       deptsiz.b.pktcnt = 1;
ARM GAS  /tmp/ccQkqy1T.s 			page 70


 2065              		.loc 1 1728 0
 2066 05de 67F3C403 		bfi	r3, r7, #3, #2	@ deptsiz.b.pktcnt, ep_47(D)->is_in,,
 2067              	.L160:
 2068              	@ inc/user_libs/usb_core.c:1742:       deptsiz.b.pktcnt = 1;
1729:inc/user_libs/usb_core.c ****       
1730:inc/user_libs/usb_core.c ****     }
1731:inc/user_libs/usb_core.c ****     else
1732:inc/user_libs/usb_core.c ****     {
1733:inc/user_libs/usb_core.c ****       if (ep->xfer_len > ep->maxpacket)
1734:inc/user_libs/usb_core.c ****       {
1735:inc/user_libs/usb_core.c ****         ep->xfer_len = ep->maxpacket;
1736:inc/user_libs/usb_core.c ****         deptsiz.b.xfersize = ep->maxpacket;
1737:inc/user_libs/usb_core.c ****       }
1738:inc/user_libs/usb_core.c ****       else
1739:inc/user_libs/usb_core.c ****       {
1740:inc/user_libs/usb_core.c ****         deptsiz.b.xfersize = ep->xfer_len;
1741:inc/user_libs/usb_core.c ****       }
1742:inc/user_libs/usb_core.c ****       deptsiz.b.pktcnt = 1;
 2069              		.loc 1 1742 0
 2070 05e2 8DF80230 		strb	r3, [sp, #2]	@ deptsiz.b.pktcnt, deptsiz.b.pktcnt
 2071              	@ inc/user_libs/usb_core.c:1744:     USB_OTG_WRITE_REG32(&in_regs->DIEPTSIZ, deptsiz.d32);
1743:inc/user_libs/usb_core.c ****     }
1744:inc/user_libs/usb_core.c ****     USB_OTG_WRITE_REG32(&in_regs->DIEPTSIZ, deptsiz.d32);
 2072              		.loc 1 1744 0
 2073 05e6 009B     		ldr	r3, [sp]	@ _8, deptsiz.d32
 2074 05e8 2B61     		str	r3, [r5, #16]	@ _8, in_regs_61->DIEPTSIZ
 2075              	@ inc/user_libs/usb_core.c:1746:     if (pdev->cfg.dma_enable == 1)
1745:inc/user_libs/usb_core.c ****     
1746:inc/user_libs/usb_core.c ****     if (pdev->cfg.dma_enable == 1)
 2076              		.loc 1 1746 0
 2077 05ea C278     		ldrb	r2, [r0, #3]	@ zero_extendqisi2	@ _9, pdev_48(D)->cfg.dma_enable
 2078 05ec 012A     		cmp	r2, #1	@ _9,
 2079 05ee 05D1     		bne	.L151	@,
 2080              	@ inc/user_libs/usb_core.c:1748:       USB_OTG_WRITE_REG32(&pdev->regs.INEP_REGS[ep->num]->DIEPDMA,
1747:inc/user_libs/usb_core.c ****     {
1748:inc/user_libs/usb_core.c ****       USB_OTG_WRITE_REG32(&pdev->regs.INEP_REGS[ep->num]->DIEPDMA, ep->dma_addr);  
 2081              		.loc 1 1748 0
 2082 05f0 0B78     		ldrb	r3, [r1]	@ zero_extendqisi2	@ ep_47(D)->num, ep_47(D)->num
 2083 05f2 0E69     		ldr	r6, [r1, #16]	@ _13, ep_47(D)->dma_addr
 2084 05f4 00EB8303 		add	r3, r0, r3, lsl #2	@ tmp163, pdev, ep_47(D)->num,
 2085 05f8 9B69     		ldr	r3, [r3, #24]	@ _12, pdev_48(D)->regs.INEP_REGS
 2086 05fa 5E61     		str	r6, [r3, #20]	@ _13, _12->DIEPDMA
 2087              	.L151:
 2088              	@ inc/user_libs/usb_core.c:1753:     depctl.b.epena = 1;
1749:inc/user_libs/usb_core.c ****     }
1750:inc/user_libs/usb_core.c ****     
1751:inc/user_libs/usb_core.c ****     /* EP enable, IN data in FIFO */
1752:inc/user_libs/usb_core.c ****     depctl.b.cnak = 1;
1753:inc/user_libs/usb_core.c ****     depctl.b.epena = 1;
 2089              		.loc 1 1753 0
 2090 05fc 44F00444 		orr	r4, r4, #-2080374784	@ depctl, depctl,
 2091              	.LVL197:
 2092              	@ inc/user_libs/usb_core.c:1754:     USB_OTG_WRITE_REG32(&in_regs->DIEPCTL, depctl.d32);
1754:inc/user_libs/usb_core.c ****     USB_OTG_WRITE_REG32(&in_regs->DIEPCTL, depctl.d32);
 2093              		.loc 1 1754 0
 2094 0600 2C60     		str	r4, [r5]	@ depctl, in_regs_61->DIEPCTL
 2095              	@ inc/user_libs/usb_core.c:1758:     if (pdev->cfg.dma_enable == 0)
ARM GAS  /tmp/ccQkqy1T.s 			page 71


1755:inc/user_libs/usb_core.c ****     
1756:inc/user_libs/usb_core.c ****     
1757:inc/user_libs/usb_core.c ****     
1758:inc/user_libs/usb_core.c ****     if (pdev->cfg.dma_enable == 0)
 2096              		.loc 1 1758 0
 2097 0602 42B9     		cbnz	r2, .L152	@ _9,
 2098              	@ inc/user_libs/usb_core.c:1761:       if (ep->xfer_len > 0)
1759:inc/user_libs/usb_core.c ****     {
1760:inc/user_libs/usb_core.c ****       /* Enable the Tx FIFO Empty Interrupt for this EP */
1761:inc/user_libs/usb_core.c ****       if (ep->xfer_len > 0)
 2099              		.loc 1 1761 0
 2100 0604 4B69     		ldr	r3, [r1, #20]	@ ep_47(D)->xfer_len, ep_47(D)->xfer_len
 2101 0606 33B1     		cbz	r3, .L152	@ ep_47(D)->xfer_len,
 2102              	.LVL198:
 2103              	@ inc/user_libs/usb_core.c:1765:           USB_OTG_MODIFY_REG32(&pdev->regs.DREGS->DIEPEMPMSK, 0, f
1762:inc/user_libs/usb_core.c ****       {
1763:inc/user_libs/usb_core.c ****         {
1764:inc/user_libs/usb_core.c ****           fifoemptymsk |= 1 << ep->num;
1765:inc/user_libs/usb_core.c ****           USB_OTG_MODIFY_REG32(&pdev->regs.DREGS->DIEPEMPMSK, 0, fifoemptymsk);
 2104              		.loc 1 1765 0
 2105 0608 0269     		ldr	r2, [r0, #16]	@ _20, pdev_48(D)->regs.DREGS
 2106              	@ inc/user_libs/usb_core.c:1764:           fifoemptymsk |= 1 << ep->num;
1764:inc/user_libs/usb_core.c ****           USB_OTG_MODIFY_REG32(&pdev->regs.DREGS->DIEPEMPMSK, 0, fifoemptymsk);
 2107              		.loc 1 1764 0
 2108 060a 0978     		ldrb	r1, [r1]	@ zero_extendqisi2	@ ep_47(D)->num, ep_47(D)->num
 2109              	.LVL199:
 2110              	@ inc/user_libs/usb_core.c:1765:           USB_OTG_MODIFY_REG32(&pdev->regs.DREGS->DIEPEMPMSK, 0, f
 2111              		.loc 1 1765 0
 2112 060c 506B     		ldr	r0, [r2, #52]	@ _21, _20->DIEPEMPMSK
 2113              	.LVL200:
 2114              	@ inc/user_libs/usb_core.c:1764:           fifoemptymsk |= 1 << ep->num;
1764:inc/user_libs/usb_core.c ****           USB_OTG_MODIFY_REG32(&pdev->regs.DREGS->DIEPEMPMSK, 0, fifoemptymsk);
 2115              		.loc 1 1764 0
 2116 060e 0123     		movs	r3, #1	@ tmp170,
 2117 0610 8B40     		lsls	r3, r3, r1	@ tmp169, tmp170, ep_47(D)->num
 2118              	.LVL201:
 2119              	@ inc/user_libs/usb_core.c:1765:           USB_OTG_MODIFY_REG32(&pdev->regs.DREGS->DIEPEMPMSK, 0, f
 2120              		.loc 1 1765 0
 2121 0612 0343     		orrs	r3, r3, r0	@, _22, tmp169, _21
 2122              	.LVL202:
 2123 0614 5363     		str	r3, [r2, #52]	@ _22, _20->DIEPEMPMSK
 2124              	.LVL203:
 2125              	.L152:
 2126              	@ inc/user_libs/usb_core.c:1801: }
1766:inc/user_libs/usb_core.c ****         }
1767:inc/user_libs/usb_core.c ****       }
1768:inc/user_libs/usb_core.c ****     }
1769:inc/user_libs/usb_core.c ****   }
1770:inc/user_libs/usb_core.c ****   else
1771:inc/user_libs/usb_core.c ****   {
1772:inc/user_libs/usb_core.c ****     /* OUT endpoint */
1773:inc/user_libs/usb_core.c ****     depctl.d32  = USB_OTG_READ_REG32(&pdev->regs.OUTEP_REGS[ep->num]->DOEPCTL);
1774:inc/user_libs/usb_core.c ****     deptsiz.d32 = USB_OTG_READ_REG32(&pdev->regs.OUTEP_REGS[ep->num]->DOEPTSIZ);
1775:inc/user_libs/usb_core.c ****     /* Program the transfer size and packet count as follows:
1776:inc/user_libs/usb_core.c ****     * xfersize = N * (maxpacket + 4 - (maxpacket % 4))
1777:inc/user_libs/usb_core.c ****     * pktcnt = N           */
1778:inc/user_libs/usb_core.c ****     if (ep->xfer_len == 0)
ARM GAS  /tmp/ccQkqy1T.s 			page 72


1779:inc/user_libs/usb_core.c ****     {
1780:inc/user_libs/usb_core.c ****       deptsiz.b.xfersize = ep->maxpacket;
1781:inc/user_libs/usb_core.c ****       deptsiz.b.pktcnt = 1;
1782:inc/user_libs/usb_core.c ****     }
1783:inc/user_libs/usb_core.c ****     else
1784:inc/user_libs/usb_core.c ****     {
1785:inc/user_libs/usb_core.c ****       ep->xfer_len = ep->maxpacket;
1786:inc/user_libs/usb_core.c ****       deptsiz.b.xfersize = ep->maxpacket;
1787:inc/user_libs/usb_core.c ****       deptsiz.b.pktcnt = 1;
1788:inc/user_libs/usb_core.c ****     }
1789:inc/user_libs/usb_core.c ****     USB_OTG_WRITE_REG32(&pdev->regs.OUTEP_REGS[ep->num]->DOEPTSIZ, deptsiz.d32);
1790:inc/user_libs/usb_core.c ****     if (pdev->cfg.dma_enable == 1)
1791:inc/user_libs/usb_core.c ****     {
1792:inc/user_libs/usb_core.c ****       USB_OTG_WRITE_REG32(&pdev->regs.OUTEP_REGS[ep->num]->DOEPDMA, ep->dma_addr);
1793:inc/user_libs/usb_core.c ****     }
1794:inc/user_libs/usb_core.c ****     /* EP enable */
1795:inc/user_libs/usb_core.c ****     depctl.b.cnak = 1;
1796:inc/user_libs/usb_core.c ****     depctl.b.epena = 1;
1797:inc/user_libs/usb_core.c ****     USB_OTG_WRITE_REG32 (&(pdev->regs.OUTEP_REGS[ep->num]->DOEPCTL), depctl.d32);
1798:inc/user_libs/usb_core.c ****     
1799:inc/user_libs/usb_core.c ****   }
1800:inc/user_libs/usb_core.c ****   return status;
1801:inc/user_libs/usb_core.c **** }
 2127              		.loc 1 1801 0
 2128 0616 0020     		movs	r0, #0	@,
 2129 0618 03B0     		add	sp, sp, #12	@,,
 2130              	.LCFI17:
 2131              		.cfi_remember_state
 2132              		.cfi_def_cfa_offset 20
 2133              		@ sp needed	@
 2134 061a F0BD     		pop	{r4, r5, r6, r7, pc}	@
 2135              	.LVL204:
 2136              	.L147:
 2137              	.LCFI18:
 2138              		.cfi_restore_state
 2139              	@ inc/user_libs/usb_core.c:1733:       if (ep->xfer_len > ep->maxpacket)
1733:inc/user_libs/usb_core.c ****       {
 2140              		.loc 1 1733 0
 2141 061c 8F68     		ldr	r7, [r1, #8]	@ _5, ep_47(D)->maxpacket
 2142 061e B742     		cmp	r7, r6	@ _5, pretmp_85
 2143              	@ inc/user_libs/usb_core.c:1736:         deptsiz.b.xfersize = ep->maxpacket;
1736:inc/user_libs/usb_core.c ****       }
 2144              		.loc 1 1736 0
 2145 0620 34BF     		ite	cc
 2146 0622 67F30602 		bficc	r2, r7, #0, #7	@ deptsiz.b.xfersize, _5,,
 2147              	@ inc/user_libs/usb_core.c:1740:         deptsiz.b.xfersize = ep->xfer_len;
1740:inc/user_libs/usb_core.c ****       }
 2148              		.loc 1 1740 0
 2149 0626 66F30602 		bfics	r2, r6, #0, #7	@ deptsiz.b.xfersize, pretmp_85,,
 2150 062a 8DF80020 		strb	r2, [sp]	@ deptsiz.b.xfersize, deptsiz.b.xfersize
 2151              	@ inc/user_libs/usb_core.c:1742:       deptsiz.b.pktcnt = 1;
1742:inc/user_libs/usb_core.c ****     }
 2152              		.loc 1 1742 0
 2153 062e 4FF00102 		mov	r2, #1	@ tmp160,
 2154              	@ inc/user_libs/usb_core.c:1735:         ep->xfer_len = ep->maxpacket;
1735:inc/user_libs/usb_core.c ****         deptsiz.b.xfersize = ep->maxpacket;
 2155              		.loc 1 1735 0
ARM GAS  /tmp/ccQkqy1T.s 			page 73


 2156 0632 38BF     		it	cc
 2157 0634 4F61     		strcc	r7, [r1, #20]	@ _5, ep_47(D)->xfer_len
 2158              	@ inc/user_libs/usb_core.c:1742:       deptsiz.b.pktcnt = 1;
1742:inc/user_libs/usb_core.c ****     }
 2159              		.loc 1 1742 0
 2160 0636 62F3C403 		bfi	r3, r2, #3, #2	@ deptsiz.b.pktcnt, tmp160,,
 2161 063a D2E7     		b	.L160	@
 2162              	.LVL205:
 2163              	.L146:
 2164              	@ inc/user_libs/usb_core.c:1773:     depctl.d32  = USB_OTG_READ_REG32(&pdev->regs.OUTEP_REGS[ep->nu
1773:inc/user_libs/usb_core.c ****     deptsiz.d32 = USB_OTG_READ_REG32(&pdev->regs.OUTEP_REGS[ep->num]->DOEPTSIZ);
 2165              		.loc 1 1773 0
 2166 063c 0B78     		ldrb	r3, [r1]	@ zero_extendqisi2	@ ep_47(D)->num, ep_47(D)->num
 2167 063e D1F808C0 		ldr	ip, [r1, #8]	@ pretmp_91, ep_47(D)->maxpacket
 2168 0642 00EB8303 		add	r3, r0, r3, lsl #2	@ tmp173, pdev, ep_47(D)->num,
 2169 0646 0CF07F07 		and	r7, ip, #127	@ _90, pretmp_91,
 2170 064a 5D6D     		ldr	r5, [r3, #84]	@ _25, pdev_48(D)->regs.OUTEP_REGS
 2171 064c 2C68     		ldr	r4, [r5]	@ depctl, _25->DOEPCTL
 2172              	.LVL206:
 2173              	@ inc/user_libs/usb_core.c:1774:     deptsiz.d32 = USB_OTG_READ_REG32(&pdev->regs.OUTEP_REGS[ep->nu
1774:inc/user_libs/usb_core.c ****     /* Program the transfer size and packet count as follows:
 2174              		.loc 1 1774 0
 2175 064e 2B69     		ldr	r3, [r5, #16]	@ _27, _25->DOEPTSIZ
 2176 0650 0093     		str	r3, [sp]	@ _27, deptsiz.d32
 2177 0652 DAB2     		uxtb	r2, r3	@ deptsiz.b.xfersize, _27
 2178 0654 C3F30743 		ubfx	r3, r3, #16, #8	@ deptsiz.b.pktcnt, _27,,
 2179              	@ inc/user_libs/usb_core.c:1778:     if (ep->xfer_len == 0)
1778:inc/user_libs/usb_core.c ****     {
 2180              		.loc 1 1778 0
 2181 0658 9EB9     		cbnz	r6, .L153	@ pretmp_85,
 2182              	.L161:
 2183              	@ inc/user_libs/usb_core.c:1786:       deptsiz.b.xfersize = ep->maxpacket;
1786:inc/user_libs/usb_core.c ****       deptsiz.b.pktcnt = 1;
 2184              		.loc 1 1786 0
 2185 065a 67F30602 		bfi	r2, r7, #0, #7	@ deptsiz.b.xfersize, _90,,
 2186 065e 8DF80020 		strb	r2, [sp]	@ deptsiz.b.xfersize, deptsiz.b.xfersize
 2187              	@ inc/user_libs/usb_core.c:1787:       deptsiz.b.pktcnt = 1;
1787:inc/user_libs/usb_core.c ****     }
 2188              		.loc 1 1787 0
 2189 0662 0122     		movs	r2, #1	@ tmp186,
 2190 0664 62F3C403 		bfi	r3, r2, #3, #2	@ deptsiz.b.pktcnt, tmp186,,
 2191 0668 8DF80230 		strb	r3, [sp, #2]	@ deptsiz.b.pktcnt, deptsiz.b.pktcnt
 2192              	@ inc/user_libs/usb_core.c:1789:     USB_OTG_WRITE_REG32(&pdev->regs.OUTEP_REGS[ep->num]->DOEPTSIZ,
1789:inc/user_libs/usb_core.c ****     if (pdev->cfg.dma_enable == 1)
 2193              		.loc 1 1789 0
 2194 066c 009B     		ldr	r3, [sp]	@ _36, deptsiz.d32
 2195 066e 2B61     		str	r3, [r5, #16]	@ _36, _25->DOEPTSIZ
 2196              	@ inc/user_libs/usb_core.c:1790:     if (pdev->cfg.dma_enable == 1)
1790:inc/user_libs/usb_core.c ****     {
 2197              		.loc 1 1790 0
 2198 0670 C378     		ldrb	r3, [r0, #3]	@ zero_extendqisi2	@ pdev_48(D)->cfg.dma_enable, pdev_48(D)->cfg.dma_enable
 2199 0672 012B     		cmp	r3, #1	@ pdev_48(D)->cfg.dma_enable,
 2200              	@ inc/user_libs/usb_core.c:1792:       USB_OTG_WRITE_REG32(&pdev->regs.OUTEP_REGS[ep->num]->DOEPDMA
1792:inc/user_libs/usb_core.c ****     }
 2201              		.loc 1 1792 0
 2202 0674 04BF     		itt	eq
 2203 0676 0B69     		ldreq	r3, [r1, #16]	@ _38, ep_47(D)->dma_addr
ARM GAS  /tmp/ccQkqy1T.s 			page 74


 2204 0678 6B61     		streq	r3, [r5, #20]	@ _38, _25->DOEPDMA
 2205              	@ inc/user_libs/usb_core.c:1796:     depctl.b.epena = 1;
1796:inc/user_libs/usb_core.c ****     USB_OTG_WRITE_REG32 (&(pdev->regs.OUTEP_REGS[ep->num]->DOEPCTL), depctl.d32);
 2206              		.loc 1 1796 0
 2207 067a 44F00444 		orr	r4, r4, #-2080374784	@ depctl, depctl,
 2208              	.LVL207:
 2209              	@ inc/user_libs/usb_core.c:1797:     USB_OTG_WRITE_REG32 (&(pdev->regs.OUTEP_REGS[ep->num]->DOEPCTL
1797:inc/user_libs/usb_core.c ****     
 2210              		.loc 1 1797 0
 2211 067e 2C60     		str	r4, [r5]	@ depctl, _25->DOEPCTL
 2212 0680 C9E7     		b	.L152	@
 2213              	.L153:
 2214              	@ inc/user_libs/usb_core.c:1785:       ep->xfer_len = ep->maxpacket;
1785:inc/user_libs/usb_core.c ****       deptsiz.b.xfersize = ep->maxpacket;
 2215              		.loc 1 1785 0
 2216 0682 C1F814C0 		str	ip, [r1, #20]	@ pretmp_91, ep_47(D)->xfer_len
 2217 0686 E8E7     		b	.L161	@
 2218              		.cfi_endproc
 2219              	.LFE134:
 2220              		.size	USB_OTG_EP0StartXfer, .-USB_OTG_EP0StartXfer
 2221              		.align	1
 2222              		.global	USB_OTG_EPSetStall
 2223              		.syntax unified
 2224              		.thumb
 2225              		.thumb_func
 2226              		.fpu softvfp
 2227              		.type	USB_OTG_EPSetStall, %function
 2228              	USB_OTG_EPSetStall:
 2229              	.LFB135:
1802:inc/user_libs/usb_core.c **** 
1803:inc/user_libs/usb_core.c **** 
1804:inc/user_libs/usb_core.c **** /**
1805:inc/user_libs/usb_core.c **** * @brief  USB_OTG_EPSetStall : Set the EP STALL
1806:inc/user_libs/usb_core.c **** * @param  pdev : Selected device
1807:inc/user_libs/usb_core.c **** * @retval USB_OTG_STS : status
1808:inc/user_libs/usb_core.c **** */
1809:inc/user_libs/usb_core.c **** USB_OTG_STS USB_OTG_EPSetStall(USB_OTG_CORE_HANDLE *pdev , USB_OTG_EP *ep)
1810:inc/user_libs/usb_core.c **** {
 2230              		.loc 1 1810 0
 2231              		.cfi_startproc
 2232              		@ args = 0, pretend = 0, frame = 0
 2233              		@ frame_needed = 0, uses_anonymous_args = 0
 2234              		@ link register save eliminated.
 2235              	.LVL208:
 2236              	@ inc/user_libs/usb_core.c:1816:   if (ep->is_in == 1)
1811:inc/user_libs/usb_core.c ****   USB_OTG_STS status = USB_OTG_OK;
1812:inc/user_libs/usb_core.c ****   USB_OTG_DEPCTL_TypeDef  depctl;
1813:inc/user_libs/usb_core.c ****   __IO uint32_t *depctl_addr;
1814:inc/user_libs/usb_core.c ****   
1815:inc/user_libs/usb_core.c ****   depctl.d32 = 0;
1816:inc/user_libs/usb_core.c ****   if (ep->is_in == 1)
 2237              		.loc 1 1816 0
 2238 0688 4A78     		ldrb	r2, [r1, #1]	@ zero_extendqisi2	@ ep_9(D)->is_in, ep_9(D)->is_in
 2239 068a 0B78     		ldrb	r3, [r1]	@ zero_extendqisi2	@ _29, ep_9(D)->num
 2240 068c 012A     		cmp	r2, #1	@ ep_9(D)->is_in,
 2241              	.LBB32:
 2242              	.LBB33:
ARM GAS  /tmp/ccQkqy1T.s 			page 75


 2243              	@ inc/user_libs/usb_core.c:1818:     depctl_addr = &(pdev->regs.INEP_REGS[ep->num]->DIEPCTL);
1817:inc/user_libs/usb_core.c ****   {
1818:inc/user_libs/usb_core.c ****     depctl_addr = &(pdev->regs.INEP_REGS[ep->num]->DIEPCTL);
 2244              		.loc 1 1818 0
 2245 068e 00EB8300 		add	r0, r0, r3, lsl #2	@ tmp128, pdev, _29,
 2246              	.LVL209:
 2247              	.LBE33:
 2248              	.LBE32:
 2249              	@ inc/user_libs/usb_core.c:1816:   if (ep->is_in == 1)
1816:inc/user_libs/usb_core.c ****   {
 2250              		.loc 1 1816 0
 2251 0692 0AD1     		bne	.L163	@,
 2252              	.LVL210:
 2253              	.LBB35:
 2254              	.LBB34:
 2255              	@ inc/user_libs/usb_core.c:1818:     depctl_addr = &(pdev->regs.INEP_REGS[ep->num]->DIEPCTL);
 2256              		.loc 1 1818 0
 2257 0694 8269     		ldr	r2, [r0, #24]	@ _18, pdev_10(D)->regs.INEP_REGS
 2258              	.LVL211:
 2259              	@ inc/user_libs/usb_core.c:1819:     depctl.d32 = USB_OTG_READ_REG32(depctl_addr);
1819:inc/user_libs/usb_core.c ****     depctl.d32 = USB_OTG_READ_REG32(depctl_addr);
 2260              		.loc 1 1819 0
 2261 0696 1368     		ldr	r3, [r2]	@ depctl, MEM[(volatile uint32_t *)_18]
 2262              	.LVL212:
 2263              	@ inc/user_libs/usb_core.c:1821:     if (depctl.b.epena)
1820:inc/user_libs/usb_core.c ****     /* set the disable and stall bits */
1821:inc/user_libs/usb_core.c ****     if (depctl.b.epena)
 2264              		.loc 1 1821 0
 2265 0698 002B     		cmp	r3, #0	@ depctl,
 2266 069a 01DA     		bge	.L166	@,
 2267              	@ inc/user_libs/usb_core.c:1823:       depctl.b.epdis = 1;
1822:inc/user_libs/usb_core.c ****     {
1823:inc/user_libs/usb_core.c ****       depctl.b.epdis = 1;
 2268              		.loc 1 1823 0
 2269 069c 43F08043 		orr	r3, r3, #1073741824	@ depctl, depctl,
 2270              	.LVL213:
 2271              	.L166:
 2272              	.LBE34:
 2273              	.LBE35:
 2274              	@ inc/user_libs/usb_core.c:1833:     depctl.b.stall = 1;
1824:inc/user_libs/usb_core.c ****     }
1825:inc/user_libs/usb_core.c ****     depctl.b.stall = 1;
1826:inc/user_libs/usb_core.c ****     USB_OTG_WRITE_REG32(depctl_addr, depctl.d32);
1827:inc/user_libs/usb_core.c ****   }
1828:inc/user_libs/usb_core.c ****   else
1829:inc/user_libs/usb_core.c ****   {
1830:inc/user_libs/usb_core.c ****     depctl_addr = &(pdev->regs.OUTEP_REGS[ep->num]->DOEPCTL);
1831:inc/user_libs/usb_core.c ****     depctl.d32 = USB_OTG_READ_REG32(depctl_addr);
1832:inc/user_libs/usb_core.c ****     /* set the stall bit */
1833:inc/user_libs/usb_core.c ****     depctl.b.stall = 1;
 2275              		.loc 1 1833 0
 2276 06a0 43F40013 		orr	r3, r3, #2097152	@ depctl, _5,
 2277              	.LVL214:
 2278              	@ inc/user_libs/usb_core.c:1834:     USB_OTG_WRITE_REG32(depctl_addr, depctl.d32);
1834:inc/user_libs/usb_core.c ****     USB_OTG_WRITE_REG32(depctl_addr, depctl.d32);
 2279              		.loc 1 1834 0
 2280 06a4 1360     		str	r3, [r2]	@ depctl,* _4
ARM GAS  /tmp/ccQkqy1T.s 			page 76


 2281              	@ inc/user_libs/usb_core.c:1837: }
1835:inc/user_libs/usb_core.c ****   }
1836:inc/user_libs/usb_core.c ****   return status;
1837:inc/user_libs/usb_core.c **** }
 2282              		.loc 1 1837 0
 2283 06a6 0020     		movs	r0, #0	@,
 2284 06a8 7047     		bx	lr	@
 2285              	.LVL215:
 2286              	.L163:
 2287              	@ inc/user_libs/usb_core.c:1830:     depctl_addr = &(pdev->regs.OUTEP_REGS[ep->num]->DOEPCTL);
1830:inc/user_libs/usb_core.c ****     depctl.d32 = USB_OTG_READ_REG32(depctl_addr);
 2288              		.loc 1 1830 0
 2289 06aa 426D     		ldr	r2, [r0, #84]	@ _4, pdev_10(D)->regs.OUTEP_REGS
 2290              	.LVL216:
 2291              	@ inc/user_libs/usb_core.c:1831:     depctl.d32 = USB_OTG_READ_REG32(depctl_addr);
1831:inc/user_libs/usb_core.c ****     /* set the stall bit */
 2292              		.loc 1 1831 0
 2293 06ac 1368     		ldr	r3, [r2]	@ _5, MEM[(volatile uint32_t *)_4]
 2294 06ae F7E7     		b	.L166	@
 2295              		.cfi_endproc
 2296              	.LFE135:
 2297              		.size	USB_OTG_EPSetStall, .-USB_OTG_EPSetStall
 2298              		.align	1
 2299              		.global	USB_OTG_EPClearStall
 2300              		.syntax unified
 2301              		.thumb
 2302              		.thumb_func
 2303              		.fpu softvfp
 2304              		.type	USB_OTG_EPClearStall, %function
 2305              	USB_OTG_EPClearStall:
 2306              	.LFB136:
1838:inc/user_libs/usb_core.c **** 
1839:inc/user_libs/usb_core.c **** 
1840:inc/user_libs/usb_core.c **** /**
1841:inc/user_libs/usb_core.c **** * @brief  Clear the EP STALL
1842:inc/user_libs/usb_core.c **** * @param  pdev : Selected device
1843:inc/user_libs/usb_core.c **** * @retval USB_OTG_STS : status
1844:inc/user_libs/usb_core.c **** */
1845:inc/user_libs/usb_core.c **** USB_OTG_STS USB_OTG_EPClearStall(USB_OTG_CORE_HANDLE *pdev , USB_OTG_EP *ep)
1846:inc/user_libs/usb_core.c **** {
 2307              		.loc 1 1846 0
 2308              		.cfi_startproc
 2309              		@ args = 0, pretend = 0, frame = 0
 2310              		@ frame_needed = 0, uses_anonymous_args = 0
 2311              		@ link register save eliminated.
 2312              	.LVL217:
 2313 06b0 0B78     		ldrb	r3, [r1]	@ zero_extendqisi2	@ _26, ep_15(D)->num
 2314              	@ inc/user_libs/usb_core.c:1853:   if (ep->is_in == 1)
1847:inc/user_libs/usb_core.c ****   USB_OTG_STS status = USB_OTG_OK;
1848:inc/user_libs/usb_core.c ****   USB_OTG_DEPCTL_TypeDef  depctl;
1849:inc/user_libs/usb_core.c ****   __IO uint32_t *depctl_addr;
1850:inc/user_libs/usb_core.c ****   
1851:inc/user_libs/usb_core.c ****   depctl.d32 = 0;
1852:inc/user_libs/usb_core.c ****   
1853:inc/user_libs/usb_core.c ****   if (ep->is_in == 1)
 2315              		.loc 1 1853 0
 2316 06b2 4A78     		ldrb	r2, [r1, #1]	@ zero_extendqisi2	@ ep_15(D)->is_in, ep_15(D)->is_in
ARM GAS  /tmp/ccQkqy1T.s 			page 77


 2317              	@ inc/user_libs/usb_core.c:1864:   if (ep->type == EP_TYPE_INTR || ep->type == EP_TYPE_BULK)
1854:inc/user_libs/usb_core.c ****   {
1855:inc/user_libs/usb_core.c ****     depctl_addr = &(pdev->regs.INEP_REGS[ep->num]->DIEPCTL);
1856:inc/user_libs/usb_core.c ****   }
1857:inc/user_libs/usb_core.c ****   else
1858:inc/user_libs/usb_core.c ****   {
1859:inc/user_libs/usb_core.c ****     depctl_addr = &(pdev->regs.OUTEP_REGS[ep->num]->DOEPCTL);
1860:inc/user_libs/usb_core.c ****   }
1861:inc/user_libs/usb_core.c ****   depctl.d32 = USB_OTG_READ_REG32(depctl_addr);
1862:inc/user_libs/usb_core.c ****   /* clear the stall bits */
1863:inc/user_libs/usb_core.c ****   depctl.b.stall = 0;
1864:inc/user_libs/usb_core.c ****   if (ep->type == EP_TYPE_INTR || ep->type == EP_TYPE_BULK)
 2318              		.loc 1 1864 0
 2319 06b4 C978     		ldrb	r1, [r1, #3]	@ zero_extendqisi2	@ ep_15(D)->type, ep_15(D)->type
 2320              	.LVL218:
 2321              	@ inc/user_libs/usb_core.c:1855:     depctl_addr = &(pdev->regs.INEP_REGS[ep->num]->DIEPCTL);
1855:inc/user_libs/usb_core.c ****   }
 2322              		.loc 1 1855 0
 2323 06b6 00EB8300 		add	r0, r0, r3, lsl #2	@ tmp126, pdev, _26,
 2324              	.LVL219:
 2325              	@ inc/user_libs/usb_core.c:1853:   if (ep->is_in == 1)
1853:inc/user_libs/usb_core.c ****   {
 2326              		.loc 1 1853 0
 2327 06ba 012A     		cmp	r2, #1	@ ep_15(D)->is_in,
 2328              	@ inc/user_libs/usb_core.c:1855:     depctl_addr = &(pdev->regs.INEP_REGS[ep->num]->DIEPCTL);
1855:inc/user_libs/usb_core.c ****   }
 2329              		.loc 1 1855 0
 2330 06bc 0CBF     		ite	eq
 2331 06be 8269     		ldreq	r2, [r0, #24]	@ depctl_addr, pdev_16(D)->regs.INEP_REGS
 2332              	.LVL220:
 2333              	@ inc/user_libs/usb_core.c:1859:     depctl_addr = &(pdev->regs.OUTEP_REGS[ep->num]->DOEPCTL);
1859:inc/user_libs/usb_core.c ****   }
 2334              		.loc 1 1859 0
 2335 06c0 426D     		ldrne	r2, [r0, #84]	@ depctl_addr, pdev_16(D)->regs.OUTEP_REGS
 2336              	.LVL221:
 2337 06c2 1368     		ldr	r3, [r2]	@ _8,* depctl_addr
 2338              	@ inc/user_libs/usb_core.c:1864:   if (ep->type == EP_TYPE_INTR || ep->type == EP_TYPE_BULK)
 2339              		.loc 1 1864 0
 2340 06c4 0239     		subs	r1, r1, #2	@ tmp134, ep_15(D)->type,
 2341              	@ inc/user_libs/usb_core.c:1863:   depctl.b.stall = 0;
1863:inc/user_libs/usb_core.c ****   if (ep->type == EP_TYPE_INTR || ep->type == EP_TYPE_BULK)
 2342              		.loc 1 1863 0
 2343 06c6 6FF35553 		bfc	r3, #21, #1	@ depctl,,
 2344              	.LVL222:
 2345              	@ inc/user_libs/usb_core.c:1864:   if (ep->type == EP_TYPE_INTR || ep->type == EP_TYPE_BULK)
 2346              		.loc 1 1864 0
 2347 06ca 0129     		cmp	r1, #1	@ tmp134,
 2348              	@ inc/user_libs/usb_core.c:1866:     depctl.b.setd0pid = 1; /* DATA0 */
1865:inc/user_libs/usb_core.c ****   {
1866:inc/user_libs/usb_core.c ****     depctl.b.setd0pid = 1; /* DATA0 */
 2349              		.loc 1 1866 0
 2350 06cc 98BF     		it	ls
 2351 06ce 43F08053 		orrls	r3, r3, #268435456	@ depctl, depctl,
 2352              	.LVL223:
 2353              	@ inc/user_libs/usb_core.c:1868:   USB_OTG_WRITE_REG32(depctl_addr, depctl.d32);
1867:inc/user_libs/usb_core.c ****   }
1868:inc/user_libs/usb_core.c ****   USB_OTG_WRITE_REG32(depctl_addr, depctl.d32);
ARM GAS  /tmp/ccQkqy1T.s 			page 78


 2354              		.loc 1 1868 0
 2355 06d2 1360     		str	r3, [r2]	@ depctl, *depctl_addr_12
 2356              	@ inc/user_libs/usb_core.c:1870: }
1869:inc/user_libs/usb_core.c ****   return status;
1870:inc/user_libs/usb_core.c **** }
 2357              		.loc 1 1870 0
 2358 06d4 0020     		movs	r0, #0	@,
 2359 06d6 7047     		bx	lr	@
 2360              		.cfi_endproc
 2361              	.LFE136:
 2362              		.size	USB_OTG_EPClearStall, .-USB_OTG_EPClearStall
 2363              		.align	1
 2364              		.global	USB_OTG_ReadDevAllOutEp_itr
 2365              		.syntax unified
 2366              		.thumb
 2367              		.thumb_func
 2368              		.fpu softvfp
 2369              		.type	USB_OTG_ReadDevAllOutEp_itr, %function
 2370              	USB_OTG_ReadDevAllOutEp_itr:
 2371              	.LFB137:
1871:inc/user_libs/usb_core.c **** 
1872:inc/user_libs/usb_core.c **** 
1873:inc/user_libs/usb_core.c **** /**
1874:inc/user_libs/usb_core.c **** * @brief  USB_OTG_ReadDevAllOutEp_itr : returns OUT endpoint interrupt bits
1875:inc/user_libs/usb_core.c **** * @param  pdev : Selected device
1876:inc/user_libs/usb_core.c **** * @retval OUT endpoint interrupt bits
1877:inc/user_libs/usb_core.c **** */
1878:inc/user_libs/usb_core.c **** uint32_t USB_OTG_ReadDevAllOutEp_itr(USB_OTG_CORE_HANDLE *pdev)
1879:inc/user_libs/usb_core.c **** {
 2372              		.loc 1 1879 0
 2373              		.cfi_startproc
 2374              		@ args = 0, pretend = 0, frame = 0
 2375              		@ frame_needed = 0, uses_anonymous_args = 0
 2376              		@ link register save eliminated.
 2377              	.LVL224:
 2378              	@ inc/user_libs/usb_core.c:1881:   v  = USB_OTG_READ_REG32(&pdev->regs.DREGS->DAINT);
1880:inc/user_libs/usb_core.c ****   uint32_t v;
1881:inc/user_libs/usb_core.c ****   v  = USB_OTG_READ_REG32(&pdev->regs.DREGS->DAINT);
 2379              		.loc 1 1881 0
 2380 06d8 0369     		ldr	r3, [r0, #16]	@ _1, pdev_3(D)->regs.DREGS
 2381 06da 9869     		ldr	r0, [r3, #24]	@ v, _1->DAINT
 2382              	.LVL225:
 2383              	@ inc/user_libs/usb_core.c:1882:   v &= USB_OTG_READ_REG32(&pdev->regs.DREGS->DAINTMSK);
1882:inc/user_libs/usb_core.c ****   v &= USB_OTG_READ_REG32(&pdev->regs.DREGS->DAINTMSK);
 2384              		.loc 1 1882 0
 2385 06dc DB69     		ldr	r3, [r3, #28]	@ _5, _1->DAINTMSK
 2386              	.LVL226:
 2387 06de 1840     		ands	r0, r0, r3	@, v, v, _5
 2388              	.LVL227:
 2389              	@ inc/user_libs/usb_core.c:1884: }
1883:inc/user_libs/usb_core.c ****   return ((v & 0xffff0000) >> 16);
1884:inc/user_libs/usb_core.c **** }
 2390              		.loc 1 1884 0
 2391 06e0 000C     		lsrs	r0, r0, #16	@, v,
 2392              	.LVL228:
 2393 06e2 7047     		bx	lr	@
 2394              		.cfi_endproc
ARM GAS  /tmp/ccQkqy1T.s 			page 79


 2395              	.LFE137:
 2396              		.size	USB_OTG_ReadDevAllOutEp_itr, .-USB_OTG_ReadDevAllOutEp_itr
 2397              		.align	1
 2398              		.global	USB_OTG_ReadDevOutEP_itr
 2399              		.syntax unified
 2400              		.thumb
 2401              		.thumb_func
 2402              		.fpu softvfp
 2403              		.type	USB_OTG_ReadDevOutEP_itr, %function
 2404              	USB_OTG_ReadDevOutEP_itr:
 2405              	.LFB138:
1885:inc/user_libs/usb_core.c **** 
1886:inc/user_libs/usb_core.c **** 
1887:inc/user_libs/usb_core.c **** /**
1888:inc/user_libs/usb_core.c **** * @brief  USB_OTG_ReadDevOutEP_itr : returns Device OUT EP Interrupt register
1889:inc/user_libs/usb_core.c **** * @param  pdev : Selected device
1890:inc/user_libs/usb_core.c **** * @param  ep : end point number
1891:inc/user_libs/usb_core.c **** * @retval Device OUT EP Interrupt register
1892:inc/user_libs/usb_core.c **** */
1893:inc/user_libs/usb_core.c **** uint32_t USB_OTG_ReadDevOutEP_itr(USB_OTG_CORE_HANDLE *pdev , uint8_t epnum)
1894:inc/user_libs/usb_core.c **** {
 2406              		.loc 1 1894 0
 2407              		.cfi_startproc
 2408              		@ args = 0, pretend = 0, frame = 0
 2409              		@ frame_needed = 0, uses_anonymous_args = 0
 2410              		@ link register save eliminated.
 2411              	.LVL229:
 2412              	@ inc/user_libs/usb_core.c:1896:   v  = USB_OTG_READ_REG32(&pdev->regs.OUTEP_REGS[epnum]->DOEPINT);
1895:inc/user_libs/usb_core.c ****   uint32_t v;
1896:inc/user_libs/usb_core.c ****   v  = USB_OTG_READ_REG32(&pdev->regs.OUTEP_REGS[epnum]->DOEPINT);
 2413              		.loc 1 1896 0
 2414 06e4 00EB8101 		add	r1, r0, r1, lsl #2	@ tmp119, pdev, epnum,
 2415              	.LVL230:
 2416 06e8 4B6D     		ldr	r3, [r1, #84]	@ _2, pdev_6(D)->regs.OUTEP_REGS
 2417 06ea 9A68     		ldr	r2, [r3, #8]	@ v, _2->DOEPINT
 2418              	.LVL231:
 2419              	@ inc/user_libs/usb_core.c:1897:   v &= USB_OTG_READ_REG32(&pdev->regs.DREGS->DOEPMSK);
1897:inc/user_libs/usb_core.c ****   v &= USB_OTG_READ_REG32(&pdev->regs.DREGS->DOEPMSK);
 2420              		.loc 1 1897 0
 2421 06ec 0369     		ldr	r3, [r0, #16]	@ _3, pdev_6(D)->regs.DREGS
 2422 06ee 5869     		ldr	r0, [r3, #20]	@ _8, _3->DOEPMSK
 2423              	.LVL232:
 2424              	@ inc/user_libs/usb_core.c:1899: }
1898:inc/user_libs/usb_core.c ****   return v;
1899:inc/user_libs/usb_core.c **** }
 2425              		.loc 1 1899 0
 2426 06f0 1040     		ands	r0, r0, r2	@,, _8, v
 2427              	.LVL233:
 2428 06f2 7047     		bx	lr	@
 2429              		.cfi_endproc
 2430              	.LFE138:
 2431              		.size	USB_OTG_ReadDevOutEP_itr, .-USB_OTG_ReadDevOutEP_itr
 2432              		.align	1
 2433              		.global	USB_OTG_ReadDevAllInEPItr
 2434              		.syntax unified
 2435              		.thumb
 2436              		.thumb_func
ARM GAS  /tmp/ccQkqy1T.s 			page 80


 2437              		.fpu softvfp
 2438              		.type	USB_OTG_ReadDevAllInEPItr, %function
 2439              	USB_OTG_ReadDevAllInEPItr:
 2440              	.LFB139:
1900:inc/user_libs/usb_core.c **** 
1901:inc/user_libs/usb_core.c **** 
1902:inc/user_libs/usb_core.c **** /**
1903:inc/user_libs/usb_core.c **** * @brief  USB_OTG_ReadDevAllInEPItr : Get int status register
1904:inc/user_libs/usb_core.c **** * @param  pdev : Selected device
1905:inc/user_libs/usb_core.c **** * @retval int status register
1906:inc/user_libs/usb_core.c **** */
1907:inc/user_libs/usb_core.c **** uint32_t USB_OTG_ReadDevAllInEPItr(USB_OTG_CORE_HANDLE *pdev)
1908:inc/user_libs/usb_core.c **** {
 2441              		.loc 1 1908 0
 2442              		.cfi_startproc
 2443              		@ args = 0, pretend = 0, frame = 0
 2444              		@ frame_needed = 0, uses_anonymous_args = 0
 2445              		@ link register save eliminated.
 2446              	.LVL234:
 2447              	@ inc/user_libs/usb_core.c:1910:   v = USB_OTG_READ_REG32(&pdev->regs.DREGS->DAINT);
1909:inc/user_libs/usb_core.c ****   uint32_t v;
1910:inc/user_libs/usb_core.c ****   v = USB_OTG_READ_REG32(&pdev->regs.DREGS->DAINT);
 2448              		.loc 1 1910 0
 2449 06f4 0369     		ldr	r3, [r0, #16]	@ _1, pdev_3(D)->regs.DREGS
 2450 06f6 9869     		ldr	r0, [r3, #24]	@ v, _1->DAINT
 2451              	.LVL235:
 2452              	@ inc/user_libs/usb_core.c:1911:   v &= USB_OTG_READ_REG32(&pdev->regs.DREGS->DAINTMSK);
1911:inc/user_libs/usb_core.c ****   v &= USB_OTG_READ_REG32(&pdev->regs.DREGS->DAINTMSK);
 2453              		.loc 1 1911 0
 2454 06f8 DB69     		ldr	r3, [r3, #28]	@ _5, _1->DAINTMSK
 2455              	.LVL236:
 2456 06fa 1840     		ands	r0, r0, r3	@, v, v, _5
 2457              	.LVL237:
 2458              	@ inc/user_libs/usb_core.c:1913: }
1912:inc/user_libs/usb_core.c ****   return (v & 0xffff);
1913:inc/user_libs/usb_core.c **** }
 2459              		.loc 1 1913 0
 2460 06fc 80B2     		uxth	r0, r0	@, v
 2461              	.LVL238:
 2462 06fe 7047     		bx	lr	@
 2463              		.cfi_endproc
 2464              	.LFE139:
 2465              		.size	USB_OTG_ReadDevAllInEPItr, .-USB_OTG_ReadDevAllInEPItr
 2466              		.align	1
 2467              		.global	USB_OTG_EP0_OutStart
 2468              		.syntax unified
 2469              		.thumb
 2470              		.thumb_func
 2471              		.fpu softvfp
 2472              		.type	USB_OTG_EP0_OutStart, %function
 2473              	USB_OTG_EP0_OutStart:
 2474              	.LFB140:
1914:inc/user_libs/usb_core.c **** 
1915:inc/user_libs/usb_core.c **** /**
1916:inc/user_libs/usb_core.c **** * @brief  configures EPO to receive SETUP packets
1917:inc/user_libs/usb_core.c **** * @param  None
1918:inc/user_libs/usb_core.c **** * @retval : None
ARM GAS  /tmp/ccQkqy1T.s 			page 81


1919:inc/user_libs/usb_core.c **** */
1920:inc/user_libs/usb_core.c **** void USB_OTG_EP0_OutStart(USB_OTG_CORE_HANDLE *pdev)
1921:inc/user_libs/usb_core.c **** {
 2475              		.loc 1 1921 0
 2476              		.cfi_startproc
 2477              		@ args = 0, pretend = 0, frame = 8
 2478              		@ frame_needed = 0, uses_anonymous_args = 0
 2479              		@ link register save eliminated.
 2480              	.LVL239:
 2481              	@ inc/user_libs/usb_core.c:1927:   USB_OTG_WRITE_REG32( &pdev->regs.OUTEP_REGS[0]->DOEPTSIZ, doepts
1922:inc/user_libs/usb_core.c ****   USB_OTG_DEP0XFRSIZ_TypeDef  doeptsize0;
1923:inc/user_libs/usb_core.c ****   doeptsize0.d32 = 0;
1924:inc/user_libs/usb_core.c ****   doeptsize0.b.supcnt = 3;
1925:inc/user_libs/usb_core.c ****   doeptsize0.b.pktcnt = 1;
1926:inc/user_libs/usb_core.c ****   doeptsize0.b.xfersize = 8 * 3;
1927:inc/user_libs/usb_core.c ****   USB_OTG_WRITE_REG32( &pdev->regs.OUTEP_REGS[0]->DOEPTSIZ, doeptsize0.d32 );
 2482              		.loc 1 1927 0
 2483 0700 436D     		ldr	r3, [r0, #84]	@ _1, pdev_13(D)->regs.OUTEP_REGS
 2484              	@ inc/user_libs/usb_core.c:1923:   doeptsize0.d32 = 0;
1923:inc/user_libs/usb_core.c ****   doeptsize0.b.supcnt = 3;
 2485              		.loc 1 1923 0
 2486 0702 084A     		ldr	r2, .L177	@ tmp117,
 2487              	@ inc/user_libs/usb_core.c:1927:   USB_OTG_WRITE_REG32( &pdev->regs.OUTEP_REGS[0]->DOEPTSIZ, doepts
 2488              		.loc 1 1927 0
 2489 0704 1A61     		str	r2, [r3, #16]	@ tmp117, _1->DOEPTSIZ
 2490              	@ inc/user_libs/usb_core.c:1921: {
1921:inc/user_libs/usb_core.c ****   USB_OTG_DEP0XFRSIZ_TypeDef  doeptsize0;
 2491              		.loc 1 1921 0
 2492 0706 82B0     		sub	sp, sp, #8	@,,
 2493              	.LCFI19:
 2494              		.cfi_def_cfa_offset 8
 2495              	@ inc/user_libs/usb_core.c:1923:   doeptsize0.d32 = 0;
1923:inc/user_libs/usb_core.c ****   doeptsize0.b.supcnt = 3;
 2496              		.loc 1 1923 0
 2497 0708 0092     		str	r2, [sp]	@ tmp117, MEM[(union _USB_OTG_DEP0XFRSIZ_TypeDef *)&doeptsize0]
 2498              	@ inc/user_libs/usb_core.c:1929:   if (pdev->cfg.dma_enable == 1)
1928:inc/user_libs/usb_core.c ****   
1929:inc/user_libs/usb_core.c ****   if (pdev->cfg.dma_enable == 1)
 2499              		.loc 1 1929 0
 2500 070a C278     		ldrb	r2, [r0, #3]	@ zero_extendqisi2	@ pdev_13(D)->cfg.dma_enable, pdev_13(D)->cfg.dma_enable
 2501 070c 012A     		cmp	r2, #1	@ pdev_13(D)->cfg.dma_enable,
 2502 070e 06D1     		bne	.L175	@,
 2503              	.LBB36:
 2504              	@ inc/user_libs/usb_core.c:1933:     USB_OTG_WRITE_REG32( &pdev->regs.OUTEP_REGS[0]->DOEPDMA, 
1930:inc/user_libs/usb_core.c ****   {
1931:inc/user_libs/usb_core.c ****     USB_OTG_DEPCTL_TypeDef  doepctl;
1932:inc/user_libs/usb_core.c ****     doepctl.d32 = 0;
1933:inc/user_libs/usb_core.c ****     USB_OTG_WRITE_REG32( &pdev->regs.OUTEP_REGS[0]->DOEPDMA, 
 2505              		.loc 1 1933 0
 2506 0710 00F2CC50 		addw	r0, r0, #1484	@ _5, pdev,
 2507              	.LVL240:
 2508 0714 5861     		str	r0, [r3, #20]	@ _5, _1->DOEPDMA
 2509              	@ inc/user_libs/usb_core.c:1937:     doepctl.d32 = USB_OTG_READ_REG32(&pdev->regs.OUTEP_REGS[0]->DO
1934:inc/user_libs/usb_core.c ****                         (uint32_t)&pdev->dev.setup_packet);
1935:inc/user_libs/usb_core.c ****     
1936:inc/user_libs/usb_core.c ****     /* EP enable */
1937:inc/user_libs/usb_core.c ****     doepctl.d32 = USB_OTG_READ_REG32(&pdev->regs.OUTEP_REGS[0]->DOEPCTL);
ARM GAS  /tmp/ccQkqy1T.s 			page 82


 2510              		.loc 1 1937 0
 2511 0716 1A68     		ldr	r2, [r3]	@ _6, _1->DOEPCTL
 2512              	@ inc/user_libs/usb_core.c:1940:     USB_OTG_WRITE_REG32( &pdev->regs.OUTEP_REGS[0]->DOEPCTL, doepc
1938:inc/user_libs/usb_core.c ****     doepctl.b.epena = 1;
1939:inc/user_libs/usb_core.c ****     doepctl.d32 = 0x80008000;
1940:inc/user_libs/usb_core.c ****     USB_OTG_WRITE_REG32( &pdev->regs.OUTEP_REGS[0]->DOEPCTL, doepctl.d32);
 2513              		.loc 1 1940 0
 2514 0718 4FF08022 		mov	r2, #-2147450880	@ tmp119,
 2515 071c 1A60     		str	r2, [r3]	@ tmp119, _1->DOEPCTL
 2516              	.LVL241:
 2517              	.L175:
 2518              	.LBE36:
 2519              	@ inc/user_libs/usb_core.c:1942: }
1941:inc/user_libs/usb_core.c ****   }
1942:inc/user_libs/usb_core.c **** }
 2520              		.loc 1 1942 0
 2521 071e 02B0     		add	sp, sp, #8	@,,
 2522              	.LCFI20:
 2523              		.cfi_def_cfa_offset 0
 2524              		@ sp needed	@
 2525 0720 7047     		bx	lr	@
 2526              	.L178:
 2527 0722 00BF     		.align	2
 2528              	.L177:
 2529 0724 180008C0 		.word	-1073217512
 2530              		.cfi_endproc
 2531              	.LFE140:
 2532              		.size	USB_OTG_EP0_OutStart, .-USB_OTG_EP0_OutStart
 2533              		.align	1
 2534              		.global	USB_OTG_ActiveRemoteWakeup
 2535              		.syntax unified
 2536              		.thumb
 2537              		.thumb_func
 2538              		.fpu softvfp
 2539              		.type	USB_OTG_ActiveRemoteWakeup, %function
 2540              	USB_OTG_ActiveRemoteWakeup:
 2541              	.LFB141:
1943:inc/user_libs/usb_core.c **** 
1944:inc/user_libs/usb_core.c **** /**
1945:inc/user_libs/usb_core.c **** * @brief  USB_OTG_RemoteWakeup : active remote wakeup signalling
1946:inc/user_libs/usb_core.c **** * @param  None
1947:inc/user_libs/usb_core.c **** * @retval : None
1948:inc/user_libs/usb_core.c **** */
1949:inc/user_libs/usb_core.c **** void USB_OTG_ActiveRemoteWakeup(USB_OTG_CORE_HANDLE *pdev)
1950:inc/user_libs/usb_core.c **** {
 2542              		.loc 1 1950 0
 2543              		.cfi_startproc
 2544              		@ args = 0, pretend = 0, frame = 0
 2545              		@ frame_needed = 0, uses_anonymous_args = 0
 2546              	.LVL242:
 2547              	@ inc/user_libs/usb_core.c:1956:   if (pdev->dev.DevRemoteWakeup) 
1951:inc/user_libs/usb_core.c ****   
1952:inc/user_libs/usb_core.c ****   USB_OTG_DCTL_TypeDef     dctl;
1953:inc/user_libs/usb_core.c ****   USB_OTG_DSTS_TypeDef     dsts;
1954:inc/user_libs/usb_core.c ****   USB_OTG_PCGCCTL_TypeDef  power;  
1955:inc/user_libs/usb_core.c ****   
1956:inc/user_libs/usb_core.c ****   if (pdev->dev.DevRemoteWakeup) 
ARM GAS  /tmp/ccQkqy1T.s 			page 83


 2548              		.loc 1 1956 0
 2549 0728 D0F81831 		ldr	r3, [r0, #280]	@ pdev_19(D)->dev.DevRemoteWakeup, pdev_19(D)->dev.DevRemoteWakeup
 2550              	@ inc/user_libs/usb_core.c:1950: {
1950:inc/user_libs/usb_core.c ****   
 2551              		.loc 1 1950 0
 2552 072c 10B5     		push	{r4, lr}	@
 2553              	.LCFI21:
 2554              		.cfi_def_cfa_offset 8
 2555              		.cfi_offset 4, -8
 2556              		.cfi_offset 14, -4
 2557              	@ inc/user_libs/usb_core.c:1950: {
1950:inc/user_libs/usb_core.c ****   
 2558              		.loc 1 1950 0
 2559 072e 0446     		mov	r4, r0	@ pdev, pdev
 2560              	@ inc/user_libs/usb_core.c:1956:   if (pdev->dev.DevRemoteWakeup) 
 2561              		.loc 1 1956 0
 2562 0730 D3B1     		cbz	r3, .L179	@ pdev_19(D)->dev.DevRemoteWakeup,
 2563              	@ inc/user_libs/usb_core.c:1958:     dsts.d32 = USB_OTG_READ_REG32(&pdev->regs.DREGS->DSTS);
1957:inc/user_libs/usb_core.c ****   {
1958:inc/user_libs/usb_core.c ****     dsts.d32 = USB_OTG_READ_REG32(&pdev->regs.DREGS->DSTS);
 2564              		.loc 1 1958 0
 2565 0732 0269     		ldr	r2, [r0, #16]	@ _2, pdev_19(D)->regs.DREGS
 2566 0734 9368     		ldr	r3, [r2, #8]	@ _3, _2->DSTS
 2567              	.LVL243:
 2568              	@ inc/user_libs/usb_core.c:1959:     if(dsts.b.suspsts == 1)
1959:inc/user_libs/usb_core.c ****     if(dsts.b.suspsts == 1)
 2569              		.loc 1 1959 0
 2570 0736 DB07     		lsls	r3, r3, #31	@, _3,
 2571              	.LVL244:
 2572 0738 16D5     		bpl	.L179	@,
 2573              	@ inc/user_libs/usb_core.c:1961:       if(pdev->cfg.low_power)
1960:inc/user_libs/usb_core.c ****     {
1961:inc/user_libs/usb_core.c ****       if(pdev->cfg.low_power)
 2574              		.loc 1 1961 0
 2575 073a 837A     		ldrb	r3, [r0, #10]	@ zero_extendqisi2	@ pdev_19(D)->cfg.low_power, pdev_19(D)->cfg.low_power
 2576 073c 43B1     		cbz	r3, .L181	@ pdev_19(D)->cfg.low_power,
 2577              	@ inc/user_libs/usb_core.c:1964:         power.d32 = USB_OTG_READ_REG32(&pdev->regs.PCGCCTL);
1962:inc/user_libs/usb_core.c ****       {
1963:inc/user_libs/usb_core.c ****         /* un-gate USB Core clock */
1964:inc/user_libs/usb_core.c ****         power.d32 = USB_OTG_READ_REG32(&pdev->regs.PCGCCTL);
 2578              		.loc 1 1964 0
 2579 073e D0F80C31 		ldr	r3, [r0, #268]	@ _6, MEM[(volatile uint32_t *)pdev_19(D) + 268B]
 2580              	@ inc/user_libs/usb_core.c:1967:         USB_OTG_WRITE_REG32(pdev->regs.PCGCCTL, power.d32);
1965:inc/user_libs/usb_core.c ****         power.b.gatehclk = 0;
1966:inc/user_libs/usb_core.c ****         power.b.stoppclk = 0;
1967:inc/user_libs/usb_core.c ****         USB_OTG_WRITE_REG32(pdev->regs.PCGCCTL, power.d32);
 2581              		.loc 1 1967 0
 2582 0742 D0F80C11 		ldr	r1, [r0, #268]	@ _7, pdev_19(D)->regs.PCGCCTL
 2583              	@ inc/user_libs/usb_core.c:1965:         power.b.gatehclk = 0;
1965:inc/user_libs/usb_core.c ****         power.b.gatehclk = 0;
 2584              		.loc 1 1965 0
 2585 0746 6FF34103 		bfc	r3, #1, #1	@ power,,
 2586              	.LVL245:
 2587              	@ inc/user_libs/usb_core.c:1966:         power.b.stoppclk = 0;
1966:inc/user_libs/usb_core.c ****         USB_OTG_WRITE_REG32(pdev->regs.PCGCCTL, power.d32);
 2588              		.loc 1 1966 0
 2589 074a 6FF30003 		bfc	r3, #0, #1	@ power,,
ARM GAS  /tmp/ccQkqy1T.s 			page 84


 2590              	@ inc/user_libs/usb_core.c:1967:         USB_OTG_WRITE_REG32(pdev->regs.PCGCCTL, power.d32);
 2591              		.loc 1 1967 0
 2592 074e 0B60     		str	r3, [r1]	@ power, *_7
 2593              	.L181:
 2594              	@ inc/user_libs/usb_core.c:1972:       USB_OTG_MODIFY_REG32(&pdev->regs.DREGS->DCTL, 0, dctl.d32);
1968:inc/user_libs/usb_core.c ****       }   
1969:inc/user_libs/usb_core.c ****       /* active Remote wakeup signaling */
1970:inc/user_libs/usb_core.c ****       dctl.d32 = 0;
1971:inc/user_libs/usb_core.c ****       dctl.b.rmtwkupsig = 1;
1972:inc/user_libs/usb_core.c ****       USB_OTG_MODIFY_REG32(&pdev->regs.DREGS->DCTL, 0, dctl.d32);
 2595              		.loc 1 1972 0
 2596 0750 5368     		ldr	r3, [r2, #4]	@ _9, _2->DCTL
 2597              	.LVL246:
 2598 0752 43F00103 		orr	r3, r3, #1	@ _11, _9,
 2599 0756 5360     		str	r3, [r2, #4]	@ _11, _2->DCTL
 2600              	@ inc/user_libs/usb_core.c:1973:       USB_OTG_BSP_mDelay(5);
1973:inc/user_libs/usb_core.c ****       USB_OTG_BSP_mDelay(5);
 2601              		.loc 1 1973 0
 2602 0758 0520     		movs	r0, #5	@,
 2603              	.LVL247:
 2604 075a FFF7FEFF 		bl	USB_OTG_BSP_mDelay	@
 2605              	.LVL248:
 2606              	@ inc/user_libs/usb_core.c:1974:       USB_OTG_MODIFY_REG32(&pdev->regs.DREGS->DCTL, dctl.d32, 0 );
1974:inc/user_libs/usb_core.c ****       USB_OTG_MODIFY_REG32(&pdev->regs.DREGS->DCTL, dctl.d32, 0 );
 2607              		.loc 1 1974 0
 2608 075e 2269     		ldr	r2, [r4, #16]	@ _12, pdev_19(D)->regs.DREGS
 2609 0760 5368     		ldr	r3, [r2, #4]	@ _13, _12->DCTL
 2610 0762 23F00103 		bic	r3, r3, #1	@ _15, _13,
 2611 0766 5360     		str	r3, [r2, #4]	@ _15, _12->DCTL
 2612              	.L179:
 2613              	@ inc/user_libs/usb_core.c:1977: }
1975:inc/user_libs/usb_core.c ****     }
1976:inc/user_libs/usb_core.c ****   }
1977:inc/user_libs/usb_core.c **** }
 2614              		.loc 1 1977 0
 2615 0768 10BD     		pop	{r4, pc}	@
 2616              		.cfi_endproc
 2617              	.LFE141:
 2618              		.size	USB_OTG_ActiveRemoteWakeup, .-USB_OTG_ActiveRemoteWakeup
 2619              		.align	1
 2620              		.global	USB_OTG_UngateClock
 2621              		.syntax unified
 2622              		.thumb
 2623              		.thumb_func
 2624              		.fpu softvfp
 2625              		.type	USB_OTG_UngateClock, %function
 2626              	USB_OTG_UngateClock:
 2627              	.LFB142:
1978:inc/user_libs/usb_core.c **** 
1979:inc/user_libs/usb_core.c **** 
1980:inc/user_libs/usb_core.c **** /**
1981:inc/user_libs/usb_core.c **** * @brief  USB_OTG_UngateClock : active USB Core clock
1982:inc/user_libs/usb_core.c **** * @param  None
1983:inc/user_libs/usb_core.c **** * @retval : None
1984:inc/user_libs/usb_core.c **** */
1985:inc/user_libs/usb_core.c **** void USB_OTG_UngateClock(USB_OTG_CORE_HANDLE *pdev)
1986:inc/user_libs/usb_core.c **** {
ARM GAS  /tmp/ccQkqy1T.s 			page 85


 2628              		.loc 1 1986 0
 2629              		.cfi_startproc
 2630              		@ args = 0, pretend = 0, frame = 0
 2631              		@ frame_needed = 0, uses_anonymous_args = 0
 2632              		@ link register save eliminated.
 2633              	.LVL249:
 2634              	@ inc/user_libs/usb_core.c:1987:   if(pdev->cfg.low_power)
1987:inc/user_libs/usb_core.c ****   if(pdev->cfg.low_power)
 2635              		.loc 1 1987 0
 2636 076a 837A     		ldrb	r3, [r0, #10]	@ zero_extendqisi2	@ pdev_11(D)->cfg.low_power, pdev_11(D)->cfg.low_power
 2637 076c 63B1     		cbz	r3, .L191	@ pdev_11(D)->cfg.low_power,
 2638              	.LBB37:
 2639              	@ inc/user_libs/usb_core.c:1993:     dsts.d32 = USB_OTG_READ_REG32(&pdev->regs.DREGS->DSTS);
1988:inc/user_libs/usb_core.c ****   {
1989:inc/user_libs/usb_core.c ****     
1990:inc/user_libs/usb_core.c ****     USB_OTG_DSTS_TypeDef     dsts;
1991:inc/user_libs/usb_core.c ****     USB_OTG_PCGCCTL_TypeDef  power; 
1992:inc/user_libs/usb_core.c ****     
1993:inc/user_libs/usb_core.c ****     dsts.d32 = USB_OTG_READ_REG32(&pdev->regs.DREGS->DSTS);
 2640              		.loc 1 1993 0
 2641 076e 0369     		ldr	r3, [r0, #16]	@ _2, pdev_11(D)->regs.DREGS
 2642 0770 9B68     		ldr	r3, [r3, #8]	@ _3, _2->DSTS
 2643              	.LVL250:
 2644              	@ inc/user_libs/usb_core.c:1995:     if(dsts.b.suspsts == 1)
1994:inc/user_libs/usb_core.c ****     
1995:inc/user_libs/usb_core.c ****     if(dsts.b.suspsts == 1)
 2645              		.loc 1 1995 0
 2646 0772 DB07     		lsls	r3, r3, #31	@, _3,
 2647              	.LVL251:
 2648 0774 08D5     		bpl	.L191	@,
 2649              	@ inc/user_libs/usb_core.c:1998:       power.d32 = USB_OTG_READ_REG32(&pdev->regs.PCGCCTL);
1996:inc/user_libs/usb_core.c ****     {
1997:inc/user_libs/usb_core.c ****       /* un-gate USB Core clock */
1998:inc/user_libs/usb_core.c ****       power.d32 = USB_OTG_READ_REG32(&pdev->regs.PCGCCTL);
 2650              		.loc 1 1998 0
 2651 0776 D0F80C31 		ldr	r3, [r0, #268]	@ _5, MEM[(volatile uint32_t *)pdev_11(D) + 268B]
 2652              	@ inc/user_libs/usb_core.c:2001:       USB_OTG_WRITE_REG32(pdev->regs.PCGCCTL, power.d32);
1999:inc/user_libs/usb_core.c ****       power.b.gatehclk = 0;
2000:inc/user_libs/usb_core.c ****       power.b.stoppclk = 0;
2001:inc/user_libs/usb_core.c ****       USB_OTG_WRITE_REG32(pdev->regs.PCGCCTL, power.d32);
 2653              		.loc 1 2001 0
 2654 077a D0F80C21 		ldr	r2, [r0, #268]	@ _6, pdev_11(D)->regs.PCGCCTL
 2655              	@ inc/user_libs/usb_core.c:1999:       power.b.gatehclk = 0;
1999:inc/user_libs/usb_core.c ****       power.b.gatehclk = 0;
 2656              		.loc 1 1999 0
 2657 077e 6FF34103 		bfc	r3, #1, #1	@ power,,
 2658              	.LVL252:
 2659              	@ inc/user_libs/usb_core.c:2000:       power.b.stoppclk = 0;
2000:inc/user_libs/usb_core.c ****       USB_OTG_WRITE_REG32(pdev->regs.PCGCCTL, power.d32);
 2660              		.loc 1 2000 0
 2661 0782 6FF30003 		bfc	r3, #0, #1	@ power,,
 2662              	@ inc/user_libs/usb_core.c:2001:       USB_OTG_WRITE_REG32(pdev->regs.PCGCCTL, power.d32);
 2663              		.loc 1 2001 0
 2664 0786 1360     		str	r3, [r2]	@ power, *_6
 2665              	.L191:
 2666              	.LBE37:
 2667              	@ inc/user_libs/usb_core.c:2005: }
ARM GAS  /tmp/ccQkqy1T.s 			page 86


2002:inc/user_libs/usb_core.c ****       
2003:inc/user_libs/usb_core.c ****     }
2004:inc/user_libs/usb_core.c ****   }
2005:inc/user_libs/usb_core.c **** }
 2668              		.loc 1 2005 0
 2669 0788 7047     		bx	lr	@
 2670              		.cfi_endproc
 2671              	.LFE142:
 2672              		.size	USB_OTG_UngateClock, .-USB_OTG_UngateClock
 2673              		.align	1
 2674              		.global	USB_OTG_StopDevice
 2675              		.syntax unified
 2676              		.thumb
 2677              		.thumb_func
 2678              		.fpu softvfp
 2679              		.type	USB_OTG_StopDevice, %function
 2680              	USB_OTG_StopDevice:
 2681              	.LFB143:
2006:inc/user_libs/usb_core.c **** 
2007:inc/user_libs/usb_core.c **** /**
2008:inc/user_libs/usb_core.c **** * @brief  Stop the device and clean up fifo's
2009:inc/user_libs/usb_core.c **** * @param  None
2010:inc/user_libs/usb_core.c **** * @retval : None
2011:inc/user_libs/usb_core.c **** */
2012:inc/user_libs/usb_core.c **** void USB_OTG_StopDevice(USB_OTG_CORE_HANDLE *pdev)
2013:inc/user_libs/usb_core.c **** {
 2682              		.loc 1 2013 0
 2683              		.cfi_startproc
 2684              		@ args = 0, pretend = 0, frame = 0
 2685              		@ frame_needed = 0, uses_anonymous_args = 0
 2686              	.LVL253:
 2687 078a 10B5     		push	{r4, lr}	@
 2688              	.LCFI22:
 2689              		.cfi_def_cfa_offset 8
 2690              		.cfi_offset 4, -8
 2691              		.cfi_offset 14, -4
 2692              	@ inc/user_libs/usb_core.c:2016:   pdev->dev.device_status = 1;
2014:inc/user_libs/usb_core.c ****   uint32_t i;
2015:inc/user_libs/usb_core.c ****   
2016:inc/user_libs/usb_core.c ****   pdev->dev.device_status = 1;
 2693              		.loc 1 2016 0
 2694 078c 0123     		movs	r3, #1	@ tmp124,
 2695 078e 4278     		ldrb	r2, [r0, #1]	@ zero_extendqisi2	@ pdev_9(D)->cfg.dev_endpoints, pdev_9(D)->cfg.dev_endpoints
 2696 0790 80F81231 		strb	r3, [r0, #274]	@ tmp124, pdev_9(D)->dev.device_status
 2697              	.LVL254:
 2698 0794 00F11803 		add	r3, r0, #24	@ ivtmp.232, pdev,
 2699              	@ inc/user_libs/usb_core.c:2013: {
2013:inc/user_libs/usb_core.c ****   uint32_t i;
 2700              		.loc 1 2013 0
 2701 0798 0446     		mov	r4, r0	@ pdev, pdev
 2702 079a 03EB8202 		add	r2, r3, r2, lsl #2	@ _28, ivtmp.232, pdev_9(D)->cfg.dev_endpoints,
 2703              	@ inc/user_libs/usb_core.c:2020:     USB_OTG_WRITE_REG32( &pdev->regs.INEP_REGS[i]->DIEPINT, 0xFF);
2017:inc/user_libs/usb_core.c ****   
2018:inc/user_libs/usb_core.c ****   for (i = 0; i < pdev->cfg.dev_endpoints ; i++)
2019:inc/user_libs/usb_core.c ****   {
2020:inc/user_libs/usb_core.c ****     USB_OTG_WRITE_REG32( &pdev->regs.INEP_REGS[i]->DIEPINT, 0xFF);
 2704              		.loc 1 2020 0
ARM GAS  /tmp/ccQkqy1T.s 			page 87


 2705 079e FF21     		movs	r1, #255	@ tmp137,
 2706              	.LVL255:
 2707              	.L201:
 2708              	@ inc/user_libs/usb_core.c:2018:   for (i = 0; i < pdev->cfg.dev_endpoints ; i++)
2018:inc/user_libs/usb_core.c ****   {
 2709              		.loc 1 2018 0 discriminator 1
 2710 07a0 9342     		cmp	r3, r2	@ ivtmp.232, _28
 2711 07a2 10D1     		bne	.L202	@,
 2712              	@ inc/user_libs/usb_core.c:2024:   USB_OTG_WRITE_REG32( &pdev->regs.DREGS->DIEPMSK, 0 );
2021:inc/user_libs/usb_core.c ****     USB_OTG_WRITE_REG32( &pdev->regs.OUTEP_REGS[i]->DOEPINT, 0xFF);
2022:inc/user_libs/usb_core.c ****   }
2023:inc/user_libs/usb_core.c ****   
2024:inc/user_libs/usb_core.c ****   USB_OTG_WRITE_REG32( &pdev->regs.DREGS->DIEPMSK, 0 );
 2713              		.loc 1 2024 0
 2714 07a4 2369     		ldr	r3, [r4, #16]	@ _5, pdev_9(D)->regs.DREGS
 2715 07a6 0022     		movs	r2, #0	@ tmp133,
 2716 07a8 1A61     		str	r2, [r3, #16]	@ tmp133, _5->DIEPMSK
 2717              	@ inc/user_libs/usb_core.c:2025:   USB_OTG_WRITE_REG32( &pdev->regs.DREGS->DOEPMSK, 0 );
2025:inc/user_libs/usb_core.c ****   USB_OTG_WRITE_REG32( &pdev->regs.DREGS->DOEPMSK, 0 );
 2718              		.loc 1 2025 0
 2719 07aa 5A61     		str	r2, [r3, #20]	@ tmp133, _5->DOEPMSK
 2720              	@ inc/user_libs/usb_core.c:2026:   USB_OTG_WRITE_REG32( &pdev->regs.DREGS->DAINTMSK, 0 );
2026:inc/user_libs/usb_core.c ****   USB_OTG_WRITE_REG32( &pdev->regs.DREGS->DAINTMSK, 0 );
 2721              		.loc 1 2026 0
 2722 07ac DA61     		str	r2, [r3, #28]	@ tmp133, _5->DAINTMSK
 2723              	@ inc/user_libs/usb_core.c:2027:   USB_OTG_WRITE_REG32( &pdev->regs.DREGS->DAINT, 0xFFFFFFFF );  
2027:inc/user_libs/usb_core.c ****   USB_OTG_WRITE_REG32( &pdev->regs.DREGS->DAINT, 0xFFFFFFFF );  
 2724              		.loc 1 2027 0
 2725 07ae 4FF0FF32 		mov	r2, #-1	@ tmp136,
 2726              	@ inc/user_libs/usb_core.c:2030:   USB_OTG_FlushRxFifo(pdev);
2028:inc/user_libs/usb_core.c ****   
2029:inc/user_libs/usb_core.c ****   /* Flush the FIFO */
2030:inc/user_libs/usb_core.c ****   USB_OTG_FlushRxFifo(pdev);
 2727              		.loc 1 2030 0
 2728 07b2 2046     		mov	r0, r4	@, pdev
 2729              	@ inc/user_libs/usb_core.c:2027:   USB_OTG_WRITE_REG32( &pdev->regs.DREGS->DAINT, 0xFFFFFFFF );  
2027:inc/user_libs/usb_core.c ****   USB_OTG_WRITE_REG32( &pdev->regs.DREGS->DAINT, 0xFFFFFFFF );  
 2730              		.loc 1 2027 0
 2731 07b4 9A61     		str	r2, [r3, #24]	@ tmp136, _5->DAINT
 2732              	@ inc/user_libs/usb_core.c:2030:   USB_OTG_FlushRxFifo(pdev);
 2733              		.loc 1 2030 0
 2734 07b6 FFF7FEFF 		bl	USB_OTG_FlushRxFifo	@
 2735              	.LVL256:
 2736              	@ inc/user_libs/usb_core.c:2031:   USB_OTG_FlushTxFifo(pdev ,  0x10 );  
2031:inc/user_libs/usb_core.c ****   USB_OTG_FlushTxFifo(pdev ,  0x10 );  
 2737              		.loc 1 2031 0
 2738 07ba 2046     		mov	r0, r4	@, pdev
 2739 07bc 1021     		movs	r1, #16	@,
 2740              	@ inc/user_libs/usb_core.c:2032: }
2032:inc/user_libs/usb_core.c **** }
 2741              		.loc 1 2032 0
 2742 07be BDE81040 		pop	{r4, lr}	@
 2743              	.LCFI23:
 2744              		.cfi_remember_state
 2745              		.cfi_restore 14
 2746              		.cfi_restore 4
 2747              		.cfi_def_cfa_offset 0
ARM GAS  /tmp/ccQkqy1T.s 			page 88


 2748              	.LVL257:
 2749              	@ inc/user_libs/usb_core.c:2031:   USB_OTG_FlushTxFifo(pdev ,  0x10 );  
2031:inc/user_libs/usb_core.c ****   USB_OTG_FlushTxFifo(pdev ,  0x10 );  
 2750              		.loc 1 2031 0
 2751 07c2 FFF7FEBF 		b	USB_OTG_FlushTxFifo	@
 2752              	.LVL258:
 2753              	.L202:
 2754              	.LCFI24:
 2755              		.cfi_restore_state
 2756              	@ inc/user_libs/usb_core.c:2020:     USB_OTG_WRITE_REG32( &pdev->regs.INEP_REGS[i]->DIEPINT, 0xFF);
2020:inc/user_libs/usb_core.c ****     USB_OTG_WRITE_REG32( &pdev->regs.OUTEP_REGS[i]->DOEPINT, 0xFF);
 2757              		.loc 1 2020 0 discriminator 3
 2758 07c6 53F8040B 		ldr	r0, [r3], #4	@ _1, MEM[base: _29, offset: 0B]
 2759 07ca 8160     		str	r1, [r0, #8]	@ tmp137, _1->DIEPINT
 2760              	@ inc/user_libs/usb_core.c:2021:     USB_OTG_WRITE_REG32( &pdev->regs.OUTEP_REGS[i]->DOEPINT, 0xFF)
2021:inc/user_libs/usb_core.c ****   }
 2761              		.loc 1 2021 0 discriminator 3
 2762 07cc 986B     		ldr	r0, [r3, #56]	@ _2, MEM[base: _30, offset: 56B]
 2763 07ce 8160     		str	r1, [r0, #8]	@ tmp137, _2->DOEPINT
 2764 07d0 E6E7     		b	.L201	@
 2765              		.cfi_endproc
 2766              	.LFE143:
 2767              		.size	USB_OTG_StopDevice, .-USB_OTG_StopDevice
 2768              		.align	1
 2769              		.global	USB_OTG_GetEPStatus
 2770              		.syntax unified
 2771              		.thumb
 2772              		.thumb_func
 2773              		.fpu softvfp
 2774              		.type	USB_OTG_GetEPStatus, %function
 2775              	USB_OTG_GetEPStatus:
 2776              	.LFB144:
2033:inc/user_libs/usb_core.c **** 
2034:inc/user_libs/usb_core.c **** /**
2035:inc/user_libs/usb_core.c **** * @brief  returns the EP Status
2036:inc/user_libs/usb_core.c **** * @param  pdev : Selected device
2037:inc/user_libs/usb_core.c **** *         ep : endpoint structure
2038:inc/user_libs/usb_core.c **** * @retval : EP status
2039:inc/user_libs/usb_core.c **** */
2040:inc/user_libs/usb_core.c **** 
2041:inc/user_libs/usb_core.c **** uint32_t USB_OTG_GetEPStatus(USB_OTG_CORE_HANDLE *pdev ,USB_OTG_EP *ep)
2042:inc/user_libs/usb_core.c **** {
 2777              		.loc 1 2042 0
 2778              		.cfi_startproc
 2779              		@ args = 0, pretend = 0, frame = 0
 2780              		@ frame_needed = 0, uses_anonymous_args = 0
 2781              		@ link register save eliminated.
 2782              	.LVL259:
 2783              	@ inc/user_libs/usb_core.c:2048:   if (ep->is_in == 1)
2043:inc/user_libs/usb_core.c ****   USB_OTG_DEPCTL_TypeDef  depctl;
2044:inc/user_libs/usb_core.c ****   __IO uint32_t *depctl_addr;
2045:inc/user_libs/usb_core.c ****   uint32_t Status = 0;  
2046:inc/user_libs/usb_core.c ****   
2047:inc/user_libs/usb_core.c ****   depctl.d32 = 0;
2048:inc/user_libs/usb_core.c ****   if (ep->is_in == 1)
 2784              		.loc 1 2048 0
 2785 07d2 4A78     		ldrb	r2, [r1, #1]	@ zero_extendqisi2	@ ep_17(D)->is_in, ep_17(D)->is_in
ARM GAS  /tmp/ccQkqy1T.s 			page 89


 2786 07d4 0B78     		ldrb	r3, [r1]	@ zero_extendqisi2	@ _20, ep_17(D)->num
 2787 07d6 012A     		cmp	r2, #1	@ ep_17(D)->is_in,
 2788              	@ inc/user_libs/usb_core.c:2050:     depctl_addr = &(pdev->regs.INEP_REGS[ep->num]->DIEPCTL);
2049:inc/user_libs/usb_core.c ****   {
2050:inc/user_libs/usb_core.c ****     depctl_addr = &(pdev->regs.INEP_REGS[ep->num]->DIEPCTL);
 2789              		.loc 1 2050 0
 2790 07d8 00EB8300 		add	r0, r0, r3, lsl #2	@ tmp128, pdev, _20,
 2791              	.LVL260:
 2792              	@ inc/user_libs/usb_core.c:2048:   if (ep->is_in == 1)
2048:inc/user_libs/usb_core.c ****   {
 2793              		.loc 1 2048 0
 2794 07dc 0BD1     		bne	.L204	@,
 2795              	@ inc/user_libs/usb_core.c:2050:     depctl_addr = &(pdev->regs.INEP_REGS[ep->num]->DIEPCTL);
 2796              		.loc 1 2050 0
 2797 07de 8369     		ldr	r3, [r0, #24]	@ _4, pdev_18(D)->regs.INEP_REGS
 2798              	.LVL261:
 2799              	@ inc/user_libs/usb_core.c:2051:     depctl.d32 = USB_OTG_READ_REG32(depctl_addr);
2051:inc/user_libs/usb_core.c ****     depctl.d32 = USB_OTG_READ_REG32(depctl_addr);
 2800              		.loc 1 2051 0
 2801 07e0 1B68     		ldr	r3, [r3]	@ _5, MEM[(volatile uint32_t *)_4]
 2802              	.LVL262:
 2803 07e2 C3F30743 		ubfx	r3, r3, #16, #8	@ _16, _5,,
 2804              	.LVL263:
 2805              	@ inc/user_libs/usb_core.c:2053:     if (depctl.b.stall == 1)  
2052:inc/user_libs/usb_core.c ****     
2053:inc/user_libs/usb_core.c ****     if (depctl.b.stall == 1)  
 2806              		.loc 1 2053 0
 2807 07e6 9906     		lsls	r1, r3, #26	@, _16,
 2808              	.LVL264:
 2809 07e8 13D4     		bmi	.L206	@,
 2810              	@ inc/user_libs/usb_core.c:2055:     else if (depctl.b.naksts == 1)
2054:inc/user_libs/usb_core.c ****       Status = USB_OTG_EP_TX_STALL;
2055:inc/user_libs/usb_core.c ****     else if (depctl.b.naksts == 1)
 2811              		.loc 1 2055 0
 2812 07ea 13F0020F 		tst	r3, #2	@ _16,
 2813              	@ inc/user_libs/usb_core.c:2056:       Status = USB_OTG_EP_TX_NAK;
2056:inc/user_libs/usb_core.c ****       Status = USB_OTG_EP_TX_NAK;
 2814              		.loc 1 2056 0
 2815 07ee 0CBF     		ite	eq
 2816 07f0 3020     		moveq	r0, #48	@ <retval>,
 2817              	.LVL265:
 2818 07f2 2020     		movne	r0, #32	@ <retval>,
 2819 07f4 7047     		bx	lr	@
 2820              	.LVL266:
 2821              	.L204:
 2822              	@ inc/user_libs/usb_core.c:2063:     depctl_addr = &(pdev->regs.OUTEP_REGS[ep->num]->DOEPCTL);
2057:inc/user_libs/usb_core.c ****     else 
2058:inc/user_libs/usb_core.c ****       Status = USB_OTG_EP_TX_VALID;     
2059:inc/user_libs/usb_core.c ****     
2060:inc/user_libs/usb_core.c ****   }
2061:inc/user_libs/usb_core.c ****   else
2062:inc/user_libs/usb_core.c ****   {
2063:inc/user_libs/usb_core.c ****     depctl_addr = &(pdev->regs.OUTEP_REGS[ep->num]->DOEPCTL);
 2823              		.loc 1 2063 0
 2824 07f6 436D     		ldr	r3, [r0, #84]	@ _10, pdev_18(D)->regs.OUTEP_REGS
 2825              	.LVL267:
 2826              	@ inc/user_libs/usb_core.c:2064:     depctl.d32 = USB_OTG_READ_REG32(depctl_addr);
ARM GAS  /tmp/ccQkqy1T.s 			page 90


2064:inc/user_libs/usb_core.c ****     depctl.d32 = USB_OTG_READ_REG32(depctl_addr);
 2827              		.loc 1 2064 0
 2828 07f8 1B68     		ldr	r3, [r3]	@ _11, MEM[(volatile uint32_t *)_10]
 2829              	.LVL268:
 2830 07fa C3F30743 		ubfx	r3, r3, #16, #8	@ _19, _11,,
 2831              	.LVL269:
 2832              	@ inc/user_libs/usb_core.c:2065:     if (depctl.b.stall == 1)  
2065:inc/user_libs/usb_core.c ****     if (depctl.b.stall == 1)  
 2833              		.loc 1 2065 0
 2834 07fe 9A06     		lsls	r2, r3, #26	@, _19,
 2835 0800 09D4     		bmi	.L208	@,
 2836              	@ inc/user_libs/usb_core.c:2067:     else if (depctl.b.naksts == 1)
2066:inc/user_libs/usb_core.c ****       Status = USB_OTG_EP_RX_STALL;
2067:inc/user_libs/usb_core.c ****     else if (depctl.b.naksts == 1)
 2837              		.loc 1 2067 0
 2838 0802 13F0020F 		tst	r3, #2	@ _19,
 2839              	@ inc/user_libs/usb_core.c:2068:       Status = USB_OTG_EP_RX_NAK;
2068:inc/user_libs/usb_core.c ****       Status = USB_OTG_EP_RX_NAK;
 2840              		.loc 1 2068 0
 2841 0806 0CBF     		ite	eq
 2842 0808 4FF44050 		moveq	r0, #12288	@ <retval>,
 2843              	.LVL270:
 2844 080c 4FF40050 		movne	r0, #8192	@ <retval>,
 2845 0810 7047     		bx	lr	@
 2846              	.LVL271:
 2847              	.L206:
 2848              	@ inc/user_libs/usb_core.c:2054:       Status = USB_OTG_EP_TX_STALL;
2054:inc/user_libs/usb_core.c ****     else if (depctl.b.naksts == 1)
 2849              		.loc 1 2054 0
 2850 0812 1020     		movs	r0, #16	@ <retval>,
 2851              	.LVL272:
 2852 0814 7047     		bx	lr	@
 2853              	.LVL273:
 2854              	.L208:
 2855              	@ inc/user_libs/usb_core.c:2066:       Status = USB_OTG_EP_RX_STALL;
2066:inc/user_libs/usb_core.c ****       Status = USB_OTG_EP_RX_STALL;
 2856              		.loc 1 2066 0
 2857 0816 4FF48050 		mov	r0, #4096	@ <retval>,
 2858              	.LVL274:
 2859              	@ inc/user_libs/usb_core.c:2075: }
2069:inc/user_libs/usb_core.c ****     else 
2070:inc/user_libs/usb_core.c ****       Status = USB_OTG_EP_RX_VALID; 
2071:inc/user_libs/usb_core.c ****   } 
2072:inc/user_libs/usb_core.c ****   
2073:inc/user_libs/usb_core.c ****   /* Return the current status */
2074:inc/user_libs/usb_core.c ****   return Status;
2075:inc/user_libs/usb_core.c **** }
 2860              		.loc 1 2075 0
 2861 081a 7047     		bx	lr	@
 2862              		.cfi_endproc
 2863              	.LFE144:
 2864              		.size	USB_OTG_GetEPStatus, .-USB_OTG_GetEPStatus
 2865              		.align	1
 2866              		.global	USB_OTG_SetEPStatus
 2867              		.syntax unified
 2868              		.thumb
 2869              		.thumb_func
ARM GAS  /tmp/ccQkqy1T.s 			page 91


 2870              		.fpu softvfp
 2871              		.type	USB_OTG_SetEPStatus, %function
 2872              	USB_OTG_SetEPStatus:
 2873              	.LFB145:
2076:inc/user_libs/usb_core.c **** 
2077:inc/user_libs/usb_core.c **** /**
2078:inc/user_libs/usb_core.c **** * @brief  Set the EP Status
2079:inc/user_libs/usb_core.c **** * @param  pdev : Selected device
2080:inc/user_libs/usb_core.c **** *         Status : new Status
2081:inc/user_libs/usb_core.c **** *         ep : EP structure
2082:inc/user_libs/usb_core.c **** * @retval : None
2083:inc/user_libs/usb_core.c **** */
2084:inc/user_libs/usb_core.c **** void USB_OTG_SetEPStatus (USB_OTG_CORE_HANDLE *pdev , USB_OTG_EP *ep , uint32_t Status)
2085:inc/user_libs/usb_core.c **** {
 2874              		.loc 1 2085 0
 2875              		.cfi_startproc
 2876              		@ args = 0, pretend = 0, frame = 0
 2877              		@ frame_needed = 0, uses_anonymous_args = 0
 2878              		@ link register save eliminated.
 2879              	.LVL275:
 2880 081c 70B4     		push	{r4, r5, r6}	@
 2881              	.LCFI25:
 2882              		.cfi_def_cfa_offset 12
 2883              		.cfi_offset 4, -12
 2884              		.cfi_offset 5, -8
 2885              		.cfi_offset 6, -4
 2886              	@ inc/user_libs/usb_core.c:2092:   if (ep->is_in == 1)
2086:inc/user_libs/usb_core.c ****   USB_OTG_DEPCTL_TypeDef  depctl;
2087:inc/user_libs/usb_core.c ****   __IO uint32_t *depctl_addr;
2088:inc/user_libs/usb_core.c ****   
2089:inc/user_libs/usb_core.c ****   depctl.d32 = 0;
2090:inc/user_libs/usb_core.c ****   
2091:inc/user_libs/usb_core.c ****   /* Process for IN endpoint */
2092:inc/user_libs/usb_core.c ****   if (ep->is_in == 1)
 2887              		.loc 1 2092 0
 2888 081e 4C78     		ldrb	r4, [r1, #1]	@ zero_extendqisi2	@ ep_18(D)->is_in, ep_18(D)->is_in
 2889 0820 0B78     		ldrb	r3, [r1]	@ zero_extendqisi2	@ _54, ep_18(D)->num
 2890 0822 012C     		cmp	r4, #1	@ ep_18(D)->is_in,
 2891              	@ inc/user_libs/usb_core.c:2085: {
2085:inc/user_libs/usb_core.c ****   USB_OTG_DEPCTL_TypeDef  depctl;
 2892              		.loc 1 2085 0
 2893 0824 0646     		mov	r6, r0	@ pdev, pdev
 2894 0826 0D46     		mov	r5, r1	@ ep, ep
 2895              	@ inc/user_libs/usb_core.c:2094:     depctl_addr = &(pdev->regs.INEP_REGS[ep->num]->DIEPCTL);
2093:inc/user_libs/usb_core.c ****   {
2094:inc/user_libs/usb_core.c ****     depctl_addr = &(pdev->regs.INEP_REGS[ep->num]->DIEPCTL);
 2896              		.loc 1 2094 0
 2897 0828 00EB8303 		add	r3, r0, r3, lsl #2	@ tmp129, pdev, _54,
 2898              	@ inc/user_libs/usb_core.c:2092:   if (ep->is_in == 1)
2092:inc/user_libs/usb_core.c ****   {
 2899              		.loc 1 2092 0
 2900 082c 16D1     		bne	.L211	@,
 2901              	@ inc/user_libs/usb_core.c:2094:     depctl_addr = &(pdev->regs.INEP_REGS[ep->num]->DIEPCTL);
 2902              		.loc 1 2094 0
 2903 082e 9C69     		ldr	r4, [r3, #24]	@ depctl_addr, pdev_19(D)->regs.INEP_REGS
 2904              	.LVL276:
 2905              	@ inc/user_libs/usb_core.c:2097:     if (Status == USB_OTG_EP_TX_STALL)  
ARM GAS  /tmp/ccQkqy1T.s 			page 92


2095:inc/user_libs/usb_core.c ****     depctl.d32 = USB_OTG_READ_REG32(depctl_addr);
2096:inc/user_libs/usb_core.c ****     
2097:inc/user_libs/usb_core.c ****     if (Status == USB_OTG_EP_TX_STALL)  
 2906              		.loc 1 2097 0
 2907 0830 102A     		cmp	r2, #16	@ Status,
 2908              	@ inc/user_libs/usb_core.c:2095:     depctl.d32 = USB_OTG_READ_REG32(depctl_addr);
2095:inc/user_libs/usb_core.c ****     depctl.d32 = USB_OTG_READ_REG32(depctl_addr);
 2909              		.loc 1 2095 0
 2910 0832 2368     		ldr	r3, [r4]	@ depctl, MEM[(volatile uint32_t *)_4]
 2911              	.LVL277:
 2912              	@ inc/user_libs/usb_core.c:2097:     if (Status == USB_OTG_EP_TX_STALL)  
 2913              		.loc 1 2097 0
 2914 0834 02D1     		bne	.L212	@,
 2915              	@ inc/user_libs/usb_core.c:2147: }
2098:inc/user_libs/usb_core.c ****     {
2099:inc/user_libs/usb_core.c ****       USB_OTG_EPSetStall(pdev, ep); return;
2100:inc/user_libs/usb_core.c ****     }
2101:inc/user_libs/usb_core.c ****     else if (Status == USB_OTG_EP_TX_NAK)
2102:inc/user_libs/usb_core.c ****       depctl.b.snak = 1;
2103:inc/user_libs/usb_core.c ****     else if (Status == USB_OTG_EP_TX_VALID)
2104:inc/user_libs/usb_core.c ****     {
2105:inc/user_libs/usb_core.c ****       if (depctl.b.stall == 1)
2106:inc/user_libs/usb_core.c ****       {  
2107:inc/user_libs/usb_core.c ****         ep->even_odd_frame = 0;
2108:inc/user_libs/usb_core.c ****         USB_OTG_EPClearStall(pdev, ep);
2109:inc/user_libs/usb_core.c ****         return;
2110:inc/user_libs/usb_core.c ****       }      
2111:inc/user_libs/usb_core.c ****       depctl.b.cnak = 1;
2112:inc/user_libs/usb_core.c ****       depctl.b.usbactep = 1; 
2113:inc/user_libs/usb_core.c ****       depctl.b.epena = 1;
2114:inc/user_libs/usb_core.c ****     }
2115:inc/user_libs/usb_core.c ****     else if (Status == USB_OTG_EP_TX_DIS)
2116:inc/user_libs/usb_core.c ****       depctl.b.usbactep = 0;
2117:inc/user_libs/usb_core.c ****   } 
2118:inc/user_libs/usb_core.c ****   else /* Process for OUT endpoint */
2119:inc/user_libs/usb_core.c ****   {
2120:inc/user_libs/usb_core.c ****     depctl_addr = &(pdev->regs.OUTEP_REGS[ep->num]->DOEPCTL);
2121:inc/user_libs/usb_core.c ****     depctl.d32 = USB_OTG_READ_REG32(depctl_addr);    
2122:inc/user_libs/usb_core.c ****     
2123:inc/user_libs/usb_core.c ****     if (Status == USB_OTG_EP_RX_STALL)  {
2124:inc/user_libs/usb_core.c ****       depctl.b.stall = 1;
2125:inc/user_libs/usb_core.c ****     }
2126:inc/user_libs/usb_core.c ****     else if (Status == USB_OTG_EP_RX_NAK)
2127:inc/user_libs/usb_core.c ****       depctl.b.snak = 1;
2128:inc/user_libs/usb_core.c ****     else if (Status == USB_OTG_EP_RX_VALID)
2129:inc/user_libs/usb_core.c ****     {
2130:inc/user_libs/usb_core.c ****       if (depctl.b.stall == 1)
2131:inc/user_libs/usb_core.c ****       {  
2132:inc/user_libs/usb_core.c ****         ep->even_odd_frame = 0;
2133:inc/user_libs/usb_core.c ****         USB_OTG_EPClearStall(pdev, ep);
2134:inc/user_libs/usb_core.c ****         return;
2135:inc/user_libs/usb_core.c ****       }  
2136:inc/user_libs/usb_core.c ****       depctl.b.cnak = 1;
2137:inc/user_libs/usb_core.c ****       depctl.b.usbactep = 1;    
2138:inc/user_libs/usb_core.c ****       depctl.b.epena = 1;
2139:inc/user_libs/usb_core.c ****     }
2140:inc/user_libs/usb_core.c ****     else if (Status == USB_OTG_EP_RX_DIS)
ARM GAS  /tmp/ccQkqy1T.s 			page 93


2141:inc/user_libs/usb_core.c ****     {
2142:inc/user_libs/usb_core.c ****       depctl.b.usbactep = 0;    
2143:inc/user_libs/usb_core.c ****     }
2144:inc/user_libs/usb_core.c ****   }
2145:inc/user_libs/usb_core.c ****   
2146:inc/user_libs/usb_core.c ****   USB_OTG_WRITE_REG32(depctl_addr, depctl.d32); 
2147:inc/user_libs/usb_core.c **** }
 2916              		.loc 1 2147 0
 2917 0836 70BC     		pop	{r4, r5, r6}	@
 2918              	.LCFI26:
 2919              		.cfi_remember_state
 2920              		.cfi_restore 6
 2921              		.cfi_restore 5
 2922              		.cfi_restore 4
 2923              		.cfi_def_cfa_offset 0
 2924              	.LVL278:
 2925              	@ inc/user_libs/usb_core.c:2099:       USB_OTG_EPSetStall(pdev, ep); return;
2099:inc/user_libs/usb_core.c ****     }
 2926              		.loc 1 2099 0
 2927 0838 FFF7FEBF 		b	USB_OTG_EPSetStall	@
 2928              	.LVL279:
 2929              	.L212:
 2930              	.LCFI27:
 2931              		.cfi_restore_state
 2932              	@ inc/user_libs/usb_core.c:2101:     else if (Status == USB_OTG_EP_TX_NAK)
2101:inc/user_libs/usb_core.c ****       depctl.b.snak = 1;
 2933              		.loc 1 2101 0
 2934 083c 202A     		cmp	r2, #32	@ Status,
 2935 083e 02D1     		bne	.L213	@,
 2936              	.L222:
 2937              	@ inc/user_libs/usb_core.c:2127:       depctl.b.snak = 1;
2127:inc/user_libs/usb_core.c ****     else if (Status == USB_OTG_EP_RX_VALID)
 2938              		.loc 1 2127 0
 2939 0840 43F00063 		orr	r3, r3, #134217728	@ depctl, depctl,
 2940              	.LVL280:
 2941 0844 11E0     		b	.L214	@
 2942              	.LVL281:
 2943              	.L213:
 2944              	@ inc/user_libs/usb_core.c:2103:     else if (Status == USB_OTG_EP_TX_VALID)
2103:inc/user_libs/usb_core.c ****     {
 2945              		.loc 1 2103 0
 2946 0846 302A     		cmp	r2, #48	@ Status,
 2947              	.L228:
 2948 0848 1DD1     		bne	.L219	@,
 2949              	@ inc/user_libs/usb_core.c:2105:       if (depctl.b.stall == 1)
2105:inc/user_libs/usb_core.c ****       {  
 2950              		.loc 1 2105 0
 2951 084a 9A02     		lsls	r2, r3, #10	@, depctl,
 2952              	.LVL282:
 2953 084c 16D5     		bpl	.L224	@,
 2954              	@ inc/user_libs/usb_core.c:2107:         ep->even_odd_frame = 0;
2107:inc/user_libs/usb_core.c ****         USB_OTG_EPClearStall(pdev, ep);
 2955              		.loc 1 2107 0
 2956 084e 0023     		movs	r3, #0	@ tmp136,
 2957              	.LVL283:
 2958 0850 6B71     		strb	r3, [r5, #5]	@ tmp136, ep_18(D)->even_odd_frame
 2959              	@ inc/user_libs/usb_core.c:2108:         USB_OTG_EPClearStall(pdev, ep);
ARM GAS  /tmp/ccQkqy1T.s 			page 94


2108:inc/user_libs/usb_core.c ****         return;
 2960              		.loc 1 2108 0
 2961 0852 2946     		mov	r1, r5	@, ep
 2962              	.LVL284:
 2963 0854 3046     		mov	r0, r6	@, pdev
 2964              	.LVL285:
 2965              	@ inc/user_libs/usb_core.c:2147: }
 2966              		.loc 1 2147 0
 2967 0856 70BC     		pop	{r4, r5, r6}	@
 2968              	.LCFI28:
 2969              		.cfi_remember_state
 2970              		.cfi_restore 6
 2971              		.cfi_restore 5
 2972              		.cfi_restore 4
 2973              		.cfi_def_cfa_offset 0
 2974              	.LVL286:
 2975              	@ inc/user_libs/usb_core.c:2108:         USB_OTG_EPClearStall(pdev, ep);
2108:inc/user_libs/usb_core.c ****         return;
 2976              		.loc 1 2108 0
 2977 0858 FFF7FEBF 		b	USB_OTG_EPClearStall	@
 2978              	.LVL287:
 2979              	.L211:
 2980              	.LCFI29:
 2981              		.cfi_restore_state
 2982              	@ inc/user_libs/usb_core.c:2120:     depctl_addr = &(pdev->regs.OUTEP_REGS[ep->num]->DOEPCTL);
2120:inc/user_libs/usb_core.c ****     depctl.d32 = USB_OTG_READ_REG32(depctl_addr);    
 2983              		.loc 1 2120 0
 2984 085c 5C6D     		ldr	r4, [r3, #84]	@ depctl_addr, pdev_19(D)->regs.OUTEP_REGS
 2985              	.LVL288:
 2986              	@ inc/user_libs/usb_core.c:2123:     if (Status == USB_OTG_EP_RX_STALL)  {
2123:inc/user_libs/usb_core.c ****       depctl.b.stall = 1;
 2987              		.loc 1 2123 0
 2988 085e B2F5805F 		cmp	r2, #4096	@ Status,
 2989              	@ inc/user_libs/usb_core.c:2121:     depctl.d32 = USB_OTG_READ_REG32(depctl_addr);    
2121:inc/user_libs/usb_core.c ****     
 2990              		.loc 1 2121 0
 2991 0862 2368     		ldr	r3, [r4]	@ depctl, MEM[(volatile uint32_t *)_9]
 2992              	.LVL289:
 2993              	@ inc/user_libs/usb_core.c:2123:     if (Status == USB_OTG_EP_RX_STALL)  {
2123:inc/user_libs/usb_core.c ****       depctl.b.stall = 1;
 2994              		.loc 1 2123 0
 2995 0864 04D1     		bne	.L217	@,
 2996              	@ inc/user_libs/usb_core.c:2124:       depctl.b.stall = 1;
2124:inc/user_libs/usb_core.c ****     }
 2997              		.loc 1 2124 0
 2998 0866 43F40013 		orr	r3, r3, #2097152	@ depctl, depctl,
 2999              	.LVL290:
 3000              	.L214:
 3001              	@ inc/user_libs/usb_core.c:2146:   USB_OTG_WRITE_REG32(depctl_addr, depctl.d32); 
2146:inc/user_libs/usb_core.c **** }
 3002              		.loc 1 2146 0 discriminator 1
 3003 086a 2360     		str	r3, [r4]	@ depctl, *depctl_addr_13
 3004              	@ inc/user_libs/usb_core.c:2147: }
 3005              		.loc 1 2147 0 discriminator 1
 3006 086c 70BC     		pop	{r4, r5, r6}	@
 3007              	.LCFI30:
 3008              		.cfi_remember_state
ARM GAS  /tmp/ccQkqy1T.s 			page 95


 3009              		.cfi_restore 6
 3010              		.cfi_restore 5
 3011              		.cfi_restore 4
 3012              		.cfi_def_cfa_offset 0
 3013              	.LVL291:
 3014 086e 7047     		bx	lr	@
 3015              	.LVL292:
 3016              	.L217:
 3017              	.LCFI31:
 3018              		.cfi_restore_state
 3019              	@ inc/user_libs/usb_core.c:2126:     else if (Status == USB_OTG_EP_RX_NAK)
2126:inc/user_libs/usb_core.c ****       depctl.b.snak = 1;
 3020              		.loc 1 2126 0
 3021 0870 B2F5005F 		cmp	r2, #8192	@ Status,
 3022 0874 E4D0     		beq	.L222	@,
 3023              	@ inc/user_libs/usb_core.c:2128:     else if (Status == USB_OTG_EP_RX_VALID)
2128:inc/user_libs/usb_core.c ****     {
 3024              		.loc 1 2128 0
 3025 0876 B2F5405F 		cmp	r2, #12288	@ Status,
 3026 087a E5E7     		b	.L228	@
 3027              	.LVL293:
 3028              	.L224:
 3029              	@ inc/user_libs/usb_core.c:2138:       depctl.b.epena = 1;
2138:inc/user_libs/usb_core.c ****     }
 3030              		.loc 1 2138 0
 3031 087c 43F00443 		orr	r3, r3, #-2080374784	@ depctl, depctl,
 3032              	.LVL294:
 3033 0880 43F40043 		orr	r3, r3, #32768	@ depctl, depctl,
 3034              	.LVL295:
 3035 0884 F1E7     		b	.L214	@
 3036              	.LVL296:
 3037              	.L219:
 3038              	@ inc/user_libs/usb_core.c:2140:     else if (Status == USB_OTG_EP_RX_DIS)
2140:inc/user_libs/usb_core.c ****     {
 3039              		.loc 1 2140 0
 3040 0886 002A     		cmp	r2, #0	@ Status
 3041 0888 EFD1     		bne	.L214	@
 3042              	@ inc/user_libs/usb_core.c:2142:       depctl.b.usbactep = 0;    
2142:inc/user_libs/usb_core.c ****     }
 3043              		.loc 1 2142 0
 3044 088a 62F3CF33 		bfi	r3, r2, #15, #1	@ depctl, Status,,
 3045 088e ECE7     		b	.L214	@
 3046              		.cfi_endproc
 3047              	.LFE145:
 3048              		.size	USB_OTG_SetEPStatus, .-USB_OTG_SetEPStatus
 3049              	.Letext0:
 3050              		.file 2 "/home/sticky/opt/gcc-arm-none-eabi-7-2017-q4-major/arm-none-eabi/include/machine/_default
 3051              		.file 3 "/home/sticky/opt/gcc-arm-none-eabi-7-2017-q4-major/arm-none-eabi/include/sys/_stdint.h"
 3052              		.file 4 "./inc/CMSIS/core_cm4.h"
 3053              		.file 5 "./inc/system_stm32f4xx.h"
 3054              		.file 6 "inc/user_libs/usb_regs.h"
 3055              		.file 7 "inc/user_libs/usb_defines.h"
 3056              		.file 8 "inc/user_libs/usb_core.h"
 3057              		.file 9 "inc/user_libs/usb_bsp.h"
 3058              		.section	.debug_info,"",%progbits
 3059              	.Ldebug_info0:
 3060 0000 762A0000 		.4byte	0x2a76
ARM GAS  /tmp/ccQkqy1T.s 			page 96


 3061 0004 0200     		.2byte	0x2
 3062 0006 00000000 		.4byte	.Ldebug_abbrev0
 3063 000a 04       		.byte	0x4
 3064 000b 01       		.uleb128 0x1
 3065 000c 80030000 		.4byte	.LASF439
 3066 0010 0C       		.byte	0xc
 3067 0011 67070000 		.4byte	.LASF440
 3068 0015 FA060000 		.4byte	.LASF441
 3069 0019 00000000 		.4byte	.Ltext0
 3070 001d 90080000 		.4byte	.Letext0
 3071 0021 00000000 		.4byte	.Ldebug_line0
 3072 0025 02       		.uleb128 0x2
 3073 0026 01       		.byte	0x1
 3074 0027 06       		.byte	0x6
 3075 0028 AE140000 		.4byte	.LASF0
 3076 002c 03       		.uleb128 0x3
 3077 002d 06110000 		.4byte	.LASF3
 3078 0031 02       		.byte	0x2
 3079 0032 2B       		.byte	0x2b
 3080 0033 37000000 		.4byte	0x37
 3081 0037 02       		.uleb128 0x2
 3082 0038 01       		.byte	0x1
 3083 0039 08       		.byte	0x8
 3084 003a 37130000 		.4byte	.LASF1
 3085 003e 02       		.uleb128 0x2
 3086 003f 02       		.byte	0x2
 3087 0040 05       		.byte	0x5
 3088 0041 BE020000 		.4byte	.LASF2
 3089 0045 03       		.uleb128 0x3
 3090 0046 4E060000 		.4byte	.LASF4
 3091 004a 02       		.byte	0x2
 3092 004b 39       		.byte	0x39
 3093 004c 50000000 		.4byte	0x50
 3094 0050 02       		.uleb128 0x2
 3095 0051 02       		.byte	0x2
 3096 0052 07       		.byte	0x7
 3097 0053 D0140000 		.4byte	.LASF5
 3098 0057 03       		.uleb128 0x3
 3099 0058 FC100000 		.4byte	.LASF6
 3100 005c 02       		.byte	0x2
 3101 005d 4D       		.byte	0x4d
 3102 005e 62000000 		.4byte	0x62
 3103 0062 02       		.uleb128 0x2
 3104 0063 04       		.byte	0x4
 3105 0064 05       		.byte	0x5
 3106 0065 0B000000 		.4byte	.LASF7
 3107 0069 03       		.uleb128 0x3
 3108 006a 4E130000 		.4byte	.LASF8
 3109 006e 02       		.byte	0x2
 3110 006f 4F       		.byte	0x4f
 3111 0070 74000000 		.4byte	0x74
 3112 0074 02       		.uleb128 0x2
 3113 0075 04       		.byte	0x4
 3114 0076 07       		.byte	0x7
 3115 0077 2B120000 		.4byte	.LASF9
 3116 007b 02       		.uleb128 0x2
 3117 007c 08       		.byte	0x8
ARM GAS  /tmp/ccQkqy1T.s 			page 97


 3118 007d 05       		.byte	0x5
 3119 007e 9C090000 		.4byte	.LASF10
 3120 0082 02       		.uleb128 0x2
 3121 0083 08       		.byte	0x8
 3122 0084 07       		.byte	0x7
 3123 0085 B5050000 		.4byte	.LASF11
 3124 0089 04       		.uleb128 0x4
 3125 008a 04       		.byte	0x4
 3126 008b 05       		.byte	0x5
 3127 008c 696E7400 		.ascii	"int\000"
 3128 0090 02       		.uleb128 0x2
 3129 0091 04       		.byte	0x4
 3130 0092 07       		.byte	0x7
 3131 0093 51110000 		.4byte	.LASF12
 3132 0097 03       		.uleb128 0x3
 3133 0098 450A0000 		.4byte	.LASF13
 3134 009c 03       		.byte	0x3
 3135 009d 18       		.byte	0x18
 3136 009e 2C000000 		.4byte	0x2c
 3137 00a2 03       		.uleb128 0x3
 3138 00a3 3C0E0000 		.4byte	.LASF14
 3139 00a7 03       		.byte	0x3
 3140 00a8 24       		.byte	0x24
 3141 00a9 45000000 		.4byte	0x45
 3142 00ad 03       		.uleb128 0x3
 3143 00ae 89120000 		.4byte	.LASF15
 3144 00b2 03       		.byte	0x3
 3145 00b3 2C       		.byte	0x2c
 3146 00b4 57000000 		.4byte	0x57
 3147 00b8 05       		.uleb128 0x5
 3148 00b9 AD000000 		.4byte	0xad
 3149 00bd 03       		.uleb128 0x3
 3150 00be D1040000 		.4byte	.LASF16
 3151 00c2 03       		.byte	0x3
 3152 00c3 30       		.byte	0x30
 3153 00c4 69000000 		.4byte	0x69
 3154 00c8 05       		.uleb128 0x5
 3155 00c9 BD000000 		.4byte	0xbd
 3156 00cd 06       		.uleb128 0x6
 3157 00ce BD000000 		.4byte	0xbd
 3158 00d2 DD000000 		.4byte	0xdd
 3159 00d6 07       		.uleb128 0x7
 3160 00d7 90000000 		.4byte	0x90
 3161 00db 0E       		.byte	0xe
 3162 00dc 00       		.byte	0
 3163 00dd 08       		.uleb128 0x8
 3164 00de C80F0000 		.4byte	.LASF17
 3165 00e2 04       		.byte	0x4
 3166 00e3 1A05     		.2byte	0x51a
 3167 00e5 B8000000 		.4byte	0xb8
 3168 00e9 01       		.byte	0x1
 3169 00ea 01       		.byte	0x1
 3170 00eb 09       		.uleb128 0x9
 3171 00ec 78000000 		.4byte	.LASF18
 3172 00f0 05       		.byte	0x5
 3173 00f1 3B       		.byte	0x3b
 3174 00f2 BD000000 		.4byte	0xbd
ARM GAS  /tmp/ccQkqy1T.s 			page 98


 3175 00f6 01       		.byte	0x1
 3176 00f7 01       		.byte	0x1
 3177 00f8 06       		.uleb128 0x6
 3178 00f9 BD000000 		.4byte	0xbd
 3179 00fd 08010000 		.4byte	0x108
 3180 0101 07       		.uleb128 0x7
 3181 0102 90000000 		.4byte	0x90
 3182 0106 01       		.byte	0x1
 3183 0107 00       		.byte	0
 3184 0108 0A       		.uleb128 0xa
 3185 0109 75150000 		.4byte	.LASF37
 3186 010d 4001     		.2byte	0x140
 3187 010f 06       		.byte	0x6
 3188 0110 53       		.byte	0x53
 3189 0111 14020000 		.4byte	0x214
 3190 0115 0B       		.uleb128 0xb
 3191 0116 9F110000 		.4byte	.LASF19
 3192 011a 06       		.byte	0x6
 3193 011b 55       		.byte	0x55
 3194 011c C8000000 		.4byte	0xc8
 3195 0120 02       		.byte	0x2
 3196 0121 23       		.byte	0x23
 3197 0122 00       		.uleb128 0
 3198 0123 0B       		.uleb128 0xb
 3199 0124 6B110000 		.4byte	.LASF20
 3200 0128 06       		.byte	0x6
 3201 0129 56       		.byte	0x56
 3202 012a C8000000 		.4byte	0xc8
 3203 012e 02       		.byte	0x2
 3204 012f 23       		.byte	0x23
 3205 0130 04       		.uleb128 0x4
 3206 0131 0B       		.uleb128 0xb
 3207 0132 450E0000 		.4byte	.LASF21
 3208 0136 06       		.byte	0x6
 3209 0137 57       		.byte	0x57
 3210 0138 C8000000 		.4byte	0xc8
 3211 013c 02       		.byte	0x2
 3212 013d 23       		.byte	0x23
 3213 013e 08       		.uleb128 0x8
 3214 013f 0B       		.uleb128 0xb
 3215 0140 2B150000 		.4byte	.LASF22
 3216 0144 06       		.byte	0x6
 3217 0145 58       		.byte	0x58
 3218 0146 C8000000 		.4byte	0xc8
 3219 014a 02       		.byte	0x2
 3220 014b 23       		.byte	0x23
 3221 014c 0C       		.uleb128 0xc
 3222 014d 0B       		.uleb128 0xb
 3223 014e 6C090000 		.4byte	.LASF23
 3224 0152 06       		.byte	0x6
 3225 0153 59       		.byte	0x59
 3226 0154 C8000000 		.4byte	0xc8
 3227 0158 02       		.byte	0x2
 3228 0159 23       		.byte	0x23
 3229 015a 10       		.uleb128 0x10
 3230 015b 0B       		.uleb128 0xb
 3231 015c 3B020000 		.4byte	.LASF24
ARM GAS  /tmp/ccQkqy1T.s 			page 99


 3232 0160 06       		.byte	0x6
 3233 0161 5A       		.byte	0x5a
 3234 0162 C8000000 		.4byte	0xc8
 3235 0166 02       		.byte	0x2
 3236 0167 23       		.byte	0x23
 3237 0168 14       		.uleb128 0x14
 3238 0169 0B       		.uleb128 0xb
 3239 016a EB0E0000 		.4byte	.LASF25
 3240 016e 06       		.byte	0x6
 3241 016f 5B       		.byte	0x5b
 3242 0170 C8000000 		.4byte	0xc8
 3243 0174 02       		.byte	0x2
 3244 0175 23       		.byte	0x23
 3245 0176 18       		.uleb128 0x18
 3246 0177 0B       		.uleb128 0xb
 3247 0178 60120000 		.4byte	.LASF26
 3248 017c 06       		.byte	0x6
 3249 017d 5C       		.byte	0x5c
 3250 017e C8000000 		.4byte	0xc8
 3251 0182 02       		.byte	0x2
 3252 0183 23       		.byte	0x23
 3253 0184 1C       		.uleb128 0x1c
 3254 0185 0B       		.uleb128 0xb
 3255 0186 58120000 		.4byte	.LASF27
 3256 018a 06       		.byte	0x6
 3257 018b 5D       		.byte	0x5d
 3258 018c C8000000 		.4byte	0xc8
 3259 0190 02       		.byte	0x2
 3260 0191 23       		.byte	0x23
 3261 0192 20       		.uleb128 0x20
 3262 0193 0B       		.uleb128 0xb
 3263 0194 E6050000 		.4byte	.LASF28
 3264 0198 06       		.byte	0x6
 3265 0199 5E       		.byte	0x5e
 3266 019a C8000000 		.4byte	0xc8
 3267 019e 02       		.byte	0x2
 3268 019f 23       		.byte	0x23
 3269 01a0 24       		.uleb128 0x24
 3270 01a1 0B       		.uleb128 0xb
 3271 01a2 43030000 		.4byte	.LASF29
 3272 01a6 06       		.byte	0x6
 3273 01a7 5F       		.byte	0x5f
 3274 01a8 C8000000 		.4byte	0xc8
 3275 01ac 02       		.byte	0x2
 3276 01ad 23       		.byte	0x23
 3277 01ae 28       		.uleb128 0x28
 3278 01af 0B       		.uleb128 0xb
 3279 01b0 CD0C0000 		.4byte	.LASF30
 3280 01b4 06       		.byte	0x6
 3281 01b5 60       		.byte	0x60
 3282 01b6 C8000000 		.4byte	0xc8
 3283 01ba 02       		.byte	0x2
 3284 01bb 23       		.byte	0x23
 3285 01bc 2C       		.uleb128 0x2c
 3286 01bd 0B       		.uleb128 0xb
 3287 01be 120C0000 		.4byte	.LASF31
 3288 01c2 06       		.byte	0x6
ARM GAS  /tmp/ccQkqy1T.s 			page 100


 3289 01c3 61       		.byte	0x61
 3290 01c4 F8000000 		.4byte	0xf8
 3291 01c8 02       		.byte	0x2
 3292 01c9 23       		.byte	0x23
 3293 01ca 30       		.uleb128 0x30
 3294 01cb 0B       		.uleb128 0xb
 3295 01cc 50020000 		.4byte	.LASF32
 3296 01d0 06       		.byte	0x6
 3297 01d1 62       		.byte	0x62
 3298 01d2 C8000000 		.4byte	0xc8
 3299 01d6 02       		.byte	0x2
 3300 01d7 23       		.byte	0x23
 3301 01d8 38       		.uleb128 0x38
 3302 01d9 0C       		.uleb128 0xc
 3303 01da 43494400 		.ascii	"CID\000"
 3304 01de 06       		.byte	0x6
 3305 01df 63       		.byte	0x63
 3306 01e0 C8000000 		.4byte	0xc8
 3307 01e4 02       		.byte	0x2
 3308 01e5 23       		.byte	0x23
 3309 01e6 3C       		.uleb128 0x3c
 3310 01e7 0B       		.uleb128 0xb
 3311 01e8 BE000000 		.4byte	.LASF33
 3312 01ec 06       		.byte	0x6
 3313 01ed 64       		.byte	0x64
 3314 01ee 14020000 		.4byte	0x214
 3315 01f2 02       		.byte	0x2
 3316 01f3 23       		.byte	0x23
 3317 01f4 40       		.uleb128 0x40
 3318 01f5 0B       		.uleb128 0xb
 3319 01f6 FC0E0000 		.4byte	.LASF34
 3320 01fa 06       		.byte	0x6
 3321 01fb 65       		.byte	0x65
 3322 01fc C8000000 		.4byte	0xc8
 3323 0200 03       		.byte	0x3
 3324 0201 23       		.byte	0x23
 3325 0202 8002     		.uleb128 0x100
 3326 0204 0B       		.uleb128 0xb
 3327 0205 02140000 		.4byte	.LASF35
 3328 0209 06       		.byte	0x6
 3329 020a 66       		.byte	0x66
 3330 020b 34020000 		.4byte	0x234
 3331 020f 03       		.byte	0x3
 3332 0210 23       		.byte	0x23
 3333 0211 8402     		.uleb128 0x104
 3334 0213 00       		.byte	0
 3335 0214 06       		.uleb128 0x6
 3336 0215 BD000000 		.4byte	0xbd
 3337 0219 24020000 		.4byte	0x224
 3338 021d 07       		.uleb128 0x7
 3339 021e 90000000 		.4byte	0x90
 3340 0222 2F       		.byte	0x2f
 3341 0223 00       		.byte	0
 3342 0224 06       		.uleb128 0x6
 3343 0225 C8000000 		.4byte	0xc8
 3344 0229 34020000 		.4byte	0x234
 3345 022d 07       		.uleb128 0x7
ARM GAS  /tmp/ccQkqy1T.s 			page 101


 3346 022e 90000000 		.4byte	0x90
 3347 0232 0E       		.byte	0xe
 3348 0233 00       		.byte	0
 3349 0234 05       		.uleb128 0x5
 3350 0235 24020000 		.4byte	0x224
 3351 0239 03       		.uleb128 0x3
 3352 023a 8B0D0000 		.4byte	.LASF36
 3353 023e 06       		.byte	0x6
 3354 023f 68       		.byte	0x68
 3355 0240 08010000 		.4byte	0x108
 3356 0244 0D       		.uleb128 0xd
 3357 0245 6D160000 		.4byte	.LASF38
 3358 0249 88       		.byte	0x88
 3359 024a 06       		.byte	0x6
 3360 024b 71       		.byte	0x71
 3361 024c 6A030000 		.4byte	0x36a
 3362 0250 0B       		.uleb128 0xb
 3363 0251 DE000000 		.4byte	.LASF39
 3364 0255 06       		.byte	0x6
 3365 0256 73       		.byte	0x73
 3366 0257 C8000000 		.4byte	0xc8
 3367 025b 02       		.byte	0x2
 3368 025c 23       		.byte	0x23
 3369 025d 00       		.uleb128 0
 3370 025e 0B       		.uleb128 0xb
 3371 025f 9E150000 		.4byte	.LASF40
 3372 0263 06       		.byte	0x6
 3373 0264 74       		.byte	0x74
 3374 0265 C8000000 		.4byte	0xc8
 3375 0269 02       		.byte	0x2
 3376 026a 23       		.byte	0x23
 3377 026b 04       		.uleb128 0x4
 3378 026c 0B       		.uleb128 0xb
 3379 026d 22070000 		.4byte	.LASF41
 3380 0271 06       		.byte	0x6
 3381 0272 75       		.byte	0x75
 3382 0273 C8000000 		.4byte	0xc8
 3383 0277 02       		.byte	0x2
 3384 0278 23       		.byte	0x23
 3385 0279 08       		.uleb128 0x8
 3386 027a 0B       		.uleb128 0xb
 3387 027b 20120000 		.4byte	.LASF42
 3388 027f 06       		.byte	0x6
 3389 0280 76       		.byte	0x76
 3390 0281 BD000000 		.4byte	0xbd
 3391 0285 02       		.byte	0x2
 3392 0286 23       		.byte	0x23
 3393 0287 0C       		.uleb128 0xc
 3394 0288 0B       		.uleb128 0xb
 3395 0289 0D120000 		.4byte	.LASF43
 3396 028d 06       		.byte	0x6
 3397 028e 77       		.byte	0x77
 3398 028f C8000000 		.4byte	0xc8
 3399 0293 02       		.byte	0x2
 3400 0294 23       		.byte	0x23
 3401 0295 10       		.uleb128 0x10
 3402 0296 0B       		.uleb128 0xb
ARM GAS  /tmp/ccQkqy1T.s 			page 102


 3403 0297 CE080000 		.4byte	.LASF44
 3404 029b 06       		.byte	0x6
 3405 029c 78       		.byte	0x78
 3406 029d C8000000 		.4byte	0xc8
 3407 02a1 02       		.byte	0x2
 3408 02a2 23       		.byte	0x23
 3409 02a3 14       		.uleb128 0x14
 3410 02a4 0B       		.uleb128 0xb
 3411 02a5 3C150000 		.4byte	.LASF45
 3412 02a9 06       		.byte	0x6
 3413 02aa 79       		.byte	0x79
 3414 02ab C8000000 		.4byte	0xc8
 3415 02af 02       		.byte	0x2
 3416 02b0 23       		.byte	0x23
 3417 02b1 18       		.uleb128 0x18
 3418 02b2 0B       		.uleb128 0xb
 3419 02b3 090C0000 		.4byte	.LASF46
 3420 02b7 06       		.byte	0x6
 3421 02b8 7A       		.byte	0x7a
 3422 02b9 C8000000 		.4byte	0xc8
 3423 02bd 02       		.byte	0x2
 3424 02be 23       		.byte	0x23
 3425 02bf 1C       		.uleb128 0x1c
 3426 02c0 0B       		.uleb128 0xb
 3427 02c1 5D140000 		.4byte	.LASF47
 3428 02c5 06       		.byte	0x6
 3429 02c6 7B       		.byte	0x7b
 3430 02c7 BD000000 		.4byte	0xbd
 3431 02cb 02       		.byte	0x2
 3432 02cc 23       		.byte	0x23
 3433 02cd 20       		.uleb128 0x20
 3434 02ce 0B       		.uleb128 0xb
 3435 02cf 1E0D0000 		.4byte	.LASF48
 3436 02d3 06       		.byte	0x6
 3437 02d4 7C       		.byte	0x7c
 3438 02d5 BD000000 		.4byte	0xbd
 3439 02d9 02       		.byte	0x2
 3440 02da 23       		.byte	0x23
 3441 02db 24       		.uleb128 0x24
 3442 02dc 0B       		.uleb128 0xb
 3443 02dd 56030000 		.4byte	.LASF49
 3444 02e1 06       		.byte	0x6
 3445 02e2 7D       		.byte	0x7d
 3446 02e3 C8000000 		.4byte	0xc8
 3447 02e7 02       		.byte	0x2
 3448 02e8 23       		.byte	0x23
 3449 02e9 28       		.uleb128 0x28
 3450 02ea 0B       		.uleb128 0xb
 3451 02eb 700D0000 		.4byte	.LASF50
 3452 02ef 06       		.byte	0x6
 3453 02f0 7E       		.byte	0x7e
 3454 02f1 C8000000 		.4byte	0xc8
 3455 02f5 02       		.byte	0x2
 3456 02f6 23       		.byte	0x23
 3457 02f7 2C       		.uleb128 0x2c
 3458 02f8 0B       		.uleb128 0xb
 3459 02f9 DD0F0000 		.4byte	.LASF51
ARM GAS  /tmp/ccQkqy1T.s 			page 103


 3460 02fd 06       		.byte	0x6
 3461 02fe 7F       		.byte	0x7f
 3462 02ff C8000000 		.4byte	0xc8
 3463 0303 02       		.byte	0x2
 3464 0304 23       		.byte	0x23
 3465 0305 30       		.uleb128 0x30
 3466 0306 0B       		.uleb128 0xb
 3467 0307 F3040000 		.4byte	.LASF52
 3468 030b 06       		.byte	0x6
 3469 030c 80       		.byte	0x80
 3470 030d C8000000 		.4byte	0xc8
 3471 0311 02       		.byte	0x2
 3472 0312 23       		.byte	0x23
 3473 0313 34       		.uleb128 0x34
 3474 0314 0B       		.uleb128 0xb
 3475 0315 56080000 		.4byte	.LASF53
 3476 0319 06       		.byte	0x6
 3477 031a 81       		.byte	0x81
 3478 031b C8000000 		.4byte	0xc8
 3479 031f 02       		.byte	0x2
 3480 0320 23       		.byte	0x23
 3481 0321 38       		.uleb128 0x38
 3482 0322 0B       		.uleb128 0xb
 3483 0323 B4060000 		.4byte	.LASF54
 3484 0327 06       		.byte	0x6
 3485 0328 82       		.byte	0x82
 3486 0329 C8000000 		.4byte	0xc8
 3487 032d 02       		.byte	0x2
 3488 032e 23       		.byte	0x23
 3489 032f 3C       		.uleb128 0x3c
 3490 0330 0B       		.uleb128 0xb
 3491 0331 BE000000 		.4byte	.LASF33
 3492 0335 06       		.byte	0x6
 3493 0336 83       		.byte	0x83
 3494 0337 BD000000 		.4byte	0xbd
 3495 033b 02       		.byte	0x2
 3496 033c 23       		.byte	0x23
 3497 033d 40       		.uleb128 0x40
 3498 033e 0B       		.uleb128 0xb
 3499 033f B4000000 		.4byte	.LASF55
 3500 0343 06       		.byte	0x6
 3501 0344 84       		.byte	0x84
 3502 0345 C8000000 		.4byte	0xc8
 3503 0349 02       		.byte	0x2
 3504 034a 23       		.byte	0x23
 3505 034b 44       		.uleb128 0x44
 3506 034c 0B       		.uleb128 0xb
 3507 034d D3000000 		.4byte	.LASF56
 3508 0351 06       		.byte	0x6
 3509 0352 85       		.byte	0x85
 3510 0353 CD000000 		.4byte	0xcd
 3511 0357 02       		.byte	0x2
 3512 0358 23       		.byte	0x23
 3513 0359 48       		.uleb128 0x48
 3514 035a 0B       		.uleb128 0xb
 3515 035b BD060000 		.4byte	.LASF57
 3516 035f 06       		.byte	0x6
ARM GAS  /tmp/ccQkqy1T.s 			page 104


 3517 0360 86       		.byte	0x86
 3518 0361 C8000000 		.4byte	0xc8
 3519 0365 03       		.byte	0x3
 3520 0366 23       		.byte	0x23
 3521 0367 8401     		.uleb128 0x84
 3522 0369 00       		.byte	0
 3523 036a 03       		.uleb128 0x3
 3524 036b 4D0B0000 		.4byte	.LASF58
 3525 036f 06       		.byte	0x6
 3526 0370 88       		.byte	0x88
 3527 0371 44020000 		.4byte	0x244
 3528 0375 0D       		.uleb128 0xd
 3529 0376 F8010000 		.4byte	.LASF59
 3530 037a 20       		.byte	0x20
 3531 037b 06       		.byte	0x6
 3532 037c 91       		.byte	0x91
 3533 037d F2030000 		.4byte	0x3f2
 3534 0381 0B       		.uleb128 0xb
 3535 0382 D50F0000 		.4byte	.LASF60
 3536 0386 06       		.byte	0x6
 3537 0387 93       		.byte	0x93
 3538 0388 C8000000 		.4byte	0xc8
 3539 038c 02       		.byte	0x2
 3540 038d 23       		.byte	0x23
 3541 038e 00       		.uleb128 0
 3542 038f 0B       		.uleb128 0xb
 3543 0390 A7110000 		.4byte	.LASF61
 3544 0394 06       		.byte	0x6
 3545 0395 94       		.byte	0x94
 3546 0396 BD000000 		.4byte	0xbd
 3547 039a 02       		.byte	0x2
 3548 039b 23       		.byte	0x23
 3549 039c 04       		.uleb128 0x4
 3550 039d 0B       		.uleb128 0xb
 3551 039e E4130000 		.4byte	.LASF62
 3552 03a2 06       		.byte	0x6
 3553 03a3 95       		.byte	0x95
 3554 03a4 C8000000 		.4byte	0xc8
 3555 03a8 02       		.byte	0x2
 3556 03a9 23       		.byte	0x23
 3557 03aa 08       		.uleb128 0x8
 3558 03ab 0B       		.uleb128 0xb
 3559 03ac 20120000 		.4byte	.LASF42
 3560 03b0 06       		.byte	0x6
 3561 03b1 96       		.byte	0x96
 3562 03b2 BD000000 		.4byte	0xbd
 3563 03b6 02       		.byte	0x2
 3564 03b7 23       		.byte	0x23
 3565 03b8 0C       		.uleb128 0xc
 3566 03b9 0B       		.uleb128 0xb
 3567 03ba EB100000 		.4byte	.LASF63
 3568 03be 06       		.byte	0x6
 3569 03bf 97       		.byte	0x97
 3570 03c0 C8000000 		.4byte	0xc8
 3571 03c4 02       		.byte	0x2
 3572 03c5 23       		.byte	0x23
 3573 03c6 10       		.uleb128 0x10
ARM GAS  /tmp/ccQkqy1T.s 			page 105


 3574 03c7 0B       		.uleb128 0xb
 3575 03c8 91120000 		.4byte	.LASF64
 3576 03cc 06       		.byte	0x6
 3577 03cd 98       		.byte	0x98
 3578 03ce C8000000 		.4byte	0xc8
 3579 03d2 02       		.byte	0x2
 3580 03d3 23       		.byte	0x23
 3581 03d4 14       		.uleb128 0x14
 3582 03d5 0B       		.uleb128 0xb
 3583 03d6 550C0000 		.4byte	.LASF65
 3584 03da 06       		.byte	0x6
 3585 03db 99       		.byte	0x99
 3586 03dc C8000000 		.4byte	0xc8
 3587 03e0 02       		.byte	0x2
 3588 03e1 23       		.byte	0x23
 3589 03e2 18       		.uleb128 0x18
 3590 03e3 0B       		.uleb128 0xb
 3591 03e4 7E130000 		.4byte	.LASF66
 3592 03e8 06       		.byte	0x6
 3593 03e9 9A       		.byte	0x9a
 3594 03ea BD000000 		.4byte	0xbd
 3595 03ee 02       		.byte	0x2
 3596 03ef 23       		.byte	0x23
 3597 03f0 1C       		.uleb128 0x1c
 3598 03f1 00       		.byte	0
 3599 03f2 03       		.uleb128 0x3
 3600 03f3 0A0E0000 		.4byte	.LASF67
 3601 03f7 06       		.byte	0x6
 3602 03f8 9C       		.byte	0x9c
 3603 03f9 75030000 		.4byte	0x375
 3604 03fd 0D       		.uleb128 0xd
 3605 03fe A8160000 		.4byte	.LASF68
 3606 0402 20       		.byte	0x20
 3607 0403 06       		.byte	0x6
 3608 0404 A5       		.byte	0xa5
 3609 0405 6C040000 		.4byte	0x46c
 3610 0409 0B       		.uleb128 0xb
 3611 040a 450B0000 		.4byte	.LASF69
 3612 040e 06       		.byte	0x6
 3613 040f A7       		.byte	0xa7
 3614 0410 C8000000 		.4byte	0xc8
 3615 0414 02       		.byte	0x2
 3616 0415 23       		.byte	0x23
 3617 0416 00       		.uleb128 0
 3618 0417 0B       		.uleb128 0xb
 3619 0418 A7110000 		.4byte	.LASF61
 3620 041c 06       		.byte	0x6
 3621 041d A8       		.byte	0xa8
 3622 041e BD000000 		.4byte	0xbd
 3623 0422 02       		.byte	0x2
 3624 0423 23       		.byte	0x23
 3625 0424 04       		.uleb128 0x4
 3626 0425 0B       		.uleb128 0xb
 3627 0426 3D0B0000 		.4byte	.LASF70
 3628 042a 06       		.byte	0x6
 3629 042b A9       		.byte	0xa9
 3630 042c C8000000 		.4byte	0xc8
ARM GAS  /tmp/ccQkqy1T.s 			page 106


 3631 0430 02       		.byte	0x2
 3632 0431 23       		.byte	0x23
 3633 0432 08       		.uleb128 0x8
 3634 0433 0B       		.uleb128 0xb
 3635 0434 20120000 		.4byte	.LASF42
 3636 0438 06       		.byte	0x6
 3637 0439 AA       		.byte	0xaa
 3638 043a BD000000 		.4byte	0xbd
 3639 043e 02       		.byte	0x2
 3640 043f 23       		.byte	0x23
 3641 0440 0C       		.uleb128 0xc
 3642 0441 0B       		.uleb128 0xb
 3643 0442 B9080000 		.4byte	.LASF71
 3644 0446 06       		.byte	0x6
 3645 0447 AB       		.byte	0xab
 3646 0448 C8000000 		.4byte	0xc8
 3647 044c 02       		.byte	0x2
 3648 044d 23       		.byte	0x23
 3649 044e 10       		.uleb128 0x10
 3650 044f 0B       		.uleb128 0xb
 3651 0450 64090000 		.4byte	.LASF72
 3652 0454 06       		.byte	0x6
 3653 0455 AC       		.byte	0xac
 3654 0456 C8000000 		.4byte	0xc8
 3655 045a 02       		.byte	0x2
 3656 045b 23       		.byte	0x23
 3657 045c 14       		.uleb128 0x14
 3658 045d 0B       		.uleb128 0xb
 3659 045e 7E130000 		.4byte	.LASF66
 3660 0462 06       		.byte	0x6
 3661 0463 AD       		.byte	0xad
 3662 0464 F8000000 		.4byte	0xf8
 3663 0468 02       		.byte	0x2
 3664 0469 23       		.byte	0x23
 3665 046a 18       		.uleb128 0x18
 3666 046b 00       		.byte	0
 3667 046c 03       		.uleb128 0x3
 3668 046d 6E0B0000 		.4byte	.LASF73
 3669 0471 06       		.byte	0x6
 3670 0472 AF       		.byte	0xaf
 3671 0473 FD030000 		.4byte	0x3fd
 3672 0477 0D       		.uleb128 0xd
 3673 0478 B0010000 		.4byte	.LASF74
 3674 047c 1C       		.byte	0x1c
 3675 047d 06       		.byte	0x6
 3676 047e B8       		.byte	0xb8
 3677 047f E6040000 		.4byte	0x4e6
 3678 0483 0B       		.uleb128 0xb
 3679 0484 94070000 		.4byte	.LASF75
 3680 0488 06       		.byte	0x6
 3681 0489 BA       		.byte	0xba
 3682 048a C8000000 		.4byte	0xc8
 3683 048e 02       		.byte	0x2
 3684 048f 23       		.byte	0x23
 3685 0490 00       		.uleb128 0
 3686 0491 0B       		.uleb128 0xb
 3687 0492 14150000 		.4byte	.LASF76
ARM GAS  /tmp/ccQkqy1T.s 			page 107


 3688 0496 06       		.byte	0x6
 3689 0497 BB       		.byte	0xbb
 3690 0498 C8000000 		.4byte	0xc8
 3691 049c 02       		.byte	0x2
 3692 049d 23       		.byte	0x23
 3693 049e 04       		.uleb128 0x4
 3694 049f 0B       		.uleb128 0xb
 3695 04a0 64130000 		.4byte	.LASF77
 3696 04a4 06       		.byte	0x6
 3697 04a5 BC       		.byte	0xbc
 3698 04a6 C8000000 		.4byte	0xc8
 3699 04aa 02       		.byte	0x2
 3700 04ab 23       		.byte	0x23
 3701 04ac 08       		.uleb128 0x8
 3702 04ad 0B       		.uleb128 0xb
 3703 04ae C30D0000 		.4byte	.LASF78
 3704 04b2 06       		.byte	0x6
 3705 04b3 BD       		.byte	0xbd
 3706 04b4 BD000000 		.4byte	0xbd
 3707 04b8 02       		.byte	0x2
 3708 04b9 23       		.byte	0x23
 3709 04ba 0C       		.uleb128 0xc
 3710 04bb 0B       		.uleb128 0xb
 3711 04bc FD020000 		.4byte	.LASF79
 3712 04c0 06       		.byte	0x6
 3713 04c1 BE       		.byte	0xbe
 3714 04c2 C8000000 		.4byte	0xc8
 3715 04c6 02       		.byte	0x2
 3716 04c7 23       		.byte	0x23
 3717 04c8 10       		.uleb128 0x10
 3718 04c9 0B       		.uleb128 0xb
 3719 04ca C90B0000 		.4byte	.LASF80
 3720 04ce 06       		.byte	0x6
 3721 04cf BF       		.byte	0xbf
 3722 04d0 C8000000 		.4byte	0xc8
 3723 04d4 02       		.byte	0x2
 3724 04d5 23       		.byte	0x23
 3725 04d6 14       		.uleb128 0x14
 3726 04d7 0B       		.uleb128 0xb
 3727 04d8 FD080000 		.4byte	.LASF81
 3728 04dc 06       		.byte	0x6
 3729 04dd C0       		.byte	0xc0
 3730 04de C8000000 		.4byte	0xc8
 3731 04e2 02       		.byte	0x2
 3732 04e3 23       		.byte	0x23
 3733 04e4 18       		.uleb128 0x18
 3734 04e5 00       		.byte	0
 3735 04e6 03       		.uleb128 0x3
 3736 04e7 D1050000 		.4byte	.LASF82
 3737 04eb 06       		.byte	0x6
 3738 04ec C2       		.byte	0xc2
 3739 04ed 77040000 		.4byte	0x477
 3740 04f1 0D       		.uleb128 0xd
 3741 04f2 56040000 		.4byte	.LASF83
 3742 04f6 20       		.byte	0x20
 3743 04f7 06       		.byte	0x6
 3744 04f8 CB       		.byte	0xcb
ARM GAS  /tmp/ccQkqy1T.s 			page 108


 3745 04f9 60050000 		.4byte	0x560
 3746 04fd 0B       		.uleb128 0xb
 3747 04fe BD070000 		.4byte	.LASF84
 3748 0502 06       		.byte	0x6
 3749 0503 CD       		.byte	0xcd
 3750 0504 C8000000 		.4byte	0xc8
 3751 0508 02       		.byte	0x2
 3752 0509 23       		.byte	0x23
 3753 050a 00       		.uleb128 0
 3754 050b 0B       		.uleb128 0xb
 3755 050c 180B0000 		.4byte	.LASF85
 3756 0510 06       		.byte	0x6
 3757 0511 CE       		.byte	0xce
 3758 0512 C8000000 		.4byte	0xc8
 3759 0516 02       		.byte	0x2
 3760 0517 23       		.byte	0x23
 3761 0518 04       		.uleb128 0x4
 3762 0519 0B       		.uleb128 0xb
 3763 051a 4B0F0000 		.4byte	.LASF86
 3764 051e 06       		.byte	0x6
 3765 051f CF       		.byte	0xcf
 3766 0520 C8000000 		.4byte	0xc8
 3767 0524 02       		.byte	0x2
 3768 0525 23       		.byte	0x23
 3769 0526 08       		.uleb128 0x8
 3770 0527 0B       		.uleb128 0xb
 3771 0528 D8060000 		.4byte	.LASF87
 3772 052c 06       		.byte	0x6
 3773 052d D0       		.byte	0xd0
 3774 052e C8000000 		.4byte	0xc8
 3775 0532 02       		.byte	0x2
 3776 0533 23       		.byte	0x23
 3777 0534 0C       		.uleb128 0xc
 3778 0535 0B       		.uleb128 0xb
 3779 0536 FE040000 		.4byte	.LASF88
 3780 053a 06       		.byte	0x6
 3781 053b D1       		.byte	0xd1
 3782 053c C8000000 		.4byte	0xc8
 3783 0540 02       		.byte	0x2
 3784 0541 23       		.byte	0x23
 3785 0542 10       		.uleb128 0x10
 3786 0543 0B       		.uleb128 0xb
 3787 0544 50080000 		.4byte	.LASF89
 3788 0548 06       		.byte	0x6
 3789 0549 D2       		.byte	0xd2
 3790 054a C8000000 		.4byte	0xc8
 3791 054e 02       		.byte	0x2
 3792 054f 23       		.byte	0x23
 3793 0550 14       		.uleb128 0x14
 3794 0551 0B       		.uleb128 0xb
 3795 0552 1B0E0000 		.4byte	.LASF90
 3796 0556 06       		.byte	0x6
 3797 0557 D3       		.byte	0xd3
 3798 0558 F8000000 		.4byte	0xf8
 3799 055c 02       		.byte	0x2
 3800 055d 23       		.byte	0x23
 3801 055e 18       		.uleb128 0x18
ARM GAS  /tmp/ccQkqy1T.s 			page 109


 3802 055f 00       		.byte	0
 3803 0560 03       		.uleb128 0x3
 3804 0561 AB0C0000 		.4byte	.LASF91
 3805 0565 06       		.byte	0x6
 3806 0566 D5       		.byte	0xd5
 3807 0567 F1040000 		.4byte	0x4f1
 3808 056b 0A       		.uleb128 0xa
 3809 056c 25130000 		.4byte	.LASF92
 3810 0570 0401     		.2byte	0x104
 3811 0572 06       		.byte	0x6
 3812 0573 DE       		.byte	0xde
 3813 0574 FB050000 		.4byte	0x5fb
 3814 0578 0B       		.uleb128 0xb
 3815 0579 1E080000 		.4byte	.LASF93
 3816 057d 06       		.byte	0x6
 3817 057e E0       		.byte	0xe0
 3818 057f FB050000 		.4byte	0x5fb
 3819 0583 02       		.byte	0x2
 3820 0584 23       		.byte	0x23
 3821 0585 00       		.uleb128 0
 3822 0586 0B       		.uleb128 0xb
 3823 0587 510F0000 		.4byte	.LASF94
 3824 058b 06       		.byte	0x6
 3825 058c E1       		.byte	0xe1
 3826 058d 01060000 		.4byte	0x601
 3827 0591 02       		.byte	0x2
 3828 0592 23       		.byte	0x23
 3829 0593 04       		.uleb128 0x4
 3830 0594 0B       		.uleb128 0xb
 3831 0595 A3060000 		.4byte	.LASF95
 3832 0599 06       		.byte	0x6
 3833 059a E2       		.byte	0xe2
 3834 059b 07060000 		.4byte	0x607
 3835 059f 02       		.byte	0x2
 3836 05a0 23       		.byte	0x23
 3837 05a1 08       		.uleb128 0x8
 3838 05a2 0B       		.uleb128 0xb
 3839 05a3 56070000 		.4byte	.LASF96
 3840 05a7 06       		.byte	0x6
 3841 05a8 E3       		.byte	0xe3
 3842 05a9 0D060000 		.4byte	0x60d
 3843 05ad 02       		.byte	0x2
 3844 05ae 23       		.byte	0x23
 3845 05af 0C       		.uleb128 0xc
 3846 05b0 0B       		.uleb128 0xb
 3847 05b1 2A020000 		.4byte	.LASF97
 3848 05b5 06       		.byte	0x6
 3849 05b6 E4       		.byte	0xe4
 3850 05b7 23060000 		.4byte	0x623
 3851 05bb 02       		.byte	0x2
 3852 05bc 23       		.byte	0x23
 3853 05bd 48       		.uleb128 0x48
 3854 05be 0B       		.uleb128 0xb
 3855 05bf 840C0000 		.4byte	.LASF98
 3856 05c3 06       		.byte	0x6
 3857 05c4 E5       		.byte	0xe5
 3858 05c5 39060000 		.4byte	0x639
ARM GAS  /tmp/ccQkqy1T.s 			page 110


 3859 05c9 03       		.byte	0x3
 3860 05ca 23       		.byte	0x23
 3861 05cb 8401     		.uleb128 0x84
 3862 05cd 0B       		.uleb128 0xb
 3863 05ce 35020000 		.4byte	.LASF99
 3864 05d2 06       		.byte	0x6
 3865 05d3 E6       		.byte	0xe6
 3866 05d4 4F060000 		.4byte	0x64f
 3867 05d8 03       		.byte	0x3
 3868 05d9 23       		.byte	0x23
 3869 05da C001     		.uleb128 0xc0
 3870 05dc 0B       		.uleb128 0xb
 3871 05dd 59060000 		.4byte	.LASF100
 3872 05e1 06       		.byte	0x6
 3873 05e2 E7       		.byte	0xe7
 3874 05e3 55060000 		.4byte	0x655
 3875 05e7 03       		.byte	0x3
 3876 05e8 23       		.byte	0x23
 3877 05e9 C401     		.uleb128 0xc4
 3878 05eb 0B       		.uleb128 0xb
 3879 05ec 86100000 		.4byte	.LASF101
 3880 05f0 06       		.byte	0x6
 3881 05f1 E8       		.byte	0xe8
 3882 05f2 4F060000 		.4byte	0x64f
 3883 05f6 03       		.byte	0x3
 3884 05f7 23       		.byte	0x23
 3885 05f8 8002     		.uleb128 0x100
 3886 05fa 00       		.byte	0
 3887 05fb 0E       		.uleb128 0xe
 3888 05fc 04       		.byte	0x4
 3889 05fd 39020000 		.4byte	0x239
 3890 0601 0E       		.uleb128 0xe
 3891 0602 04       		.byte	0x4
 3892 0603 6A030000 		.4byte	0x36a
 3893 0607 0E       		.uleb128 0xe
 3894 0608 04       		.byte	0x4
 3895 0609 E6040000 		.4byte	0x4e6
 3896 060d 06       		.uleb128 0x6
 3897 060e 1D060000 		.4byte	0x61d
 3898 0612 1D060000 		.4byte	0x61d
 3899 0616 07       		.uleb128 0x7
 3900 0617 90000000 		.4byte	0x90
 3901 061b 0E       		.byte	0xe
 3902 061c 00       		.byte	0
 3903 061d 0E       		.uleb128 0xe
 3904 061e 04       		.byte	0x4
 3905 061f F2030000 		.4byte	0x3f2
 3906 0623 06       		.uleb128 0x6
 3907 0624 33060000 		.4byte	0x633
 3908 0628 33060000 		.4byte	0x633
 3909 062c 07       		.uleb128 0x7
 3910 062d 90000000 		.4byte	0x90
 3911 0631 0E       		.byte	0xe
 3912 0632 00       		.byte	0
 3913 0633 0E       		.uleb128 0xe
 3914 0634 04       		.byte	0x4
 3915 0635 6C040000 		.4byte	0x46c
ARM GAS  /tmp/ccQkqy1T.s 			page 111


 3916 0639 06       		.uleb128 0x6
 3917 063a 49060000 		.4byte	0x649
 3918 063e 49060000 		.4byte	0x649
 3919 0642 07       		.uleb128 0x7
 3920 0643 90000000 		.4byte	0x90
 3921 0647 0E       		.byte	0xe
 3922 0648 00       		.byte	0
 3923 0649 0E       		.uleb128 0xe
 3924 064a 04       		.byte	0x4
 3925 064b 60050000 		.4byte	0x560
 3926 064f 0E       		.uleb128 0xe
 3927 0650 04       		.byte	0x4
 3928 0651 C8000000 		.4byte	0xc8
 3929 0655 06       		.uleb128 0x6
 3930 0656 4F060000 		.4byte	0x64f
 3931 065a 65060000 		.4byte	0x665
 3932 065e 07       		.uleb128 0x7
 3933 065f 90000000 		.4byte	0x90
 3934 0663 0E       		.byte	0xe
 3935 0664 00       		.byte	0
 3936 0665 03       		.uleb128 0x3
 3937 0666 BB0C0000 		.4byte	.LASF102
 3938 066a 06       		.byte	0x6
 3939 066b EA       		.byte	0xea
 3940 066c 6B050000 		.4byte	0x56b
 3941 0670 0F       		.uleb128 0xf
 3942 0671 04       		.byte	0x4
 3943 0672 06       		.byte	0x6
 3944 0673 2D01     		.2byte	0x12d
 3945 0675 F8060000 		.4byte	0x6f8
 3946 0679 10       		.uleb128 0x10
 3947 067a 28060000 		.4byte	.LASF103
 3948 067e 06       		.byte	0x6
 3949 067f 2F01     		.2byte	0x12f
 3950 0681 BD000000 		.4byte	0xbd
 3951 0685 04       		.byte	0x4
 3952 0686 01       		.byte	0x1
 3953 0687 1F       		.byte	0x1f
 3954 0688 02       		.byte	0x2
 3955 0689 23       		.byte	0x23
 3956 068a 00       		.uleb128 0
 3957 068b 10       		.uleb128 0x10
 3958 068c 6E020000 		.4byte	.LASF104
 3959 0690 06       		.byte	0x6
 3960 0691 3101     		.2byte	0x131
 3961 0693 BD000000 		.4byte	0xbd
 3962 0697 04       		.byte	0x4
 3963 0698 04       		.byte	0x4
 3964 0699 1B       		.byte	0x1b
 3965 069a 02       		.byte	0x2
 3966 069b 23       		.byte	0x23
 3967 069c 00       		.uleb128 0
 3968 069d 10       		.uleb128 0x10
 3969 069e 93050000 		.4byte	.LASF105
 3970 06a2 06       		.byte	0x6
 3971 06a3 3301     		.2byte	0x133
 3972 06a5 BD000000 		.4byte	0xbd
ARM GAS  /tmp/ccQkqy1T.s 			page 112


 3973 06a9 04       		.byte	0x4
 3974 06aa 01       		.byte	0x1
 3975 06ab 1A       		.byte	0x1a
 3976 06ac 02       		.byte	0x2
 3977 06ad 23       		.byte	0x23
 3978 06ae 00       		.uleb128 0
 3979 06af 10       		.uleb128 0x10
 3980 06b0 1B0E0000 		.4byte	.LASF90
 3981 06b4 06       		.byte	0x6
 3982 06b5 3501     		.2byte	0x135
 3983 06b7 BD000000 		.4byte	0xbd
 3984 06bb 04       		.byte	0x4
 3985 06bc 01       		.byte	0x1
 3986 06bd 19       		.byte	0x19
 3987 06be 02       		.byte	0x2
 3988 06bf 23       		.byte	0x23
 3989 06c0 00       		.uleb128 0
 3990 06c1 10       		.uleb128 0x10
 3991 06c2 990D0000 		.4byte	.LASF106
 3992 06c6 06       		.byte	0x6
 3993 06c7 3701     		.2byte	0x137
 3994 06c9 BD000000 		.4byte	0xbd
 3995 06cd 04       		.byte	0x4
 3996 06ce 01       		.byte	0x1
 3997 06cf 18       		.byte	0x18
 3998 06d0 02       		.byte	0x2
 3999 06d1 23       		.byte	0x23
 4000 06d2 00       		.uleb128 0
 4001 06d3 10       		.uleb128 0x10
 4002 06d4 10160000 		.4byte	.LASF107
 4003 06d8 06       		.byte	0x6
 4004 06d9 3901     		.2byte	0x139
 4005 06db BD000000 		.4byte	0xbd
 4006 06df 04       		.byte	0x4
 4007 06e0 01       		.byte	0x1
 4008 06e1 17       		.byte	0x17
 4009 06e2 02       		.byte	0x2
 4010 06e3 23       		.byte	0x23
 4011 06e4 00       		.uleb128 0
 4012 06e5 10       		.uleb128 0x10
 4013 06e6 1D020000 		.4byte	.LASF108
 4014 06ea 06       		.byte	0x6
 4015 06eb 3B01     		.2byte	0x13b
 4016 06ed BD000000 		.4byte	0xbd
 4017 06f1 04       		.byte	0x4
 4018 06f2 17       		.byte	0x17
 4019 06f3 00       		.byte	0
 4020 06f4 02       		.byte	0x2
 4021 06f5 23       		.byte	0x23
 4022 06f6 00       		.uleb128 0
 4023 06f7 00       		.byte	0
 4024 06f8 11       		.uleb128 0x11
 4025 06f9 C4070000 		.4byte	.LASF133
 4026 06fd 04       		.byte	0x4
 4027 06fe 06       		.byte	0x6
 4028 06ff 2A01     		.2byte	0x12a
 4029 0701 1C070000 		.4byte	0x71c
ARM GAS  /tmp/ccQkqy1T.s 			page 113


 4030 0705 12       		.uleb128 0x12
 4031 0706 64333200 		.ascii	"d32\000"
 4032 070a 06       		.byte	0x6
 4033 070b 2C01     		.2byte	0x12c
 4034 070d BD000000 		.4byte	0xbd
 4035 0711 12       		.uleb128 0x12
 4036 0712 6200     		.ascii	"b\000"
 4037 0714 06       		.byte	0x6
 4038 0715 3E01     		.2byte	0x13e
 4039 0717 70060000 		.4byte	0x670
 4040 071b 00       		.byte	0
 4041 071c 13       		.uleb128 0x13
 4042 071d BF0A0000 		.4byte	.LASF109
 4043 0721 06       		.byte	0x6
 4044 0722 3F01     		.2byte	0x13f
 4045 0724 F8060000 		.4byte	0x6f8
 4046 0728 0F       		.uleb128 0xf
 4047 0729 04       		.byte	0x4
 4048 072a 06       		.byte	0x6
 4049 072b 4301     		.2byte	0x143
 4050 072d D0080000 		.4byte	0x8d0
 4051 0731 10       		.uleb128 0x10
 4052 0732 330C0000 		.4byte	.LASF110
 4053 0736 06       		.byte	0x6
 4054 0737 4501     		.2byte	0x145
 4055 0739 BD000000 		.4byte	0xbd
 4056 073d 04       		.byte	0x4
 4057 073e 03       		.byte	0x3
 4058 073f 1D       		.byte	0x1d
 4059 0740 02       		.byte	0x2
 4060 0741 23       		.byte	0x23
 4061 0742 00       		.uleb128 0
 4062 0743 10       		.uleb128 0x10
 4063 0744 97060000 		.4byte	.LASF111
 4064 0748 06       		.byte	0x6
 4065 0749 4701     		.2byte	0x147
 4066 074b BD000000 		.4byte	0xbd
 4067 074f 04       		.byte	0x4
 4068 0750 03       		.byte	0x3
 4069 0751 1A       		.byte	0x1a
 4070 0752 02       		.byte	0x2
 4071 0753 23       		.byte	0x23
 4072 0754 00       		.uleb128 0
 4073 0755 10       		.uleb128 0x10
 4074 0756 82090000 		.4byte	.LASF112
 4075 075a 06       		.byte	0x6
 4076 075b 4901     		.2byte	0x149
 4077 075d BD000000 		.4byte	0xbd
 4078 0761 04       		.byte	0x4
 4079 0762 01       		.byte	0x1
 4080 0763 19       		.byte	0x19
 4081 0764 02       		.byte	0x2
 4082 0765 23       		.byte	0x23
 4083 0766 00       		.uleb128 0
 4084 0767 10       		.uleb128 0x10
 4085 0768 620F0000 		.4byte	.LASF113
 4086 076c 06       		.byte	0x6
ARM GAS  /tmp/ccQkqy1T.s 			page 114


 4087 076d 4B01     		.2byte	0x14b
 4088 076f BD000000 		.4byte	0xbd
 4089 0773 04       		.byte	0x4
 4090 0774 01       		.byte	0x1
 4091 0775 18       		.byte	0x18
 4092 0776 02       		.byte	0x2
 4093 0777 23       		.byte	0x23
 4094 0778 00       		.uleb128 0
 4095 0779 10       		.uleb128 0x10
 4096 077a 60070000 		.4byte	.LASF114
 4097 077e 06       		.byte	0x6
 4098 077f 4D01     		.2byte	0x14d
 4099 0781 BD000000 		.4byte	0xbd
 4100 0785 04       		.byte	0x4
 4101 0786 01       		.byte	0x1
 4102 0787 17       		.byte	0x17
 4103 0788 02       		.byte	0x2
 4104 0789 23       		.byte	0x23
 4105 078a 00       		.uleb128 0
 4106 078b 10       		.uleb128 0x10
 4107 078c FC0D0000 		.4byte	.LASF115
 4108 0790 06       		.byte	0x6
 4109 0791 4F01     		.2byte	0x14f
 4110 0793 BD000000 		.4byte	0xbd
 4111 0797 04       		.byte	0x4
 4112 0798 01       		.byte	0x1
 4113 0799 16       		.byte	0x16
 4114 079a 02       		.byte	0x2
 4115 079b 23       		.byte	0x23
 4116 079c 00       		.uleb128 0
 4117 079d 10       		.uleb128 0x10
 4118 079e 46040000 		.4byte	.LASF116
 4119 07a2 06       		.byte	0x6
 4120 07a3 5101     		.2byte	0x151
 4121 07a5 BD000000 		.4byte	0xbd
 4122 07a9 04       		.byte	0x4
 4123 07aa 04       		.byte	0x4
 4124 07ab 12       		.byte	0x12
 4125 07ac 02       		.byte	0x2
 4126 07ad 23       		.byte	0x23
 4127 07ae 00       		.uleb128 0
 4128 07af 10       		.uleb128 0x10
 4129 07b0 59130000 		.4byte	.LASF117
 4130 07b4 06       		.byte	0x6
 4131 07b5 5301     		.2byte	0x153
 4132 07b7 BD000000 		.4byte	0xbd
 4133 07bb 04       		.byte	0x4
 4134 07bc 01       		.byte	0x1
 4135 07bd 11       		.byte	0x11
 4136 07be 02       		.byte	0x2
 4137 07bf 23       		.byte	0x23
 4138 07c0 00       		.uleb128 0
 4139 07c1 10       		.uleb128 0x10
 4140 07c2 78020000 		.4byte	.LASF118
 4141 07c6 06       		.byte	0x6
 4142 07c7 5501     		.2byte	0x155
 4143 07c9 BD000000 		.4byte	0xbd
ARM GAS  /tmp/ccQkqy1T.s 			page 115


 4144 07cd 04       		.byte	0x4
 4145 07ce 01       		.byte	0x1
 4146 07cf 10       		.byte	0x10
 4147 07d0 02       		.byte	0x2
 4148 07d1 23       		.byte	0x23
 4149 07d2 00       		.uleb128 0
 4150 07d3 10       		.uleb128 0x10
 4151 07d4 A9060000 		.4byte	.LASF119
 4152 07d8 06       		.byte	0x6
 4153 07d9 5701     		.2byte	0x157
 4154 07db BD000000 		.4byte	0xbd
 4155 07df 04       		.byte	0x4
 4156 07e0 01       		.byte	0x1
 4157 07e1 0F       		.byte	0xf
 4158 07e2 02       		.byte	0x2
 4159 07e3 23       		.byte	0x23
 4160 07e4 00       		.uleb128 0
 4161 07e5 10       		.uleb128 0x10
 4162 07e6 51090000 		.4byte	.LASF120
 4163 07ea 06       		.byte	0x6
 4164 07eb 5901     		.2byte	0x159
 4165 07ed BD000000 		.4byte	0xbd
 4166 07f1 04       		.byte	0x4
 4167 07f2 01       		.byte	0x1
 4168 07f3 0E       		.byte	0xe
 4169 07f4 02       		.byte	0x2
 4170 07f5 23       		.byte	0x23
 4171 07f6 00       		.uleb128 0
 4172 07f7 10       		.uleb128 0x10
 4173 07f8 980B0000 		.4byte	.LASF121
 4174 07fc 06       		.byte	0x6
 4175 07fd 5B01     		.2byte	0x15b
 4176 07ff BD000000 		.4byte	0xbd
 4177 0803 04       		.byte	0x4
 4178 0804 01       		.byte	0x1
 4179 0805 0D       		.byte	0xd
 4180 0806 02       		.byte	0x2
 4181 0807 23       		.byte	0x23
 4182 0808 00       		.uleb128 0
 4183 0809 10       		.uleb128 0x10
 4184 080a 2A090000 		.4byte	.LASF122
 4185 080e 06       		.byte	0x6
 4186 080f 5D01     		.2byte	0x15d
 4187 0811 BD000000 		.4byte	0xbd
 4188 0815 04       		.byte	0x4
 4189 0816 01       		.byte	0x1
 4190 0817 0C       		.byte	0xc
 4191 0818 02       		.byte	0x2
 4192 0819 23       		.byte	0x23
 4193 081a 00       		.uleb128 0
 4194 081b 10       		.uleb128 0x10
 4195 081c BC150000 		.4byte	.LASF123
 4196 0820 06       		.byte	0x6
 4197 0821 5F01     		.2byte	0x15f
 4198 0823 BD000000 		.4byte	0xbd
 4199 0827 04       		.byte	0x4
 4200 0828 01       		.byte	0x1
ARM GAS  /tmp/ccQkqy1T.s 			page 116


 4201 0829 0B       		.byte	0xb
 4202 082a 02       		.byte	0x2
 4203 082b 23       		.byte	0x23
 4204 082c 00       		.uleb128 0
 4205 082d 10       		.uleb128 0x10
 4206 082e B8120000 		.4byte	.LASF124
 4207 0832 06       		.byte	0x6
 4208 0833 6101     		.2byte	0x161
 4209 0835 BD000000 		.4byte	0xbd
 4210 0839 04       		.byte	0x4
 4211 083a 01       		.byte	0x1
 4212 083b 0A       		.byte	0xa
 4213 083c 02       		.byte	0x2
 4214 083d 23       		.byte	0x23
 4215 083e 00       		.uleb128 0
 4216 083f 10       		.uleb128 0x10
 4217 0840 19150000 		.4byte	.LASF125
 4218 0844 06       		.byte	0x6
 4219 0845 6301     		.2byte	0x163
 4220 0847 BD000000 		.4byte	0xbd
 4221 084b 04       		.byte	0x4
 4222 084c 01       		.byte	0x1
 4223 084d 09       		.byte	0x9
 4224 084e 02       		.byte	0x2
 4225 084f 23       		.byte	0x23
 4226 0850 00       		.uleb128 0
 4227 0851 10       		.uleb128 0x10
 4228 0852 DE0A0000 		.4byte	.LASF126
 4229 0856 06       		.byte	0x6
 4230 0857 6501     		.2byte	0x165
 4231 0859 BD000000 		.4byte	0xbd
 4232 085d 04       		.byte	0x4
 4233 085e 01       		.byte	0x1
 4234 085f 08       		.byte	0x8
 4235 0860 02       		.byte	0x2
 4236 0861 23       		.byte	0x23
 4237 0862 00       		.uleb128 0
 4238 0863 10       		.uleb128 0x10
 4239 0864 D6080000 		.4byte	.LASF127
 4240 0868 06       		.byte	0x6
 4241 0869 6701     		.2byte	0x167
 4242 086b BD000000 		.4byte	0xbd
 4243 086f 04       		.byte	0x4
 4244 0870 01       		.byte	0x1
 4245 0871 07       		.byte	0x7
 4246 0872 02       		.byte	0x2
 4247 0873 23       		.byte	0x23
 4248 0874 00       		.uleb128 0
 4249 0875 10       		.uleb128 0x10
 4250 0876 CE150000 		.4byte	.LASF128
 4251 087a 06       		.byte	0x6
 4252 087b 6901     		.2byte	0x169
 4253 087d BD000000 		.4byte	0xbd
 4254 0881 04       		.byte	0x4
 4255 0882 01       		.byte	0x1
 4256 0883 06       		.byte	0x6
 4257 0884 02       		.byte	0x2
ARM GAS  /tmp/ccQkqy1T.s 			page 117


 4258 0885 23       		.byte	0x23
 4259 0886 00       		.uleb128 0
 4260 0887 10       		.uleb128 0x10
 4261 0888 3C0D0000 		.4byte	.LASF129
 4262 088c 06       		.byte	0x6
 4263 088d 6B01     		.2byte	0x16b
 4264 088f BD000000 		.4byte	0xbd
 4265 0893 04       		.byte	0x4
 4266 0894 03       		.byte	0x3
 4267 0895 03       		.byte	0x3
 4268 0896 02       		.byte	0x2
 4269 0897 23       		.byte	0x23
 4270 0898 00       		.uleb128 0
 4271 0899 10       		.uleb128 0x10
 4272 089a 7B0D0000 		.4byte	.LASF130
 4273 089e 06       		.byte	0x6
 4274 089f 6D01     		.2byte	0x16d
 4275 08a1 BD000000 		.4byte	0xbd
 4276 08a5 04       		.byte	0x4
 4277 08a6 01       		.byte	0x1
 4278 08a7 02       		.byte	0x2
 4279 08a8 02       		.byte	0x2
 4280 08a9 23       		.byte	0x23
 4281 08aa 00       		.uleb128 0
 4282 08ab 10       		.uleb128 0x10
 4283 08ac 56020000 		.4byte	.LASF131
 4284 08b0 06       		.byte	0x6
 4285 08b1 6F01     		.2byte	0x16f
 4286 08b3 BD000000 		.4byte	0xbd
 4287 08b7 04       		.byte	0x4
 4288 08b8 01       		.byte	0x1
 4289 08b9 01       		.byte	0x1
 4290 08ba 02       		.byte	0x2
 4291 08bb 23       		.byte	0x23
 4292 08bc 00       		.uleb128 0
 4293 08bd 10       		.uleb128 0x10
 4294 08be 1F090000 		.4byte	.LASF132
 4295 08c2 06       		.byte	0x6
 4296 08c3 7101     		.2byte	0x171
 4297 08c5 BD000000 		.4byte	0xbd
 4298 08c9 04       		.byte	0x4
 4299 08ca 01       		.byte	0x1
 4300 08cb 00       		.byte	0
 4301 08cc 02       		.byte	0x2
 4302 08cd 23       		.byte	0x23
 4303 08ce 00       		.uleb128 0
 4304 08cf 00       		.byte	0
 4305 08d0 11       		.uleb128 0x11
 4306 08d1 E30D0000 		.4byte	.LASF134
 4307 08d5 04       		.byte	0x4
 4308 08d6 06       		.byte	0x6
 4309 08d7 4001     		.2byte	0x140
 4310 08d9 F4080000 		.4byte	0x8f4
 4311 08dd 12       		.uleb128 0x12
 4312 08de 64333200 		.ascii	"d32\000"
 4313 08e2 06       		.byte	0x6
 4314 08e3 4201     		.2byte	0x142
ARM GAS  /tmp/ccQkqy1T.s 			page 118


 4315 08e5 BD000000 		.4byte	0xbd
 4316 08e9 12       		.uleb128 0x12
 4317 08ea 6200     		.ascii	"b\000"
 4318 08ec 06       		.byte	0x6
 4319 08ed 7401     		.2byte	0x174
 4320 08ef 28070000 		.4byte	0x728
 4321 08f3 00       		.byte	0
 4322 08f4 13       		.uleb128 0x13
 4323 08f5 8C0C0000 		.4byte	.LASF135
 4324 08f9 06       		.byte	0x6
 4325 08fa 7501     		.2byte	0x175
 4326 08fc D0080000 		.4byte	0x8d0
 4327 0900 0F       		.uleb128 0xf
 4328 0901 04       		.byte	0x4
 4329 0902 06       		.byte	0x6
 4330 0903 7901     		.2byte	0x179
 4331 0905 BE090000 		.4byte	0x9be
 4332 0909 10       		.uleb128 0x10
 4333 090a 520D0000 		.4byte	.LASF136
 4334 090e 06       		.byte	0x6
 4335 090f 7B01     		.2byte	0x17b
 4336 0911 BD000000 		.4byte	0xbd
 4337 0915 04       		.byte	0x4
 4338 0916 01       		.byte	0x1
 4339 0917 1F       		.byte	0x1f
 4340 0918 02       		.byte	0x2
 4341 0919 23       		.byte	0x23
 4342 091a 00       		.uleb128 0
 4343 091b 10       		.uleb128 0x10
 4344 091c D0060000 		.4byte	.LASF137
 4345 0920 06       		.byte	0x6
 4346 0921 7D01     		.2byte	0x17d
 4347 0923 BD000000 		.4byte	0xbd
 4348 0927 04       		.byte	0x4
 4349 0928 01       		.byte	0x1
 4350 0929 1E       		.byte	0x1e
 4351 092a 02       		.byte	0x2
 4352 092b 23       		.byte	0x23
 4353 092c 00       		.uleb128 0
 4354 092d 10       		.uleb128 0x10
 4355 092e E1060000 		.4byte	.LASF138
 4356 0932 06       		.byte	0x6
 4357 0933 7F01     		.2byte	0x17f
 4358 0935 BD000000 		.4byte	0xbd
 4359 0939 04       		.byte	0x4
 4360 093a 01       		.byte	0x1
 4361 093b 1D       		.byte	0x1d
 4362 093c 02       		.byte	0x2
 4363 093d 23       		.byte	0x23
 4364 093e 00       		.uleb128 0
 4365 093f 10       		.uleb128 0x10
 4366 0940 3C0F0000 		.4byte	.LASF139
 4367 0944 06       		.byte	0x6
 4368 0945 8101     		.2byte	0x181
 4369 0947 BD000000 		.4byte	0xbd
 4370 094b 04       		.byte	0x4
 4371 094c 01       		.byte	0x1
ARM GAS  /tmp/ccQkqy1T.s 			page 119


 4372 094d 1C       		.byte	0x1c
 4373 094e 02       		.byte	0x2
 4374 094f 23       		.byte	0x23
 4375 0950 00       		.uleb128 0
 4376 0951 10       		.uleb128 0x10
 4377 0952 E3000000 		.4byte	.LASF140
 4378 0956 06       		.byte	0x6
 4379 0957 8301     		.2byte	0x183
 4380 0959 BD000000 		.4byte	0xbd
 4381 095d 04       		.byte	0x4
 4382 095e 01       		.byte	0x1
 4383 095f 1B       		.byte	0x1b
 4384 0960 02       		.byte	0x2
 4385 0961 23       		.byte	0x23
 4386 0962 00       		.uleb128 0
 4387 0963 10       		.uleb128 0x10
 4388 0964 4A0D0000 		.4byte	.LASF141
 4389 0968 06       		.byte	0x6
 4390 0969 8501     		.2byte	0x185
 4391 096b BD000000 		.4byte	0xbd
 4392 096f 04       		.byte	0x4
 4393 0970 01       		.byte	0x1
 4394 0971 1A       		.byte	0x1a
 4395 0972 02       		.byte	0x2
 4396 0973 23       		.byte	0x23
 4397 0974 00       		.uleb128 0
 4398 0975 10       		.uleb128 0x10
 4399 0976 DA040000 		.4byte	.LASF142
 4400 097a 06       		.byte	0x6
 4401 097b 8701     		.2byte	0x187
 4402 097d BD000000 		.4byte	0xbd
 4403 0981 04       		.byte	0x4
 4404 0982 05       		.byte	0x5
 4405 0983 15       		.byte	0x15
 4406 0984 02       		.byte	0x2
 4407 0985 23       		.byte	0x23
 4408 0986 00       		.uleb128 0
 4409 0987 10       		.uleb128 0x10
 4410 0988 FF110000 		.4byte	.LASF143
 4411 098c 06       		.byte	0x6
 4412 098d 8901     		.2byte	0x189
 4413 098f BD000000 		.4byte	0xbd
 4414 0993 04       		.byte	0x4
 4415 0994 13       		.byte	0x13
 4416 0995 02       		.byte	0x2
 4417 0996 02       		.byte	0x2
 4418 0997 23       		.byte	0x23
 4419 0998 00       		.uleb128 0
 4420 0999 10       		.uleb128 0x10
 4421 099a 720C0000 		.4byte	.LASF144
 4422 099e 06       		.byte	0x6
 4423 099f 8B01     		.2byte	0x18b
 4424 09a1 BD000000 		.4byte	0xbd
 4425 09a5 04       		.byte	0x4
 4426 09a6 01       		.byte	0x1
 4427 09a7 01       		.byte	0x1
 4428 09a8 02       		.byte	0x2
ARM GAS  /tmp/ccQkqy1T.s 			page 120


 4429 09a9 23       		.byte	0x23
 4430 09aa 00       		.uleb128 0
 4431 09ab 10       		.uleb128 0x10
 4432 09ac 73110000 		.4byte	.LASF145
 4433 09b0 06       		.byte	0x6
 4434 09b1 8D01     		.2byte	0x18d
 4435 09b3 BD000000 		.4byte	0xbd
 4436 09b7 04       		.byte	0x4
 4437 09b8 01       		.byte	0x1
 4438 09b9 00       		.byte	0
 4439 09ba 02       		.byte	0x2
 4440 09bb 23       		.byte	0x23
 4441 09bc 00       		.uleb128 0
 4442 09bd 00       		.byte	0
 4443 09be 11       		.uleb128 0x11
 4444 09bf B00B0000 		.4byte	.LASF146
 4445 09c3 04       		.byte	0x4
 4446 09c4 06       		.byte	0x6
 4447 09c5 7601     		.2byte	0x176
 4448 09c7 E2090000 		.4byte	0x9e2
 4449 09cb 12       		.uleb128 0x12
 4450 09cc 64333200 		.ascii	"d32\000"
 4451 09d0 06       		.byte	0x6
 4452 09d1 7801     		.2byte	0x178
 4453 09d3 BD000000 		.4byte	0xbd
 4454 09d7 12       		.uleb128 0x12
 4455 09d8 6200     		.ascii	"b\000"
 4456 09da 06       		.byte	0x6
 4457 09db 9001     		.2byte	0x190
 4458 09dd 00090000 		.4byte	0x900
 4459 09e1 00       		.byte	0
 4460 09e2 13       		.uleb128 0x13
 4461 09e3 240E0000 		.4byte	.LASF147
 4462 09e7 06       		.byte	0x6
 4463 09e8 9101     		.2byte	0x191
 4464 09ea BE090000 		.4byte	0x9be
 4465 09ee 05       		.uleb128 0x5
 4466 09ef E2090000 		.4byte	0x9e2
 4467 09f3 0F       		.uleb128 0xf
 4468 09f4 04       		.byte	0x4
 4469 09f5 06       		.byte	0x6
 4470 09f6 9501     		.2byte	0x195
 4471 09f8 190C0000 		.4byte	0xc19
 4472 09fc 10       		.uleb128 0x10
 4473 09fd 170F0000 		.4byte	.LASF148
 4474 0a01 06       		.byte	0x6
 4475 0a02 9701     		.2byte	0x197
 4476 0a04 BD000000 		.4byte	0xbd
 4477 0a08 04       		.byte	0x4
 4478 0a09 01       		.byte	0x1
 4479 0a0a 1F       		.byte	0x1f
 4480 0a0b 02       		.byte	0x2
 4481 0a0c 23       		.byte	0x23
 4482 0a0d 00       		.uleb128 0
 4483 0a0e 10       		.uleb128 0x10
 4484 0a0f 1B060000 		.4byte	.LASF149
 4485 0a13 06       		.byte	0x6
ARM GAS  /tmp/ccQkqy1T.s 			page 121


 4486 0a14 9901     		.2byte	0x199
 4487 0a16 BD000000 		.4byte	0xbd
 4488 0a1a 04       		.byte	0x4
 4489 0a1b 01       		.byte	0x1
 4490 0a1c 1E       		.byte	0x1e
 4491 0a1d 02       		.byte	0x2
 4492 0a1e 23       		.byte	0x23
 4493 0a1f 00       		.uleb128 0
 4494 0a20 10       		.uleb128 0x10
 4495 0a21 210F0000 		.4byte	.LASF150
 4496 0a25 06       		.byte	0x6
 4497 0a26 9B01     		.2byte	0x19b
 4498 0a28 BD000000 		.4byte	0xbd
 4499 0a2c 04       		.byte	0x4
 4500 0a2d 01       		.byte	0x1
 4501 0a2e 1D       		.byte	0x1d
 4502 0a2f 02       		.byte	0x2
 4503 0a30 23       		.byte	0x23
 4504 0a31 00       		.uleb128 0
 4505 0a32 10       		.uleb128 0x10
 4506 0a33 740A0000 		.4byte	.LASF151
 4507 0a37 06       		.byte	0x6
 4508 0a38 9D01     		.2byte	0x19d
 4509 0a3a BD000000 		.4byte	0xbd
 4510 0a3e 04       		.byte	0x4
 4511 0a3f 01       		.byte	0x1
 4512 0a40 1C       		.byte	0x1c
 4513 0a41 02       		.byte	0x2
 4514 0a42 23       		.byte	0x23
 4515 0a43 00       		.uleb128 0
 4516 0a44 10       		.uleb128 0x10
 4517 0a45 330B0000 		.4byte	.LASF152
 4518 0a49 06       		.byte	0x6
 4519 0a4a 9F01     		.2byte	0x19f
 4520 0a4c BD000000 		.4byte	0xbd
 4521 0a50 04       		.byte	0x4
 4522 0a51 01       		.byte	0x1
 4523 0a52 1B       		.byte	0x1b
 4524 0a53 02       		.byte	0x2
 4525 0a54 23       		.byte	0x23
 4526 0a55 00       		.uleb128 0
 4527 0a56 10       		.uleb128 0x10
 4528 0a57 ED010000 		.4byte	.LASF153
 4529 0a5b 06       		.byte	0x6
 4530 0a5c A101     		.2byte	0x1a1
 4531 0a5e BD000000 		.4byte	0xbd
 4532 0a62 04       		.byte	0x4
 4533 0a63 01       		.byte	0x1
 4534 0a64 1A       		.byte	0x1a
 4535 0a65 02       		.byte	0x2
 4536 0a66 23       		.byte	0x23
 4537 0a67 00       		.uleb128 0
 4538 0a68 10       		.uleb128 0x10
 4539 0a69 FD120000 		.4byte	.LASF154
 4540 0a6d 06       		.byte	0x6
 4541 0a6e A301     		.2byte	0x1a3
 4542 0a70 BD000000 		.4byte	0xbd
ARM GAS  /tmp/ccQkqy1T.s 			page 122


 4543 0a74 04       		.byte	0x4
 4544 0a75 01       		.byte	0x1
 4545 0a76 19       		.byte	0x19
 4546 0a77 02       		.byte	0x2
 4547 0a78 23       		.byte	0x23
 4548 0a79 00       		.uleb128 0
 4549 0a7a 10       		.uleb128 0x10
 4550 0a7b 4F010000 		.4byte	.LASF155
 4551 0a7f 06       		.byte	0x6
 4552 0a80 A501     		.2byte	0x1a5
 4553 0a82 BD000000 		.4byte	0xbd
 4554 0a86 04       		.byte	0x4
 4555 0a87 01       		.byte	0x1
 4556 0a88 18       		.byte	0x18
 4557 0a89 02       		.byte	0x2
 4558 0a8a 23       		.byte	0x23
 4559 0a8b 00       		.uleb128 0
 4560 0a8c 10       		.uleb128 0x10
 4561 0a8d 42060000 		.4byte	.LASF156
 4562 0a91 06       		.byte	0x6
 4563 0a92 A701     		.2byte	0x1a7
 4564 0a94 BD000000 		.4byte	0xbd
 4565 0a98 04       		.byte	0x4
 4566 0a99 02       		.byte	0x2
 4567 0a9a 16       		.byte	0x16
 4568 0a9b 02       		.byte	0x2
 4569 0a9c 23       		.byte	0x23
 4570 0a9d 00       		.uleb128 0
 4571 0a9e 10       		.uleb128 0x10
 4572 0a9f 1E030000 		.4byte	.LASF157
 4573 0aa3 06       		.byte	0x6
 4574 0aa4 A901     		.2byte	0x1a9
 4575 0aa6 BD000000 		.4byte	0xbd
 4576 0aaa 04       		.byte	0x4
 4577 0aab 01       		.byte	0x1
 4578 0aac 15       		.byte	0x15
 4579 0aad 02       		.byte	0x2
 4580 0aae 23       		.byte	0x23
 4581 0aaf 00       		.uleb128 0
 4582 0ab0 10       		.uleb128 0x10
 4583 0ab1 85040000 		.4byte	.LASF158
 4584 0ab5 06       		.byte	0x6
 4585 0ab6 AB01     		.2byte	0x1ab
 4586 0ab8 BD000000 		.4byte	0xbd
 4587 0abc 04       		.byte	0x4
 4588 0abd 01       		.byte	0x1
 4589 0abe 14       		.byte	0x14
 4590 0abf 02       		.byte	0x2
 4591 0ac0 23       		.byte	0x23
 4592 0ac1 00       		.uleb128 0
 4593 0ac2 10       		.uleb128 0x10
 4594 0ac3 30070000 		.4byte	.LASF159
 4595 0ac7 06       		.byte	0x6
 4596 0ac8 AD01     		.2byte	0x1ad
 4597 0aca BD000000 		.4byte	0xbd
 4598 0ace 04       		.byte	0x4
 4599 0acf 01       		.byte	0x1
ARM GAS  /tmp/ccQkqy1T.s 			page 123


 4600 0ad0 13       		.byte	0x13
 4601 0ad1 02       		.byte	0x2
 4602 0ad2 23       		.byte	0x23
 4603 0ad3 00       		.uleb128 0
 4604 0ad4 10       		.uleb128 0x10
 4605 0ad5 5F030000 		.4byte	.LASF160
 4606 0ad9 06       		.byte	0x6
 4607 0ada AF01     		.2byte	0x1af
 4608 0adc BD000000 		.4byte	0xbd
 4609 0ae0 04       		.byte	0x4
 4610 0ae1 01       		.byte	0x1
 4611 0ae2 12       		.byte	0x12
 4612 0ae3 02       		.byte	0x2
 4613 0ae4 23       		.byte	0x23
 4614 0ae5 00       		.uleb128 0
 4615 0ae6 10       		.uleb128 0x10
 4616 0ae7 FC000000 		.4byte	.LASF161
 4617 0aeb 06       		.byte	0x6
 4618 0aec B101     		.2byte	0x1b1
 4619 0aee BD000000 		.4byte	0xbd
 4620 0af2 04       		.byte	0x4
 4621 0af3 01       		.byte	0x1
 4622 0af4 11       		.byte	0x11
 4623 0af5 02       		.byte	0x2
 4624 0af6 23       		.byte	0x23
 4625 0af7 00       		.uleb128 0
 4626 0af8 10       		.uleb128 0x10
 4627 0af9 B7100000 		.4byte	.LASF162
 4628 0afd 06       		.byte	0x6
 4629 0afe B301     		.2byte	0x1b3
 4630 0b00 BD000000 		.4byte	0xbd
 4631 0b04 04       		.byte	0x4
 4632 0b05 01       		.byte	0x1
 4633 0b06 10       		.byte	0x10
 4634 0b07 02       		.byte	0x2
 4635 0b08 23       		.byte	0x23
 4636 0b09 00       		.uleb128 0
 4637 0b0a 10       		.uleb128 0x10
 4638 0b0b A9060000 		.4byte	.LASF119
 4639 0b0f 06       		.byte	0x6
 4640 0b10 B501     		.2byte	0x1b5
 4641 0b12 BD000000 		.4byte	0xbd
 4642 0b16 04       		.byte	0x4
 4643 0b17 01       		.byte	0x1
 4644 0b18 0F       		.byte	0xf
 4645 0b19 02       		.byte	0x2
 4646 0b1a 23       		.byte	0x23
 4647 0b1b 00       		.uleb128 0
 4648 0b1c 10       		.uleb128 0x10
 4649 0b1d 570F0000 		.4byte	.LASF163
 4650 0b21 06       		.byte	0x6
 4651 0b22 B701     		.2byte	0x1b7
 4652 0b24 BD000000 		.4byte	0xbd
 4653 0b28 04       		.byte	0x4
 4654 0b29 01       		.byte	0x1
 4655 0b2a 0E       		.byte	0xe
 4656 0b2b 02       		.byte	0x2
ARM GAS  /tmp/ccQkqy1T.s 			page 124


 4657 0b2c 23       		.byte	0x23
 4658 0b2d 00       		.uleb128 0
 4659 0b2e 10       		.uleb128 0x10
 4660 0b2f C7140000 		.4byte	.LASF164
 4661 0b33 06       		.byte	0x6
 4662 0b34 B901     		.2byte	0x1b9
 4663 0b36 BD000000 		.4byte	0xbd
 4664 0b3a 04       		.byte	0x4
 4665 0b3b 01       		.byte	0x1
 4666 0b3c 0D       		.byte	0xd
 4667 0b3d 02       		.byte	0x2
 4668 0b3e 23       		.byte	0x23
 4669 0b3f 00       		.uleb128 0
 4670 0b40 10       		.uleb128 0x10
 4671 0b41 A9020000 		.4byte	.LASF165
 4672 0b45 06       		.byte	0x6
 4673 0b46 BB01     		.2byte	0x1bb
 4674 0b48 BD000000 		.4byte	0xbd
 4675 0b4c 04       		.byte	0x4
 4676 0b4d 01       		.byte	0x1
 4677 0b4e 0C       		.byte	0xc
 4678 0b4f 02       		.byte	0x2
 4679 0b50 23       		.byte	0x23
 4680 0b51 00       		.uleb128 0
 4681 0b52 10       		.uleb128 0x10
 4682 0b53 5B0B0000 		.4byte	.LASF166
 4683 0b57 06       		.byte	0x6
 4684 0b58 BD01     		.2byte	0x1bd
 4685 0b5a BD000000 		.4byte	0xbd
 4686 0b5e 04       		.byte	0x4
 4687 0b5f 01       		.byte	0x1
 4688 0b60 0B       		.byte	0xb
 4689 0b61 02       		.byte	0x2
 4690 0b62 23       		.byte	0x23
 4691 0b63 00       		.uleb128 0
 4692 0b64 10       		.uleb128 0x10
 4693 0b65 CF0B0000 		.4byte	.LASF167
 4694 0b69 06       		.byte	0x6
 4695 0b6a BF01     		.2byte	0x1bf
 4696 0b6c BD000000 		.4byte	0xbd
 4697 0b70 04       		.byte	0x4
 4698 0b71 01       		.byte	0x1
 4699 0b72 0A       		.byte	0xa
 4700 0b73 02       		.byte	0x2
 4701 0b74 23       		.byte	0x23
 4702 0b75 00       		.uleb128 0
 4703 0b76 10       		.uleb128 0x10
 4704 0b77 34060000 		.4byte	.LASF168
 4705 0b7b 06       		.byte	0x6
 4706 0b7c C101     		.2byte	0x1c1
 4707 0b7e BD000000 		.4byte	0xbd
 4708 0b82 04       		.byte	0x4
 4709 0b83 02       		.byte	0x2
 4710 0b84 08       		.byte	0x8
 4711 0b85 02       		.byte	0x2
 4712 0b86 23       		.byte	0x23
 4713 0b87 00       		.uleb128 0
ARM GAS  /tmp/ccQkqy1T.s 			page 125


 4714 0b88 10       		.uleb128 0x10
 4715 0b89 EB0A0000 		.4byte	.LASF169
 4716 0b8d 06       		.byte	0x6
 4717 0b8e C301     		.2byte	0x1c3
 4718 0b90 BD000000 		.4byte	0xbd
 4719 0b94 04       		.byte	0x4
 4720 0b95 01       		.byte	0x1
 4721 0b96 07       		.byte	0x7
 4722 0b97 02       		.byte	0x2
 4723 0b98 23       		.byte	0x23
 4724 0b99 00       		.uleb128 0
 4725 0b9a 10       		.uleb128 0x10
 4726 0b9b 89130000 		.4byte	.LASF170
 4727 0b9f 06       		.byte	0x6
 4728 0ba0 C501     		.2byte	0x1c5
 4729 0ba2 BD000000 		.4byte	0xbd
 4730 0ba6 04       		.byte	0x4
 4731 0ba7 01       		.byte	0x1
 4732 0ba8 06       		.byte	0x6
 4733 0ba9 02       		.byte	0x2
 4734 0baa 23       		.byte	0x23
 4735 0bab 00       		.uleb128 0
 4736 0bac 10       		.uleb128 0x10
 4737 0bad 21010000 		.4byte	.LASF171
 4738 0bb1 06       		.byte	0x6
 4739 0bb2 C701     		.2byte	0x1c7
 4740 0bb4 BD000000 		.4byte	0xbd
 4741 0bb8 04       		.byte	0x4
 4742 0bb9 01       		.byte	0x1
 4743 0bba 05       		.byte	0x5
 4744 0bbb 02       		.byte	0x2
 4745 0bbc 23       		.byte	0x23
 4746 0bbd 00       		.uleb128 0
 4747 0bbe 10       		.uleb128 0x10
 4748 0bbf 9E140000 		.4byte	.LASF172
 4749 0bc3 06       		.byte	0x6
 4750 0bc4 C901     		.2byte	0x1c9
 4751 0bc6 BD000000 		.4byte	0xbd
 4752 0bca 04       		.byte	0x4
 4753 0bcb 01       		.byte	0x1
 4754 0bcc 04       		.byte	0x4
 4755 0bcd 02       		.byte	0x2
 4756 0bce 23       		.byte	0x23
 4757 0bcf 00       		.uleb128 0
 4758 0bd0 10       		.uleb128 0x10
 4759 0bd1 43020000 		.4byte	.LASF173
 4760 0bd5 06       		.byte	0x6
 4761 0bd6 CB01     		.2byte	0x1cb
 4762 0bd8 BD000000 		.4byte	0xbd
 4763 0bdc 04       		.byte	0x4
 4764 0bdd 01       		.byte	0x1
 4765 0bde 03       		.byte	0x3
 4766 0bdf 02       		.byte	0x2
 4767 0be0 23       		.byte	0x23
 4768 0be1 00       		.uleb128 0
 4769 0be2 10       		.uleb128 0x10
 4770 0be3 8D010000 		.4byte	.LASF174
ARM GAS  /tmp/ccQkqy1T.s 			page 126


 4771 0be7 06       		.byte	0x6
 4772 0be8 CD01     		.2byte	0x1cd
 4773 0bea BD000000 		.4byte	0xbd
 4774 0bee 04       		.byte	0x4
 4775 0bef 01       		.byte	0x1
 4776 0bf0 02       		.byte	0x2
 4777 0bf1 02       		.byte	0x2
 4778 0bf2 23       		.byte	0x23
 4779 0bf3 00       		.uleb128 0
 4780 0bf4 10       		.uleb128 0x10
 4781 0bf5 A8000000 		.4byte	.LASF175
 4782 0bf9 06       		.byte	0x6
 4783 0bfa CF01     		.2byte	0x1cf
 4784 0bfc BD000000 		.4byte	0xbd
 4785 0c00 04       		.byte	0x4
 4786 0c01 01       		.byte	0x1
 4787 0c02 01       		.byte	0x1
 4788 0c03 02       		.byte	0x2
 4789 0c04 23       		.byte	0x23
 4790 0c05 00       		.uleb128 0
 4791 0c06 10       		.uleb128 0x10
 4792 0c07 75050000 		.4byte	.LASF176
 4793 0c0b 06       		.byte	0x6
 4794 0c0c D101     		.2byte	0x1d1
 4795 0c0e BD000000 		.4byte	0xbd
 4796 0c12 04       		.byte	0x4
 4797 0c13 01       		.byte	0x1
 4798 0c14 00       		.byte	0
 4799 0c15 02       		.byte	0x2
 4800 0c16 23       		.byte	0x23
 4801 0c17 00       		.uleb128 0
 4802 0c18 00       		.byte	0
 4803 0c19 11       		.uleb128 0x11
 4804 0c1a A3150000 		.4byte	.LASF177
 4805 0c1e 04       		.byte	0x4
 4806 0c1f 06       		.byte	0x6
 4807 0c20 9201     		.2byte	0x192
 4808 0c22 3D0C0000 		.4byte	0xc3d
 4809 0c26 12       		.uleb128 0x12
 4810 0c27 64333200 		.ascii	"d32\000"
 4811 0c2b 06       		.byte	0x6
 4812 0c2c 9401     		.2byte	0x194
 4813 0c2e BD000000 		.4byte	0xbd
 4814 0c32 12       		.uleb128 0x12
 4815 0c33 6200     		.ascii	"b\000"
 4816 0c35 06       		.byte	0x6
 4817 0c36 D401     		.2byte	0x1d4
 4818 0c38 F3090000 		.4byte	0x9f3
 4819 0c3c 00       		.byte	0
 4820 0c3d 13       		.uleb128 0x13
 4821 0c3e 98010000 		.4byte	.LASF178
 4822 0c42 06       		.byte	0x6
 4823 0c43 D501     		.2byte	0x1d5
 4824 0c45 190C0000 		.4byte	0xc19
 4825 0c49 0F       		.uleb128 0xf
 4826 0c4a 04       		.byte	0x4
 4827 0c4b 06       		.byte	0x6
ARM GAS  /tmp/ccQkqy1T.s 			page 127


 4828 0c4c 4102     		.2byte	0x241
 4829 0c4e 770C0000 		.4byte	0xc77
 4830 0c52 10       		.uleb128 0x10
 4831 0c53 F3020000 		.4byte	.LASF179
 4832 0c57 06       		.byte	0x6
 4833 0c58 4302     		.2byte	0x243
 4834 0c5a BD000000 		.4byte	0xbd
 4835 0c5e 04       		.byte	0x4
 4836 0c5f 10       		.byte	0x10
 4837 0c60 10       		.byte	0x10
 4838 0c61 02       		.byte	0x2
 4839 0c62 23       		.byte	0x23
 4840 0c63 00       		.uleb128 0
 4841 0c64 10       		.uleb128 0x10
 4842 0c65 680B0000 		.4byte	.LASF180
 4843 0c69 06       		.byte	0x6
 4844 0c6a 4502     		.2byte	0x245
 4845 0c6c BD000000 		.4byte	0xbd
 4846 0c70 04       		.byte	0x4
 4847 0c71 10       		.byte	0x10
 4848 0c72 00       		.byte	0
 4849 0c73 02       		.byte	0x2
 4850 0c74 23       		.byte	0x23
 4851 0c75 00       		.uleb128 0
 4852 0c76 00       		.byte	0
 4853 0c77 11       		.uleb128 0x11
 4854 0c78 2D110000 		.4byte	.LASF181
 4855 0c7c 04       		.byte	0x4
 4856 0c7d 06       		.byte	0x6
 4857 0c7e 3E02     		.2byte	0x23e
 4858 0c80 9B0C0000 		.4byte	0xc9b
 4859 0c84 12       		.uleb128 0x12
 4860 0c85 64333200 		.ascii	"d32\000"
 4861 0c89 06       		.byte	0x6
 4862 0c8a 4002     		.2byte	0x240
 4863 0c8c BD000000 		.4byte	0xbd
 4864 0c90 12       		.uleb128 0x12
 4865 0c91 6200     		.ascii	"b\000"
 4866 0c93 06       		.byte	0x6
 4867 0c94 4802     		.2byte	0x248
 4868 0c96 490C0000 		.4byte	0xc49
 4869 0c9a 00       		.byte	0
 4870 0c9b 13       		.uleb128 0x13
 4871 0c9c 87080000 		.4byte	.LASF182
 4872 0ca0 06       		.byte	0x6
 4873 0ca1 4902     		.2byte	0x249
 4874 0ca3 770C0000 		.4byte	0xc77
 4875 0ca7 0F       		.uleb128 0xf
 4876 0ca8 04       		.byte	0x4
 4877 0ca9 06       		.byte	0x6
 4878 0caa 7102     		.2byte	0x271
 4879 0cac 410D0000 		.4byte	0xd41
 4880 0cb0 10       		.uleb128 0x10
 4881 0cb1 AA090000 		.4byte	.LASF183
 4882 0cb5 06       		.byte	0x6
 4883 0cb6 7302     		.2byte	0x273
 4884 0cb8 BD000000 		.4byte	0xbd
ARM GAS  /tmp/ccQkqy1T.s 			page 128


 4885 0cbc 04       		.byte	0x4
 4886 0cbd 10       		.byte	0x10
 4887 0cbe 10       		.byte	0x10
 4888 0cbf 02       		.byte	0x2
 4889 0cc0 23       		.byte	0x23
 4890 0cc1 00       		.uleb128 0
 4891 0cc2 10       		.uleb128 0x10
 4892 0cc3 43010000 		.4byte	.LASF184
 4893 0cc7 06       		.byte	0x6
 4894 0cc8 7502     		.2byte	0x275
 4895 0cca BD000000 		.4byte	0xbd
 4896 0cce 04       		.byte	0x4
 4897 0ccf 01       		.byte	0x1
 4898 0cd0 0F       		.byte	0xf
 4899 0cd1 02       		.byte	0x2
 4900 0cd2 23       		.byte	0x23
 4901 0cd3 00       		.uleb128 0
 4902 0cd4 10       		.uleb128 0x10
 4903 0cd5 59100000 		.4byte	.LASF185
 4904 0cd9 06       		.byte	0x6
 4905 0cda 7702     		.2byte	0x277
 4906 0cdc BD000000 		.4byte	0xbd
 4907 0ce0 04       		.byte	0x4
 4908 0ce1 01       		.byte	0x1
 4909 0ce2 0E       		.byte	0xe
 4910 0ce3 02       		.byte	0x2
 4911 0ce4 23       		.byte	0x23
 4912 0ce5 00       		.uleb128 0
 4913 0ce6 10       		.uleb128 0x10
 4914 0ce7 84150000 		.4byte	.LASF186
 4915 0ceb 06       		.byte	0x6
 4916 0cec 7902     		.2byte	0x279
 4917 0cee BD000000 		.4byte	0xbd
 4918 0cf2 04       		.byte	0x4
 4919 0cf3 01       		.byte	0x1
 4920 0cf4 0D       		.byte	0xd
 4921 0cf5 02       		.byte	0x2
 4922 0cf6 23       		.byte	0x23
 4923 0cf7 00       		.uleb128 0
 4924 0cf8 10       		.uleb128 0x10
 4925 0cf9 91150000 		.4byte	.LASF187
 4926 0cfd 06       		.byte	0x6
 4927 0cfe 7B02     		.2byte	0x27b
 4928 0d00 BD000000 		.4byte	0xbd
 4929 0d04 04       		.byte	0x4
 4930 0d05 01       		.byte	0x1
 4931 0d06 0C       		.byte	0xc
 4932 0d07 02       		.byte	0x2
 4933 0d08 23       		.byte	0x23
 4934 0d09 00       		.uleb128 0
 4935 0d0a 10       		.uleb128 0x10
 4936 0d0b 5B090000 		.4byte	.LASF188
 4937 0d0f 06       		.byte	0x6
 4938 0d10 7D02     		.2byte	0x27d
 4939 0d12 BD000000 		.4byte	0xbd
 4940 0d16 04       		.byte	0x4
 4941 0d17 01       		.byte	0x1
ARM GAS  /tmp/ccQkqy1T.s 			page 129


 4942 0d18 0B       		.byte	0xb
 4943 0d19 02       		.byte	0x2
 4944 0d1a 23       		.byte	0x23
 4945 0d1b 00       		.uleb128 0
 4946 0d1c 10       		.uleb128 0x10
 4947 0d1d 29100000 		.4byte	.LASF189
 4948 0d21 06       		.byte	0x6
 4949 0d22 7F02     		.2byte	0x27f
 4950 0d24 BD000000 		.4byte	0xbd
 4951 0d28 04       		.byte	0x4
 4952 0d29 01       		.byte	0x1
 4953 0d2a 0A       		.byte	0xa
 4954 0d2b 02       		.byte	0x2
 4955 0d2c 23       		.byte	0x23
 4956 0d2d 00       		.uleb128 0
 4957 0d2e 10       		.uleb128 0x10
 4958 0d2f 5E110000 		.4byte	.LASF190
 4959 0d33 06       		.byte	0x6
 4960 0d34 8102     		.2byte	0x281
 4961 0d36 BD000000 		.4byte	0xbd
 4962 0d3a 04       		.byte	0x4
 4963 0d3b 0A       		.byte	0xa
 4964 0d3c 00       		.byte	0
 4965 0d3d 02       		.byte	0x2
 4966 0d3e 23       		.byte	0x23
 4967 0d3f 00       		.uleb128 0
 4968 0d40 00       		.byte	0
 4969 0d41 11       		.uleb128 0x11
 4970 0d42 B2110000 		.4byte	.LASF191
 4971 0d46 04       		.byte	0x4
 4972 0d47 06       		.byte	0x6
 4973 0d48 6E02     		.2byte	0x26e
 4974 0d4a 650D0000 		.4byte	0xd65
 4975 0d4e 12       		.uleb128 0x12
 4976 0d4f 64333200 		.ascii	"d32\000"
 4977 0d53 06       		.byte	0x6
 4978 0d54 7002     		.2byte	0x270
 4979 0d56 BD000000 		.4byte	0xbd
 4980 0d5a 12       		.uleb128 0x12
 4981 0d5b 6200     		.ascii	"b\000"
 4982 0d5d 06       		.byte	0x6
 4983 0d5e 8402     		.2byte	0x284
 4984 0d60 A70C0000 		.4byte	0xca7
 4985 0d64 00       		.byte	0
 4986 0d65 13       		.uleb128 0x13
 4987 0d66 1D0C0000 		.4byte	.LASF192
 4988 0d6a 06       		.byte	0x6
 4989 0d6b 8502     		.2byte	0x285
 4990 0d6d 410D0000 		.4byte	0xd41
 4991 0d71 0F       		.uleb128 0xf
 4992 0d72 04       		.byte	0x4
 4993 0d73 06       		.byte	0x6
 4994 0d74 8A02     		.2byte	0x28a
 4995 0d76 E70D0000 		.4byte	0xde7
 4996 0d7a 10       		.uleb128 0x10
 4997 0d7b F6120000 		.4byte	.LASF193
 4998 0d7f 06       		.byte	0x6
ARM GAS  /tmp/ccQkqy1T.s 			page 130


 4999 0d80 8C02     		.2byte	0x28c
 5000 0d82 BD000000 		.4byte	0xbd
 5001 0d86 04       		.byte	0x4
 5002 0d87 02       		.byte	0x2
 5003 0d88 1E       		.byte	0x1e
 5004 0d89 02       		.byte	0x2
 5005 0d8a 23       		.byte	0x23
 5006 0d8b 00       		.uleb128 0
 5007 0d8c 10       		.uleb128 0x10
 5008 0d8d 59150000 		.4byte	.LASF194
 5009 0d91 06       		.byte	0x6
 5010 0d92 8E02     		.2byte	0x28e
 5011 0d94 BD000000 		.4byte	0xbd
 5012 0d98 04       		.byte	0x4
 5013 0d99 01       		.byte	0x1
 5014 0d9a 1D       		.byte	0x1d
 5015 0d9b 02       		.byte	0x2
 5016 0d9c 23       		.byte	0x23
 5017 0d9d 00       		.uleb128 0
 5018 0d9e 10       		.uleb128 0x10
 5019 0d9f 3C0F0000 		.4byte	.LASF139
 5020 0da3 06       		.byte	0x6
 5021 0da4 9002     		.2byte	0x290
 5022 0da6 BD000000 		.4byte	0xbd
 5023 0daa 04       		.byte	0x4
 5024 0dab 01       		.byte	0x1
 5025 0dac 1C       		.byte	0x1c
 5026 0dad 02       		.byte	0x2
 5027 0dae 23       		.byte	0x23
 5028 0daf 00       		.uleb128 0
 5029 0db0 10       		.uleb128 0x10
 5030 0db1 24080000 		.4byte	.LASF195
 5031 0db5 06       		.byte	0x6
 5032 0db6 9202     		.2byte	0x292
 5033 0db8 BD000000 		.4byte	0xbd
 5034 0dbc 04       		.byte	0x4
 5035 0dbd 07       		.byte	0x7
 5036 0dbe 15       		.byte	0x15
 5037 0dbf 02       		.byte	0x2
 5038 0dc0 23       		.byte	0x23
 5039 0dc1 00       		.uleb128 0
 5040 0dc2 10       		.uleb128 0x10
 5041 0dc3 F30E0000 		.4byte	.LASF196
 5042 0dc7 06       		.byte	0x6
 5043 0dc8 9402     		.2byte	0x294
 5044 0dca BD000000 		.4byte	0xbd
 5045 0dce 04       		.byte	0x4
 5046 0dcf 02       		.byte	0x2
 5047 0dd0 13       		.byte	0x13
 5048 0dd1 02       		.byte	0x2
 5049 0dd2 23       		.byte	0x23
 5050 0dd3 00       		.uleb128 0
 5051 0dd4 10       		.uleb128 0x10
 5052 0dd5 43110000 		.4byte	.LASF197
 5053 0dd9 06       		.byte	0x6
 5054 0dda 9602     		.2byte	0x296
 5055 0ddc BD000000 		.4byte	0xbd
ARM GAS  /tmp/ccQkqy1T.s 			page 131


 5056 0de0 04       		.byte	0x4
 5057 0de1 13       		.byte	0x13
 5058 0de2 00       		.byte	0
 5059 0de3 02       		.byte	0x2
 5060 0de4 23       		.byte	0x23
 5061 0de5 00       		.uleb128 0
 5062 0de6 00       		.byte	0
 5063 0de7 11       		.uleb128 0x11
 5064 0de8 CD0E0000 		.4byte	.LASF198
 5065 0dec 04       		.byte	0x4
 5066 0ded 06       		.byte	0x6
 5067 0dee 8702     		.2byte	0x287
 5068 0df0 0B0E0000 		.4byte	0xe0b
 5069 0df4 12       		.uleb128 0x12
 5070 0df5 64333200 		.ascii	"d32\000"
 5071 0df9 06       		.byte	0x6
 5072 0dfa 8902     		.2byte	0x289
 5073 0dfc BD000000 		.4byte	0xbd
 5074 0e00 12       		.uleb128 0x12
 5075 0e01 6200     		.ascii	"b\000"
 5076 0e03 06       		.byte	0x6
 5077 0e04 9902     		.2byte	0x299
 5078 0e06 710D0000 		.4byte	0xd71
 5079 0e0a 00       		.byte	0
 5080 0e0b 13       		.uleb128 0x13
 5081 0e0c 82060000 		.4byte	.LASF199
 5082 0e10 06       		.byte	0x6
 5083 0e11 9A02     		.2byte	0x29a
 5084 0e13 E70D0000 		.4byte	0xde7
 5085 0e17 0F       		.uleb128 0xf
 5086 0e18 04       		.byte	0x4
 5087 0e19 06       		.byte	0x6
 5088 0e1a 9E02     		.2byte	0x29e
 5089 0e1c E70E0000 		.4byte	0xee7
 5090 0e20 10       		.uleb128 0x10
 5091 0e21 10060000 		.4byte	.LASF200
 5092 0e25 06       		.byte	0x6
 5093 0e26 A002     		.2byte	0x2a0
 5094 0e28 BD000000 		.4byte	0xbd
 5095 0e2c 04       		.byte	0x4
 5096 0e2d 01       		.byte	0x1
 5097 0e2e 1F       		.byte	0x1f
 5098 0e2f 02       		.byte	0x2
 5099 0e30 23       		.byte	0x23
 5100 0e31 00       		.uleb128 0
 5101 0e32 10       		.uleb128 0x10
 5102 0e33 8E100000 		.4byte	.LASF201
 5103 0e37 06       		.byte	0x6
 5104 0e38 A202     		.2byte	0x2a2
 5105 0e3a BD000000 		.4byte	0xbd
 5106 0e3e 04       		.byte	0x4
 5107 0e3f 01       		.byte	0x1
 5108 0e40 1E       		.byte	0x1e
 5109 0e41 02       		.byte	0x2
 5110 0e42 23       		.byte	0x23
 5111 0e43 00       		.uleb128 0
 5112 0e44 10       		.uleb128 0x10
ARM GAS  /tmp/ccQkqy1T.s 			page 132


 5113 0e45 5F060000 		.4byte	.LASF202
 5114 0e49 06       		.byte	0x6
 5115 0e4a A402     		.2byte	0x2a4
 5116 0e4c BD000000 		.4byte	0xbd
 5117 0e50 04       		.byte	0x4
 5118 0e51 01       		.byte	0x1
 5119 0e52 1D       		.byte	0x1d
 5120 0e53 02       		.byte	0x2
 5121 0e54 23       		.byte	0x23
 5122 0e55 00       		.uleb128 0
 5123 0e56 10       		.uleb128 0x10
 5124 0e57 430C0000 		.4byte	.LASF203
 5125 0e5b 06       		.byte	0x6
 5126 0e5c A602     		.2byte	0x2a6
 5127 0e5e BD000000 		.4byte	0xbd
 5128 0e62 04       		.byte	0x4
 5129 0e63 01       		.byte	0x1
 5130 0e64 1C       		.byte	0x1c
 5131 0e65 02       		.byte	0x2
 5132 0e66 23       		.byte	0x23
 5133 0e67 00       		.uleb128 0
 5134 0e68 10       		.uleb128 0x10
 5135 0e69 860A0000 		.4byte	.LASF204
 5136 0e6d 06       		.byte	0x6
 5137 0e6e A802     		.2byte	0x2a8
 5138 0e70 BD000000 		.4byte	0xbd
 5139 0e74 04       		.byte	0x4
 5140 0e75 03       		.byte	0x3
 5141 0e76 19       		.byte	0x19
 5142 0e77 02       		.byte	0x2
 5143 0e78 23       		.byte	0x23
 5144 0e79 00       		.uleb128 0
 5145 0e7a 10       		.uleb128 0x10
 5146 0e7b A60B0000 		.4byte	.LASF205
 5147 0e7f 06       		.byte	0x6
 5148 0e80 AA02     		.2byte	0x2aa
 5149 0e82 BD000000 		.4byte	0xbd
 5150 0e86 04       		.byte	0x4
 5151 0e87 01       		.byte	0x1
 5152 0e88 18       		.byte	0x18
 5153 0e89 02       		.byte	0x2
 5154 0e8a 23       		.byte	0x23
 5155 0e8b 00       		.uleb128 0
 5156 0e8c 10       		.uleb128 0x10
 5157 0e8d 0A150000 		.4byte	.LASF206
 5158 0e91 06       		.byte	0x6
 5159 0e92 AC02     		.2byte	0x2ac
 5160 0e94 BD000000 		.4byte	0xbd
 5161 0e98 04       		.byte	0x4
 5162 0e99 01       		.byte	0x1
 5163 0e9a 17       		.byte	0x17
 5164 0e9b 02       		.byte	0x2
 5165 0e9c 23       		.byte	0x23
 5166 0e9d 00       		.uleb128 0
 5167 0e9e 10       		.uleb128 0x10
 5168 0e9f 9F000000 		.4byte	.LASF207
 5169 0ea3 06       		.byte	0x6
ARM GAS  /tmp/ccQkqy1T.s 			page 133


 5170 0ea4 AE02     		.2byte	0x2ae
 5171 0ea6 BD000000 		.4byte	0xbd
 5172 0eaa 04       		.byte	0x4
 5173 0eab 01       		.byte	0x1
 5174 0eac 16       		.byte	0x16
 5175 0ead 02       		.byte	0x2
 5176 0eae 23       		.byte	0x23
 5177 0eaf 00       		.uleb128 0
 5178 0eb0 10       		.uleb128 0x10
 5179 0eb1 6C050000 		.4byte	.LASF208
 5180 0eb5 06       		.byte	0x6
 5181 0eb6 B002     		.2byte	0x2b0
 5182 0eb8 BD000000 		.4byte	0xbd
 5183 0ebc 04       		.byte	0x4
 5184 0ebd 01       		.byte	0x1
 5185 0ebe 15       		.byte	0x15
 5186 0ebf 02       		.byte	0x2
 5187 0ec0 23       		.byte	0x23
 5188 0ec1 00       		.uleb128 0
 5189 0ec2 10       		.uleb128 0x10
 5190 0ec3 E1040000 		.4byte	.LASF209
 5191 0ec7 06       		.byte	0x6
 5192 0ec8 B202     		.2byte	0x2b2
 5193 0eca BD000000 		.4byte	0xbd
 5194 0ece 04       		.byte	0x4
 5195 0ecf 01       		.byte	0x1
 5196 0ed0 14       		.byte	0x14
 5197 0ed1 02       		.byte	0x2
 5198 0ed2 23       		.byte	0x23
 5199 0ed3 00       		.uleb128 0
 5200 0ed4 10       		.uleb128 0x10
 5201 0ed5 1B0E0000 		.4byte	.LASF90
 5202 0ed9 06       		.byte	0x6
 5203 0eda B402     		.2byte	0x2b4
 5204 0edc BD000000 		.4byte	0xbd
 5205 0ee0 04       		.byte	0x4
 5206 0ee1 14       		.byte	0x14
 5207 0ee2 00       		.byte	0
 5208 0ee3 02       		.byte	0x2
 5209 0ee4 23       		.byte	0x23
 5210 0ee5 00       		.uleb128 0
 5211 0ee6 00       		.byte	0
 5212 0ee7 11       		.uleb128 0x11
 5213 0ee8 F3070000 		.4byte	.LASF210
 5214 0eec 04       		.byte	0x4
 5215 0eed 06       		.byte	0x6
 5216 0eee 9B02     		.2byte	0x29b
 5217 0ef0 0B0F0000 		.4byte	0xf0b
 5218 0ef4 12       		.uleb128 0x12
 5219 0ef5 64333200 		.ascii	"d32\000"
 5220 0ef9 06       		.byte	0x6
 5221 0efa 9D02     		.2byte	0x29d
 5222 0efc BD000000 		.4byte	0xbd
 5223 0f00 12       		.uleb128 0x12
 5224 0f01 6200     		.ascii	"b\000"
 5225 0f03 06       		.byte	0x6
 5226 0f04 B702     		.2byte	0x2b7
ARM GAS  /tmp/ccQkqy1T.s 			page 134


 5227 0f06 170E0000 		.4byte	0xe17
 5228 0f0a 00       		.byte	0
 5229 0f0b 13       		.uleb128 0x13
 5230 0f0c 93160000 		.4byte	.LASF211
 5231 0f10 06       		.byte	0x6
 5232 0f11 B802     		.2byte	0x2b8
 5233 0f13 E70E0000 		.4byte	0xee7
 5234 0f17 0F       		.uleb128 0xf
 5235 0f18 04       		.byte	0x4
 5236 0f19 06       		.byte	0x6
 5237 0f1a BC02     		.2byte	0x2bc
 5238 0f1c 8D0F0000 		.4byte	0xf8d
 5239 0f20 10       		.uleb128 0x10
 5240 0f21 C8060000 		.4byte	.LASF212
 5241 0f25 06       		.byte	0x6
 5242 0f26 BE02     		.2byte	0x2be
 5243 0f28 BD000000 		.4byte	0xbd
 5244 0f2c 04       		.byte	0x4
 5245 0f2d 01       		.byte	0x1
 5246 0f2e 1F       		.byte	0x1f
 5247 0f2f 02       		.byte	0x2
 5248 0f30 23       		.byte	0x23
 5249 0f31 00       		.uleb128 0
 5250 0f32 10       		.uleb128 0x10
 5251 0f33 3B0C0000 		.4byte	.LASF213
 5252 0f37 06       		.byte	0x6
 5253 0f38 C002     		.2byte	0x2c0
 5254 0f3a BD000000 		.4byte	0xbd
 5255 0f3e 04       		.byte	0x4
 5256 0f3f 02       		.byte	0x2
 5257 0f40 1D       		.byte	0x1d
 5258 0f41 02       		.byte	0x2
 5259 0f42 23       		.byte	0x23
 5260 0f43 00       		.uleb128 0
 5261 0f44 10       		.uleb128 0x10
 5262 0f45 4C070000 		.4byte	.LASF214
 5263 0f49 06       		.byte	0x6
 5264 0f4a C202     		.2byte	0x2c2
 5265 0f4c BD000000 		.4byte	0xbd
 5266 0f50 04       		.byte	0x4
 5267 0f51 01       		.byte	0x1
 5268 0f52 1C       		.byte	0x1c
 5269 0f53 02       		.byte	0x2
 5270 0f54 23       		.byte	0x23
 5271 0f55 00       		.uleb128 0
 5272 0f56 10       		.uleb128 0x10
 5273 0f57 F40A0000 		.4byte	.LASF215
 5274 0f5b 06       		.byte	0x6
 5275 0f5c C402     		.2byte	0x2c4
 5276 0f5e BD000000 		.4byte	0xbd
 5277 0f62 04       		.byte	0x4
 5278 0f63 04       		.byte	0x4
 5279 0f64 18       		.byte	0x18
 5280 0f65 02       		.byte	0x2
 5281 0f66 23       		.byte	0x23
 5282 0f67 00       		.uleb128 0
 5283 0f68 10       		.uleb128 0x10
ARM GAS  /tmp/ccQkqy1T.s 			page 135


 5284 0f69 5A010000 		.4byte	.LASF216
 5285 0f6d 06       		.byte	0x6
 5286 0f6e C602     		.2byte	0x2c6
 5287 0f70 BD000000 		.4byte	0xbd
 5288 0f74 04       		.byte	0x4
 5289 0f75 0E       		.byte	0xe
 5290 0f76 0A       		.byte	0xa
 5291 0f77 02       		.byte	0x2
 5292 0f78 23       		.byte	0x23
 5293 0f79 00       		.uleb128 0
 5294 0f7a 10       		.uleb128 0x10
 5295 0f7b 7B120000 		.4byte	.LASF217
 5296 0f7f 06       		.byte	0x6
 5297 0f80 C802     		.2byte	0x2c8
 5298 0f82 BD000000 		.4byte	0xbd
 5299 0f86 04       		.byte	0x4
 5300 0f87 0A       		.byte	0xa
 5301 0f88 00       		.byte	0
 5302 0f89 02       		.byte	0x2
 5303 0f8a 23       		.byte	0x23
 5304 0f8b 00       		.uleb128 0
 5305 0f8c 00       		.byte	0
 5306 0f8d 11       		.uleb128 0x11
 5307 0f8e 5A0D0000 		.4byte	.LASF218
 5308 0f92 04       		.byte	0x4
 5309 0f93 06       		.byte	0x6
 5310 0f94 B902     		.2byte	0x2b9
 5311 0f96 B10F0000 		.4byte	0xfb1
 5312 0f9a 12       		.uleb128 0x12
 5313 0f9b 64333200 		.ascii	"d32\000"
 5314 0f9f 06       		.byte	0x6
 5315 0fa0 BB02     		.2byte	0x2bb
 5316 0fa2 BD000000 		.4byte	0xbd
 5317 0fa6 12       		.uleb128 0x12
 5318 0fa7 6200     		.ascii	"b\000"
 5319 0fa9 06       		.byte	0x6
 5320 0faa CB02     		.2byte	0x2cb
 5321 0fac 170F0000 		.4byte	0xf17
 5322 0fb0 00       		.byte	0
 5323 0fb1 13       		.uleb128 0x13
 5324 0fb2 0D050000 		.4byte	.LASF219
 5325 0fb6 06       		.byte	0x6
 5326 0fb7 CC02     		.2byte	0x2cc
 5327 0fb9 8D0F0000 		.4byte	0xf8d
 5328 0fbd 0F       		.uleb128 0xf
 5329 0fbe 04       		.byte	0x4
 5330 0fbf 06       		.byte	0x6
 5331 0fc0 D002     		.2byte	0x2d0
 5332 0fc2 7B100000 		.4byte	0x107b
 5333 0fc6 10       		.uleb128 0x10
 5334 0fc7 C9000000 		.4byte	.LASF220
 5335 0fcb 06       		.byte	0x6
 5336 0fcc D202     		.2byte	0x2d2
 5337 0fce BD000000 		.4byte	0xbd
 5338 0fd2 04       		.byte	0x4
 5339 0fd3 01       		.byte	0x1
 5340 0fd4 1F       		.byte	0x1f
ARM GAS  /tmp/ccQkqy1T.s 			page 136


 5341 0fd5 02       		.byte	0x2
 5342 0fd6 23       		.byte	0x23
 5343 0fd7 00       		.uleb128 0
 5344 0fd8 10       		.uleb128 0x10
 5345 0fd9 B3020000 		.4byte	.LASF221
 5346 0fdd 06       		.byte	0x6
 5347 0fde D402     		.2byte	0x2d4
 5348 0fe0 BD000000 		.4byte	0xbd
 5349 0fe4 04       		.byte	0x4
 5350 0fe5 01       		.byte	0x1
 5351 0fe6 1E       		.byte	0x1e
 5352 0fe7 02       		.byte	0x2
 5353 0fe8 23       		.byte	0x23
 5354 0fe9 00       		.uleb128 0
 5355 0fea 10       		.uleb128 0x10
 5356 0feb EC130000 		.4byte	.LASF222
 5357 0fef 06       		.byte	0x6
 5358 0ff0 D602     		.2byte	0x2d6
 5359 0ff2 BD000000 		.4byte	0xbd
 5360 0ff6 04       		.byte	0x4
 5361 0ff7 01       		.byte	0x1
 5362 0ff8 1D       		.byte	0x1d
 5363 0ff9 02       		.byte	0x2
 5364 0ffa 23       		.byte	0x23
 5365 0ffb 00       		.uleb128 0
 5366 0ffc 10       		.uleb128 0x10
 5367 0ffd E30E0000 		.4byte	.LASF223
 5368 1001 06       		.byte	0x6
 5369 1002 D802     		.2byte	0x2d8
 5370 1004 BD000000 		.4byte	0xbd
 5371 1008 04       		.byte	0x4
 5372 1009 01       		.byte	0x1
 5373 100a 1C       		.byte	0x1c
 5374 100b 02       		.byte	0x2
 5375 100c 23       		.byte	0x23
 5376 100d 00       		.uleb128 0
 5377 100e 10       		.uleb128 0x10
 5378 100f 60010000 		.4byte	.LASF224
 5379 1013 06       		.byte	0x6
 5380 1014 DA02     		.2byte	0x2da
 5381 1016 BD000000 		.4byte	0xbd
 5382 101a 04       		.byte	0x4
 5383 101b 01       		.byte	0x1
 5384 101c 1B       		.byte	0x1b
 5385 101d 02       		.byte	0x2
 5386 101e 23       		.byte	0x23
 5387 101f 00       		.uleb128 0
 5388 1020 10       		.uleb128 0x10
 5389 1021 25140000 		.4byte	.LASF225
 5390 1025 06       		.byte	0x6
 5391 1026 DC02     		.2byte	0x2dc
 5392 1028 BD000000 		.4byte	0xbd
 5393 102c 04       		.byte	0x4
 5394 102d 01       		.byte	0x1
 5395 102e 1A       		.byte	0x1a
 5396 102f 02       		.byte	0x2
 5397 1030 23       		.byte	0x23
ARM GAS  /tmp/ccQkqy1T.s 			page 137


 5398 1031 00       		.uleb128 0
 5399 1032 10       		.uleb128 0x10
 5400 1033 67040000 		.4byte	.LASF226
 5401 1037 06       		.byte	0x6
 5402 1038 DE02     		.2byte	0x2de
 5403 103a BD000000 		.4byte	0xbd
 5404 103e 04       		.byte	0x4
 5405 103f 01       		.byte	0x1
 5406 1040 19       		.byte	0x19
 5407 1041 02       		.byte	0x2
 5408 1042 23       		.byte	0x23
 5409 1043 00       		.uleb128 0
 5410 1044 10       		.uleb128 0x10
 5411 1045 3B000000 		.4byte	.LASF227
 5412 1049 06       		.byte	0x6
 5413 104a E002     		.2byte	0x2e0
 5414 104c BD000000 		.4byte	0xbd
 5415 1050 04       		.byte	0x4
 5416 1051 01       		.byte	0x1
 5417 1052 18       		.byte	0x18
 5418 1053 02       		.byte	0x2
 5419 1054 23       		.byte	0x23
 5420 1055 00       		.uleb128 0
 5421 1056 10       		.uleb128 0x10
 5422 1057 AB100000 		.4byte	.LASF228
 5423 105b 06       		.byte	0x6
 5424 105c E202     		.2byte	0x2e2
 5425 105e BD000000 		.4byte	0xbd
 5426 1062 04       		.byte	0x4
 5427 1063 01       		.byte	0x1
 5428 1064 17       		.byte	0x17
 5429 1065 02       		.byte	0x2
 5430 1066 23       		.byte	0x23
 5431 1067 00       		.uleb128 0
 5432 1068 10       		.uleb128 0x10
 5433 1069 22050000 		.4byte	.LASF229
 5434 106d 06       		.byte	0x6
 5435 106e E402     		.2byte	0x2e4
 5436 1070 BD000000 		.4byte	0xbd
 5437 1074 04       		.byte	0x4
 5438 1075 17       		.byte	0x17
 5439 1076 00       		.byte	0
 5440 1077 02       		.byte	0x2
 5441 1078 23       		.byte	0x23
 5442 1079 00       		.uleb128 0
 5443 107a 00       		.byte	0
 5444 107b 11       		.uleb128 0x11
 5445 107c B30E0000 		.4byte	.LASF230
 5446 1080 04       		.byte	0x4
 5447 1081 06       		.byte	0x6
 5448 1082 CD02     		.2byte	0x2cd
 5449 1084 9F100000 		.4byte	0x109f
 5450 1088 12       		.uleb128 0x12
 5451 1089 64333200 		.ascii	"d32\000"
 5452 108d 06       		.byte	0x6
 5453 108e CF02     		.2byte	0x2cf
 5454 1090 BD000000 		.4byte	0xbd
ARM GAS  /tmp/ccQkqy1T.s 			page 138


 5455 1094 12       		.uleb128 0x12
 5456 1095 6200     		.ascii	"b\000"
 5457 1097 06       		.byte	0x6
 5458 1098 E702     		.2byte	0x2e7
 5459 109a BD0F0000 		.4byte	0xfbd
 5460 109e 00       		.byte	0
 5461 109f 13       		.uleb128 0x13
 5462 10a0 E6090000 		.4byte	.LASF231
 5463 10a4 06       		.byte	0x6
 5464 10a5 E902     		.2byte	0x2e9
 5465 10a7 7B100000 		.4byte	0x107b
 5466 10ab 0F       		.uleb128 0xf
 5467 10ac 04       		.byte	0x4
 5468 10ad 06       		.byte	0x6
 5469 10ae 0103     		.2byte	0x301
 5470 10b0 D8100000 		.4byte	0x10d8
 5471 10b4 14       		.uleb128 0x14
 5472 10b5 696E00   		.ascii	"in\000"
 5473 10b8 06       		.byte	0x6
 5474 10b9 0303     		.2byte	0x303
 5475 10bb BD000000 		.4byte	0xbd
 5476 10bf 04       		.byte	0x4
 5477 10c0 10       		.byte	0x10
 5478 10c1 10       		.byte	0x10
 5479 10c2 02       		.byte	0x2
 5480 10c3 23       		.byte	0x23
 5481 10c4 00       		.uleb128 0
 5482 10c5 14       		.uleb128 0x14
 5483 10c6 6F757400 		.ascii	"out\000"
 5484 10ca 06       		.byte	0x6
 5485 10cb 0503     		.2byte	0x305
 5486 10cd BD000000 		.4byte	0xbd
 5487 10d1 04       		.byte	0x4
 5488 10d2 10       		.byte	0x10
 5489 10d3 00       		.byte	0
 5490 10d4 02       		.byte	0x2
 5491 10d5 23       		.byte	0x23
 5492 10d6 00       		.uleb128 0
 5493 10d7 00       		.byte	0
 5494 10d8 11       		.uleb128 0x11
 5495 10d9 24000000 		.4byte	.LASF232
 5496 10dd 04       		.byte	0x4
 5497 10de 06       		.byte	0x6
 5498 10df FE02     		.2byte	0x2fe
 5499 10e1 FD100000 		.4byte	0x10fd
 5500 10e5 12       		.uleb128 0x12
 5501 10e6 64333200 		.ascii	"d32\000"
 5502 10ea 06       		.byte	0x6
 5503 10eb 0003     		.2byte	0x300
 5504 10ed BD000000 		.4byte	0xbd
 5505 10f1 12       		.uleb128 0x12
 5506 10f2 657000   		.ascii	"ep\000"
 5507 10f5 06       		.byte	0x6
 5508 10f6 0803     		.2byte	0x308
 5509 10f8 AB100000 		.4byte	0x10ab
 5510 10fc 00       		.byte	0
 5511 10fd 13       		.uleb128 0x13
ARM GAS  /tmp/ccQkqy1T.s 			page 139


 5512 10fe 57160000 		.4byte	.LASF233
 5513 1102 06       		.byte	0x6
 5514 1103 0903     		.2byte	0x309
 5515 1105 D8100000 		.4byte	0x10d8
 5516 1109 0F       		.uleb128 0xf
 5517 110a 04       		.byte	0x4
 5518 110b 06       		.byte	0x6
 5519 110c 0E03     		.2byte	0x30e
 5520 110e B5110000 		.4byte	0x11b5
 5521 1112 10       		.uleb128 0x10
 5522 1113 B10F0000 		.4byte	.LASF234
 5523 1117 06       		.byte	0x6
 5524 1118 1003     		.2byte	0x310
 5525 111a BD000000 		.4byte	0xbd
 5526 111e 04       		.byte	0x4
 5527 111f 01       		.byte	0x1
 5528 1120 1F       		.byte	0x1f
 5529 1121 02       		.byte	0x2
 5530 1122 23       		.byte	0x23
 5531 1123 00       		.uleb128 0
 5532 1124 10       		.uleb128 0x10
 5533 1125 790C0000 		.4byte	.LASF235
 5534 1129 06       		.byte	0x6
 5535 112a 1203     		.2byte	0x312
 5536 112c BD000000 		.4byte	0xbd
 5537 1130 04       		.byte	0x4
 5538 1131 01       		.byte	0x1
 5539 1132 1E       		.byte	0x1e
 5540 1133 02       		.byte	0x2
 5541 1134 23       		.byte	0x23
 5542 1135 00       		.uleb128 0
 5543 1136 10       		.uleb128 0x10
 5544 1137 45000000 		.4byte	.LASF236
 5545 113b 06       		.byte	0x6
 5546 113c 1403     		.2byte	0x314
 5547 113e BD000000 		.4byte	0xbd
 5548 1142 04       		.byte	0x4
 5549 1143 09       		.byte	0x9
 5550 1144 15       		.byte	0x15
 5551 1145 02       		.byte	0x2
 5552 1146 23       		.byte	0x23
 5553 1147 00       		.uleb128 0
 5554 1148 10       		.uleb128 0x10
 5555 1149 1B160000 		.4byte	.LASF237
 5556 114d 06       		.byte	0x6
 5557 114e 1603     		.2byte	0x316
 5558 1150 BD000000 		.4byte	0xbd
 5559 1154 04       		.byte	0x4
 5560 1155 05       		.byte	0x5
 5561 1156 10       		.byte	0x10
 5562 1157 02       		.byte	0x2
 5563 1158 23       		.byte	0x23
 5564 1159 00       		.uleb128 0
 5565 115a 10       		.uleb128 0x10
 5566 115b 7C0A0000 		.4byte	.LASF238
 5567 115f 06       		.byte	0x6
 5568 1160 1803     		.2byte	0x318
ARM GAS  /tmp/ccQkqy1T.s 			page 140


 5569 1162 BD000000 		.4byte	0xbd
 5570 1166 04       		.byte	0x4
 5571 1167 01       		.byte	0x1
 5572 1168 0F       		.byte	0xf
 5573 1169 02       		.byte	0x2
 5574 116a 23       		.byte	0x23
 5575 116b 00       		.uleb128 0
 5576 116c 10       		.uleb128 0x10
 5577 116d 280A0000 		.4byte	.LASF239
 5578 1171 06       		.byte	0x6
 5579 1172 1A03     		.2byte	0x31a
 5580 1174 BD000000 		.4byte	0xbd
 5581 1178 04       		.byte	0x4
 5582 1179 09       		.byte	0x9
 5583 117a 06       		.byte	0x6
 5584 117b 02       		.byte	0x2
 5585 117c 23       		.byte	0x23
 5586 117d 00       		.uleb128 0
 5587 117e 10       		.uleb128 0x10
 5588 117f 93140000 		.4byte	.LASF240
 5589 1183 06       		.byte	0x6
 5590 1184 1C03     		.2byte	0x31c
 5591 1186 BD000000 		.4byte	0xbd
 5592 118a 04       		.byte	0x4
 5593 118b 01       		.byte	0x1
 5594 118c 05       		.byte	0x5
 5595 118d 02       		.byte	0x2
 5596 118e 23       		.byte	0x23
 5597 118f 00       		.uleb128 0
 5598 1190 10       		.uleb128 0x10
 5599 1191 48010000 		.4byte	.LASF241
 5600 1195 06       		.byte	0x6
 5601 1196 1E03     		.2byte	0x31e
 5602 1198 BD000000 		.4byte	0xbd
 5603 119c 04       		.byte	0x4
 5604 119d 01       		.byte	0x1
 5605 119e 04       		.byte	0x4
 5606 119f 02       		.byte	0x2
 5607 11a0 23       		.byte	0x23
 5608 11a1 00       		.uleb128 0
 5609 11a2 10       		.uleb128 0x10
 5610 11a3 4A120000 		.4byte	.LASF242
 5611 11a7 06       		.byte	0x6
 5612 11a8 2003     		.2byte	0x320
 5613 11aa BD000000 		.4byte	0xbd
 5614 11ae 04       		.byte	0x4
 5615 11af 04       		.byte	0x4
 5616 11b0 00       		.byte	0
 5617 11b1 02       		.byte	0x2
 5618 11b2 23       		.byte	0x23
 5619 11b3 00       		.uleb128 0
 5620 11b4 00       		.byte	0
 5621 11b5 11       		.uleb128 0x11
 5622 11b6 DD0B0000 		.4byte	.LASF243
 5623 11ba 04       		.byte	0x4
 5624 11bb 06       		.byte	0x6
 5625 11bc 0B03     		.2byte	0x30b
ARM GAS  /tmp/ccQkqy1T.s 			page 141


 5626 11be D9110000 		.4byte	0x11d9
 5627 11c2 12       		.uleb128 0x12
 5628 11c3 64333200 		.ascii	"d32\000"
 5629 11c7 06       		.byte	0x6
 5630 11c8 0D03     		.2byte	0x30d
 5631 11ca BD000000 		.4byte	0xbd
 5632 11ce 12       		.uleb128 0x12
 5633 11cf 6200     		.ascii	"b\000"
 5634 11d1 06       		.byte	0x6
 5635 11d2 2303     		.2byte	0x323
 5636 11d4 09110000 		.4byte	0x1109
 5637 11d8 00       		.byte	0
 5638 11d9 13       		.uleb128 0x13
 5639 11da 5B0E0000 		.4byte	.LASF244
 5640 11de 06       		.byte	0x6
 5641 11df 2403     		.2byte	0x324
 5642 11e1 B5110000 		.4byte	0x11b5
 5643 11e5 0F       		.uleb128 0xf
 5644 11e6 04       		.byte	0x4
 5645 11e7 06       		.byte	0x6
 5646 11e8 2803     		.2byte	0x328
 5647 11ea FD120000 		.4byte	0x12fd
 5648 11ee 14       		.uleb128 0x14
 5649 11ef 6D707300 		.ascii	"mps\000"
 5650 11f3 06       		.byte	0x6
 5651 11f4 2A03     		.2byte	0x32a
 5652 11f6 BD000000 		.4byte	0xbd
 5653 11fa 04       		.byte	0x4
 5654 11fb 0B       		.byte	0xb
 5655 11fc 15       		.byte	0x15
 5656 11fd 02       		.byte	0x2
 5657 11fe 23       		.byte	0x23
 5658 11ff 00       		.uleb128 0
 5659 1200 10       		.uleb128 0x10
 5660 1201 33150000 		.4byte	.LASF245
 5661 1205 06       		.byte	0x6
 5662 1206 2C03     		.2byte	0x32c
 5663 1208 BD000000 		.4byte	0xbd
 5664 120c 04       		.byte	0x4
 5665 120d 04       		.byte	0x4
 5666 120e 11       		.byte	0x11
 5667 120f 02       		.byte	0x2
 5668 1210 23       		.byte	0x23
 5669 1211 00       		.uleb128 0
 5670 1212 10       		.uleb128 0x10
 5671 1213 96000000 		.4byte	.LASF246
 5672 1217 06       		.byte	0x6
 5673 1218 2E03     		.2byte	0x32e
 5674 121a BD000000 		.4byte	0xbd
 5675 121e 04       		.byte	0x4
 5676 121f 01       		.byte	0x1
 5677 1220 10       		.byte	0x10
 5678 1221 02       		.byte	0x2
 5679 1222 23       		.byte	0x23
 5680 1223 00       		.uleb128 0
 5681 1224 10       		.uleb128 0x10
 5682 1225 460F0000 		.4byte	.LASF247
ARM GAS  /tmp/ccQkqy1T.s 			page 142


 5683 1229 06       		.byte	0x6
 5684 122a 3003     		.2byte	0x330
 5685 122c BD000000 		.4byte	0xbd
 5686 1230 04       		.byte	0x4
 5687 1231 01       		.byte	0x1
 5688 1232 0F       		.byte	0xf
 5689 1233 02       		.byte	0x2
 5690 1234 23       		.byte	0x23
 5691 1235 00       		.uleb128 0
 5692 1236 10       		.uleb128 0x10
 5693 1237 F6080000 		.4byte	.LASF248
 5694 123b 06       		.byte	0x6
 5695 123c 3203     		.2byte	0x332
 5696 123e BD000000 		.4byte	0xbd
 5697 1242 04       		.byte	0x4
 5698 1243 01       		.byte	0x1
 5699 1244 0E       		.byte	0xe
 5700 1245 02       		.byte	0x2
 5701 1246 23       		.byte	0x23
 5702 1247 00       		.uleb128 0
 5703 1248 10       		.uleb128 0x10
 5704 1249 42150000 		.4byte	.LASF249
 5705 124d 06       		.byte	0x6
 5706 124e 3403     		.2byte	0x334
 5707 1250 BD000000 		.4byte	0xbd
 5708 1254 04       		.byte	0x4
 5709 1255 02       		.byte	0x2
 5710 1256 0C       		.byte	0xc
 5711 1257 02       		.byte	0x2
 5712 1258 23       		.byte	0x23
 5713 1259 00       		.uleb128 0
 5714 125a 14       		.uleb128 0x14
 5715 125b 736E7000 		.ascii	"snp\000"
 5716 125f 06       		.byte	0x6
 5717 1260 3603     		.2byte	0x336
 5718 1262 BD000000 		.4byte	0xbd
 5719 1266 04       		.byte	0x4
 5720 1267 01       		.byte	0x1
 5721 1268 0B       		.byte	0xb
 5722 1269 02       		.byte	0x2
 5723 126a 23       		.byte	0x23
 5724 126b 00       		.uleb128 0
 5725 126c 10       		.uleb128 0x10
 5726 126d AC070000 		.4byte	.LASF250
 5727 1271 06       		.byte	0x6
 5728 1272 3803     		.2byte	0x338
 5729 1274 BD000000 		.4byte	0xbd
 5730 1278 04       		.byte	0x4
 5731 1279 01       		.byte	0x1
 5732 127a 0A       		.byte	0xa
 5733 127b 02       		.byte	0x2
 5734 127c 23       		.byte	0x23
 5735 127d 00       		.uleb128 0
 5736 127e 10       		.uleb128 0x10
 5737 127f DA040000 		.4byte	.LASF142
 5738 1283 06       		.byte	0x6
 5739 1284 3A03     		.2byte	0x33a
ARM GAS  /tmp/ccQkqy1T.s 			page 143


 5740 1286 BD000000 		.4byte	0xbd
 5741 128a 04       		.byte	0x4
 5742 128b 04       		.byte	0x4
 5743 128c 06       		.byte	0x6
 5744 128d 02       		.byte	0x2
 5745 128e 23       		.byte	0x23
 5746 128f 00       		.uleb128 0
 5747 1290 10       		.uleb128 0x10
 5748 1291 1B120000 		.4byte	.LASF251
 5749 1295 06       		.byte	0x6
 5750 1296 3C03     		.2byte	0x33c
 5751 1298 BD000000 		.4byte	0xbd
 5752 129c 04       		.byte	0x4
 5753 129d 01       		.byte	0x1
 5754 129e 05       		.byte	0x5
 5755 129f 02       		.byte	0x2
 5756 12a0 23       		.byte	0x23
 5757 12a1 00       		.uleb128 0
 5758 12a2 10       		.uleb128 0x10
 5759 12a3 A9140000 		.4byte	.LASF252
 5760 12a7 06       		.byte	0x6
 5761 12a8 3E03     		.2byte	0x33e
 5762 12aa BD000000 		.4byte	0xbd
 5763 12ae 04       		.byte	0x4
 5764 12af 01       		.byte	0x1
 5765 12b0 04       		.byte	0x4
 5766 12b1 02       		.byte	0x2
 5767 12b2 23       		.byte	0x23
 5768 12b3 00       		.uleb128 0
 5769 12b4 10       		.uleb128 0x10
 5770 12b5 8A160000 		.4byte	.LASF253
 5771 12b9 06       		.byte	0x6
 5772 12ba 4003     		.2byte	0x340
 5773 12bc BD000000 		.4byte	0xbd
 5774 12c0 04       		.byte	0x4
 5775 12c1 01       		.byte	0x1
 5776 12c2 03       		.byte	0x3
 5777 12c3 02       		.byte	0x2
 5778 12c4 23       		.byte	0x23
 5779 12c5 00       		.uleb128 0
 5780 12c6 10       		.uleb128 0x10
 5781 12c7 280D0000 		.4byte	.LASF254
 5782 12cb 06       		.byte	0x6
 5783 12cc 4203     		.2byte	0x342
 5784 12ce BD000000 		.4byte	0xbd
 5785 12d2 04       		.byte	0x4
 5786 12d3 01       		.byte	0x1
 5787 12d4 02       		.byte	0x2
 5788 12d5 02       		.byte	0x2
 5789 12d6 23       		.byte	0x23
 5790 12d7 00       		.uleb128 0
 5791 12d8 10       		.uleb128 0x10
 5792 12d9 360F0000 		.4byte	.LASF255
 5793 12dd 06       		.byte	0x6
 5794 12de 4403     		.2byte	0x344
 5795 12e0 BD000000 		.4byte	0xbd
 5796 12e4 04       		.byte	0x4
ARM GAS  /tmp/ccQkqy1T.s 			page 144


 5797 12e5 01       		.byte	0x1
 5798 12e6 01       		.byte	0x1
 5799 12e7 02       		.byte	0x2
 5800 12e8 23       		.byte	0x23
 5801 12e9 00       		.uleb128 0
 5802 12ea 10       		.uleb128 0x10
 5803 12eb D4100000 		.4byte	.LASF256
 5804 12ef 06       		.byte	0x6
 5805 12f0 4603     		.2byte	0x346
 5806 12f2 BD000000 		.4byte	0xbd
 5807 12f6 04       		.byte	0x4
 5808 12f7 01       		.byte	0x1
 5809 12f8 00       		.byte	0
 5810 12f9 02       		.byte	0x2
 5811 12fa 23       		.byte	0x23
 5812 12fb 00       		.uleb128 0
 5813 12fc 00       		.byte	0
 5814 12fd 11       		.uleb128 0x11
 5815 12fe 2B010000 		.4byte	.LASF257
 5816 1302 04       		.byte	0x4
 5817 1303 06       		.byte	0x6
 5818 1304 2503     		.2byte	0x325
 5819 1306 21130000 		.4byte	0x1321
 5820 130a 12       		.uleb128 0x12
 5821 130b 64333200 		.ascii	"d32\000"
 5822 130f 06       		.byte	0x6
 5823 1310 2703     		.2byte	0x327
 5824 1312 BD000000 		.4byte	0xbd
 5825 1316 12       		.uleb128 0x12
 5826 1317 6200     		.ascii	"b\000"
 5827 1319 06       		.byte	0x6
 5828 131a 4903     		.2byte	0x349
 5829 131c E5110000 		.4byte	0x11e5
 5830 1320 00       		.byte	0
 5831 1321 13       		.uleb128 0x13
 5832 1322 F9150000 		.4byte	.LASF258
 5833 1326 06       		.byte	0x6
 5834 1327 4A03     		.2byte	0x34a
 5835 1329 FD120000 		.4byte	0x12fd
 5836 132d 0F       		.uleb128 0xf
 5837 132e 04       		.byte	0x4
 5838 132f 06       		.byte	0x6
 5839 1330 4E03     		.2byte	0x34e
 5840 1332 7E130000 		.4byte	0x137e
 5841 1336 10       		.uleb128 0x10
 5842 1337 AA080000 		.4byte	.LASF259
 5843 133b 06       		.byte	0x6
 5844 133c 5003     		.2byte	0x350
 5845 133e BD000000 		.4byte	0xbd
 5846 1342 04       		.byte	0x4
 5847 1343 13       		.byte	0x13
 5848 1344 0D       		.byte	0xd
 5849 1345 02       		.byte	0x2
 5850 1346 23       		.byte	0x23
 5851 1347 00       		.uleb128 0
 5852 1348 10       		.uleb128 0x10
 5853 1349 4E0C0000 		.4byte	.LASF260
ARM GAS  /tmp/ccQkqy1T.s 			page 145


 5854 134d 06       		.byte	0x6
 5855 134e 5203     		.2byte	0x352
 5856 1350 BD000000 		.4byte	0xbd
 5857 1354 04       		.byte	0x4
 5858 1355 0A       		.byte	0xa
 5859 1356 03       		.byte	0x3
 5860 1357 02       		.byte	0x2
 5861 1358 23       		.byte	0x23
 5862 1359 00       		.uleb128 0
 5863 135a 14       		.uleb128 0x14
 5864 135b 6D6300   		.ascii	"mc\000"
 5865 135e 06       		.byte	0x6
 5866 135f 5403     		.2byte	0x354
 5867 1361 BD000000 		.4byte	0xbd
 5868 1365 04       		.byte	0x4
 5869 1366 02       		.byte	0x2
 5870 1367 01       		.byte	0x1
 5871 1368 02       		.byte	0x2
 5872 1369 23       		.byte	0x23
 5873 136a 00       		.uleb128 0
 5874 136b 10       		.uleb128 0x10
 5875 136c 1B0E0000 		.4byte	.LASF90
 5876 1370 06       		.byte	0x6
 5877 1371 5603     		.2byte	0x356
 5878 1373 BD000000 		.4byte	0xbd
 5879 1377 04       		.byte	0x4
 5880 1378 01       		.byte	0x1
 5881 1379 00       		.byte	0
 5882 137a 02       		.byte	0x2
 5883 137b 23       		.byte	0x23
 5884 137c 00       		.uleb128 0
 5885 137d 00       		.byte	0
 5886 137e 11       		.uleb128 0x11
 5887 137f 42140000 		.4byte	.LASF261
 5888 1383 04       		.byte	0x4
 5889 1384 06       		.byte	0x6
 5890 1385 4B03     		.2byte	0x34b
 5891 1387 A2130000 		.4byte	0x13a2
 5892 138b 12       		.uleb128 0x12
 5893 138c 64333200 		.ascii	"d32\000"
 5894 1390 06       		.byte	0x6
 5895 1391 4D03     		.2byte	0x34d
 5896 1393 BD000000 		.4byte	0xbd
 5897 1397 12       		.uleb128 0x12
 5898 1398 6200     		.ascii	"b\000"
 5899 139a 06       		.byte	0x6
 5900 139b 5903     		.2byte	0x359
 5901 139d 2D130000 		.4byte	0x132d
 5902 13a1 00       		.byte	0
 5903 13a2 13       		.uleb128 0x13
 5904 13a3 29160000 		.4byte	.LASF262
 5905 13a7 06       		.byte	0x6
 5906 13a8 5A03     		.2byte	0x35a
 5907 13aa 7E130000 		.4byte	0x137e
 5908 13ae 0F       		.uleb128 0xf
 5909 13af 08       		.byte	0x8
 5910 13b0 06       		.byte	0x6
ARM GAS  /tmp/ccQkqy1T.s 			page 146


 5911 13b1 5E03     		.2byte	0x35e
 5912 13b3 21140000 		.4byte	0x1421
 5913 13b7 10       		.uleb128 0x10
 5914 13b8 AA080000 		.4byte	.LASF259
 5915 13bc 06       		.byte	0x6
 5916 13bd 6003     		.2byte	0x360
 5917 13bf BD000000 		.4byte	0xbd
 5918 13c3 04       		.byte	0x4
 5919 13c4 07       		.byte	0x7
 5920 13c5 19       		.byte	0x19
 5921 13c6 02       		.byte	0x2
 5922 13c7 23       		.byte	0x23
 5923 13c8 00       		.uleb128 0
 5924 13c9 10       		.uleb128 0x10
 5925 13ca CA120000 		.4byte	.LASF263
 5926 13ce 06       		.byte	0x6
 5927 13cf 6203     		.2byte	0x362
 5928 13d1 BD000000 		.4byte	0xbd
 5929 13d5 04       		.byte	0x4
 5930 13d6 0C       		.byte	0xc
 5931 13d7 0D       		.byte	0xd
 5932 13d8 02       		.byte	0x2
 5933 13d9 23       		.byte	0x23
 5934 13da 00       		.uleb128 0
 5935 13db 10       		.uleb128 0x10
 5936 13dc 4E0C0000 		.4byte	.LASF260
 5937 13e0 06       		.byte	0x6
 5938 13e1 6403     		.2byte	0x364
 5939 13e3 BD000000 		.4byte	0xbd
 5940 13e7 04       		.byte	0x4
 5941 13e8 02       		.byte	0x2
 5942 13e9 0B       		.byte	0xb
 5943 13ea 02       		.byte	0x2
 5944 13eb 23       		.byte	0x23
 5945 13ec 00       		.uleb128 0
 5946 13ed 10       		.uleb128 0x10
 5947 13ee 86020000 		.4byte	.LASF264
 5948 13f2 06       		.byte	0x6
 5949 13f3 6603     		.2byte	0x366
 5950 13f5 BD000000 		.4byte	0xbd
 5951 13f9 04       		.byte	0x4
 5952 13fa 09       		.byte	0x9
 5953 13fb 02       		.byte	0x2
 5954 13fc 02       		.byte	0x2
 5955 13fd 23       		.byte	0x23
 5956 13fe 00       		.uleb128 0
 5957 13ff 10       		.uleb128 0x10
 5958 1400 A40C0000 		.4byte	.LASF265
 5959 1404 06       		.byte	0x6
 5960 1405 6803     		.2byte	0x368
 5961 1407 BD000000 		.4byte	0xbd
 5962 140b 04       		.byte	0x4
 5963 140c 02       		.byte	0x2
 5964 140d 00       		.byte	0
 5965 140e 02       		.byte	0x2
 5966 140f 23       		.byte	0x23
 5967 1410 00       		.uleb128 0
ARM GAS  /tmp/ccQkqy1T.s 			page 147


 5968 1411 15       		.uleb128 0x15
 5969 1412 E3150000 		.4byte	.LASF266
 5970 1416 06       		.byte	0x6
 5971 1417 6A03     		.2byte	0x36a
 5972 1419 BD000000 		.4byte	0xbd
 5973 141d 02       		.byte	0x2
 5974 141e 23       		.byte	0x23
 5975 141f 04       		.uleb128 0x4
 5976 1420 00       		.byte	0
 5977 1421 11       		.uleb128 0x11
 5978 1422 71010000 		.4byte	.LASF267
 5979 1426 08       		.byte	0x8
 5980 1427 06       		.byte	0x6
 5981 1428 5B03     		.2byte	0x35b
 5982 142a 45140000 		.4byte	0x1445
 5983 142e 12       		.uleb128 0x12
 5984 142f 64333200 		.ascii	"d32\000"
 5985 1433 06       		.byte	0x6
 5986 1434 5D03     		.2byte	0x35d
 5987 1436 BD000000 		.4byte	0xbd
 5988 143a 12       		.uleb128 0x12
 5989 143b 6200     		.ascii	"b\000"
 5990 143d 06       		.byte	0x6
 5991 143e 6C03     		.2byte	0x36c
 5992 1440 AE130000 		.4byte	0x13ae
 5993 1444 00       		.byte	0
 5994 1445 13       		.uleb128 0x13
 5995 1446 960F0000 		.4byte	.LASF268
 5996 144a 06       		.byte	0x6
 5997 144b 6D03     		.2byte	0x36d
 5998 144d 21140000 		.4byte	0x1421
 5999 1451 0F       		.uleb128 0xf
 6000 1452 04       		.byte	0x4
 6001 1453 06       		.byte	0x6
 6002 1454 6E04     		.2byte	0x46e
 6003 1456 B5140000 		.4byte	0x14b5
 6004 145a 10       		.uleb128 0x10
 6005 145b 68030000 		.4byte	.LASF269
 6006 145f 06       		.byte	0x6
 6007 1460 7004     		.2byte	0x470
 6008 1462 BD000000 		.4byte	0xbd
 6009 1466 04       		.byte	0x4
 6010 1467 01       		.byte	0x1
 6011 1468 1F       		.byte	0x1f
 6012 1469 02       		.byte	0x2
 6013 146a 23       		.byte	0x23
 6014 146b 00       		.uleb128 0
 6015 146c 10       		.uleb128 0x10
 6016 146d 4D0A0000 		.4byte	.LASF270
 6017 1471 06       		.byte	0x6
 6018 1472 7204     		.2byte	0x472
 6019 1474 BD000000 		.4byte	0xbd
 6020 1478 04       		.byte	0x4
 6021 1479 01       		.byte	0x1
 6022 147a 1E       		.byte	0x1e
 6023 147b 02       		.byte	0x2
 6024 147c 23       		.byte	0x23
ARM GAS  /tmp/ccQkqy1T.s 			page 148


 6025 147d 00       		.uleb128 0
 6026 147e 10       		.uleb128 0x10
 6027 147f F6130000 		.4byte	.LASF271
 6028 1483 06       		.byte	0x6
 6029 1484 7404     		.2byte	0x474
 6030 1486 BD000000 		.4byte	0xbd
 6031 148a 04       		.byte	0x4
 6032 148b 02       		.byte	0x2
 6033 148c 1C       		.byte	0x1c
 6034 148d 02       		.byte	0x2
 6035 148e 23       		.byte	0x23
 6036 148f 00       		.uleb128 0
 6037 1490 10       		.uleb128 0x10
 6038 1491 F80F0000 		.4byte	.LASF272
 6039 1495 06       		.byte	0x6
 6040 1496 7604     		.2byte	0x476
 6041 1498 BD000000 		.4byte	0xbd
 6042 149c 04       		.byte	0x4
 6043 149d 01       		.byte	0x1
 6044 149e 1B       		.byte	0x1b
 6045 149f 02       		.byte	0x2
 6046 14a0 23       		.byte	0x23
 6047 14a1 00       		.uleb128 0
 6048 14a2 10       		.uleb128 0x10
 6049 14a3 3D120000 		.4byte	.LASF273
 6050 14a7 06       		.byte	0x6
 6051 14a8 7804     		.2byte	0x478
 6052 14aa BD000000 		.4byte	0xbd
 6053 14ae 04       		.byte	0x4
 6054 14af 1B       		.byte	0x1b
 6055 14b0 00       		.byte	0
 6056 14b1 02       		.byte	0x2
 6057 14b2 23       		.byte	0x23
 6058 14b3 00       		.uleb128 0
 6059 14b4 00       		.byte	0
 6060 14b5 11       		.uleb128 0x11
 6061 14b6 37080000 		.4byte	.LASF274
 6062 14ba 04       		.byte	0x4
 6063 14bb 06       		.byte	0x6
 6064 14bc 6B04     		.2byte	0x46b
 6065 14be D9140000 		.4byte	0x14d9
 6066 14c2 12       		.uleb128 0x12
 6067 14c3 64333200 		.ascii	"d32\000"
 6068 14c7 06       		.byte	0x6
 6069 14c8 6D04     		.2byte	0x46d
 6070 14ca BD000000 		.4byte	0xbd
 6071 14ce 12       		.uleb128 0x12
 6072 14cf 6200     		.ascii	"b\000"
 6073 14d1 06       		.byte	0x6
 6074 14d2 7B04     		.2byte	0x47b
 6075 14d4 51140000 		.4byte	0x1451
 6076 14d8 00       		.byte	0
 6077 14d9 13       		.uleb128 0x13
 6078 14da 000B0000 		.4byte	.LASF275
 6079 14de 06       		.byte	0x6
 6080 14df 7C04     		.2byte	0x47c
 6081 14e1 B5140000 		.4byte	0x14b5
ARM GAS  /tmp/ccQkqy1T.s 			page 149


 6082 14e5 16       		.uleb128 0x16
 6083 14e6 07       		.byte	0x7
 6084 14e7 01       		.byte	0x1
 6085 14e8 37000000 		.4byte	0x37
 6086 14ec 07       		.byte	0x7
 6087 14ed BD       		.byte	0xbd
 6088 14ee FF140000 		.4byte	0x14ff
 6089 14f2 17       		.uleb128 0x17
 6090 14f3 A5120000 		.4byte	.LASF276
 6091 14f7 00       		.byte	0
 6092 14f8 17       		.uleb128 0x17
 6093 14f9 74080000 		.4byte	.LASF277
 6094 14fd 01       		.byte	0x1
 6095 14fe 00       		.byte	0
 6096 14ff 03       		.uleb128 0x3
 6097 1500 39090000 		.4byte	.LASF278
 6098 1504 07       		.byte	0x7
 6099 1505 C0       		.byte	0xc0
 6100 1506 E5140000 		.4byte	0x14e5
 6101 150a 18       		.uleb128 0x18
 6102 150b 60020000 		.4byte	.LASF442
 6103 150f 07       		.byte	0x7
 6104 1510 01       		.byte	0x1
 6105 1511 37000000 		.4byte	0x37
 6106 1515 07       		.byte	0x7
 6107 1516 E7       		.byte	0xe7
 6108 1517 34150000 		.4byte	0x1534
 6109 151b 17       		.uleb128 0x17
 6110 151c BF040000 		.4byte	.LASF279
 6111 1520 00       		.byte	0
 6112 1521 17       		.uleb128 0x17
 6113 1522 880F0000 		.4byte	.LASF280
 6114 1526 01       		.byte	0x1
 6115 1527 17       		.uleb128 0x17
 6116 1528 48160000 		.4byte	.LASF281
 6117 152c 02       		.byte	0x2
 6118 152d 17       		.uleb128 0x17
 6119 152e 12010000 		.4byte	.LASF282
 6120 1532 03       		.byte	0x3
 6121 1533 00       		.byte	0
 6122 1534 16       		.uleb128 0x16
 6123 1535 07       		.byte	0x7
 6124 1536 01       		.byte	0x1
 6125 1537 37000000 		.4byte	0x37
 6126 153b 08       		.byte	0x8
 6127 153c 4F       		.byte	0x4f
 6128 153d 4E150000 		.4byte	0x154e
 6129 1541 17       		.uleb128 0x17
 6130 1542 B2070000 		.4byte	.LASF283
 6131 1546 00       		.byte	0
 6132 1547 17       		.uleb128 0x17
 6133 1548 5E000000 		.4byte	.LASF284
 6134 154c 01       		.byte	0x1
 6135 154d 00       		.byte	0
 6136 154e 03       		.uleb128 0x3
 6137 154f C0100000 		.4byte	.LASF285
 6138 1553 08       		.byte	0x8
ARM GAS  /tmp/ccQkqy1T.s 			page 150


 6139 1554 52       		.byte	0x52
 6140 1555 34150000 		.4byte	0x1534
 6141 1559 0E       		.uleb128 0xe
 6142 155a 04       		.byte	0x4
 6143 155b 97000000 		.4byte	0x97
 6144 155f 0D       		.uleb128 0xd
 6145 1560 7A040000 		.4byte	.LASF286
 6146 1564 28       		.byte	0x28
 6147 1565 08       		.byte	0x8
 6148 1566 88       		.byte	0x88
 6149 1567 3E160000 		.4byte	0x163e
 6150 156b 0C       		.uleb128 0xc
 6151 156c 6E756D00 		.ascii	"num\000"
 6152 1570 08       		.byte	0x8
 6153 1571 8A       		.byte	0x8a
 6154 1572 97000000 		.4byte	0x97
 6155 1576 02       		.byte	0x2
 6156 1577 23       		.byte	0x23
 6157 1578 00       		.uleb128 0
 6158 1579 0B       		.uleb128 0xb
 6159 157a 5F080000 		.4byte	.LASF287
 6160 157e 08       		.byte	0x8
 6161 157f 8B       		.byte	0x8b
 6162 1580 97000000 		.4byte	0x97
 6163 1584 02       		.byte	0x2
 6164 1585 23       		.byte	0x23
 6165 1586 01       		.uleb128 0x1
 6166 1587 0B       		.uleb128 0xb
 6167 1588 7D100000 		.4byte	.LASF288
 6168 158c 08       		.byte	0x8
 6169 158d 8C       		.byte	0x8c
 6170 158e 97000000 		.4byte	0x97
 6171 1592 02       		.byte	0x2
 6172 1593 23       		.byte	0x23
 6173 1594 02       		.uleb128 0x2
 6174 1595 0B       		.uleb128 0xb
 6175 1596 20130000 		.4byte	.LASF289
 6176 159a 08       		.byte	0x8
 6177 159b 8D       		.byte	0x8d
 6178 159c 97000000 		.4byte	0x97
 6179 15a0 02       		.byte	0x2
 6180 15a1 23       		.byte	0x23
 6181 15a2 03       		.uleb128 0x3
 6182 15a3 0B       		.uleb128 0xb
 6183 15a4 65080000 		.4byte	.LASF290
 6184 15a8 08       		.byte	0x8
 6185 15a9 8E       		.byte	0x8e
 6186 15aa 97000000 		.4byte	0x97
 6187 15ae 02       		.byte	0x2
 6188 15af 23       		.byte	0x23
 6189 15b0 04       		.uleb128 0x4
 6190 15b1 0B       		.uleb128 0xb
 6191 15b2 FA050000 		.4byte	.LASF291
 6192 15b6 08       		.byte	0x8
 6193 15b7 8F       		.byte	0x8f
 6194 15b8 97000000 		.4byte	0x97
 6195 15bc 02       		.byte	0x2
ARM GAS  /tmp/ccQkqy1T.s 			page 151


 6196 15bd 23       		.byte	0x23
 6197 15be 05       		.uleb128 0x5
 6198 15bf 0B       		.uleb128 0xb
 6199 15c0 EE050000 		.4byte	.LASF292
 6200 15c4 08       		.byte	0x8
 6201 15c5 90       		.byte	0x90
 6202 15c6 A2000000 		.4byte	0xa2
 6203 15ca 02       		.byte	0x2
 6204 15cb 23       		.byte	0x23
 6205 15cc 06       		.uleb128 0x6
 6206 15cd 0B       		.uleb128 0xb
 6207 15ce 30050000 		.4byte	.LASF293
 6208 15d2 08       		.byte	0x8
 6209 15d3 91       		.byte	0x91
 6210 15d4 BD000000 		.4byte	0xbd
 6211 15d8 02       		.byte	0x2
 6212 15d9 23       		.byte	0x23
 6213 15da 08       		.uleb128 0x8
 6214 15db 0B       		.uleb128 0xb
 6215 15dc 42050000 		.4byte	.LASF294
 6216 15e0 08       		.byte	0x8
 6217 15e1 93       		.byte	0x93
 6218 15e2 59150000 		.4byte	0x1559
 6219 15e6 02       		.byte	0x2
 6220 15e7 23       		.byte	0x23
 6221 15e8 0C       		.uleb128 0xc
 6222 15e9 0B       		.uleb128 0xb
 6223 15ea 28040000 		.4byte	.LASF295
 6224 15ee 08       		.byte	0x8
 6225 15ef 94       		.byte	0x94
 6226 15f0 BD000000 		.4byte	0xbd
 6227 15f4 02       		.byte	0x2
 6228 15f5 23       		.byte	0x23
 6229 15f6 10       		.uleb128 0x10
 6230 15f7 0B       		.uleb128 0xb
 6231 15f8 3E070000 		.4byte	.LASF296
 6232 15fc 08       		.byte	0x8
 6233 15fd 95       		.byte	0x95
 6234 15fe BD000000 		.4byte	0xbd
 6235 1602 02       		.byte	0x2
 6236 1603 23       		.byte	0x23
 6237 1604 14       		.uleb128 0x14
 6238 1605 0B       		.uleb128 0xb
 6239 1606 EE150000 		.4byte	.LASF297
 6240 160a 08       		.byte	0x8
 6241 160b 96       		.byte	0x96
 6242 160c BD000000 		.4byte	0xbd
 6243 1610 02       		.byte	0x2
 6244 1611 23       		.byte	0x23
 6245 1612 18       		.uleb128 0x18
 6246 1613 0B       		.uleb128 0xb
 6247 1614 6B000000 		.4byte	.LASF298
 6248 1618 08       		.byte	0x8
 6249 1619 98       		.byte	0x98
 6250 161a BD000000 		.4byte	0xbd
 6251 161e 02       		.byte	0x2
 6252 161f 23       		.byte	0x23
ARM GAS  /tmp/ccQkqy1T.s 			page 152


 6253 1620 1C       		.uleb128 0x1c
 6254 1621 0B       		.uleb128 0xb
 6255 1622 71030000 		.4byte	.LASF299
 6256 1626 08       		.byte	0x8
 6257 1627 99       		.byte	0x99
 6258 1628 BD000000 		.4byte	0xbd
 6259 162c 02       		.byte	0x2
 6260 162d 23       		.byte	0x23
 6261 162e 20       		.uleb128 0x20
 6262 162f 0B       		.uleb128 0xb
 6263 1630 2F140000 		.4byte	.LASF300
 6264 1634 08       		.byte	0x8
 6265 1635 9A       		.byte	0x9a
 6266 1636 BD000000 		.4byte	0xbd
 6267 163a 02       		.byte	0x2
 6268 163b 23       		.byte	0x23
 6269 163c 24       		.uleb128 0x24
 6270 163d 00       		.byte	0
 6271 163e 03       		.uleb128 0x3
 6272 163f 07010000 		.4byte	.LASF301
 6273 1643 08       		.byte	0x8
 6274 1644 9E       		.byte	0x9e
 6275 1645 5F150000 		.4byte	0x155f
 6276 1649 0D       		.uleb128 0xd
 6277 164a DA100000 		.4byte	.LASF302
 6278 164e 0C       		.byte	0xc
 6279 164f 08       		.byte	0x8
 6280 1650 A2       		.byte	0xa2
 6281 1651 E2160000 		.4byte	0x16e2
 6282 1655 0B       		.uleb128 0xb
 6283 1656 7C160000 		.4byte	.LASF303
 6284 165a 08       		.byte	0x8
 6285 165b A4       		.byte	0xa4
 6286 165c 97000000 		.4byte	0x97
 6287 1660 02       		.byte	0x2
 6288 1661 23       		.byte	0x23
 6289 1662 00       		.uleb128 0
 6290 1663 0B       		.uleb128 0xb
 6291 1664 88000000 		.4byte	.LASF304
 6292 1668 08       		.byte	0x8
 6293 1669 A5       		.byte	0xa5
 6294 166a 97000000 		.4byte	0x97
 6295 166e 02       		.byte	0x2
 6296 166f 23       		.byte	0x23
 6297 1670 01       		.uleb128 0x1
 6298 1671 0B       		.uleb128 0xb
 6299 1672 50040000 		.4byte	.LASF305
 6300 1676 08       		.byte	0x8
 6301 1677 A6       		.byte	0xa6
 6302 1678 97000000 		.4byte	0x97
 6303 167c 02       		.byte	0x2
 6304 167d 23       		.byte	0x23
 6305 167e 02       		.uleb128 0x2
 6306 167f 0B       		.uleb128 0xb
 6307 1680 01100000 		.4byte	.LASF306
 6308 1684 08       		.byte	0x8
 6309 1685 A7       		.byte	0xa7
ARM GAS  /tmp/ccQkqy1T.s 			page 153


 6310 1686 97000000 		.4byte	0x97
 6311 168a 02       		.byte	0x2
 6312 168b 23       		.byte	0x23
 6313 168c 03       		.uleb128 0x3
 6314 168d 0C       		.uleb128 0xc
 6315 168e 6D707300 		.ascii	"mps\000"
 6316 1692 08       		.byte	0x8
 6317 1693 A8       		.byte	0xa8
 6318 1694 A2000000 		.4byte	0xa2
 6319 1698 02       		.byte	0x2
 6320 1699 23       		.byte	0x23
 6321 169a 04       		.uleb128 0x4
 6322 169b 0B       		.uleb128 0xb
 6323 169c 06090000 		.4byte	.LASF307
 6324 16a0 08       		.byte	0x8
 6325 16a1 A9       		.byte	0xa9
 6326 16a2 A2000000 		.4byte	0xa2
 6327 16a6 02       		.byte	0x2
 6328 16a7 23       		.byte	0x23
 6329 16a8 06       		.uleb128 0x6
 6330 16a9 0B       		.uleb128 0xb
 6331 16aa 310D0000 		.4byte	.LASF308
 6332 16ae 08       		.byte	0x8
 6333 16af AA       		.byte	0xaa
 6334 16b0 97000000 		.4byte	0x97
 6335 16b4 02       		.byte	0x2
 6336 16b5 23       		.byte	0x23
 6337 16b6 08       		.uleb128 0x8
 6338 16b7 0B       		.uleb128 0xb
 6339 16b8 E8070000 		.4byte	.LASF309
 6340 16bc 08       		.byte	0x8
 6341 16bd AB       		.byte	0xab
 6342 16be 97000000 		.4byte	0x97
 6343 16c2 02       		.byte	0x2
 6344 16c3 23       		.byte	0x23
 6345 16c4 09       		.uleb128 0x9
 6346 16c5 0B       		.uleb128 0xb
 6347 16c6 D5020000 		.4byte	.LASF310
 6348 16ca 08       		.byte	0x8
 6349 16cb AC       		.byte	0xac
 6350 16cc 97000000 		.4byte	0x97
 6351 16d0 02       		.byte	0x2
 6352 16d1 23       		.byte	0x23
 6353 16d2 0A       		.uleb128 0xa
 6354 16d3 0B       		.uleb128 0xb
 6355 16d4 7B090000 		.4byte	.LASF311
 6356 16d8 08       		.byte	0x8
 6357 16d9 AD       		.byte	0xad
 6358 16da 97000000 		.4byte	0x97
 6359 16de 02       		.byte	0x2
 6360 16df 23       		.byte	0x23
 6361 16e0 0B       		.uleb128 0xb
 6362 16e1 00       		.byte	0
 6363 16e2 03       		.uleb128 0x3
 6364 16e3 E8060000 		.4byte	.LASF312
 6365 16e7 08       		.byte	0x8
 6366 16e8 B0       		.byte	0xb0
ARM GAS  /tmp/ccQkqy1T.s 			page 154


 6367 16e9 49160000 		.4byte	0x1649
 6368 16ed 0D       		.uleb128 0xd
 6369 16ee 50000000 		.4byte	.LASF313
 6370 16f2 08       		.byte	0x8
 6371 16f3 08       		.byte	0x8
 6372 16f4 B4       		.byte	0xb4
 6373 16f5 40170000 		.4byte	0x1740
 6374 16f9 0B       		.uleb128 0xb
 6375 16fa B50A0000 		.4byte	.LASF314
 6376 16fe 08       		.byte	0x8
 6377 16ff B6       		.byte	0xb6
 6378 1700 97000000 		.4byte	0x97
 6379 1704 02       		.byte	0x2
 6380 1705 23       		.byte	0x23
 6381 1706 00       		.uleb128 0
 6382 1707 0B       		.uleb128 0xb
 6383 1708 24110000 		.4byte	.LASF315
 6384 170c 08       		.byte	0x8
 6385 170d B7       		.byte	0xb7
 6386 170e 97000000 		.4byte	0x97
 6387 1712 02       		.byte	0x2
 6388 1713 23       		.byte	0x23
 6389 1714 01       		.uleb128 0x1
 6390 1715 0B       		.uleb128 0xb
 6391 1716 21040000 		.4byte	.LASF316
 6392 171a 08       		.byte	0x8
 6393 171b B8       		.byte	0xb8
 6394 171c A2000000 		.4byte	0xa2
 6395 1720 02       		.byte	0x2
 6396 1721 23       		.byte	0x23
 6397 1722 02       		.uleb128 0x2
 6398 1723 0B       		.uleb128 0xb
 6399 1724 99070000 		.4byte	.LASF317
 6400 1728 08       		.byte	0x8
 6401 1729 B9       		.byte	0xb9
 6402 172a A2000000 		.4byte	0xa2
 6403 172e 02       		.byte	0x2
 6404 172f 23       		.byte	0x23
 6405 1730 04       		.uleb128 0x4
 6406 1731 0B       		.uleb128 0xb
 6407 1732 21100000 		.4byte	.LASF318
 6408 1736 08       		.byte	0x8
 6409 1737 BA       		.byte	0xba
 6410 1738 A2000000 		.4byte	0xa2
 6411 173c 02       		.byte	0x2
 6412 173d 23       		.byte	0x23
 6413 173e 06       		.uleb128 0x6
 6414 173f 00       		.byte	0
 6415 1740 03       		.uleb128 0x3
 6416 1741 B2130000 		.4byte	.LASF319
 6417 1745 08       		.byte	0x8
 6418 1746 BB       		.byte	0xbb
 6419 1747 ED160000 		.4byte	0x16ed
 6420 174b 0D       		.uleb128 0xd
 6421 174c 780F0000 		.4byte	.LASF320
 6422 1750 1C       		.byte	0x1c
 6423 1751 08       		.byte	0x8
ARM GAS  /tmp/ccQkqy1T.s 			page 155


 6424 1752 BD       		.byte	0xbd
 6425 1753 BA170000 		.4byte	0x17ba
 6426 1757 0B       		.uleb128 0xb
 6427 1758 68140000 		.4byte	.LASF321
 6428 175c 08       		.byte	0x8
 6429 175d BF       		.byte	0xbf
 6430 175e D5170000 		.4byte	0x17d5
 6431 1762 02       		.byte	0x2
 6432 1763 23       		.byte	0x23
 6433 1764 00       		.uleb128 0
 6434 1765 0B       		.uleb128 0xb
 6435 1766 7C140000 		.4byte	.LASF322
 6436 176a 08       		.byte	0x8
 6437 176b C0       		.byte	0xc0
 6438 176c D5170000 		.4byte	0x17d5
 6439 1770 02       		.byte	0x2
 6440 1771 23       		.byte	0x23
 6441 1772 04       		.uleb128 0x4
 6442 1773 0B       		.uleb128 0xb
 6443 1774 C9090000 		.4byte	.LASF323
 6444 1778 08       		.byte	0x8
 6445 1779 C1       		.byte	0xc1
 6446 177a D5170000 		.4byte	0x17d5
 6447 177e 02       		.byte	0x2
 6448 177f 23       		.byte	0x23
 6449 1780 08       		.uleb128 0x8
 6450 1781 0B       		.uleb128 0xb
 6451 1782 65100000 		.4byte	.LASF324
 6452 1786 08       		.byte	0x8
 6453 1787 C2       		.byte	0xc2
 6454 1788 D5170000 		.4byte	0x17d5
 6455 178c 02       		.byte	0x2
 6456 178d 23       		.byte	0x23
 6457 178e 0C       		.uleb128 0xc
 6458 178f 0B       		.uleb128 0xb
 6459 1790 9C0E0000 		.4byte	.LASF325
 6460 1794 08       		.byte	0x8
 6461 1795 C3       		.byte	0xc3
 6462 1796 D5170000 		.4byte	0x17d5
 6463 179a 02       		.byte	0x2
 6464 179b 23       		.byte	0x23
 6465 179c 10       		.uleb128 0x10
 6466 179d 0B       		.uleb128 0xb
 6467 179e C8010000 		.4byte	.LASF326
 6468 17a2 08       		.byte	0x8
 6469 17a3 C4       		.byte	0xc4
 6470 17a4 D5170000 		.4byte	0x17d5
 6471 17a8 02       		.byte	0x2
 6472 17a9 23       		.byte	0x23
 6473 17aa 14       		.uleb128 0x14
 6474 17ab 0B       		.uleb128 0xb
 6475 17ac 07040000 		.4byte	.LASF327
 6476 17b0 08       		.byte	0x8
 6477 17b1 C5       		.byte	0xc5
 6478 17b2 D5170000 		.4byte	0x17d5
 6479 17b6 02       		.byte	0x2
 6480 17b7 23       		.byte	0x23
ARM GAS  /tmp/ccQkqy1T.s 			page 156


 6481 17b8 18       		.uleb128 0x18
 6482 17b9 00       		.byte	0
 6483 17ba 19       		.uleb128 0x19
 6484 17bb 01       		.byte	0x1
 6485 17bc 59150000 		.4byte	0x1559
 6486 17c0 CF170000 		.4byte	0x17cf
 6487 17c4 1A       		.uleb128 0x1a
 6488 17c5 97000000 		.4byte	0x97
 6489 17c9 1A       		.uleb128 0x1a
 6490 17ca CF170000 		.4byte	0x17cf
 6491 17ce 00       		.byte	0
 6492 17cf 0E       		.uleb128 0xe
 6493 17d0 04       		.byte	0x4
 6494 17d1 A2000000 		.4byte	0xa2
 6495 17d5 0E       		.uleb128 0xe
 6496 17d6 04       		.byte	0x4
 6497 17d7 BA170000 		.4byte	0x17ba
 6498 17db 03       		.uleb128 0x3
 6499 17dc 0D0D0000 		.4byte	.LASF328
 6500 17e0 08       		.byte	0x8
 6501 17e1 C6       		.byte	0xc6
 6502 17e2 4B170000 		.4byte	0x174b
 6503 17e6 0D       		.uleb128 0xd
 6504 17e7 14090000 		.4byte	.LASF329
 6505 17eb 2C       		.byte	0x2c
 6506 17ec 08       		.byte	0x8
 6507 17ed D2       		.byte	0xd2
 6508 17ee 8D180000 		.4byte	0x188d
 6509 17f2 0B       		.uleb128 0xb
 6510 17f3 39070000 		.4byte	.LASF330
 6511 17f7 08       		.byte	0x8
 6512 17f8 D4       		.byte	0xd4
 6513 17f9 A4180000 		.4byte	0x18a4
 6514 17fd 02       		.byte	0x2
 6515 17fe 23       		.byte	0x23
 6516 17ff 00       		.uleb128 0
 6517 1800 0B       		.uleb128 0xb
 6518 1801 DF050000 		.4byte	.LASF331
 6519 1805 08       		.byte	0x8
 6520 1806 D5       		.byte	0xd5
 6521 1807 A4180000 		.4byte	0x18a4
 6522 180b 02       		.byte	0x2
 6523 180c 23       		.byte	0x23
 6524 180d 04       		.uleb128 0x4
 6525 180e 0B       		.uleb128 0xb
 6526 180f 17020000 		.4byte	.LASF332
 6527 1813 08       		.byte	0x8
 6528 1814 D7       		.byte	0xd7
 6529 1815 C5180000 		.4byte	0x18c5
 6530 1819 02       		.byte	0x2
 6531 181a 23       		.byte	0x23
 6532 181b 08       		.uleb128 0x8
 6533 181c 0B       		.uleb128 0xb
 6534 181d DD070000 		.4byte	.LASF333
 6535 1821 08       		.byte	0x8
 6536 1822 D8       		.byte	0xd8
 6537 1823 DB180000 		.4byte	0x18db
ARM GAS  /tmp/ccQkqy1T.s 			page 157


 6538 1827 02       		.byte	0x2
 6539 1828 23       		.byte	0x23
 6540 1829 0C       		.uleb128 0xc
 6541 182a 0B       		.uleb128 0xb
 6542 182b A0070000 		.4byte	.LASF334
 6543 182f 08       		.byte	0x8
 6544 1830 D9       		.byte	0xd9
 6545 1831 DB180000 		.4byte	0x18db
 6546 1835 02       		.byte	0x2
 6547 1836 23       		.byte	0x23
 6548 1837 10       		.uleb128 0x10
 6549 1838 0B       		.uleb128 0xb
 6550 1839 B8040000 		.4byte	.LASF335
 6551 183d 08       		.byte	0x8
 6552 183e DB       		.byte	0xdb
 6553 183f A4180000 		.4byte	0x18a4
 6554 1843 02       		.byte	0x2
 6555 1844 23       		.byte	0x23
 6556 1845 14       		.uleb128 0x14
 6557 1846 0B       		.uleb128 0xb
 6558 1847 F4100000 		.4byte	.LASF336
 6559 184b 08       		.byte	0x8
 6560 184c DC       		.byte	0xdc
 6561 184d A4180000 		.4byte	0x18a4
 6562 1851 02       		.byte	0x2
 6563 1852 23       		.byte	0x23
 6564 1853 18       		.uleb128 0x18
 6565 1854 0C       		.uleb128 0xc
 6566 1855 534F4600 		.ascii	"SOF\000"
 6567 1859 08       		.byte	0x8
 6568 185a DD       		.byte	0xdd
 6569 185b DB180000 		.4byte	0x18db
 6570 185f 02       		.byte	0x2
 6571 1860 23       		.byte	0x23
 6572 1861 1C       		.uleb128 0x1c
 6573 1862 0B       		.uleb128 0xb
 6574 1863 FD0C0000 		.4byte	.LASF337
 6575 1867 08       		.byte	0x8
 6576 1868 DE       		.byte	0xde
 6577 1869 DB180000 		.4byte	0x18db
 6578 186d 02       		.byte	0x2
 6579 186e 23       		.byte	0x23
 6580 186f 20       		.uleb128 0x20
 6581 1870 0B       		.uleb128 0xb
 6582 1871 7B110000 		.4byte	.LASF338
 6583 1875 08       		.byte	0x8
 6584 1876 DF       		.byte	0xdf
 6585 1877 DB180000 		.4byte	0x18db
 6586 187b 02       		.byte	0x2
 6587 187c 23       		.byte	0x23
 6588 187d 24       		.uleb128 0x24
 6589 187e 0B       		.uleb128 0xb
 6590 187f 8D0A0000 		.4byte	.LASF339
 6591 1883 08       		.byte	0x8
 6592 1884 E1       		.byte	0xe1
 6593 1885 D5170000 		.4byte	0x17d5
 6594 1889 02       		.byte	0x2
ARM GAS  /tmp/ccQkqy1T.s 			page 158


 6595 188a 23       		.byte	0x23
 6596 188b 28       		.uleb128 0x28
 6597 188c 00       		.byte	0
 6598 188d 19       		.uleb128 0x19
 6599 188e 01       		.byte	0x1
 6600 188f 97000000 		.4byte	0x97
 6601 1893 A2180000 		.4byte	0x18a2
 6602 1897 1A       		.uleb128 0x1a
 6603 1898 A2180000 		.4byte	0x18a2
 6604 189c 1A       		.uleb128 0x1a
 6605 189d 97000000 		.4byte	0x97
 6606 18a1 00       		.byte	0
 6607 18a2 1B       		.uleb128 0x1b
 6608 18a3 04       		.byte	0x4
 6609 18a4 0E       		.uleb128 0xe
 6610 18a5 04       		.byte	0x4
 6611 18a6 8D180000 		.4byte	0x188d
 6612 18aa 19       		.uleb128 0x19
 6613 18ab 01       		.byte	0x1
 6614 18ac 97000000 		.4byte	0x97
 6615 18b0 BF180000 		.4byte	0x18bf
 6616 18b4 1A       		.uleb128 0x1a
 6617 18b5 A2180000 		.4byte	0x18a2
 6618 18b9 1A       		.uleb128 0x1a
 6619 18ba BF180000 		.4byte	0x18bf
 6620 18be 00       		.byte	0
 6621 18bf 0E       		.uleb128 0xe
 6622 18c0 04       		.byte	0x4
 6623 18c1 40170000 		.4byte	0x1740
 6624 18c5 0E       		.uleb128 0xe
 6625 18c6 04       		.byte	0x4
 6626 18c7 AA180000 		.4byte	0x18aa
 6627 18cb 19       		.uleb128 0x19
 6628 18cc 01       		.byte	0x1
 6629 18cd 97000000 		.4byte	0x97
 6630 18d1 DB180000 		.4byte	0x18db
 6631 18d5 1A       		.uleb128 0x1a
 6632 18d6 A2180000 		.4byte	0x18a2
 6633 18da 00       		.byte	0
 6634 18db 0E       		.uleb128 0xe
 6635 18dc 04       		.byte	0x4
 6636 18dd CB180000 		.4byte	0x18cb
 6637 18e1 03       		.uleb128 0x3
 6638 18e2 120A0000 		.4byte	.LASF340
 6639 18e6 08       		.byte	0x8
 6640 18e7 EA       		.byte	0xea
 6641 18e8 E6170000 		.4byte	0x17e6
 6642 18ec 0D       		.uleb128 0xd
 6643 18ed E7080000 		.4byte	.LASF341
 6644 18f1 1C       		.byte	0x1c
 6645 18f2 08       		.byte	0x8
 6646 18f3 EE       		.byte	0xee
 6647 18f4 5B190000 		.4byte	0x195b
 6648 18f8 0B       		.uleb128 0xb
 6649 18f9 39070000 		.4byte	.LASF330
 6650 18fd 08       		.byte	0x8
 6651 18fe F0       		.byte	0xf0
ARM GAS  /tmp/ccQkqy1T.s 			page 159


 6652 18ff 5D190000 		.4byte	0x195d
 6653 1903 02       		.byte	0x2
 6654 1904 23       		.byte	0x23
 6655 1905 00       		.uleb128 0
 6656 1906 0B       		.uleb128 0xb
 6657 1907 C2080000 		.4byte	.LASF342
 6658 190b 08       		.byte	0x8
 6659 190c F1       		.byte	0xf1
 6660 190d 6F190000 		.4byte	0x196f
 6661 1911 02       		.byte	0x2
 6662 1912 23       		.byte	0x23
 6663 1913 04       		.uleb128 0x4
 6664 1914 0B       		.uleb128 0xb
 6665 1915 D3130000 		.4byte	.LASF343
 6666 1919 08       		.byte	0x8
 6667 191a F2       		.byte	0xf2
 6668 191b 5D190000 		.4byte	0x195d
 6669 191f 02       		.byte	0x2
 6670 1920 23       		.byte	0x23
 6671 1921 08       		.uleb128 0x8
 6672 1922 0B       		.uleb128 0xb
 6673 1923 98130000 		.4byte	.LASF344
 6674 1927 08       		.byte	0x8
 6675 1928 F3       		.byte	0xf3
 6676 1929 5D190000 		.4byte	0x195d
 6677 192d 02       		.byte	0x2
 6678 192e 23       		.byte	0x23
 6679 192f 0C       		.uleb128 0xc
 6680 1930 0B       		.uleb128 0xb
 6681 1931 9C080000 		.4byte	.LASF345
 6682 1935 08       		.byte	0x8
 6683 1936 F4       		.byte	0xf4
 6684 1937 5D190000 		.4byte	0x195d
 6685 193b 02       		.byte	0x2
 6686 193c 23       		.byte	0x23
 6687 193d 10       		.uleb128 0x10
 6688 193e 0B       		.uleb128 0xb
 6689 193f 14000000 		.4byte	.LASF346
 6690 1943 08       		.byte	0x8
 6691 1944 F6       		.byte	0xf6
 6692 1945 5D190000 		.4byte	0x195d
 6693 1949 02       		.byte	0x2
 6694 194a 23       		.byte	0x23
 6695 194b 14       		.uleb128 0x14
 6696 194c 0B       		.uleb128 0xb
 6697 194d 52050000 		.4byte	.LASF347
 6698 1951 08       		.byte	0x8
 6699 1952 F7       		.byte	0xf7
 6700 1953 5D190000 		.4byte	0x195d
 6701 1957 02       		.byte	0x2
 6702 1958 23       		.byte	0x23
 6703 1959 18       		.uleb128 0x18
 6704 195a 00       		.byte	0
 6705 195b 1C       		.uleb128 0x1c
 6706 195c 01       		.byte	0x1
 6707 195d 0E       		.uleb128 0xe
 6708 195e 04       		.byte	0x4
ARM GAS  /tmp/ccQkqy1T.s 			page 160


 6709 195f 5B190000 		.4byte	0x195b
 6710 1963 1D       		.uleb128 0x1d
 6711 1964 01       		.byte	0x1
 6712 1965 6F190000 		.4byte	0x196f
 6713 1969 1A       		.uleb128 0x1a
 6714 196a 97000000 		.4byte	0x97
 6715 196e 00       		.byte	0
 6716 196f 0E       		.uleb128 0xe
 6717 1970 04       		.byte	0x4
 6718 1971 63190000 		.4byte	0x1963
 6719 1975 03       		.uleb128 0x3
 6720 1976 6A130000 		.4byte	.LASF348
 6721 197a 08       		.byte	0x8
 6722 197b FA       		.byte	0xfa
 6723 197c EC180000 		.4byte	0x18ec
 6724 1980 0A       		.uleb128 0xa
 6725 1981 99120000 		.4byte	.LASF349
 6726 1985 E404     		.2byte	0x4e4
 6727 1987 08       		.byte	0x8
 6728 1988 FC       		.byte	0xfc
 6729 1989 731A0000 		.4byte	0x1a73
 6730 198d 0B       		.uleb128 0xb
 6731 198e 4B100000 		.4byte	.LASF350
 6732 1992 08       		.byte	0x8
 6733 1993 FE       		.byte	0xfe
 6734 1994 97000000 		.4byte	0x97
 6735 1998 02       		.byte	0x2
 6736 1999 23       		.byte	0x23
 6737 199a 00       		.uleb128 0
 6738 199b 0B       		.uleb128 0xb
 6739 199c 290F0000 		.4byte	.LASF351
 6740 19a0 08       		.byte	0x8
 6741 19a1 FF       		.byte	0xff
 6742 19a2 97000000 		.4byte	0x97
 6743 19a6 02       		.byte	0x2
 6744 19a7 23       		.byte	0x23
 6745 19a8 01       		.uleb128 0x1
 6746 19a9 15       		.uleb128 0x15
 6747 19aa 4D0E0000 		.4byte	.LASF352
 6748 19ae 08       		.byte	0x8
 6749 19af 0001     		.2byte	0x100
 6750 19b1 97000000 		.4byte	0x97
 6751 19b5 02       		.byte	0x2
 6752 19b6 23       		.byte	0x23
 6753 19b7 02       		.uleb128 0x2
 6754 19b8 15       		.uleb128 0x15
 6755 19b9 330A0000 		.4byte	.LASF353
 6756 19bd 08       		.byte	0x8
 6757 19be 0101     		.2byte	0x101
 6758 19c0 97000000 		.4byte	0x97
 6759 19c4 02       		.byte	0x2
 6760 19c5 23       		.byte	0x23
 6761 19c6 03       		.uleb128 0x3
 6762 19c7 15       		.uleb128 0x15
 6763 19c8 66150000 		.4byte	.LASF354
 6764 19cc 08       		.byte	0x8
 6765 19cd 0201     		.2byte	0x102
ARM GAS  /tmp/ccQkqy1T.s 			page 161


 6766 19cf 97000000 		.4byte	0x97
 6767 19d3 02       		.byte	0x2
 6768 19d4 23       		.byte	0x23
 6769 19d5 04       		.uleb128 0x4
 6770 19d6 15       		.uleb128 0x15
 6771 19d7 8A0E0000 		.4byte	.LASF355
 6772 19db 08       		.byte	0x8
 6773 19dc 0301     		.2byte	0x103
 6774 19de 97000000 		.4byte	0x97
 6775 19e2 02       		.byte	0x2
 6776 19e3 23       		.byte	0x23
 6777 19e4 05       		.uleb128 0x5
 6778 19e5 15       		.uleb128 0x15
 6779 19e6 D7120000 		.4byte	.LASF356
 6780 19ea 08       		.byte	0x8
 6781 19eb 0401     		.2byte	0x104
 6782 19ed 97000000 		.4byte	0x97
 6783 19f1 02       		.byte	0x2
 6784 19f2 23       		.byte	0x23
 6785 19f3 06       		.uleb128 0x6
 6786 19f4 15       		.uleb128 0x15
 6787 19f5 36040000 		.4byte	.LASF357
 6788 19f9 08       		.byte	0x8
 6789 19fa 0501     		.2byte	0x105
 6790 19fc BD000000 		.4byte	0xbd
 6791 1a00 02       		.byte	0x2
 6792 1a01 23       		.byte	0x23
 6793 1a02 08       		.uleb128 0x8
 6794 1a03 15       		.uleb128 0x15
 6795 1a04 6B010000 		.4byte	.LASF358
 6796 1a08 08       		.byte	0x8
 6797 1a09 0601     		.2byte	0x106
 6798 1a0b 731A0000 		.4byte	0x1a73
 6799 1a0f 02       		.byte	0x2
 6800 1a10 23       		.byte	0x23
 6801 1a11 0C       		.uleb128 0xc
 6802 1a12 15       		.uleb128 0x15
 6803 1a13 65050000 		.4byte	.LASF359
 6804 1a17 08       		.byte	0x8
 6805 1a18 0701     		.2byte	0x107
 6806 1a1a 731A0000 		.4byte	0x1a73
 6807 1a1e 03       		.byte	0x3
 6808 1a1f 23       		.byte	0x23
 6809 1a20 E404     		.uleb128 0x264
 6810 1a22 15       		.uleb128 0x15
 6811 1a23 0A020000 		.4byte	.LASF360
 6812 1a27 08       		.byte	0x8
 6813 1a28 0801     		.2byte	0x108
 6814 1a2a 831A0000 		.4byte	0x1a83
 6815 1a2e 03       		.byte	0x3
 6816 1a2f 23       		.byte	0x23
 6817 1a30 BC09     		.uleb128 0x4bc
 6818 1a32 15       		.uleb128 0x15
 6819 1a33 45130000 		.4byte	.LASF361
 6820 1a37 08       		.byte	0x8
 6821 1a38 0901     		.2byte	0x109
 6822 1a3a 931A0000 		.4byte	0x1a93
ARM GAS  /tmp/ccQkqy1T.s 			page 162


 6823 1a3e 03       		.byte	0x3
 6824 1a3f 23       		.byte	0x23
 6825 1a40 D409     		.uleb128 0x4d4
 6826 1a42 15       		.uleb128 0x15
 6827 1a43 09060000 		.4byte	.LASF362
 6828 1a47 08       		.byte	0x8
 6829 1a48 0A01     		.2byte	0x10a
 6830 1a4a 991A0000 		.4byte	0x1a99
 6831 1a4e 03       		.byte	0x3
 6832 1a4f 23       		.byte	0x23
 6833 1a50 D809     		.uleb128 0x4d8
 6834 1a52 15       		.uleb128 0x15
 6835 1a53 00000000 		.4byte	.LASF363
 6836 1a57 08       		.byte	0x8
 6837 1a58 0B01     		.2byte	0x10b
 6838 1a5a 9F1A0000 		.4byte	0x1a9f
 6839 1a5e 03       		.byte	0x3
 6840 1a5f 23       		.byte	0x23
 6841 1a60 DC09     		.uleb128 0x4dc
 6842 1a62 15       		.uleb128 0x15
 6843 1a63 F60B0000 		.4byte	.LASF364
 6844 1a67 08       		.byte	0x8
 6845 1a68 0C01     		.2byte	0x10c
 6846 1a6a 59150000 		.4byte	0x1559
 6847 1a6e 03       		.byte	0x3
 6848 1a6f 23       		.byte	0x23
 6849 1a70 E009     		.uleb128 0x4e0
 6850 1a72 00       		.byte	0
 6851 1a73 06       		.uleb128 0x6
 6852 1a74 3E160000 		.4byte	0x163e
 6853 1a78 831A0000 		.4byte	0x1a83
 6854 1a7c 07       		.uleb128 0x7
 6855 1a7d 90000000 		.4byte	0x90
 6856 1a81 0E       		.byte	0xe
 6857 1a82 00       		.byte	0
 6858 1a83 06       		.uleb128 0x6
 6859 1a84 97000000 		.4byte	0x97
 6860 1a88 931A0000 		.4byte	0x1a93
 6861 1a8c 07       		.uleb128 0x7
 6862 1a8d 90000000 		.4byte	0x90
 6863 1a91 17       		.byte	0x17
 6864 1a92 00       		.byte	0
 6865 1a93 0E       		.uleb128 0xe
 6866 1a94 04       		.byte	0x4
 6867 1a95 E1180000 		.4byte	0x18e1
 6868 1a99 0E       		.uleb128 0xe
 6869 1a9a 04       		.byte	0x4
 6870 1a9b 75190000 		.4byte	0x1975
 6871 1a9f 0E       		.uleb128 0xe
 6872 1aa0 04       		.byte	0x4
 6873 1aa1 DB170000 		.4byte	0x17db
 6874 1aa5 13       		.uleb128 0x13
 6875 1aa6 C00F0000 		.4byte	.LASF365
 6876 1aaa 08       		.byte	0x8
 6877 1aab 0E01     		.2byte	0x10e
 6878 1aad 80190000 		.4byte	0x1980
 6879 1ab1 1E       		.uleb128 0x1e
ARM GAS  /tmp/ccQkqy1T.s 			page 163


 6880 1ab2 3C100000 		.4byte	.LASF366
 6881 1ab6 F405     		.2byte	0x5f4
 6882 1ab8 08       		.byte	0x8
 6883 1ab9 2801     		.2byte	0x128
 6884 1abb EE1A0000 		.4byte	0x1aee
 6885 1abf 1F       		.uleb128 0x1f
 6886 1ac0 63666700 		.ascii	"cfg\000"
 6887 1ac4 08       		.byte	0x8
 6888 1ac5 2A01     		.2byte	0x12a
 6889 1ac7 E2160000 		.4byte	0x16e2
 6890 1acb 02       		.byte	0x2
 6891 1acc 23       		.byte	0x23
 6892 1acd 00       		.uleb128 0
 6893 1ace 15       		.uleb128 0x15
 6894 1acf 31040000 		.4byte	.LASF367
 6895 1ad3 08       		.byte	0x8
 6896 1ad4 2B01     		.2byte	0x12b
 6897 1ad6 65060000 		.4byte	0x665
 6898 1ada 02       		.byte	0x2
 6899 1adb 23       		.byte	0x23
 6900 1adc 0C       		.uleb128 0xc
 6901 1add 1F       		.uleb128 0x1f
 6902 1ade 64657600 		.ascii	"dev\000"
 6903 1ae2 08       		.byte	0x8
 6904 1ae3 2D01     		.2byte	0x12d
 6905 1ae5 A51A0000 		.4byte	0x1aa5
 6906 1ae9 03       		.byte	0x3
 6907 1aea 23       		.byte	0x23
 6908 1aeb 9002     		.uleb128 0x110
 6909 1aed 00       		.byte	0
 6910 1aee 13       		.uleb128 0x13
 6911 1aef 10110000 		.4byte	.LASF368
 6912 1af3 08       		.byte	0x8
 6913 1af4 3601     		.2byte	0x136
 6914 1af6 B11A0000 		.4byte	0x1ab1
 6915 1afa 20       		.uleb128 0x20
 6916 1afb 01       		.byte	0x1
 6917 1afc DF020000 		.4byte	.LASF373
 6918 1b00 01       		.byte	0x1
 6919 1b01 2408     		.2byte	0x824
 6920 1b03 01       		.byte	0x1
 6921 1b04 1C080000 		.4byte	.LFB145
 6922 1b08 90080000 		.4byte	.LFE145
 6923 1b0c 00000000 		.4byte	.LLST115
 6924 1b10 01       		.byte	0x1
 6925 1b11 9A1B0000 		.4byte	0x1b9a
 6926 1b15 21       		.uleb128 0x21
 6927 1b16 860D0000 		.4byte	.LASF369
 6928 1b1a 01       		.byte	0x1
 6929 1b1b 2408     		.2byte	0x824
 6930 1b1d 9A1B0000 		.4byte	0x1b9a
 6931 1b21 68000000 		.4byte	.LLST116
 6932 1b25 22       		.uleb128 0x22
 6933 1b26 657000   		.ascii	"ep\000"
 6934 1b29 01       		.byte	0x1
 6935 1b2a 2408     		.2byte	0x824
 6936 1b2c A01B0000 		.4byte	0x1ba0
ARM GAS  /tmp/ccQkqy1T.s 			page 164


 6937 1b30 C3000000 		.4byte	.LLST117
 6938 1b34 21       		.uleb128 0x21
 6939 1b35 E6010000 		.4byte	.LASF370
 6940 1b39 01       		.byte	0x1
 6941 1b3a 2408     		.2byte	0x824
 6942 1b3c BD000000 		.4byte	0xbd
 6943 1b40 05010000 		.4byte	.LLST118
 6944 1b44 23       		.uleb128 0x23
 6945 1b45 D70A0000 		.4byte	.LASF371
 6946 1b49 01       		.byte	0x1
 6947 1b4a 2608     		.2byte	0x826
 6948 1b4c 21130000 		.4byte	0x1321
 6949 1b50 7C010000 		.4byte	.LLST119
 6950 1b54 23       		.uleb128 0x23
 6951 1b55 6C0F0000 		.4byte	.LASF372
 6952 1b59 01       		.byte	0x1
 6953 1b5a 2708     		.2byte	0x827
 6954 1b5c 4F060000 		.4byte	0x64f
 6955 1b60 BB010000 		.4byte	.LLST120
 6956 1b64 24       		.uleb128 0x24
 6957 1b65 3C080000 		.4byte	.LVL279
 6958 1b69 01       		.byte	0x1
 6959 1b6a AD1E0000 		.4byte	0x1ead
 6960 1b6e 801B0000 		.4byte	0x1b80
 6961 1b72 25       		.uleb128 0x25
 6962 1b73 01       		.byte	0x1
 6963 1b74 50       		.byte	0x50
 6964 1b75 03       		.byte	0x3
 6965 1b76 F3       		.byte	0xf3
 6966 1b77 01       		.uleb128 0x1
 6967 1b78 50       		.byte	0x50
 6968 1b79 25       		.uleb128 0x25
 6969 1b7a 01       		.byte	0x1
 6970 1b7b 51       		.byte	0x51
 6971 1b7c 02       		.byte	0x2
 6972 1b7d 71       		.byte	0x71
 6973 1b7e 00       		.sleb128 0
 6974 1b7f 00       		.byte	0
 6975 1b80 26       		.uleb128 0x26
 6976 1b81 5C080000 		.4byte	.LVL287
 6977 1b85 01       		.byte	0x1
 6978 1b86 461E0000 		.4byte	0x1e46
 6979 1b8a 25       		.uleb128 0x25
 6980 1b8b 01       		.byte	0x1
 6981 1b8c 50       		.byte	0x50
 6982 1b8d 03       		.byte	0x3
 6983 1b8e F3       		.byte	0xf3
 6984 1b8f 01       		.uleb128 0x1
 6985 1b90 50       		.byte	0x50
 6986 1b91 25       		.uleb128 0x25
 6987 1b92 01       		.byte	0x1
 6988 1b93 51       		.byte	0x51
 6989 1b94 03       		.byte	0x3
 6990 1b95 F3       		.byte	0xf3
 6991 1b96 01       		.uleb128 0x1
 6992 1b97 51       		.byte	0x51
 6993 1b98 00       		.byte	0
ARM GAS  /tmp/ccQkqy1T.s 			page 165


 6994 1b99 00       		.byte	0
 6995 1b9a 0E       		.uleb128 0xe
 6996 1b9b 04       		.byte	0x4
 6997 1b9c EE1A0000 		.4byte	0x1aee
 6998 1ba0 0E       		.uleb128 0xe
 6999 1ba1 04       		.byte	0x4
 7000 1ba2 3E160000 		.4byte	0x163e
 7001 1ba6 27       		.uleb128 0x27
 7002 1ba7 01       		.byte	0x1
 7003 1ba8 2A030000 		.4byte	.LASF383
 7004 1bac 01       		.byte	0x1
 7005 1bad F907     		.2byte	0x7f9
 7006 1baf 01       		.byte	0x1
 7007 1bb0 BD000000 		.4byte	0xbd
 7008 1bb4 D2070000 		.4byte	.LFB144
 7009 1bb8 1C080000 		.4byte	.LFE144
 7010 1bbc 02       		.byte	0x2
 7011 1bbd 7D       		.byte	0x7d
 7012 1bbe 00       		.sleb128 0
 7013 1bbf 01       		.byte	0x1
 7014 1bc0 111C0000 		.4byte	0x1c11
 7015 1bc4 21       		.uleb128 0x21
 7016 1bc5 860D0000 		.4byte	.LASF369
 7017 1bc9 01       		.byte	0x1
 7018 1bca F907     		.2byte	0x7f9
 7019 1bcc 9A1B0000 		.4byte	0x1b9a
 7020 1bd0 07020000 		.4byte	.LLST111
 7021 1bd4 22       		.uleb128 0x22
 7022 1bd5 657000   		.ascii	"ep\000"
 7023 1bd8 01       		.byte	0x1
 7024 1bd9 F907     		.2byte	0x7f9
 7025 1bdb A01B0000 		.4byte	0x1ba0
 7026 1bdf 28020000 		.4byte	.LLST112
 7027 1be3 23       		.uleb128 0x23
 7028 1be4 D70A0000 		.4byte	.LASF371
 7029 1be8 01       		.byte	0x1
 7030 1be9 FB07     		.2byte	0x7fb
 7031 1beb 21130000 		.4byte	0x1321
 7032 1bef 6D020000 		.4byte	.LLST113
 7033 1bf3 23       		.uleb128 0x23
 7034 1bf4 6C0F0000 		.4byte	.LASF372
 7035 1bf8 01       		.byte	0x1
 7036 1bf9 FC07     		.2byte	0x7fc
 7037 1bfb 4F060000 		.4byte	0x64f
 7038 1bff AB020000 		.4byte	.LLST114
 7039 1c03 28       		.uleb128 0x28
 7040 1c04 E6010000 		.4byte	.LASF370
 7041 1c08 01       		.byte	0x1
 7042 1c09 FD07     		.2byte	0x7fd
 7043 1c0b BD000000 		.4byte	0xbd
 7044 1c0f 00       		.byte	0
 7045 1c10 00       		.byte	0
 7046 1c11 20       		.uleb128 0x20
 7047 1c12 01       		.byte	0x1
 7048 1c13 98100000 		.4byte	.LASF374
 7049 1c17 01       		.byte	0x1
 7050 1c18 DC07     		.2byte	0x7dc
ARM GAS  /tmp/ccQkqy1T.s 			page 166


 7051 1c1a 01       		.byte	0x1
 7052 1c1b 8A070000 		.4byte	.LFB143
 7053 1c1f D2070000 		.4byte	.LFE143
 7054 1c23 61030000 		.4byte	.LLST108
 7055 1c27 01       		.byte	0x1
 7056 1c28 761C0000 		.4byte	0x1c76
 7057 1c2c 21       		.uleb128 0x21
 7058 1c2d 860D0000 		.4byte	.LASF369
 7059 1c31 01       		.byte	0x1
 7060 1c32 DC07     		.2byte	0x7dc
 7061 1c34 9A1B0000 		.4byte	0x1b9a
 7062 1c38 99030000 		.4byte	.LLST109
 7063 1c3c 29       		.uleb128 0x29
 7064 1c3d 6900     		.ascii	"i\000"
 7065 1c3f 01       		.byte	0x1
 7066 1c40 DE07     		.2byte	0x7de
 7067 1c42 BD000000 		.4byte	0xbd
 7068 1c46 DB030000 		.4byte	.LLST110
 7069 1c4a 2A       		.uleb128 0x2a
 7070 1c4b BA070000 		.4byte	.LVL256
 7071 1c4f 1E250000 		.4byte	0x251e
 7072 1c53 5E1C0000 		.4byte	0x1c5e
 7073 1c57 25       		.uleb128 0x25
 7074 1c58 01       		.byte	0x1
 7075 1c59 50       		.byte	0x50
 7076 1c5a 02       		.byte	0x2
 7077 1c5b 74       		.byte	0x74
 7078 1c5c 00       		.sleb128 0
 7079 1c5d 00       		.byte	0
 7080 1c5e 26       		.uleb128 0x26
 7081 1c5f C6070000 		.4byte	.LVL258
 7082 1c63 01       		.byte	0x1
 7083 1c64 89250000 		.4byte	0x2589
 7084 1c68 25       		.uleb128 0x25
 7085 1c69 01       		.byte	0x1
 7086 1c6a 50       		.byte	0x50
 7087 1c6b 03       		.byte	0x3
 7088 1c6c F3       		.byte	0xf3
 7089 1c6d 01       		.uleb128 0x1
 7090 1c6e 50       		.byte	0x50
 7091 1c6f 25       		.uleb128 0x25
 7092 1c70 01       		.byte	0x1
 7093 1c71 51       		.byte	0x51
 7094 1c72 01       		.byte	0x1
 7095 1c73 40       		.byte	0x40
 7096 1c74 00       		.byte	0
 7097 1c75 00       		.byte	0
 7098 1c76 2B       		.uleb128 0x2b
 7099 1c77 01       		.byte	0x1
 7100 1c78 E90C0000 		.4byte	.LASF375
 7101 1c7c 01       		.byte	0x1
 7102 1c7d C107     		.2byte	0x7c1
 7103 1c7f 01       		.byte	0x1
 7104 1c80 6A070000 		.4byte	.LFB142
 7105 1c84 8A070000 		.4byte	.LFE142
 7106 1c88 02       		.byte	0x2
 7107 1c89 7D       		.byte	0x7d
ARM GAS  /tmp/ccQkqy1T.s 			page 167


 7108 1c8a 00       		.sleb128 0
 7109 1c8b 01       		.byte	0x1
 7110 1c8c C71C0000 		.4byte	0x1cc7
 7111 1c90 2C       		.uleb128 0x2c
 7112 1c91 860D0000 		.4byte	.LASF369
 7113 1c95 01       		.byte	0x1
 7114 1c96 C107     		.2byte	0x7c1
 7115 1c98 9A1B0000 		.4byte	0x1b9a
 7116 1c9c 01       		.byte	0x1
 7117 1c9d 50       		.byte	0x50
 7118 1c9e 2D       		.uleb128 0x2d
 7119 1c9f 6E070000 		.4byte	.LBB37
 7120 1ca3 88070000 		.4byte	.LBE37
 7121 1ca7 23       		.uleb128 0x23
 7122 1ca8 190D0000 		.4byte	.LASF376
 7123 1cac 01       		.byte	0x1
 7124 1cad C607     		.2byte	0x7c6
 7125 1caf B10F0000 		.4byte	0xfb1
 7126 1cb3 EF030000 		.4byte	.LLST107
 7127 1cb7 2E       		.uleb128 0x2e
 7128 1cb8 3C140000 		.4byte	.LASF377
 7129 1cbc 01       		.byte	0x1
 7130 1cbd C707     		.2byte	0x7c7
 7131 1cbf D9140000 		.4byte	0x14d9
 7132 1cc3 01       		.byte	0x1
 7133 1cc4 53       		.byte	0x53
 7134 1cc5 00       		.byte	0
 7135 1cc6 00       		.byte	0
 7136 1cc7 20       		.uleb128 0x20
 7137 1cc8 01       		.byte	0x1
 7138 1cc9 0A140000 		.4byte	.LASF378
 7139 1ccd 01       		.byte	0x1
 7140 1cce 9D07     		.2byte	0x79d
 7141 1cd0 01       		.byte	0x1
 7142 1cd1 28070000 		.4byte	.LFB141
 7143 1cd5 6A070000 		.4byte	.LFE141
 7144 1cd9 04040000 		.4byte	.LLST103
 7145 1cdd 01       		.byte	0x1
 7146 1cde 2E1D0000 		.4byte	0x1d2e
 7147 1ce2 21       		.uleb128 0x21
 7148 1ce3 860D0000 		.4byte	.LASF369
 7149 1ce7 01       		.byte	0x1
 7150 1ce8 9D07     		.2byte	0x79d
 7151 1cea 9A1B0000 		.4byte	0x1b9a
 7152 1cee 24040000 		.4byte	.LLST104
 7153 1cf2 2F       		.uleb128 0x2f
 7154 1cf3 CC050000 		.4byte	.LASF381
 7155 1cf7 01       		.byte	0x1
 7156 1cf8 A007     		.2byte	0x7a0
 7157 1cfa 0B0F0000 		.4byte	0xf0b
 7158 1cfe 23       		.uleb128 0x23
 7159 1cff 190D0000 		.4byte	.LASF376
 7160 1d03 01       		.byte	0x1
 7161 1d04 A107     		.2byte	0x7a1
 7162 1d06 B10F0000 		.4byte	0xfb1
 7163 1d0a 42040000 		.4byte	.LLST105
 7164 1d0e 23       		.uleb128 0x23
ARM GAS  /tmp/ccQkqy1T.s 			page 168


 7165 1d0f 3C140000 		.4byte	.LASF377
 7166 1d13 01       		.byte	0x1
 7167 1d14 A207     		.2byte	0x7a2
 7168 1d16 D9140000 		.4byte	0x14d9
 7169 1d1a 57040000 		.4byte	.LLST106
 7170 1d1e 30       		.uleb128 0x30
 7171 1d1f 5E070000 		.4byte	.LVL248
 7172 1d23 5F2A0000 		.4byte	0x2a5f
 7173 1d27 25       		.uleb128 0x25
 7174 1d28 01       		.byte	0x1
 7175 1d29 50       		.byte	0x50
 7176 1d2a 01       		.byte	0x1
 7177 1d2b 35       		.byte	0x35
 7178 1d2c 00       		.byte	0
 7179 1d2d 00       		.byte	0
 7180 1d2e 20       		.uleb128 0x20
 7181 1d2f 01       		.byte	0x1
 7182 1d30 94020000 		.4byte	.LASF379
 7183 1d34 01       		.byte	0x1
 7184 1d35 8007     		.2byte	0x780
 7185 1d37 01       		.byte	0x1
 7186 1d38 00070000 		.4byte	.LFB140
 7187 1d3c 28070000 		.4byte	.LFE140
 7188 1d40 6A040000 		.4byte	.LLST101
 7189 1d44 01       		.byte	0x1
 7190 1d45 7F1D0000 		.4byte	0x1d7f
 7191 1d49 21       		.uleb128 0x21
 7192 1d4a 860D0000 		.4byte	.LASF369
 7193 1d4e 01       		.byte	0x1
 7194 1d4f 8007     		.2byte	0x780
 7195 1d51 9A1B0000 		.4byte	0x1b9a
 7196 1d55 96040000 		.4byte	.LLST102
 7197 1d59 2E       		.uleb128 0x2e
 7198 1d5a 2C080000 		.4byte	.LASF380
 7199 1d5e 01       		.byte	0x1
 7200 1d5f 8207     		.2byte	0x782
 7201 1d61 45140000 		.4byte	0x1445
 7202 1d65 02       		.byte	0x2
 7203 1d66 91       		.byte	0x91
 7204 1d67 78       		.sleb128 -8
 7205 1d68 2D       		.uleb128 0x2d
 7206 1d69 10070000 		.4byte	.LBB36
 7207 1d6d 1E070000 		.4byte	.LBE36
 7208 1d71 2F       		.uleb128 0x2f
 7209 1d72 90130000 		.4byte	.LASF382
 7210 1d76 01       		.byte	0x1
 7211 1d77 8B07     		.2byte	0x78b
 7212 1d79 21130000 		.4byte	0x1321
 7213 1d7d 00       		.byte	0
 7214 1d7e 00       		.byte	0
 7215 1d7f 27       		.uleb128 0x27
 7216 1d80 01       		.byte	0x1
 7217 1d81 E5110000 		.4byte	.LASF384
 7218 1d85 01       		.byte	0x1
 7219 1d86 7307     		.2byte	0x773
 7220 1d88 01       		.byte	0x1
 7221 1d89 BD000000 		.4byte	0xbd
ARM GAS  /tmp/ccQkqy1T.s 			page 169


 7222 1d8d F4060000 		.4byte	.LFB139
 7223 1d91 00070000 		.4byte	.LFE139
 7224 1d95 02       		.byte	0x2
 7225 1d96 7D       		.byte	0x7d
 7226 1d97 00       		.sleb128 0
 7227 1d98 01       		.byte	0x1
 7228 1d99 BC1D0000 		.4byte	0x1dbc
 7229 1d9d 21       		.uleb128 0x21
 7230 1d9e 860D0000 		.4byte	.LASF369
 7231 1da2 01       		.byte	0x1
 7232 1da3 7307     		.2byte	0x773
 7233 1da5 9A1B0000 		.4byte	0x1b9a
 7234 1da9 C5040000 		.4byte	.LLST99
 7235 1dad 29       		.uleb128 0x29
 7236 1dae 7600     		.ascii	"v\000"
 7237 1db0 01       		.byte	0x1
 7238 1db1 7507     		.2byte	0x775
 7239 1db3 BD000000 		.4byte	0xbd
 7240 1db7 E6040000 		.4byte	.LLST100
 7241 1dbb 00       		.byte	0
 7242 1dbc 27       		.uleb128 0x27
 7243 1dbd 01       		.byte	0x1
 7244 1dbe 05030000 		.4byte	.LASF385
 7245 1dc2 01       		.byte	0x1
 7246 1dc3 6507     		.2byte	0x765
 7247 1dc5 01       		.byte	0x1
 7248 1dc6 BD000000 		.4byte	0xbd
 7249 1dca E4060000 		.4byte	.LFB138
 7250 1dce F4060000 		.4byte	.LFE138
 7251 1dd2 02       		.byte	0x2
 7252 1dd3 7D       		.byte	0x7d
 7253 1dd4 00       		.sleb128 0
 7254 1dd5 01       		.byte	0x1
 7255 1dd6 091E0000 		.4byte	0x1e09
 7256 1dda 21       		.uleb128 0x21
 7257 1ddb 860D0000 		.4byte	.LASF369
 7258 1ddf 01       		.byte	0x1
 7259 1de0 6507     		.2byte	0x765
 7260 1de2 9A1B0000 		.4byte	0x1b9a
 7261 1de6 14050000 		.4byte	.LLST96
 7262 1dea 21       		.uleb128 0x21
 7263 1deb 15120000 		.4byte	.LASF386
 7264 1def 01       		.byte	0x1
 7265 1df0 6507     		.2byte	0x765
 7266 1df2 97000000 		.4byte	0x97
 7267 1df6 35050000 		.4byte	.LLST97
 7268 1dfa 29       		.uleb128 0x29
 7269 1dfb 7600     		.ascii	"v\000"
 7270 1dfd 01       		.byte	0x1
 7271 1dfe 6707     		.2byte	0x767
 7272 1e00 BD000000 		.4byte	0xbd
 7273 1e04 56050000 		.4byte	.LLST98
 7274 1e08 00       		.byte	0
 7275 1e09 27       		.uleb128 0x27
 7276 1e0a 01       		.byte	0x1
 7277 1e0b C9110000 		.4byte	.LASF387
 7278 1e0f 01       		.byte	0x1
ARM GAS  /tmp/ccQkqy1T.s 			page 170


 7279 1e10 5607     		.2byte	0x756
 7280 1e12 01       		.byte	0x1
 7281 1e13 BD000000 		.4byte	0xbd
 7282 1e17 D8060000 		.4byte	.LFB137
 7283 1e1b E4060000 		.4byte	.LFE137
 7284 1e1f 02       		.byte	0x2
 7285 1e20 7D       		.byte	0x7d
 7286 1e21 00       		.sleb128 0
 7287 1e22 01       		.byte	0x1
 7288 1e23 461E0000 		.4byte	0x1e46
 7289 1e27 21       		.uleb128 0x21
 7290 1e28 860D0000 		.4byte	.LASF369
 7291 1e2c 01       		.byte	0x1
 7292 1e2d 5607     		.2byte	0x756
 7293 1e2f 9A1B0000 		.4byte	0x1b9a
 7294 1e33 84050000 		.4byte	.LLST94
 7295 1e37 29       		.uleb128 0x29
 7296 1e38 7600     		.ascii	"v\000"
 7297 1e3a 01       		.byte	0x1
 7298 1e3b 5807     		.2byte	0x758
 7299 1e3d BD000000 		.4byte	0xbd
 7300 1e41 A5050000 		.4byte	.LLST95
 7301 1e45 00       		.byte	0
 7302 1e46 27       		.uleb128 0x27
 7303 1e47 01       		.byte	0x1
 7304 1e48 7E050000 		.4byte	.LASF388
 7305 1e4c 01       		.byte	0x1
 7306 1e4d 3507     		.2byte	0x735
 7307 1e4f 01       		.byte	0x1
 7308 1e50 4E150000 		.4byte	0x154e
 7309 1e54 B0060000 		.4byte	.LFB136
 7310 1e58 D8060000 		.4byte	.LFE136
 7311 1e5c 02       		.byte	0x2
 7312 1e5d 7D       		.byte	0x7d
 7313 1e5e 00       		.sleb128 0
 7314 1e5f 01       		.byte	0x1
 7315 1e60 AD1E0000 		.4byte	0x1ead
 7316 1e64 21       		.uleb128 0x21
 7317 1e65 860D0000 		.4byte	.LASF369
 7318 1e69 01       		.byte	0x1
 7319 1e6a 3507     		.2byte	0x735
 7320 1e6c 9A1B0000 		.4byte	0x1b9a
 7321 1e70 D3050000 		.4byte	.LLST92
 7322 1e74 22       		.uleb128 0x22
 7323 1e75 657000   		.ascii	"ep\000"
 7324 1e78 01       		.byte	0x1
 7325 1e79 3507     		.2byte	0x735
 7326 1e7b A01B0000 		.4byte	0x1ba0
 7327 1e7f F4050000 		.4byte	.LLST93
 7328 1e83 28       		.uleb128 0x28
 7329 1e84 49150000 		.4byte	.LASF389
 7330 1e88 01       		.byte	0x1
 7331 1e89 3707     		.2byte	0x737
 7332 1e8b 4E150000 		.4byte	0x154e
 7333 1e8f 00       		.byte	0
 7334 1e90 2E       		.uleb128 0x2e
 7335 1e91 D70A0000 		.4byte	.LASF371
ARM GAS  /tmp/ccQkqy1T.s 			page 171


 7336 1e95 01       		.byte	0x1
 7337 1e96 3807     		.2byte	0x738
 7338 1e98 21130000 		.4byte	0x1321
 7339 1e9c 01       		.byte	0x1
 7340 1e9d 53       		.byte	0x53
 7341 1e9e 2E       		.uleb128 0x2e
 7342 1e9f 6C0F0000 		.4byte	.LASF372
 7343 1ea3 01       		.byte	0x1
 7344 1ea4 3907     		.2byte	0x739
 7345 1ea6 4F060000 		.4byte	0x64f
 7346 1eaa 01       		.byte	0x1
 7347 1eab 52       		.byte	0x52
 7348 1eac 00       		.byte	0
 7349 1ead 31       		.uleb128 0x31
 7350 1eae 01       		.byte	0x1
 7351 1eaf E50F0000 		.4byte	.LASF414
 7352 1eb3 01       		.byte	0x1
 7353 1eb4 1107     		.2byte	0x711
 7354 1eb6 01       		.byte	0x1
 7355 1eb7 4E150000 		.4byte	0x154e
 7356 1ebb 01       		.byte	0x1
 7357 1ebc FC1E0000 		.4byte	0x1efc
 7358 1ec0 32       		.uleb128 0x32
 7359 1ec1 860D0000 		.4byte	.LASF369
 7360 1ec5 01       		.byte	0x1
 7361 1ec6 1107     		.2byte	0x711
 7362 1ec8 9A1B0000 		.4byte	0x1b9a
 7363 1ecc 33       		.uleb128 0x33
 7364 1ecd 657000   		.ascii	"ep\000"
 7365 1ed0 01       		.byte	0x1
 7366 1ed1 1107     		.2byte	0x711
 7367 1ed3 A01B0000 		.4byte	0x1ba0
 7368 1ed7 2F       		.uleb128 0x2f
 7369 1ed8 49150000 		.4byte	.LASF389
 7370 1edc 01       		.byte	0x1
 7371 1edd 1307     		.2byte	0x713
 7372 1edf 4E150000 		.4byte	0x154e
 7373 1ee3 2F       		.uleb128 0x2f
 7374 1ee4 D70A0000 		.4byte	.LASF371
 7375 1ee8 01       		.byte	0x1
 7376 1ee9 1407     		.2byte	0x714
 7377 1eeb 21130000 		.4byte	0x1321
 7378 1eef 2F       		.uleb128 0x2f
 7379 1ef0 6C0F0000 		.4byte	.LASF372
 7380 1ef4 01       		.byte	0x1
 7381 1ef5 1507     		.2byte	0x715
 7382 1ef7 4F060000 		.4byte	0x64f
 7383 1efb 00       		.byte	0
 7384 1efc 34       		.uleb128 0x34
 7385 1efd 01       		.byte	0x1
 7386 1efe E1120000 		.4byte	.LASF390
 7387 1f02 01       		.byte	0x1
 7388 1f03 AC06     		.2byte	0x6ac
 7389 1f05 01       		.byte	0x1
 7390 1f06 4E150000 		.4byte	0x154e
 7391 1f0a BC050000 		.4byte	.LFB134
 7392 1f0e 88060000 		.4byte	.LFE134
ARM GAS  /tmp/ccQkqy1T.s 			page 172


 7393 1f12 15060000 		.4byte	.LLST82
 7394 1f16 01       		.byte	0x1
 7395 1f17 871F0000 		.4byte	0x1f87
 7396 1f1b 21       		.uleb128 0x21
 7397 1f1c 860D0000 		.4byte	.LASF369
 7398 1f20 01       		.byte	0x1
 7399 1f21 AC06     		.2byte	0x6ac
 7400 1f23 9A1B0000 		.4byte	0x1b9a
 7401 1f27 4D060000 		.4byte	.LLST83
 7402 1f2b 22       		.uleb128 0x22
 7403 1f2c 657000   		.ascii	"ep\000"
 7404 1f2f 01       		.byte	0x1
 7405 1f30 AC06     		.2byte	0x6ac
 7406 1f32 A01B0000 		.4byte	0x1ba0
 7407 1f36 79060000 		.4byte	.LLST84
 7408 1f3a 28       		.uleb128 0x28
 7409 1f3b 49150000 		.4byte	.LASF389
 7410 1f3f 01       		.byte	0x1
 7411 1f40 AE06     		.2byte	0x6ae
 7412 1f42 4E150000 		.4byte	0x154e
 7413 1f46 00       		.byte	0
 7414 1f47 23       		.uleb128 0x23
 7415 1f48 D70A0000 		.4byte	.LASF371
 7416 1f4c 01       		.byte	0x1
 7417 1f4d AF06     		.2byte	0x6af
 7418 1f4f 21130000 		.4byte	0x1321
 7419 1f53 A5060000 		.4byte	.LLST85
 7420 1f57 2E       		.uleb128 0x2e
 7421 1f58 CC100000 		.4byte	.LASF391
 7422 1f5c 01       		.byte	0x1
 7423 1f5d B006     		.2byte	0x6b0
 7424 1f5f 45140000 		.4byte	0x1445
 7425 1f63 02       		.byte	0x2
 7426 1f64 91       		.byte	0x91
 7427 1f65 60       		.sleb128 -32
 7428 1f66 23       		.uleb128 0x23
 7429 1f67 72040000 		.4byte	.LASF392
 7430 1f6b 01       		.byte	0x1
 7431 1f6c B106     		.2byte	0x6b1
 7432 1f6e 1D060000 		.4byte	0x61d
 7433 1f72 C3060000 		.4byte	.LLST86
 7434 1f76 23       		.uleb128 0x23
 7435 1f77 BA140000 		.4byte	.LASF393
 7436 1f7b 01       		.byte	0x1
 7437 1f7c B206     		.2byte	0x6b2
 7438 1f7e BD000000 		.4byte	0xbd
 7439 1f82 E1060000 		.4byte	.LLST87
 7440 1f86 00       		.byte	0
 7441 1f87 34       		.uleb128 0x34
 7442 1f88 01       		.byte	0x1
 7443 1f89 AF0D0000 		.4byte	.LASF394
 7444 1f8d 01       		.byte	0x1
 7445 1f8e 2806     		.2byte	0x628
 7446 1f90 01       		.byte	0x1
 7447 1f91 4E150000 		.4byte	0x154e
 7448 1f95 CA040000 		.4byte	.LFB133
 7449 1f99 BC050000 		.4byte	.LFE133
ARM GAS  /tmp/ccQkqy1T.s 			page 173


 7450 1f9d 44070000 		.4byte	.LLST76
 7451 1fa1 01       		.byte	0x1
 7452 1fa2 1F200000 		.4byte	0x201f
 7453 1fa6 21       		.uleb128 0x21
 7454 1fa7 860D0000 		.4byte	.LASF369
 7455 1fab 01       		.byte	0x1
 7456 1fac 2806     		.2byte	0x628
 7457 1fae 9A1B0000 		.4byte	0x1b9a
 7458 1fb2 64070000 		.4byte	.LLST77
 7459 1fb6 22       		.uleb128 0x22
 7460 1fb7 657000   		.ascii	"ep\000"
 7461 1fba 01       		.byte	0x1
 7462 1fbb 2806     		.2byte	0x628
 7463 1fbd A01B0000 		.4byte	0x1ba0
 7464 1fc1 90070000 		.4byte	.LLST78
 7465 1fc5 28       		.uleb128 0x28
 7466 1fc6 49150000 		.4byte	.LASF389
 7467 1fca 01       		.byte	0x1
 7468 1fcb 2A06     		.2byte	0x62a
 7469 1fcd 4E150000 		.4byte	0x154e
 7470 1fd1 00       		.byte	0
 7471 1fd2 23       		.uleb128 0x23
 7472 1fd3 D70A0000 		.4byte	.LASF371
 7473 1fd7 01       		.byte	0x1
 7474 1fd8 2B06     		.2byte	0x62b
 7475 1fda 21130000 		.4byte	0x1321
 7476 1fde BC070000 		.4byte	.LLST79
 7477 1fe2 23       		.uleb128 0x23
 7478 1fe3 CC100000 		.4byte	.LASF391
 7479 1fe7 01       		.byte	0x1
 7480 1fe8 2C06     		.2byte	0x62c
 7481 1fea A2130000 		.4byte	0x13a2
 7482 1fee F0070000 		.4byte	.LLST80
 7483 1ff2 2F       		.uleb128 0x2f
 7484 1ff3 190D0000 		.4byte	.LASF376
 7485 1ff7 01       		.byte	0x1
 7486 1ff8 2D06     		.2byte	0x62d
 7487 1ffa B10F0000 		.4byte	0xfb1
 7488 1ffe 23       		.uleb128 0x23
 7489 1fff BA140000 		.4byte	.LASF393
 7490 2003 01       		.byte	0x1
 7491 2004 2E06     		.2byte	0x62e
 7492 2006 BD000000 		.4byte	0xbd
 7493 200a 24080000 		.4byte	.LLST81
 7494 200e 30       		.uleb128 0x30
 7495 200f 5C050000 		.4byte	.LVL187
 7496 2013 14280000 		.4byte	0x2814
 7497 2017 25       		.uleb128 0x25
 7498 2018 01       		.byte	0x1
 7499 2019 51       		.byte	0x51
 7500 201a 02       		.byte	0x2
 7501 201b 71       		.byte	0x71
 7502 201c 00       		.sleb128 0
 7503 201d 00       		.byte	0
 7504 201e 00       		.byte	0
 7505 201f 34       		.uleb128 0x34
 7506 2020 01       		.byte	0x1
ARM GAS  /tmp/ccQkqy1T.s 			page 174


 7507 2021 09080000 		.4byte	.LASF395
 7508 2025 01       		.byte	0x1
 7509 2026 FE05     		.2byte	0x5fe
 7510 2028 01       		.byte	0x1
 7511 2029 4E150000 		.4byte	0x154e
 7512 202d 8E040000 		.4byte	.LFB132
 7513 2031 CA040000 		.4byte	.LFE132
 7514 2035 6D080000 		.4byte	.LLST71
 7515 2039 01       		.byte	0x1
 7516 203a 99200000 		.4byte	0x2099
 7517 203e 21       		.uleb128 0x21
 7518 203f 860D0000 		.4byte	.LASF369
 7519 2043 01       		.byte	0x1
 7520 2044 FE05     		.2byte	0x5fe
 7521 2046 9A1B0000 		.4byte	0x1b9a
 7522 204a 8D080000 		.4byte	.LLST72
 7523 204e 22       		.uleb128 0x22
 7524 204f 657000   		.ascii	"ep\000"
 7525 2052 01       		.byte	0x1
 7526 2053 FE05     		.2byte	0x5fe
 7527 2055 A01B0000 		.4byte	0x1ba0
 7528 2059 AE080000 		.4byte	.LLST73
 7529 205d 28       		.uleb128 0x28
 7530 205e 49150000 		.4byte	.LASF389
 7531 2062 01       		.byte	0x1
 7532 2063 0006     		.2byte	0x600
 7533 2065 4E150000 		.4byte	0x154e
 7534 2069 00       		.byte	0
 7535 206a 2E       		.uleb128 0x2e
 7536 206b D70A0000 		.4byte	.LASF371
 7537 206f 01       		.byte	0x1
 7538 2070 0106     		.2byte	0x601
 7539 2072 21130000 		.4byte	0x1321
 7540 2076 01       		.byte	0x1
 7541 2077 55       		.byte	0x55
 7542 2078 23       		.uleb128 0x23
 7543 2079 50150000 		.4byte	.LASF396
 7544 207d 01       		.byte	0x1
 7545 207e 0206     		.2byte	0x602
 7546 2080 FD100000 		.4byte	0x10fd
 7547 2084 CF080000 		.4byte	.LLST74
 7548 2088 23       		.uleb128 0x23
 7549 2089 AD130000 		.4byte	.LASF397
 7550 208d 01       		.byte	0x1
 7551 208e 0306     		.2byte	0x603
 7552 2090 4F060000 		.4byte	0x64f
 7553 2094 E2080000 		.4byte	.LLST75
 7554 2098 00       		.byte	0
 7555 2099 34       		.uleb128 0x34
 7556 209a 01       		.byte	0x1
 7557 209b D60C0000 		.4byte	.LASF398
 7558 209f 01       		.byte	0x1
 7559 20a0 CB05     		.2byte	0x5cb
 7560 20a2 01       		.byte	0x1
 7561 20a3 4E150000 		.4byte	0x154e
 7562 20a7 3A040000 		.4byte	.LFB131
 7563 20ab 8E040000 		.4byte	.LFE131
ARM GAS  /tmp/ccQkqy1T.s 			page 175


 7564 20af F5080000 		.4byte	.LLST67
 7565 20b3 01       		.byte	0x1
 7566 20b4 11210000 		.4byte	0x2111
 7567 20b8 21       		.uleb128 0x21
 7568 20b9 860D0000 		.4byte	.LASF369
 7569 20bd 01       		.byte	0x1
 7570 20be CB05     		.2byte	0x5cb
 7571 20c0 9A1B0000 		.4byte	0x1b9a
 7572 20c4 15090000 		.4byte	.LLST68
 7573 20c8 35       		.uleb128 0x35
 7574 20c9 657000   		.ascii	"ep\000"
 7575 20cc 01       		.byte	0x1
 7576 20cd CB05     		.2byte	0x5cb
 7577 20cf A01B0000 		.4byte	0x1ba0
 7578 20d3 01       		.byte	0x1
 7579 20d4 51       		.byte	0x51
 7580 20d5 28       		.uleb128 0x28
 7581 20d6 49150000 		.4byte	.LASF389
 7582 20da 01       		.byte	0x1
 7583 20db CD05     		.2byte	0x5cd
 7584 20dd 4E150000 		.4byte	0x154e
 7585 20e1 00       		.byte	0
 7586 20e2 23       		.uleb128 0x23
 7587 20e3 D70A0000 		.4byte	.LASF371
 7588 20e7 01       		.byte	0x1
 7589 20e8 CE05     		.2byte	0x5ce
 7590 20ea 21130000 		.4byte	0x1321
 7591 20ee 36090000 		.4byte	.LLST69
 7592 20f2 23       		.uleb128 0x23
 7593 20f3 50150000 		.4byte	.LASF396
 7594 20f7 01       		.byte	0x1
 7595 20f8 CF05     		.2byte	0x5cf
 7596 20fa FD100000 		.4byte	0x10fd
 7597 20fe 49090000 		.4byte	.LLST70
 7598 2102 2E       		.uleb128 0x2e
 7599 2103 AD130000 		.4byte	.LASF397
 7600 2107 01       		.byte	0x1
 7601 2108 D005     		.2byte	0x5d0
 7602 210a 4F060000 		.4byte	0x64f
 7603 210e 01       		.byte	0x1
 7604 210f 55       		.byte	0x55
 7605 2110 00       		.byte	0
 7606 2111 27       		.uleb128 0x27
 7607 2112 01       		.byte	0x1
 7608 2113 1F0B0000 		.4byte	.LASF399
 7609 2117 01       		.byte	0x1
 7610 2118 A805     		.2byte	0x5a8
 7611 211a 01       		.byte	0x1
 7612 211b 4E150000 		.4byte	0x154e
 7613 211f 12040000 		.4byte	.LFB130
 7614 2123 3A040000 		.4byte	.LFE130
 7615 2127 02       		.byte	0x2
 7616 2128 7D       		.byte	0x7d
 7617 2129 00       		.sleb128 0
 7618 212a 01       		.byte	0x1
 7619 212b 75210000 		.4byte	0x2175
 7620 212f 21       		.uleb128 0x21
ARM GAS  /tmp/ccQkqy1T.s 			page 176


 7621 2130 860D0000 		.4byte	.LASF369
 7622 2134 01       		.byte	0x1
 7623 2135 A805     		.2byte	0x5a8
 7624 2137 9A1B0000 		.4byte	0x1b9a
 7625 213b 5C090000 		.4byte	.LLST65
 7626 213f 28       		.uleb128 0x28
 7627 2140 49150000 		.4byte	.LASF389
 7628 2144 01       		.byte	0x1
 7629 2145 AA05     		.2byte	0x5aa
 7630 2147 4E150000 		.4byte	0x154e
 7631 214b 00       		.byte	0
 7632 214c 2F       		.uleb128 0x2f
 7633 214d 190D0000 		.4byte	.LASF376
 7634 2151 01       		.byte	0x1
 7635 2152 AB05     		.2byte	0x5ab
 7636 2154 B10F0000 		.4byte	0xfb1
 7637 2158 23       		.uleb128 0x23
 7638 2159 3A050000 		.4byte	.LASF400
 7639 215d 01       		.byte	0x1
 7640 215e AC05     		.2byte	0x5ac
 7641 2160 21130000 		.4byte	0x1321
 7642 2164 7D090000 		.4byte	.LLST66
 7643 2168 2F       		.uleb128 0x2f
 7644 2169 CC050000 		.4byte	.LASF381
 7645 216d 01       		.byte	0x1
 7646 216e AD05     		.2byte	0x5ad
 7647 2170 0B0F0000 		.4byte	0xf0b
 7648 2174 00       		.byte	0
 7649 2175 27       		.uleb128 0x27
 7650 2176 01       		.byte	0x1
 7651 2177 730E0000 		.4byte	.LASF401
 7652 217b 01       		.byte	0x1
 7653 217c 8905     		.2byte	0x589
 7654 217e 01       		.byte	0x1
 7655 217f 0A150000 		.4byte	0x150a
 7656 2183 F4030000 		.4byte	.LFB129
 7657 2187 12040000 		.4byte	.LFE129
 7658 218b 02       		.byte	0x2
 7659 218c 7D       		.byte	0x7d
 7660 218d 00       		.sleb128 0
 7661 218e 01       		.byte	0x1
 7662 218f C0210000 		.4byte	0x21c0
 7663 2193 21       		.uleb128 0x21
 7664 2194 860D0000 		.4byte	.LASF369
 7665 2198 01       		.byte	0x1
 7666 2199 8905     		.2byte	0x589
 7667 219b 9A1B0000 		.4byte	0x1b9a
 7668 219f 90090000 		.4byte	.LLST63
 7669 21a3 2F       		.uleb128 0x2f
 7670 21a4 190D0000 		.4byte	.LASF376
 7671 21a8 01       		.byte	0x1
 7672 21a9 8B05     		.2byte	0x58b
 7673 21ab B10F0000 		.4byte	0xfb1
 7674 21af 23       		.uleb128 0x23
 7675 21b0 50040000 		.4byte	.LASF305
 7676 21b4 01       		.byte	0x1
 7677 21b5 8C05     		.2byte	0x58c
ARM GAS  /tmp/ccQkqy1T.s 			page 177


 7678 21b7 0A150000 		.4byte	0x150a
 7679 21bb E3090000 		.4byte	.LLST64
 7680 21bf 00       		.byte	0
 7681 21c0 34       		.uleb128 0x34
 7682 21c1 01       		.byte	0x1
 7683 21c2 0C100000 		.4byte	.LASF402
 7684 21c6 01       		.byte	0x1
 7685 21c7 5D05     		.2byte	0x55d
 7686 21c9 01       		.byte	0x1
 7687 21ca 4E150000 		.4byte	0x154e
 7688 21ce E0020000 		.4byte	.LFB128
 7689 21d2 20030000 		.4byte	.LFE128
 7690 21d6 1A0A0000 		.4byte	.LLST49
 7691 21da 01       		.byte	0x1
 7692 21db 36220000 		.4byte	0x2236
 7693 21df 21       		.uleb128 0x21
 7694 21e0 860D0000 		.4byte	.LASF369
 7695 21e4 01       		.byte	0x1
 7696 21e5 5D05     		.2byte	0x55d
 7697 21e7 9A1B0000 		.4byte	0x1b9a
 7698 21eb 3A0A0000 		.4byte	.LLST50
 7699 21ef 28       		.uleb128 0x28
 7700 21f0 49150000 		.4byte	.LASF389
 7701 21f4 01       		.byte	0x1
 7702 21f5 5F05     		.2byte	0x55f
 7703 21f7 4E150000 		.4byte	0x154e
 7704 21fb 00       		.byte	0
 7705 21fc 23       		.uleb128 0x23
 7706 21fd 74090000 		.4byte	.LASF403
 7707 2201 01       		.byte	0x1
 7708 2202 6005     		.2byte	0x560
 7709 2204 3D0C0000 		.4byte	0xc3d
 7710 2208 5B0A0000 		.4byte	.LLST51
 7711 220c 36       		.uleb128 0x36
 7712 220d BD280000 		.4byte	0x28bd
 7713 2211 EA020000 		.4byte	.LBB23
 7714 2215 18000000 		.4byte	.Ldebug_ranges0+0x18
 7715 2219 01       		.byte	0x1
 7716 221a 6905     		.2byte	0x569
 7717 221c 37       		.uleb128 0x37
 7718 221d CA280000 		.4byte	0x28ca
 7719 2221 840A0000 		.4byte	.LLST52
 7720 2225 38       		.uleb128 0x38
 7721 2226 18000000 		.4byte	.Ldebug_ranges0+0x18
 7722 222a 39       		.uleb128 0x39
 7723 222b D5280000 		.4byte	0x28d5
 7724 222f A50A0000 		.4byte	.LLST53
 7725 2233 00       		.byte	0
 7726 2234 00       		.byte	0
 7727 2235 00       		.byte	0
 7728 2236 34       		.uleb128 0x34
 7729 2237 01       		.byte	0x1
 7730 2238 560A0000 		.4byte	.LASF404
 7731 223c 01       		.byte	0x1
 7732 223d AA04     		.2byte	0x4aa
 7733 223f 01       		.byte	0x1
 7734 2240 4E150000 		.4byte	0x154e
ARM GAS  /tmp/ccQkqy1T.s 			page 178


 7735 2244 20030000 		.4byte	.LFB127
 7736 2248 F4030000 		.4byte	.LFE127
 7737 224c B80A0000 		.4byte	.LLST54
 7738 2250 01       		.byte	0x1
 7739 2251 4E230000 		.4byte	0x234e
 7740 2255 21       		.uleb128 0x21
 7741 2256 860D0000 		.4byte	.LASF369
 7742 225a 01       		.byte	0x1
 7743 225b AA04     		.2byte	0x4aa
 7744 225d 9A1B0000 		.4byte	0x1b9a
 7745 2261 D80A0000 		.4byte	.LLST55
 7746 2265 28       		.uleb128 0x28
 7747 2266 49150000 		.4byte	.LASF389
 7748 226a 01       		.byte	0x1
 7749 226b AC04     		.2byte	0x4ac
 7750 226d 4E150000 		.4byte	0x154e
 7751 2271 00       		.byte	0
 7752 2272 23       		.uleb128 0x23
 7753 2273 D70A0000 		.4byte	.LASF371
 7754 2277 01       		.byte	0x1
 7755 2278 AD04     		.2byte	0x4ad
 7756 227a 21130000 		.4byte	0x1321
 7757 227e F60A0000 		.4byte	.LLST56
 7758 2282 29       		.uleb128 0x29
 7759 2283 6900     		.ascii	"i\000"
 7760 2285 01       		.byte	0x1
 7761 2286 AE04     		.2byte	0x4ae
 7762 2288 BD000000 		.4byte	0xbd
 7763 228c 140B0000 		.4byte	.LLST57
 7764 2290 23       		.uleb128 0x23
 7765 2291 47070000 		.4byte	.LASF405
 7766 2295 01       		.byte	0x1
 7767 2296 AF04     		.2byte	0x4af
 7768 2298 0B0E0000 		.4byte	0xe0b
 7769 229c 3E0B0000 		.4byte	.LLST58
 7770 22a0 23       		.uleb128 0x23
 7771 22a1 C8020000 		.4byte	.LASF406
 7772 22a5 01       		.byte	0x1
 7773 22a6 B004     		.2byte	0x4b0
 7774 22a8 9B0C0000 		.4byte	0xc9b
 7775 22ac 510B0000 		.4byte	.LLST59
 7776 22b0 23       		.uleb128 0x23
 7777 22b1 E3140000 		.4byte	.LASF407
 7778 22b5 01       		.byte	0x1
 7779 22b6 B104     		.2byte	0x4b1
 7780 22b8 9B0C0000 		.4byte	0xc9b
 7781 22bc 640B0000 		.4byte	.LLST60
 7782 22c0 3A       		.uleb128 0x3a
 7783 22c1 6D736B00 		.ascii	"msk\000"
 7784 22c5 01       		.byte	0x1
 7785 22c6 B204     		.2byte	0x4b2
 7786 22c8 9F100000 		.4byte	0x109f
 7787 22cc 23       		.uleb128 0x23
 7788 22cd 05050000 		.4byte	.LASF408
 7789 22d1 01       		.byte	0x1
 7790 22d2 B304     		.2byte	0x4b3
 7791 22d4 D9110000 		.4byte	0x11d9
ARM GAS  /tmp/ccQkqy1T.s 			page 179


 7792 22d8 770B0000 		.4byte	.LLST61
 7793 22dc 3B       		.uleb128 0x3b
 7794 22dd 30000000 		.4byte	.Ldebug_ranges0+0x30
 7795 22e1 F6220000 		.4byte	0x22f6
 7796 22e5 23       		.uleb128 0x23
 7797 22e6 D70A0000 		.4byte	.LASF371
 7798 22ea 01       		.byte	0x1
 7799 22eb 3505     		.2byte	0x535
 7800 22ed 21130000 		.4byte	0x1321
 7801 22f1 8A0B0000 		.4byte	.LLST62
 7802 22f5 00       		.byte	0
 7803 22f6 2A       		.uleb128 0x2a
 7804 22f7 42030000 		.4byte	.LVL120
 7805 22fb 4E230000 		.4byte	0x234e
 7806 22ff 10230000 		.4byte	0x2310
 7807 2303 25       		.uleb128 0x25
 7808 2304 01       		.byte	0x1
 7809 2305 50       		.byte	0x50
 7810 2306 02       		.byte	0x2
 7811 2307 70       		.byte	0x70
 7812 2308 00       		.sleb128 0
 7813 2309 25       		.uleb128 0x25
 7814 230a 01       		.byte	0x1
 7815 230b 51       		.byte	0x51
 7816 230c 02       		.byte	0x2
 7817 230d 71       		.byte	0x71
 7818 230e 00       		.sleb128 0
 7819 230f 00       		.byte	0
 7820 2310 2A       		.uleb128 0x2a
 7821 2311 6A030000 		.4byte	.LVL127
 7822 2315 89250000 		.4byte	0x2589
 7823 2319 29230000 		.4byte	0x2329
 7824 231d 25       		.uleb128 0x25
 7825 231e 01       		.byte	0x1
 7826 231f 50       		.byte	0x50
 7827 2320 02       		.byte	0x2
 7828 2321 74       		.byte	0x74
 7829 2322 00       		.sleb128 0
 7830 2323 25       		.uleb128 0x25
 7831 2324 01       		.byte	0x1
 7832 2325 51       		.byte	0x51
 7833 2326 01       		.byte	0x1
 7834 2327 40       		.byte	0x40
 7835 2328 00       		.byte	0
 7836 2329 2A       		.uleb128 0x2a
 7837 232a 70030000 		.4byte	.LVL128
 7838 232e 1E250000 		.4byte	0x251e
 7839 2332 3D230000 		.4byte	0x233d
 7840 2336 25       		.uleb128 0x25
 7841 2337 01       		.byte	0x1
 7842 2338 50       		.byte	0x50
 7843 2339 02       		.byte	0x2
 7844 233a 74       		.byte	0x74
 7845 233b 00       		.sleb128 0
 7846 233c 00       		.byte	0
 7847 233d 30       		.uleb128 0x30
 7848 233e BA030000 		.4byte	.LVL134
ARM GAS  /tmp/ccQkqy1T.s 			page 180


 7849 2342 C0210000 		.4byte	0x21c0
 7850 2346 25       		.uleb128 0x25
 7851 2347 01       		.byte	0x1
 7852 2348 50       		.byte	0x50
 7853 2349 02       		.byte	0x2
 7854 234a 74       		.byte	0x74
 7855 234b 00       		.sleb128 0
 7856 234c 00       		.byte	0
 7857 234d 00       		.byte	0
 7858 234e 2B       		.uleb128 0x2b
 7859 234f 01       		.byte	0x1
 7860 2350 90040000 		.4byte	.LASF409
 7861 2354 01       		.byte	0x1
 7862 2355 9A04     		.2byte	0x49a
 7863 2357 01       		.byte	0x1
 7864 2358 D4020000 		.4byte	.LFB126
 7865 235c E0020000 		.4byte	.LFE126
 7866 2360 02       		.byte	0x2
 7867 2361 7D       		.byte	0x7d
 7868 2362 00       		.sleb128 0
 7869 2363 01       		.byte	0x1
 7870 2364 93230000 		.4byte	0x2393
 7871 2368 2C       		.uleb128 0x2c
 7872 2369 860D0000 		.4byte	.LASF369
 7873 236d 01       		.byte	0x1
 7874 236e 9A04     		.2byte	0x49a
 7875 2370 9A1B0000 		.4byte	0x1b9a
 7876 2374 01       		.byte	0x1
 7877 2375 50       		.byte	0x50
 7878 2376 2C       		.uleb128 0x2c
 7879 2377 50040000 		.4byte	.LASF305
 7880 237b 01       		.byte	0x1
 7881 237c 9A04     		.2byte	0x49a
 7882 237e 97000000 		.4byte	0x97
 7883 2382 01       		.byte	0x1
 7884 2383 51       		.byte	0x51
 7885 2384 2E       		.uleb128 0x2e
 7886 2385 47070000 		.4byte	.LASF405
 7887 2389 01       		.byte	0x1
 7888 238a 9C04     		.2byte	0x49c
 7889 238c 0B0E0000 		.4byte	0xe0b
 7890 2390 01       		.byte	0x1
 7891 2391 53       		.byte	0x53
 7892 2392 00       		.byte	0
 7893 2393 27       		.uleb128 0x27
 7894 2394 01       		.byte	0x1
 7895 2395 89090000 		.4byte	.LASF410
 7896 2399 01       		.byte	0x1
 7897 239a 5902     		.2byte	0x259
 7898 239c 01       		.byte	0x1
 7899 239d BD000000 		.4byte	0xbd
 7900 23a1 CE020000 		.4byte	.LFB125
 7901 23a5 D4020000 		.4byte	.LFE125
 7902 23a9 02       		.byte	0x2
 7903 23aa 7D       		.byte	0x7d
 7904 23ab 00       		.sleb128 0
 7905 23ac 01       		.byte	0x1
ARM GAS  /tmp/ccQkqy1T.s 			page 181


 7906 23ad C2230000 		.4byte	0x23c2
 7907 23b1 21       		.uleb128 0x21
 7908 23b2 860D0000 		.4byte	.LASF369
 7909 23b6 01       		.byte	0x1
 7910 23b7 5902     		.2byte	0x259
 7911 23b9 9A1B0000 		.4byte	0x1b9a
 7912 23bd B30B0000 		.4byte	.LLST48
 7913 23c1 00       		.byte	0
 7914 23c2 27       		.uleb128 0x27
 7915 23c3 01       		.byte	0x1
 7916 23c4 CF0D0000 		.4byte	.LASF411
 7917 23c8 01       		.byte	0x1
 7918 23c9 4B02     		.2byte	0x24b
 7919 23cb 01       		.byte	0x1
 7920 23cc BD000000 		.4byte	0xbd
 7921 23d0 C4020000 		.4byte	.LFB124
 7922 23d4 CE020000 		.4byte	.LFE124
 7923 23d8 02       		.byte	0x2
 7924 23d9 7D       		.byte	0x7d
 7925 23da 00       		.sleb128 0
 7926 23db 01       		.byte	0x1
 7927 23dc FF230000 		.4byte	0x23ff
 7928 23e0 21       		.uleb128 0x21
 7929 23e1 860D0000 		.4byte	.LASF369
 7930 23e5 01       		.byte	0x1
 7931 23e6 4B02     		.2byte	0x24b
 7932 23e8 9A1B0000 		.4byte	0x1b9a
 7933 23ec D40B0000 		.4byte	.LLST46
 7934 23f0 29       		.uleb128 0x29
 7935 23f1 7600     		.ascii	"v\000"
 7936 23f3 01       		.byte	0x1
 7937 23f4 4D02     		.2byte	0x24d
 7938 23f6 BD000000 		.4byte	0xbd
 7939 23fa F50B0000 		.4byte	.LLST47
 7940 23fe 00       		.byte	0
 7941 23ff 27       		.uleb128 0x27
 7942 2400 01       		.byte	0x1
 7943 2401 A5040000 		.4byte	.LASF412
 7944 2405 01       		.byte	0x1
 7945 2406 4002     		.2byte	0x240
 7946 2408 01       		.byte	0x1
 7947 2409 97000000 		.4byte	0x97
 7948 240d BA020000 		.4byte	.LFB123
 7949 2411 C4020000 		.4byte	.LFE123
 7950 2415 02       		.byte	0x2
 7951 2416 7D       		.byte	0x7d
 7952 2417 00       		.sleb128 0
 7953 2418 01       		.byte	0x1
 7954 2419 48240000 		.4byte	0x2448
 7955 241d 21       		.uleb128 0x21
 7956 241e 860D0000 		.4byte	.LASF369
 7957 2422 01       		.byte	0x1
 7958 2423 4002     		.2byte	0x240
 7959 2425 9A1B0000 		.4byte	0x1b9a
 7960 2429 2F0C0000 		.4byte	.LLST44
 7961 242d 3C       		.uleb128 0x3c
 7962 242e 91240000 		.4byte	0x2491
ARM GAS  /tmp/ccQkqy1T.s 			page 182


 7963 2432 BA020000 		.4byte	.LBB19
 7964 2436 BE020000 		.4byte	.LBE19
 7965 243a 01       		.byte	0x1
 7966 243b 4202     		.2byte	0x242
 7967 243d 37       		.uleb128 0x37
 7968 243e A4240000 		.4byte	0x24a4
 7969 2442 500C0000 		.4byte	.LLST45
 7970 2446 00       		.byte	0
 7971 2447 00       		.byte	0
 7972 2448 27       		.uleb128 0x27
 7973 2449 01       		.byte	0x1
 7974 244a 5D0C0000 		.4byte	.LASF413
 7975 244e 01       		.byte	0x1
 7976 244f 3502     		.2byte	0x235
 7977 2451 01       		.byte	0x1
 7978 2452 97000000 		.4byte	0x97
 7979 2456 AE020000 		.4byte	.LFB122
 7980 245a BA020000 		.4byte	.LFE122
 7981 245e 02       		.byte	0x2
 7982 245f 7D       		.byte	0x7d
 7983 2460 00       		.sleb128 0
 7984 2461 01       		.byte	0x1
 7985 2462 91240000 		.4byte	0x2491
 7986 2466 21       		.uleb128 0x21
 7987 2467 860D0000 		.4byte	.LASF369
 7988 246b 01       		.byte	0x1
 7989 246c 3502     		.2byte	0x235
 7990 246e 9A1B0000 		.4byte	0x1b9a
 7991 2472 630C0000 		.4byte	.LLST42
 7992 2476 3C       		.uleb128 0x3c
 7993 2477 91240000 		.4byte	0x2491
 7994 247b AE020000 		.4byte	.LBB17
 7995 247f B2020000 		.4byte	.LBE17
 7996 2483 01       		.byte	0x1
 7997 2484 3702     		.2byte	0x237
 7998 2486 37       		.uleb128 0x37
 7999 2487 A4240000 		.4byte	0x24a4
 8000 248b 840C0000 		.4byte	.LLST43
 8001 248f 00       		.byte	0
 8002 2490 00       		.byte	0
 8003 2491 31       		.uleb128 0x31
 8004 2492 01       		.byte	0x1
 8005 2493 EE140000 		.4byte	.LASF415
 8006 2497 01       		.byte	0x1
 8007 2498 2A02     		.2byte	0x22a
 8008 249a 01       		.byte	0x1
 8009 249b BD000000 		.4byte	0xbd
 8010 249f 01       		.byte	0x1
 8011 24a0 B1240000 		.4byte	0x24b1
 8012 24a4 32       		.uleb128 0x32
 8013 24a5 860D0000 		.4byte	.LASF369
 8014 24a9 01       		.byte	0x1
 8015 24aa 2A02     		.2byte	0x22a
 8016 24ac 9A1B0000 		.4byte	0x1b9a
 8017 24b0 00       		.byte	0
 8018 24b1 34       		.uleb128 0x34
 8019 24b2 01       		.byte	0x1
ARM GAS  /tmp/ccQkqy1T.s 			page 183


 8020 24b3 6B060000 		.4byte	.LASF416
 8021 24b7 01       		.byte	0x1
 8022 24b8 0C02     		.2byte	0x20c
 8023 24ba 01       		.byte	0x1
 8024 24bb 4E150000 		.4byte	0x154e
 8025 24bf 78020000 		.4byte	.LFB120
 8026 24c3 A4020000 		.4byte	.LFE120
 8027 24c7 970C0000 		.4byte	.LLST37
 8028 24cb 01       		.byte	0x1
 8029 24cc 1E250000 		.4byte	0x251e
 8030 24d0 21       		.uleb128 0x21
 8031 24d1 860D0000 		.4byte	.LASF369
 8032 24d5 01       		.byte	0x1
 8033 24d6 0C02     		.2byte	0x20c
 8034 24d8 9A1B0000 		.4byte	0x1b9a
 8035 24dc B70C0000 		.4byte	.LLST38
 8036 24e0 21       		.uleb128 0x21
 8037 24e1 3E030000 		.4byte	.LASF417
 8038 24e5 01       		.byte	0x1
 8039 24e6 0C02     		.2byte	0x20c
 8040 24e8 97000000 		.4byte	0x97
 8041 24ec E30C0000 		.4byte	.LLST39
 8042 24f0 28       		.uleb128 0x28
 8043 24f1 49150000 		.4byte	.LASF389
 8044 24f5 01       		.byte	0x1
 8045 24f6 0E02     		.2byte	0x20e
 8046 24f8 4E150000 		.4byte	0x154e
 8047 24fc 00       		.byte	0
 8048 24fd 23       		.uleb128 0x23
 8049 24fe 9E120000 		.4byte	.LASF418
 8050 2502 01       		.byte	0x1
 8051 2503 0F02     		.2byte	0x20f
 8052 2505 F4080000 		.4byte	0x8f4
 8053 2509 0F0D0000 		.4byte	.LLST40
 8054 250d 30       		.uleb128 0x30
 8055 250e 96020000 		.4byte	.LVL85
 8056 2512 5F2A0000 		.4byte	0x2a5f
 8057 2516 25       		.uleb128 0x25
 8058 2517 01       		.byte	0x1
 8059 2518 50       		.byte	0x50
 8060 2519 02       		.byte	0x2
 8061 251a 08       		.byte	0x8
 8062 251b 32       		.byte	0x32
 8063 251c 00       		.byte	0
 8064 251d 00       		.byte	0
 8065 251e 34       		.uleb128 0x34
 8066 251f 01       		.byte	0x1
 8067 2520 A10A0000 		.4byte	.LASF419
 8068 2524 01       		.byte	0x1
 8069 2525 EE01     		.2byte	0x1ee
 8070 2527 01       		.byte	0x1
 8071 2528 4E150000 		.4byte	0x154e
 8072 252c 40020000 		.4byte	.LFB119
 8073 2530 78020000 		.4byte	.LFE119
 8074 2534 2D0D0000 		.4byte	.LLST34
 8075 2538 01       		.byte	0x1
 8076 2539 89250000 		.4byte	0x2589
ARM GAS  /tmp/ccQkqy1T.s 			page 184


 8077 253d 21       		.uleb128 0x21
 8078 253e 860D0000 		.4byte	.LASF369
 8079 2542 01       		.byte	0x1
 8080 2543 EE01     		.2byte	0x1ee
 8081 2545 9A1B0000 		.4byte	0x1b9a
 8082 2549 590D0000 		.4byte	.LLST35
 8083 254d 28       		.uleb128 0x28
 8084 254e 49150000 		.4byte	.LASF389
 8085 2552 01       		.byte	0x1
 8086 2553 F001     		.2byte	0x1f0
 8087 2555 4E150000 		.4byte	0x154e
 8088 2559 00       		.byte	0
 8089 255a 2E       		.uleb128 0x2e
 8090 255b EC040000 		.4byte	.LASF420
 8091 255f 01       		.byte	0x1
 8092 2560 F101     		.2byte	0x1f1
 8093 2562 EE090000 		.4byte	0x9ee
 8094 2566 02       		.byte	0x2
 8095 2567 91       		.byte	0x91
 8096 2568 74       		.sleb128 -12
 8097 2569 23       		.uleb128 0x23
 8098 256a B3080000 		.4byte	.LASF421
 8099 256e 01       		.byte	0x1
 8100 256f F201     		.2byte	0x1f2
 8101 2571 BD000000 		.4byte	0xbd
 8102 2575 7A0D0000 		.4byte	.LLST36
 8103 2579 30       		.uleb128 0x30
 8104 257a 6A020000 		.4byte	.LVL80
 8105 257e 6C2A0000 		.4byte	0x2a6c
 8106 2582 25       		.uleb128 0x25
 8107 2583 01       		.byte	0x1
 8108 2584 50       		.byte	0x50
 8109 2585 01       		.byte	0x1
 8110 2586 33       		.byte	0x33
 8111 2587 00       		.byte	0
 8112 2588 00       		.byte	0
 8113 2589 34       		.uleb128 0x34
 8114 258a 01       		.byte	0x1
 8115 258b 80070000 		.4byte	.LASF422
 8116 258f 01       		.byte	0x1
 8117 2590 D001     		.2byte	0x1d0
 8118 2592 01       		.byte	0x1
 8119 2593 4E150000 		.4byte	0x154e
 8120 2597 00020000 		.4byte	.LFB118
 8121 259b 40020000 		.4byte	.LFE118
 8122 259f DA0D0000 		.4byte	.LLST30
 8123 25a3 01       		.byte	0x1
 8124 25a4 04260000 		.4byte	0x2604
 8125 25a8 21       		.uleb128 0x21
 8126 25a9 860D0000 		.4byte	.LASF369
 8127 25ad 01       		.byte	0x1
 8128 25ae D001     		.2byte	0x1d0
 8129 25b0 9A1B0000 		.4byte	0x1b9a
 8130 25b4 060E0000 		.4byte	.LLST31
 8131 25b8 22       		.uleb128 0x22
 8132 25b9 6E756D00 		.ascii	"num\000"
 8133 25bd 01       		.byte	0x1
ARM GAS  /tmp/ccQkqy1T.s 			page 185


 8134 25be D001     		.2byte	0x1d0
 8135 25c0 BD000000 		.4byte	0xbd
 8136 25c4 270E0000 		.4byte	.LLST32
 8137 25c8 28       		.uleb128 0x28
 8138 25c9 49150000 		.4byte	.LASF389
 8139 25cd 01       		.byte	0x1
 8140 25ce D201     		.2byte	0x1d2
 8141 25d0 4E150000 		.4byte	0x154e
 8142 25d4 00       		.byte	0
 8143 25d5 2E       		.uleb128 0x2e
 8144 25d6 EC040000 		.4byte	.LASF420
 8145 25da 01       		.byte	0x1
 8146 25db D301     		.2byte	0x1d3
 8147 25dd EE090000 		.4byte	0x9ee
 8148 25e1 02       		.byte	0x2
 8149 25e2 91       		.byte	0x91
 8150 25e3 74       		.sleb128 -12
 8151 25e4 23       		.uleb128 0x23
 8152 25e5 B3080000 		.4byte	.LASF421
 8153 25e9 01       		.byte	0x1
 8154 25ea D501     		.2byte	0x1d5
 8155 25ec BD000000 		.4byte	0xbd
 8156 25f0 480E0000 		.4byte	.LLST33
 8157 25f4 30       		.uleb128 0x30
 8158 25f5 32020000 		.4byte	.LVL72
 8159 25f9 6C2A0000 		.4byte	0x2a6c
 8160 25fd 25       		.uleb128 0x25
 8161 25fe 01       		.byte	0x1
 8162 25ff 50       		.byte	0x50
 8163 2600 01       		.byte	0x1
 8164 2601 33       		.byte	0x33
 8165 2602 00       		.byte	0
 8166 2603 00       		.byte	0
 8167 2604 27       		.uleb128 0x27
 8168 2605 01       		.byte	0x1
 8169 2606 07130000 		.4byte	.LASF423
 8170 260a 01       		.byte	0x1
 8171 260b BF01     		.2byte	0x1bf
 8172 260d 01       		.byte	0x1
 8173 260e 4E150000 		.4byte	0x154e
 8174 2612 F2010000 		.4byte	.LFB117
 8175 2616 00020000 		.4byte	.LFE117
 8176 261a 02       		.byte	0x2
 8177 261b 7D       		.byte	0x7d
 8178 261c 00       		.sleb128 0
 8179 261d 01       		.byte	0x1
 8180 261e 4C260000 		.4byte	0x264c
 8181 2622 21       		.uleb128 0x21
 8182 2623 860D0000 		.4byte	.LASF369
 8183 2627 01       		.byte	0x1
 8184 2628 BF01     		.2byte	0x1bf
 8185 262a 9A1B0000 		.4byte	0x1b9a
 8186 262e A80E0000 		.4byte	.LLST29
 8187 2632 28       		.uleb128 0x28
 8188 2633 49150000 		.4byte	.LASF389
 8189 2637 01       		.byte	0x1
 8190 2638 C101     		.2byte	0x1c1
ARM GAS  /tmp/ccQkqy1T.s 			page 186


 8191 263a 4E150000 		.4byte	0x154e
 8192 263e 00       		.byte	0
 8193 263f 2F       		.uleb128 0x2f
 8194 2640 030E0000 		.4byte	.LASF424
 8195 2644 01       		.byte	0x1
 8196 2645 C201     		.2byte	0x1c2
 8197 2647 1C070000 		.4byte	0x71c
 8198 264b 00       		.byte	0
 8199 264c 27       		.uleb128 0x27
 8200 264d 01       		.byte	0x1
 8201 264e 9D050000 		.4byte	.LASF425
 8202 2652 01       		.byte	0x1
 8203 2653 AD01     		.2byte	0x1ad
 8204 2655 01       		.byte	0x1
 8205 2656 4E150000 		.4byte	0x154e
 8206 265a E4010000 		.4byte	.LFB116
 8207 265e F2010000 		.4byte	.LFE116
 8208 2662 02       		.byte	0x2
 8209 2663 7D       		.byte	0x7d
 8210 2664 00       		.sleb128 0
 8211 2665 01       		.byte	0x1
 8212 2666 94260000 		.4byte	0x2694
 8213 266a 21       		.uleb128 0x21
 8214 266b 860D0000 		.4byte	.LASF369
 8215 266f 01       		.byte	0x1
 8216 2670 AD01     		.2byte	0x1ad
 8217 2672 9A1B0000 		.4byte	0x1b9a
 8218 2676 C90E0000 		.4byte	.LLST28
 8219 267a 28       		.uleb128 0x28
 8220 267b 49150000 		.4byte	.LASF389
 8221 267f 01       		.byte	0x1
 8222 2680 AF01     		.2byte	0x1af
 8223 2682 4E150000 		.4byte	0x154e
 8224 2686 00       		.byte	0
 8225 2687 2F       		.uleb128 0x2f
 8226 2688 030E0000 		.4byte	.LASF424
 8227 268c 01       		.byte	0x1
 8228 268d B001     		.2byte	0x1b0
 8229 268f 1C070000 		.4byte	0x71c
 8230 2693 00       		.byte	0
 8231 2694 34       		.uleb128 0x34
 8232 2695 01       		.byte	0x1
 8233 2696 EB000000 		.4byte	.LASF426
 8234 269a 01       		.byte	0x1
 8235 269b 4301     		.2byte	0x143
 8236 269d 01       		.byte	0x1
 8237 269e 4E150000 		.4byte	0x154e
 8238 26a2 58010000 		.4byte	.LFB115
 8239 26a6 E4010000 		.4byte	.LFE115
 8240 26aa EA0E0000 		.4byte	.LLST23
 8241 26ae 01       		.byte	0x1
 8242 26af 3C270000 		.4byte	0x273c
 8243 26b3 21       		.uleb128 0x21
 8244 26b4 860D0000 		.4byte	.LASF369
 8245 26b8 01       		.byte	0x1
 8246 26b9 4301     		.2byte	0x143
 8247 26bb 9A1B0000 		.4byte	0x1b9a
ARM GAS  /tmp/ccQkqy1T.s 			page 187


 8248 26bf 0A0F0000 		.4byte	.LLST24
 8249 26c3 28       		.uleb128 0x28
 8250 26c4 49150000 		.4byte	.LASF389
 8251 26c8 01       		.byte	0x1
 8252 26c9 4501     		.2byte	0x145
 8253 26cb 4E150000 		.4byte	0x154e
 8254 26cf 00       		.byte	0
 8255 26d0 23       		.uleb128 0x23
 8256 26d1 9E120000 		.4byte	.LASF418
 8257 26d5 01       		.byte	0x1
 8258 26d6 4601     		.2byte	0x146
 8259 26d8 F4080000 		.4byte	0x8f4
 8260 26dc 280F0000 		.4byte	.LLST25
 8261 26e0 23       		.uleb128 0x23
 8262 26e1 4C050000 		.4byte	.LASF427
 8263 26e5 01       		.byte	0x1
 8264 26e6 4701     		.2byte	0x147
 8265 26e8 650D0000 		.4byte	0xd65
 8266 26ec 460F0000 		.4byte	.LLST26
 8267 26f0 23       		.uleb128 0x23
 8268 26f1 030E0000 		.4byte	.LASF424
 8269 26f5 01       		.byte	0x1
 8270 26f6 4801     		.2byte	0x148
 8271 26f8 1C070000 		.4byte	0x71c
 8272 26fc 640F0000 		.4byte	.LLST27
 8273 2700 2A       		.uleb128 0x2a
 8274 2701 90010000 		.4byte	.LVL51
 8275 2705 E1280000 		.4byte	0x28e1
 8276 2709 16270000 		.4byte	0x2716
 8277 270d 3D       		.uleb128 0x3d
 8278 270e 90280000 		.4byte	0x2890
 8279 2712 02       		.byte	0x2
 8280 2713 75       		.byte	0x75
 8281 2714 00       		.sleb128 0
 8282 2715 00       		.byte	0
 8283 2716 2A       		.uleb128 0x2a
 8284 2717 CA010000 		.4byte	.LVL58
 8285 271b E1280000 		.4byte	0x28e1
 8286 271f 2C270000 		.4byte	0x272c
 8287 2723 3D       		.uleb128 0x3d
 8288 2724 90280000 		.4byte	0x2890
 8289 2728 02       		.byte	0x2
 8290 2729 75       		.byte	0x75
 8291 272a 00       		.sleb128 0
 8292 272b 00       		.byte	0
 8293 272c 30       		.uleb128 0x30
 8294 272d E2010000 		.4byte	.LVL60
 8295 2731 5F2A0000 		.4byte	0x2a5f
 8296 2735 25       		.uleb128 0x25
 8297 2736 01       		.byte	0x1
 8298 2737 50       		.byte	0x50
 8299 2738 01       		.byte	0x1
 8300 2739 44       		.byte	0x44
 8301 273a 00       		.byte	0
 8302 273b 00       		.byte	0
 8303 273c 3E       		.uleb128 0x3e
 8304 273d 01       		.byte	0x1
ARM GAS  /tmp/ccQkqy1T.s 			page 188


 8305 273e B6090000 		.4byte	.LASF428
 8306 2742 01       		.byte	0x1
 8307 2743 DD       		.byte	0xdd
 8308 2744 01       		.byte	0x1
 8309 2745 4E150000 		.4byte	0x154e
 8310 2749 92000000 		.4byte	.LFB114
 8311 274d 58010000 		.4byte	.LFE114
 8312 2751 820F0000 		.4byte	.LLST18
 8313 2755 01       		.byte	0x1
 8314 2756 A1270000 		.4byte	0x27a1
 8315 275a 3F       		.uleb128 0x3f
 8316 275b 860D0000 		.4byte	.LASF369
 8317 275f 01       		.byte	0x1
 8318 2760 DD       		.byte	0xdd
 8319 2761 9A1B0000 		.4byte	0x1b9a
 8320 2765 A20F0000 		.4byte	.LLST19
 8321 2769 3F       		.uleb128 0x3f
 8322 276a 7B090000 		.4byte	.LASF311
 8323 276e 01       		.byte	0x1
 8324 276f DE       		.byte	0xde
 8325 2770 FF140000 		.4byte	0x14ff
 8326 2774 CE0F0000 		.4byte	.LLST20
 8327 2778 40       		.uleb128 0x40
 8328 2779 6900     		.ascii	"i\000"
 8329 277b 01       		.byte	0x1
 8330 277c E0       		.byte	0xe0
 8331 277d BD000000 		.4byte	0xbd
 8332 2781 08100000 		.4byte	.LLST21
 8333 2785 41       		.uleb128 0x41
 8334 2786 FE140000 		.4byte	.LASF429
 8335 278a 01       		.byte	0x1
 8336 278b E0       		.byte	0xe0
 8337 278c BD000000 		.4byte	0xbd
 8338 2790 28100000 		.4byte	.LLST22
 8339 2794 42       		.uleb128 0x42
 8340 2795 49150000 		.4byte	.LASF389
 8341 2799 01       		.byte	0x1
 8342 279a E1       		.byte	0xe1
 8343 279b 4E150000 		.4byte	0x154e
 8344 279f 00       		.byte	0
 8345 27a0 00       		.byte	0
 8346 27a1 3E       		.uleb128 0x3e
 8347 27a2 01       		.byte	0x1
 8348 27a3 68120000 		.4byte	.LASF430
 8349 27a7 01       		.byte	0x1
 8350 27a8 C5       		.byte	0xc5
 8351 27a9 01       		.byte	0x1
 8352 27aa A2180000 		.4byte	0x18a2
 8353 27ae 72000000 		.4byte	.LFB113
 8354 27b2 92000000 		.4byte	.LFE113
 8355 27b6 A2100000 		.4byte	.LLST13
 8356 27ba 01       		.byte	0x1
 8357 27bb 14280000 		.4byte	0x2814
 8358 27bf 3F       		.uleb128 0x3f
 8359 27c0 860D0000 		.4byte	.LASF369
 8360 27c4 01       		.byte	0x1
 8361 27c5 C5       		.byte	0xc5
ARM GAS  /tmp/ccQkqy1T.s 			page 189


 8362 27c6 9A1B0000 		.4byte	0x1b9a
 8363 27ca C2100000 		.4byte	.LLST14
 8364 27ce 3F       		.uleb128 0x3f
 8365 27cf 43160000 		.4byte	.LASF431
 8366 27d3 01       		.byte	0x1
 8367 27d4 C6       		.byte	0xc6
 8368 27d5 59150000 		.4byte	0x1559
 8369 27d9 E3100000 		.4byte	.LLST15
 8370 27dd 43       		.uleb128 0x43
 8371 27de 6C656E00 		.ascii	"len\000"
 8372 27e2 01       		.byte	0x1
 8373 27e3 C7       		.byte	0xc7
 8374 27e4 A2000000 		.4byte	0xa2
 8375 27e8 08110000 		.4byte	.LLST16
 8376 27ec 40       		.uleb128 0x40
 8377 27ed 6900     		.ascii	"i\000"
 8378 27ef 01       		.byte	0x1
 8379 27f0 C9       		.byte	0xc9
 8380 27f1 BD000000 		.4byte	0xbd
 8381 27f5 29110000 		.4byte	.LLST17
 8382 27f9 44       		.uleb128 0x44
 8383 27fa 27070000 		.4byte	.LASF432
 8384 27fe 01       		.byte	0x1
 8385 27ff CA       		.byte	0xca
 8386 2800 BD000000 		.4byte	0xbd
 8387 2804 01       		.byte	0x1
 8388 2805 52       		.byte	0x52
 8389 2806 44       		.uleb128 0x44
 8390 2807 A8130000 		.4byte	.LASF433
 8391 280b 01       		.byte	0x1
 8392 280c CC       		.byte	0xcc
 8393 280d 4F060000 		.4byte	0x64f
 8394 2811 01       		.byte	0x1
 8395 2812 53       		.byte	0x53
 8396 2813 00       		.byte	0
 8397 2814 45       		.uleb128 0x45
 8398 2815 01       		.byte	0x1
 8399 2816 FE090000 		.4byte	.LASF434
 8400 281a 01       		.byte	0x1
 8401 281b A8       		.byte	0xa8
 8402 281c 01       		.byte	0x1
 8403 281d 4E150000 		.4byte	0x154e
 8404 2821 01       		.byte	0x1
 8405 2822 7F280000 		.4byte	0x287f
 8406 2826 46       		.uleb128 0x46
 8407 2827 860D0000 		.4byte	.LASF369
 8408 282b 01       		.byte	0x1
 8409 282c A8       		.byte	0xa8
 8410 282d 9A1B0000 		.4byte	0x1b9a
 8411 2831 47       		.uleb128 0x47
 8412 2832 73726300 		.ascii	"src\000"
 8413 2836 01       		.byte	0x1
 8414 2837 A9       		.byte	0xa9
 8415 2838 59150000 		.4byte	0x1559
 8416 283c 46       		.uleb128 0x46
 8417 283d 6A0A0000 		.4byte	.LASF435
 8418 2841 01       		.byte	0x1
ARM GAS  /tmp/ccQkqy1T.s 			page 190


 8419 2842 AA       		.byte	0xaa
 8420 2843 97000000 		.4byte	0x97
 8421 2847 47       		.uleb128 0x47
 8422 2848 6C656E00 		.ascii	"len\000"
 8423 284c 01       		.byte	0x1
 8424 284d AB       		.byte	0xab
 8425 284e A2000000 		.4byte	0xa2
 8426 2852 48       		.uleb128 0x48
 8427 2853 49150000 		.4byte	.LASF389
 8428 2857 01       		.byte	0x1
 8429 2858 AD       		.byte	0xad
 8430 2859 4E150000 		.4byte	0x154e
 8431 285d 49       		.uleb128 0x49
 8432 285e 48       		.uleb128 0x48
 8433 285f 27070000 		.4byte	.LASF432
 8434 2863 01       		.byte	0x1
 8435 2864 B0       		.byte	0xb0
 8436 2865 BD000000 		.4byte	0xbd
 8437 2869 4A       		.uleb128 0x4a
 8438 286a 6900     		.ascii	"i\000"
 8439 286c 01       		.byte	0x1
 8440 286d B0       		.byte	0xb0
 8441 286e BD000000 		.4byte	0xbd
 8442 2872 48       		.uleb128 0x48
 8443 2873 A8130000 		.4byte	.LASF433
 8444 2877 01       		.byte	0x1
 8445 2878 B1       		.byte	0xb1
 8446 2879 4F060000 		.4byte	0x64f
 8447 287d 00       		.byte	0
 8448 287e 00       		.byte	0
 8449 287f 4B       		.uleb128 0x4b
 8450 2880 050F0000 		.4byte	.LASF443
 8451 2884 01       		.byte	0x1
 8452 2885 7B       		.byte	0x7b
 8453 2886 01       		.byte	0x1
 8454 2887 4E150000 		.4byte	0x154e
 8455 288b 01       		.byte	0x1
 8456 288c BD280000 		.4byte	0x28bd
 8457 2890 46       		.uleb128 0x46
 8458 2891 860D0000 		.4byte	.LASF369
 8459 2895 01       		.byte	0x1
 8460 2896 7B       		.byte	0x7b
 8461 2897 9A1B0000 		.4byte	0x1b9a
 8462 289b 48       		.uleb128 0x48
 8463 289c 49150000 		.4byte	.LASF389
 8464 28a0 01       		.byte	0x1
 8465 28a1 7D       		.byte	0x7d
 8466 28a2 4E150000 		.4byte	0x154e
 8467 28a6 48       		.uleb128 0x48
 8468 28a7 EC040000 		.4byte	.LASF420
 8469 28ab 01       		.byte	0x1
 8470 28ac 7E       		.byte	0x7e
 8471 28ad EE090000 		.4byte	0x9ee
 8472 28b1 48       		.uleb128 0x48
 8473 28b2 B3080000 		.4byte	.LASF421
 8474 28b6 01       		.byte	0x1
 8475 28b7 7F       		.byte	0x7f
ARM GAS  /tmp/ccQkqy1T.s 			page 191


 8476 28b8 BD000000 		.4byte	0xbd
 8477 28bc 00       		.byte	0
 8478 28bd 4C       		.uleb128 0x4c
 8479 28be 800B0000 		.4byte	.LASF444
 8480 28c2 01       		.byte	0x1
 8481 28c3 5F       		.byte	0x5f
 8482 28c4 01       		.byte	0x1
 8483 28c5 01       		.byte	0x1
 8484 28c6 E1280000 		.4byte	0x28e1
 8485 28ca 46       		.uleb128 0x46
 8486 28cb 860D0000 		.4byte	.LASF369
 8487 28cf 01       		.byte	0x1
 8488 28d0 5F       		.byte	0x5f
 8489 28d1 9A1B0000 		.4byte	0x1b9a
 8490 28d5 48       		.uleb128 0x48
 8491 28d6 BF010000 		.4byte	.LASF436
 8492 28da 01       		.byte	0x1
 8493 28db 61       		.byte	0x61
 8494 28dc 3D0C0000 		.4byte	0xc3d
 8495 28e0 00       		.byte	0
 8496 28e1 4D       		.uleb128 0x4d
 8497 28e2 7F280000 		.4byte	0x287f
 8498 28e6 00000000 		.4byte	.LFB147
 8499 28ea 4C000000 		.4byte	.LFE147
 8500 28ee 53110000 		.4byte	.LLST0
 8501 28f2 01       		.byte	0x1
 8502 28f3 36290000 		.4byte	0x2936
 8503 28f7 4E       		.uleb128 0x4e
 8504 28f8 90280000 		.4byte	0x2890
 8505 28fc 4F       		.uleb128 0x4f
 8506 28fd 9B280000 		.4byte	0x289b
 8507 2901 00       		.byte	0
 8508 2902 50       		.uleb128 0x50
 8509 2903 A6280000 		.4byte	0x28a6
 8510 2907 02       		.byte	0x2
 8511 2908 91       		.byte	0x91
 8512 2909 6C       		.sleb128 -20
 8513 290a 39       		.uleb128 0x39
 8514 290b B1280000 		.4byte	0x28b1
 8515 290f 7F110000 		.4byte	.LLST1
 8516 2913 2A       		.uleb128 0x2a
 8517 2914 10000000 		.4byte	.LVL2
 8518 2918 6C2A0000 		.4byte	0x2a6c
 8519 291c 26290000 		.4byte	0x2926
 8520 2920 25       		.uleb128 0x25
 8521 2921 01       		.byte	0x1
 8522 2922 50       		.byte	0x50
 8523 2923 01       		.byte	0x1
 8524 2924 33       		.byte	0x33
 8525 2925 00       		.byte	0
 8526 2926 30       		.uleb128 0x30
 8527 2927 42000000 		.4byte	.LVL12
 8528 292b 6C2A0000 		.4byte	0x2a6c
 8529 292f 25       		.uleb128 0x25
 8530 2930 01       		.byte	0x1
 8531 2931 50       		.byte	0x50
 8532 2932 01       		.byte	0x1
ARM GAS  /tmp/ccQkqy1T.s 			page 192


 8533 2933 33       		.byte	0x33
 8534 2934 00       		.byte	0
 8535 2935 00       		.byte	0
 8536 2936 4D       		.uleb128 0x4d
 8537 2937 14280000 		.4byte	0x2814
 8538 293b 4C000000 		.4byte	.LFB112
 8539 293f 72000000 		.4byte	.LFE112
 8540 2943 24120000 		.4byte	.LLST2
 8541 2947 01       		.byte	0x1
 8542 2948 D3290000 		.4byte	0x29d3
 8543 294c 37       		.uleb128 0x37
 8544 294d 26280000 		.4byte	0x2826
 8545 2951 44120000 		.4byte	.LLST3
 8546 2955 51       		.uleb128 0x51
 8547 2956 31280000 		.4byte	0x2831
 8548 295a 01       		.byte	0x1
 8549 295b 51       		.byte	0x51
 8550 295c 37       		.uleb128 0x37
 8551 295d 3C280000 		.4byte	0x283c
 8552 2961 65120000 		.4byte	.LLST4
 8553 2965 37       		.uleb128 0x37
 8554 2966 47280000 		.4byte	0x2847
 8555 296a 86120000 		.4byte	.LLST5
 8556 296e 4F       		.uleb128 0x4f
 8557 296f 52280000 		.4byte	0x2852
 8558 2973 00       		.byte	0
 8559 2974 52       		.uleb128 0x52
 8560 2975 14280000 		.4byte	0x2814
 8561 2979 00000000 		.4byte	.Ldebug_ranges0+0
 8562 297d 37       		.uleb128 0x37
 8563 297e 47280000 		.4byte	0x2847
 8564 2982 A7120000 		.4byte	.LLST6
 8565 2986 37       		.uleb128 0x37
 8566 2987 3C280000 		.4byte	0x283c
 8567 298b D6120000 		.4byte	.LLST7
 8568 298f 37       		.uleb128 0x37
 8569 2990 31280000 		.4byte	0x2831
 8570 2994 05130000 		.4byte	.LLST8
 8571 2998 37       		.uleb128 0x37
 8572 2999 26280000 		.4byte	0x2826
 8573 299d 2A130000 		.4byte	.LLST9
 8574 29a1 38       		.uleb128 0x38
 8575 29a2 00000000 		.4byte	.Ldebug_ranges0+0
 8576 29a6 53       		.uleb128 0x53
 8577 29a7 6E290000 		.4byte	0x296e
 8578 29ab 52       		.uleb128 0x52
 8579 29ac 5D280000 		.4byte	0x285d
 8580 29b0 00000000 		.4byte	.Ldebug_ranges0+0
 8581 29b4 39       		.uleb128 0x39
 8582 29b5 5E280000 		.4byte	0x285e
 8583 29b9 59130000 		.4byte	.LLST10
 8584 29bd 39       		.uleb128 0x39
 8585 29be 69280000 		.4byte	0x2869
 8586 29c2 83130000 		.4byte	.LLST11
 8587 29c6 39       		.uleb128 0x39
 8588 29c7 72280000 		.4byte	0x2872
 8589 29cb AD130000 		.4byte	.LLST12
ARM GAS  /tmp/ccQkqy1T.s 			page 193


 8590 29cf 00       		.byte	0
 8591 29d0 00       		.byte	0
 8592 29d1 00       		.byte	0
 8593 29d2 00       		.byte	0
 8594 29d3 54       		.uleb128 0x54
 8595 29d4 91240000 		.4byte	0x2491
 8596 29d8 A4020000 		.4byte	.LFB121
 8597 29dc AE020000 		.4byte	.LFE121
 8598 29e0 02       		.byte	0x2
 8599 29e1 7D       		.byte	0x7d
 8600 29e2 00       		.sleb128 0
 8601 29e3 01       		.byte	0x1
 8602 29e4 F2290000 		.4byte	0x29f2
 8603 29e8 37       		.uleb128 0x37
 8604 29e9 A4240000 		.4byte	0x24a4
 8605 29ed CB130000 		.4byte	.LLST41
 8606 29f1 00       		.byte	0
 8607 29f2 54       		.uleb128 0x54
 8608 29f3 AD1E0000 		.4byte	0x1ead
 8609 29f7 88060000 		.4byte	.LFB135
 8610 29fb B0060000 		.4byte	.LFE135
 8611 29ff 02       		.byte	0x2
 8612 2a00 7D       		.byte	0x7d
 8613 2a01 00       		.sleb128 0
 8614 2a02 01       		.byte	0x1
 8615 2a03 5F2A0000 		.4byte	0x2a5f
 8616 2a07 37       		.uleb128 0x37
 8617 2a08 C01E0000 		.4byte	0x1ec0
 8618 2a0c EC130000 		.4byte	.LLST88
 8619 2a10 51       		.uleb128 0x51
 8620 2a11 CC1E0000 		.4byte	0x1ecc
 8621 2a15 01       		.byte	0x1
 8622 2a16 51       		.byte	0x51
 8623 2a17 4F       		.uleb128 0x4f
 8624 2a18 D71E0000 		.4byte	0x1ed7
 8625 2a1c 00       		.byte	0
 8626 2a1d 39       		.uleb128 0x39
 8627 2a1e E31E0000 		.4byte	0x1ee3
 8628 2a22 0D140000 		.4byte	.LLST89
 8629 2a26 50       		.uleb128 0x50
 8630 2a27 EF1E0000 		.4byte	0x1eef
 8631 2a2b 01       		.byte	0x1
 8632 2a2c 52       		.byte	0x52
 8633 2a2d 52       		.uleb128 0x52
 8634 2a2e AD1E0000 		.4byte	0x1ead
 8635 2a32 50000000 		.4byte	.Ldebug_ranges0+0x50
 8636 2a36 37       		.uleb128 0x37
 8637 2a37 CC1E0000 		.4byte	0x1ecc
 8638 2a3b 20140000 		.4byte	.LLST90
 8639 2a3f 37       		.uleb128 0x37
 8640 2a40 C01E0000 		.4byte	0x1ec0
 8641 2a44 33140000 		.4byte	.LLST91
 8642 2a48 38       		.uleb128 0x38
 8643 2a49 50000000 		.4byte	.Ldebug_ranges0+0x50
 8644 2a4d 53       		.uleb128 0x53
 8645 2a4e 172A0000 		.4byte	0x2a17
 8646 2a52 53       		.uleb128 0x53
ARM GAS  /tmp/ccQkqy1T.s 			page 194


 8647 2a53 1D2A0000 		.4byte	0x2a1d
 8648 2a57 53       		.uleb128 0x53
 8649 2a58 262A0000 		.4byte	0x2a26
 8650 2a5c 00       		.byte	0
 8651 2a5d 00       		.byte	0
 8652 2a5e 00       		.byte	0
 8653 2a5f 55       		.uleb128 0x55
 8654 2a60 01       		.byte	0x1
 8655 2a61 01       		.byte	0x1
 8656 2a62 C0130000 		.4byte	.LASF437
 8657 2a66 C0130000 		.4byte	.LASF437
 8658 2a6a 09       		.byte	0x9
 8659 2a6b 53       		.byte	0x53
 8660 2a6c 55       		.uleb128 0x55
 8661 2a6d 01       		.byte	0x1
 8662 2a6e 01       		.byte	0x1
 8663 2a6f 8C110000 		.4byte	.LASF438
 8664 2a73 8C110000 		.4byte	.LASF438
 8665 2a77 09       		.byte	0x9
 8666 2a78 52       		.byte	0x52
 8667 2a79 00       		.byte	0
 8668              		.section	.debug_abbrev,"",%progbits
 8669              	.Ldebug_abbrev0:
 8670 0000 01       		.uleb128 0x1
 8671 0001 11       		.uleb128 0x11
 8672 0002 01       		.byte	0x1
 8673 0003 25       		.uleb128 0x25
 8674 0004 0E       		.uleb128 0xe
 8675 0005 13       		.uleb128 0x13
 8676 0006 0B       		.uleb128 0xb
 8677 0007 03       		.uleb128 0x3
 8678 0008 0E       		.uleb128 0xe
 8679 0009 1B       		.uleb128 0x1b
 8680 000a 0E       		.uleb128 0xe
 8681 000b 11       		.uleb128 0x11
 8682 000c 01       		.uleb128 0x1
 8683 000d 12       		.uleb128 0x12
 8684 000e 01       		.uleb128 0x1
 8685 000f 10       		.uleb128 0x10
 8686 0010 06       		.uleb128 0x6
 8687 0011 00       		.byte	0
 8688 0012 00       		.byte	0
 8689 0013 02       		.uleb128 0x2
 8690 0014 24       		.uleb128 0x24
 8691 0015 00       		.byte	0
 8692 0016 0B       		.uleb128 0xb
 8693 0017 0B       		.uleb128 0xb
 8694 0018 3E       		.uleb128 0x3e
 8695 0019 0B       		.uleb128 0xb
 8696 001a 03       		.uleb128 0x3
 8697 001b 0E       		.uleb128 0xe
 8698 001c 00       		.byte	0
 8699 001d 00       		.byte	0
 8700 001e 03       		.uleb128 0x3
 8701 001f 16       		.uleb128 0x16
 8702 0020 00       		.byte	0
 8703 0021 03       		.uleb128 0x3
ARM GAS  /tmp/ccQkqy1T.s 			page 195


 8704 0022 0E       		.uleb128 0xe
 8705 0023 3A       		.uleb128 0x3a
 8706 0024 0B       		.uleb128 0xb
 8707 0025 3B       		.uleb128 0x3b
 8708 0026 0B       		.uleb128 0xb
 8709 0027 49       		.uleb128 0x49
 8710 0028 13       		.uleb128 0x13
 8711 0029 00       		.byte	0
 8712 002a 00       		.byte	0
 8713 002b 04       		.uleb128 0x4
 8714 002c 24       		.uleb128 0x24
 8715 002d 00       		.byte	0
 8716 002e 0B       		.uleb128 0xb
 8717 002f 0B       		.uleb128 0xb
 8718 0030 3E       		.uleb128 0x3e
 8719 0031 0B       		.uleb128 0xb
 8720 0032 03       		.uleb128 0x3
 8721 0033 08       		.uleb128 0x8
 8722 0034 00       		.byte	0
 8723 0035 00       		.byte	0
 8724 0036 05       		.uleb128 0x5
 8725 0037 35       		.uleb128 0x35
 8726 0038 00       		.byte	0
 8727 0039 49       		.uleb128 0x49
 8728 003a 13       		.uleb128 0x13
 8729 003b 00       		.byte	0
 8730 003c 00       		.byte	0
 8731 003d 06       		.uleb128 0x6
 8732 003e 01       		.uleb128 0x1
 8733 003f 01       		.byte	0x1
 8734 0040 49       		.uleb128 0x49
 8735 0041 13       		.uleb128 0x13
 8736 0042 01       		.uleb128 0x1
 8737 0043 13       		.uleb128 0x13
 8738 0044 00       		.byte	0
 8739 0045 00       		.byte	0
 8740 0046 07       		.uleb128 0x7
 8741 0047 21       		.uleb128 0x21
 8742 0048 00       		.byte	0
 8743 0049 49       		.uleb128 0x49
 8744 004a 13       		.uleb128 0x13
 8745 004b 2F       		.uleb128 0x2f
 8746 004c 0B       		.uleb128 0xb
 8747 004d 00       		.byte	0
 8748 004e 00       		.byte	0
 8749 004f 08       		.uleb128 0x8
 8750 0050 34       		.uleb128 0x34
 8751 0051 00       		.byte	0
 8752 0052 03       		.uleb128 0x3
 8753 0053 0E       		.uleb128 0xe
 8754 0054 3A       		.uleb128 0x3a
 8755 0055 0B       		.uleb128 0xb
 8756 0056 3B       		.uleb128 0x3b
 8757 0057 05       		.uleb128 0x5
 8758 0058 49       		.uleb128 0x49
 8759 0059 13       		.uleb128 0x13
 8760 005a 3F       		.uleb128 0x3f
ARM GAS  /tmp/ccQkqy1T.s 			page 196


 8761 005b 0C       		.uleb128 0xc
 8762 005c 3C       		.uleb128 0x3c
 8763 005d 0C       		.uleb128 0xc
 8764 005e 00       		.byte	0
 8765 005f 00       		.byte	0
 8766 0060 09       		.uleb128 0x9
 8767 0061 34       		.uleb128 0x34
 8768 0062 00       		.byte	0
 8769 0063 03       		.uleb128 0x3
 8770 0064 0E       		.uleb128 0xe
 8771 0065 3A       		.uleb128 0x3a
 8772 0066 0B       		.uleb128 0xb
 8773 0067 3B       		.uleb128 0x3b
 8774 0068 0B       		.uleb128 0xb
 8775 0069 49       		.uleb128 0x49
 8776 006a 13       		.uleb128 0x13
 8777 006b 3F       		.uleb128 0x3f
 8778 006c 0C       		.uleb128 0xc
 8779 006d 3C       		.uleb128 0x3c
 8780 006e 0C       		.uleb128 0xc
 8781 006f 00       		.byte	0
 8782 0070 00       		.byte	0
 8783 0071 0A       		.uleb128 0xa
 8784 0072 13       		.uleb128 0x13
 8785 0073 01       		.byte	0x1
 8786 0074 03       		.uleb128 0x3
 8787 0075 0E       		.uleb128 0xe
 8788 0076 0B       		.uleb128 0xb
 8789 0077 05       		.uleb128 0x5
 8790 0078 3A       		.uleb128 0x3a
 8791 0079 0B       		.uleb128 0xb
 8792 007a 3B       		.uleb128 0x3b
 8793 007b 0B       		.uleb128 0xb
 8794 007c 01       		.uleb128 0x1
 8795 007d 13       		.uleb128 0x13
 8796 007e 00       		.byte	0
 8797 007f 00       		.byte	0
 8798 0080 0B       		.uleb128 0xb
 8799 0081 0D       		.uleb128 0xd
 8800 0082 00       		.byte	0
 8801 0083 03       		.uleb128 0x3
 8802 0084 0E       		.uleb128 0xe
 8803 0085 3A       		.uleb128 0x3a
 8804 0086 0B       		.uleb128 0xb
 8805 0087 3B       		.uleb128 0x3b
 8806 0088 0B       		.uleb128 0xb
 8807 0089 49       		.uleb128 0x49
 8808 008a 13       		.uleb128 0x13
 8809 008b 38       		.uleb128 0x38
 8810 008c 0A       		.uleb128 0xa
 8811 008d 00       		.byte	0
 8812 008e 00       		.byte	0
 8813 008f 0C       		.uleb128 0xc
 8814 0090 0D       		.uleb128 0xd
 8815 0091 00       		.byte	0
 8816 0092 03       		.uleb128 0x3
 8817 0093 08       		.uleb128 0x8
ARM GAS  /tmp/ccQkqy1T.s 			page 197


 8818 0094 3A       		.uleb128 0x3a
 8819 0095 0B       		.uleb128 0xb
 8820 0096 3B       		.uleb128 0x3b
 8821 0097 0B       		.uleb128 0xb
 8822 0098 49       		.uleb128 0x49
 8823 0099 13       		.uleb128 0x13
 8824 009a 38       		.uleb128 0x38
 8825 009b 0A       		.uleb128 0xa
 8826 009c 00       		.byte	0
 8827 009d 00       		.byte	0
 8828 009e 0D       		.uleb128 0xd
 8829 009f 13       		.uleb128 0x13
 8830 00a0 01       		.byte	0x1
 8831 00a1 03       		.uleb128 0x3
 8832 00a2 0E       		.uleb128 0xe
 8833 00a3 0B       		.uleb128 0xb
 8834 00a4 0B       		.uleb128 0xb
 8835 00a5 3A       		.uleb128 0x3a
 8836 00a6 0B       		.uleb128 0xb
 8837 00a7 3B       		.uleb128 0x3b
 8838 00a8 0B       		.uleb128 0xb
 8839 00a9 01       		.uleb128 0x1
 8840 00aa 13       		.uleb128 0x13
 8841 00ab 00       		.byte	0
 8842 00ac 00       		.byte	0
 8843 00ad 0E       		.uleb128 0xe
 8844 00ae 0F       		.uleb128 0xf
 8845 00af 00       		.byte	0
 8846 00b0 0B       		.uleb128 0xb
 8847 00b1 0B       		.uleb128 0xb
 8848 00b2 49       		.uleb128 0x49
 8849 00b3 13       		.uleb128 0x13
 8850 00b4 00       		.byte	0
 8851 00b5 00       		.byte	0
 8852 00b6 0F       		.uleb128 0xf
 8853 00b7 13       		.uleb128 0x13
 8854 00b8 01       		.byte	0x1
 8855 00b9 0B       		.uleb128 0xb
 8856 00ba 0B       		.uleb128 0xb
 8857 00bb 3A       		.uleb128 0x3a
 8858 00bc 0B       		.uleb128 0xb
 8859 00bd 3B       		.uleb128 0x3b
 8860 00be 05       		.uleb128 0x5
 8861 00bf 01       		.uleb128 0x1
 8862 00c0 13       		.uleb128 0x13
 8863 00c1 00       		.byte	0
 8864 00c2 00       		.byte	0
 8865 00c3 10       		.uleb128 0x10
 8866 00c4 0D       		.uleb128 0xd
 8867 00c5 00       		.byte	0
 8868 00c6 03       		.uleb128 0x3
 8869 00c7 0E       		.uleb128 0xe
 8870 00c8 3A       		.uleb128 0x3a
 8871 00c9 0B       		.uleb128 0xb
 8872 00ca 3B       		.uleb128 0x3b
 8873 00cb 05       		.uleb128 0x5
 8874 00cc 49       		.uleb128 0x49
ARM GAS  /tmp/ccQkqy1T.s 			page 198


 8875 00cd 13       		.uleb128 0x13
 8876 00ce 0B       		.uleb128 0xb
 8877 00cf 0B       		.uleb128 0xb
 8878 00d0 0D       		.uleb128 0xd
 8879 00d1 0B       		.uleb128 0xb
 8880 00d2 0C       		.uleb128 0xc
 8881 00d3 0B       		.uleb128 0xb
 8882 00d4 38       		.uleb128 0x38
 8883 00d5 0A       		.uleb128 0xa
 8884 00d6 00       		.byte	0
 8885 00d7 00       		.byte	0
 8886 00d8 11       		.uleb128 0x11
 8887 00d9 17       		.uleb128 0x17
 8888 00da 01       		.byte	0x1
 8889 00db 03       		.uleb128 0x3
 8890 00dc 0E       		.uleb128 0xe
 8891 00dd 0B       		.uleb128 0xb
 8892 00de 0B       		.uleb128 0xb
 8893 00df 3A       		.uleb128 0x3a
 8894 00e0 0B       		.uleb128 0xb
 8895 00e1 3B       		.uleb128 0x3b
 8896 00e2 05       		.uleb128 0x5
 8897 00e3 01       		.uleb128 0x1
 8898 00e4 13       		.uleb128 0x13
 8899 00e5 00       		.byte	0
 8900 00e6 00       		.byte	0
 8901 00e7 12       		.uleb128 0x12
 8902 00e8 0D       		.uleb128 0xd
 8903 00e9 00       		.byte	0
 8904 00ea 03       		.uleb128 0x3
 8905 00eb 08       		.uleb128 0x8
 8906 00ec 3A       		.uleb128 0x3a
 8907 00ed 0B       		.uleb128 0xb
 8908 00ee 3B       		.uleb128 0x3b
 8909 00ef 05       		.uleb128 0x5
 8910 00f0 49       		.uleb128 0x49
 8911 00f1 13       		.uleb128 0x13
 8912 00f2 00       		.byte	0
 8913 00f3 00       		.byte	0
 8914 00f4 13       		.uleb128 0x13
 8915 00f5 16       		.uleb128 0x16
 8916 00f6 00       		.byte	0
 8917 00f7 03       		.uleb128 0x3
 8918 00f8 0E       		.uleb128 0xe
 8919 00f9 3A       		.uleb128 0x3a
 8920 00fa 0B       		.uleb128 0xb
 8921 00fb 3B       		.uleb128 0x3b
 8922 00fc 05       		.uleb128 0x5
 8923 00fd 49       		.uleb128 0x49
 8924 00fe 13       		.uleb128 0x13
 8925 00ff 00       		.byte	0
 8926 0100 00       		.byte	0
 8927 0101 14       		.uleb128 0x14
 8928 0102 0D       		.uleb128 0xd
 8929 0103 00       		.byte	0
 8930 0104 03       		.uleb128 0x3
 8931 0105 08       		.uleb128 0x8
ARM GAS  /tmp/ccQkqy1T.s 			page 199


 8932 0106 3A       		.uleb128 0x3a
 8933 0107 0B       		.uleb128 0xb
 8934 0108 3B       		.uleb128 0x3b
 8935 0109 05       		.uleb128 0x5
 8936 010a 49       		.uleb128 0x49
 8937 010b 13       		.uleb128 0x13
 8938 010c 0B       		.uleb128 0xb
 8939 010d 0B       		.uleb128 0xb
 8940 010e 0D       		.uleb128 0xd
 8941 010f 0B       		.uleb128 0xb
 8942 0110 0C       		.uleb128 0xc
 8943 0111 0B       		.uleb128 0xb
 8944 0112 38       		.uleb128 0x38
 8945 0113 0A       		.uleb128 0xa
 8946 0114 00       		.byte	0
 8947 0115 00       		.byte	0
 8948 0116 15       		.uleb128 0x15
 8949 0117 0D       		.uleb128 0xd
 8950 0118 00       		.byte	0
 8951 0119 03       		.uleb128 0x3
 8952 011a 0E       		.uleb128 0xe
 8953 011b 3A       		.uleb128 0x3a
 8954 011c 0B       		.uleb128 0xb
 8955 011d 3B       		.uleb128 0x3b
 8956 011e 05       		.uleb128 0x5
 8957 011f 49       		.uleb128 0x49
 8958 0120 13       		.uleb128 0x13
 8959 0121 38       		.uleb128 0x38
 8960 0122 0A       		.uleb128 0xa
 8961 0123 00       		.byte	0
 8962 0124 00       		.byte	0
 8963 0125 16       		.uleb128 0x16
 8964 0126 04       		.uleb128 0x4
 8965 0127 01       		.byte	0x1
 8966 0128 3E       		.uleb128 0x3e
 8967 0129 0B       		.uleb128 0xb
 8968 012a 0B       		.uleb128 0xb
 8969 012b 0B       		.uleb128 0xb
 8970 012c 49       		.uleb128 0x49
 8971 012d 13       		.uleb128 0x13
 8972 012e 3A       		.uleb128 0x3a
 8973 012f 0B       		.uleb128 0xb
 8974 0130 3B       		.uleb128 0x3b
 8975 0131 0B       		.uleb128 0xb
 8976 0132 01       		.uleb128 0x1
 8977 0133 13       		.uleb128 0x13
 8978 0134 00       		.byte	0
 8979 0135 00       		.byte	0
 8980 0136 17       		.uleb128 0x17
 8981 0137 28       		.uleb128 0x28
 8982 0138 00       		.byte	0
 8983 0139 03       		.uleb128 0x3
 8984 013a 0E       		.uleb128 0xe
 8985 013b 1C       		.uleb128 0x1c
 8986 013c 0B       		.uleb128 0xb
 8987 013d 00       		.byte	0
 8988 013e 00       		.byte	0
ARM GAS  /tmp/ccQkqy1T.s 			page 200


 8989 013f 18       		.uleb128 0x18
 8990 0140 04       		.uleb128 0x4
 8991 0141 01       		.byte	0x1
 8992 0142 03       		.uleb128 0x3
 8993 0143 0E       		.uleb128 0xe
 8994 0144 3E       		.uleb128 0x3e
 8995 0145 0B       		.uleb128 0xb
 8996 0146 0B       		.uleb128 0xb
 8997 0147 0B       		.uleb128 0xb
 8998 0148 49       		.uleb128 0x49
 8999 0149 13       		.uleb128 0x13
 9000 014a 3A       		.uleb128 0x3a
 9001 014b 0B       		.uleb128 0xb
 9002 014c 3B       		.uleb128 0x3b
 9003 014d 0B       		.uleb128 0xb
 9004 014e 01       		.uleb128 0x1
 9005 014f 13       		.uleb128 0x13
 9006 0150 00       		.byte	0
 9007 0151 00       		.byte	0
 9008 0152 19       		.uleb128 0x19
 9009 0153 15       		.uleb128 0x15
 9010 0154 01       		.byte	0x1
 9011 0155 27       		.uleb128 0x27
 9012 0156 0C       		.uleb128 0xc
 9013 0157 49       		.uleb128 0x49
 9014 0158 13       		.uleb128 0x13
 9015 0159 01       		.uleb128 0x1
 9016 015a 13       		.uleb128 0x13
 9017 015b 00       		.byte	0
 9018 015c 00       		.byte	0
 9019 015d 1A       		.uleb128 0x1a
 9020 015e 05       		.uleb128 0x5
 9021 015f 00       		.byte	0
 9022 0160 49       		.uleb128 0x49
 9023 0161 13       		.uleb128 0x13
 9024 0162 00       		.byte	0
 9025 0163 00       		.byte	0
 9026 0164 1B       		.uleb128 0x1b
 9027 0165 0F       		.uleb128 0xf
 9028 0166 00       		.byte	0
 9029 0167 0B       		.uleb128 0xb
 9030 0168 0B       		.uleb128 0xb
 9031 0169 00       		.byte	0
 9032 016a 00       		.byte	0
 9033 016b 1C       		.uleb128 0x1c
 9034 016c 15       		.uleb128 0x15
 9035 016d 00       		.byte	0
 9036 016e 27       		.uleb128 0x27
 9037 016f 0C       		.uleb128 0xc
 9038 0170 00       		.byte	0
 9039 0171 00       		.byte	0
 9040 0172 1D       		.uleb128 0x1d
 9041 0173 15       		.uleb128 0x15
 9042 0174 01       		.byte	0x1
 9043 0175 27       		.uleb128 0x27
 9044 0176 0C       		.uleb128 0xc
 9045 0177 01       		.uleb128 0x1
ARM GAS  /tmp/ccQkqy1T.s 			page 201


 9046 0178 13       		.uleb128 0x13
 9047 0179 00       		.byte	0
 9048 017a 00       		.byte	0
 9049 017b 1E       		.uleb128 0x1e
 9050 017c 13       		.uleb128 0x13
 9051 017d 01       		.byte	0x1
 9052 017e 03       		.uleb128 0x3
 9053 017f 0E       		.uleb128 0xe
 9054 0180 0B       		.uleb128 0xb
 9055 0181 05       		.uleb128 0x5
 9056 0182 3A       		.uleb128 0x3a
 9057 0183 0B       		.uleb128 0xb
 9058 0184 3B       		.uleb128 0x3b
 9059 0185 05       		.uleb128 0x5
 9060 0186 01       		.uleb128 0x1
 9061 0187 13       		.uleb128 0x13
 9062 0188 00       		.byte	0
 9063 0189 00       		.byte	0
 9064 018a 1F       		.uleb128 0x1f
 9065 018b 0D       		.uleb128 0xd
 9066 018c 00       		.byte	0
 9067 018d 03       		.uleb128 0x3
 9068 018e 08       		.uleb128 0x8
 9069 018f 3A       		.uleb128 0x3a
 9070 0190 0B       		.uleb128 0xb
 9071 0191 3B       		.uleb128 0x3b
 9072 0192 05       		.uleb128 0x5
 9073 0193 49       		.uleb128 0x49
 9074 0194 13       		.uleb128 0x13
 9075 0195 38       		.uleb128 0x38
 9076 0196 0A       		.uleb128 0xa
 9077 0197 00       		.byte	0
 9078 0198 00       		.byte	0
 9079 0199 20       		.uleb128 0x20
 9080 019a 2E       		.uleb128 0x2e
 9081 019b 01       		.byte	0x1
 9082 019c 3F       		.uleb128 0x3f
 9083 019d 0C       		.uleb128 0xc
 9084 019e 03       		.uleb128 0x3
 9085 019f 0E       		.uleb128 0xe
 9086 01a0 3A       		.uleb128 0x3a
 9087 01a1 0B       		.uleb128 0xb
 9088 01a2 3B       		.uleb128 0x3b
 9089 01a3 05       		.uleb128 0x5
 9090 01a4 27       		.uleb128 0x27
 9091 01a5 0C       		.uleb128 0xc
 9092 01a6 11       		.uleb128 0x11
 9093 01a7 01       		.uleb128 0x1
 9094 01a8 12       		.uleb128 0x12
 9095 01a9 01       		.uleb128 0x1
 9096 01aa 40       		.uleb128 0x40
 9097 01ab 06       		.uleb128 0x6
 9098 01ac 9742     		.uleb128 0x2117
 9099 01ae 0C       		.uleb128 0xc
 9100 01af 01       		.uleb128 0x1
 9101 01b0 13       		.uleb128 0x13
 9102 01b1 00       		.byte	0
ARM GAS  /tmp/ccQkqy1T.s 			page 202


 9103 01b2 00       		.byte	0
 9104 01b3 21       		.uleb128 0x21
 9105 01b4 05       		.uleb128 0x5
 9106 01b5 00       		.byte	0
 9107 01b6 03       		.uleb128 0x3
 9108 01b7 0E       		.uleb128 0xe
 9109 01b8 3A       		.uleb128 0x3a
 9110 01b9 0B       		.uleb128 0xb
 9111 01ba 3B       		.uleb128 0x3b
 9112 01bb 05       		.uleb128 0x5
 9113 01bc 49       		.uleb128 0x49
 9114 01bd 13       		.uleb128 0x13
 9115 01be 02       		.uleb128 0x2
 9116 01bf 06       		.uleb128 0x6
 9117 01c0 00       		.byte	0
 9118 01c1 00       		.byte	0
 9119 01c2 22       		.uleb128 0x22
 9120 01c3 05       		.uleb128 0x5
 9121 01c4 00       		.byte	0
 9122 01c5 03       		.uleb128 0x3
 9123 01c6 08       		.uleb128 0x8
 9124 01c7 3A       		.uleb128 0x3a
 9125 01c8 0B       		.uleb128 0xb
 9126 01c9 3B       		.uleb128 0x3b
 9127 01ca 05       		.uleb128 0x5
 9128 01cb 49       		.uleb128 0x49
 9129 01cc 13       		.uleb128 0x13
 9130 01cd 02       		.uleb128 0x2
 9131 01ce 06       		.uleb128 0x6
 9132 01cf 00       		.byte	0
 9133 01d0 00       		.byte	0
 9134 01d1 23       		.uleb128 0x23
 9135 01d2 34       		.uleb128 0x34
 9136 01d3 00       		.byte	0
 9137 01d4 03       		.uleb128 0x3
 9138 01d5 0E       		.uleb128 0xe
 9139 01d6 3A       		.uleb128 0x3a
 9140 01d7 0B       		.uleb128 0xb
 9141 01d8 3B       		.uleb128 0x3b
 9142 01d9 05       		.uleb128 0x5
 9143 01da 49       		.uleb128 0x49
 9144 01db 13       		.uleb128 0x13
 9145 01dc 02       		.uleb128 0x2
 9146 01dd 06       		.uleb128 0x6
 9147 01de 00       		.byte	0
 9148 01df 00       		.byte	0
 9149 01e0 24       		.uleb128 0x24
 9150 01e1 898201   		.uleb128 0x4109
 9151 01e4 01       		.byte	0x1
 9152 01e5 11       		.uleb128 0x11
 9153 01e6 01       		.uleb128 0x1
 9154 01e7 9542     		.uleb128 0x2115
 9155 01e9 0C       		.uleb128 0xc
 9156 01ea 31       		.uleb128 0x31
 9157 01eb 13       		.uleb128 0x13
 9158 01ec 01       		.uleb128 0x1
 9159 01ed 13       		.uleb128 0x13
ARM GAS  /tmp/ccQkqy1T.s 			page 203


 9160 01ee 00       		.byte	0
 9161 01ef 00       		.byte	0
 9162 01f0 25       		.uleb128 0x25
 9163 01f1 8A8201   		.uleb128 0x410a
 9164 01f4 00       		.byte	0
 9165 01f5 02       		.uleb128 0x2
 9166 01f6 0A       		.uleb128 0xa
 9167 01f7 9142     		.uleb128 0x2111
 9168 01f9 0A       		.uleb128 0xa
 9169 01fa 00       		.byte	0
 9170 01fb 00       		.byte	0
 9171 01fc 26       		.uleb128 0x26
 9172 01fd 898201   		.uleb128 0x4109
 9173 0200 01       		.byte	0x1
 9174 0201 11       		.uleb128 0x11
 9175 0202 01       		.uleb128 0x1
 9176 0203 9542     		.uleb128 0x2115
 9177 0205 0C       		.uleb128 0xc
 9178 0206 31       		.uleb128 0x31
 9179 0207 13       		.uleb128 0x13
 9180 0208 00       		.byte	0
 9181 0209 00       		.byte	0
 9182 020a 27       		.uleb128 0x27
 9183 020b 2E       		.uleb128 0x2e
 9184 020c 01       		.byte	0x1
 9185 020d 3F       		.uleb128 0x3f
 9186 020e 0C       		.uleb128 0xc
 9187 020f 03       		.uleb128 0x3
 9188 0210 0E       		.uleb128 0xe
 9189 0211 3A       		.uleb128 0x3a
 9190 0212 0B       		.uleb128 0xb
 9191 0213 3B       		.uleb128 0x3b
 9192 0214 05       		.uleb128 0x5
 9193 0215 27       		.uleb128 0x27
 9194 0216 0C       		.uleb128 0xc
 9195 0217 49       		.uleb128 0x49
 9196 0218 13       		.uleb128 0x13
 9197 0219 11       		.uleb128 0x11
 9198 021a 01       		.uleb128 0x1
 9199 021b 12       		.uleb128 0x12
 9200 021c 01       		.uleb128 0x1
 9201 021d 40       		.uleb128 0x40
 9202 021e 0A       		.uleb128 0xa
 9203 021f 9742     		.uleb128 0x2117
 9204 0221 0C       		.uleb128 0xc
 9205 0222 01       		.uleb128 0x1
 9206 0223 13       		.uleb128 0x13
 9207 0224 00       		.byte	0
 9208 0225 00       		.byte	0
 9209 0226 28       		.uleb128 0x28
 9210 0227 34       		.uleb128 0x34
 9211 0228 00       		.byte	0
 9212 0229 03       		.uleb128 0x3
 9213 022a 0E       		.uleb128 0xe
 9214 022b 3A       		.uleb128 0x3a
 9215 022c 0B       		.uleb128 0xb
 9216 022d 3B       		.uleb128 0x3b
ARM GAS  /tmp/ccQkqy1T.s 			page 204


 9217 022e 05       		.uleb128 0x5
 9218 022f 49       		.uleb128 0x49
 9219 0230 13       		.uleb128 0x13
 9220 0231 1C       		.uleb128 0x1c
 9221 0232 0B       		.uleb128 0xb
 9222 0233 00       		.byte	0
 9223 0234 00       		.byte	0
 9224 0235 29       		.uleb128 0x29
 9225 0236 34       		.uleb128 0x34
 9226 0237 00       		.byte	0
 9227 0238 03       		.uleb128 0x3
 9228 0239 08       		.uleb128 0x8
 9229 023a 3A       		.uleb128 0x3a
 9230 023b 0B       		.uleb128 0xb
 9231 023c 3B       		.uleb128 0x3b
 9232 023d 05       		.uleb128 0x5
 9233 023e 49       		.uleb128 0x49
 9234 023f 13       		.uleb128 0x13
 9235 0240 02       		.uleb128 0x2
 9236 0241 06       		.uleb128 0x6
 9237 0242 00       		.byte	0
 9238 0243 00       		.byte	0
 9239 0244 2A       		.uleb128 0x2a
 9240 0245 898201   		.uleb128 0x4109
 9241 0248 01       		.byte	0x1
 9242 0249 11       		.uleb128 0x11
 9243 024a 01       		.uleb128 0x1
 9244 024b 31       		.uleb128 0x31
 9245 024c 13       		.uleb128 0x13
 9246 024d 01       		.uleb128 0x1
 9247 024e 13       		.uleb128 0x13
 9248 024f 00       		.byte	0
 9249 0250 00       		.byte	0
 9250 0251 2B       		.uleb128 0x2b
 9251 0252 2E       		.uleb128 0x2e
 9252 0253 01       		.byte	0x1
 9253 0254 3F       		.uleb128 0x3f
 9254 0255 0C       		.uleb128 0xc
 9255 0256 03       		.uleb128 0x3
 9256 0257 0E       		.uleb128 0xe
 9257 0258 3A       		.uleb128 0x3a
 9258 0259 0B       		.uleb128 0xb
 9259 025a 3B       		.uleb128 0x3b
 9260 025b 05       		.uleb128 0x5
 9261 025c 27       		.uleb128 0x27
 9262 025d 0C       		.uleb128 0xc
 9263 025e 11       		.uleb128 0x11
 9264 025f 01       		.uleb128 0x1
 9265 0260 12       		.uleb128 0x12
 9266 0261 01       		.uleb128 0x1
 9267 0262 40       		.uleb128 0x40
 9268 0263 0A       		.uleb128 0xa
 9269 0264 9742     		.uleb128 0x2117
 9270 0266 0C       		.uleb128 0xc
 9271 0267 01       		.uleb128 0x1
 9272 0268 13       		.uleb128 0x13
 9273 0269 00       		.byte	0
ARM GAS  /tmp/ccQkqy1T.s 			page 205


 9274 026a 00       		.byte	0
 9275 026b 2C       		.uleb128 0x2c
 9276 026c 05       		.uleb128 0x5
 9277 026d 00       		.byte	0
 9278 026e 03       		.uleb128 0x3
 9279 026f 0E       		.uleb128 0xe
 9280 0270 3A       		.uleb128 0x3a
 9281 0271 0B       		.uleb128 0xb
 9282 0272 3B       		.uleb128 0x3b
 9283 0273 05       		.uleb128 0x5
 9284 0274 49       		.uleb128 0x49
 9285 0275 13       		.uleb128 0x13
 9286 0276 02       		.uleb128 0x2
 9287 0277 0A       		.uleb128 0xa
 9288 0278 00       		.byte	0
 9289 0279 00       		.byte	0
 9290 027a 2D       		.uleb128 0x2d
 9291 027b 0B       		.uleb128 0xb
 9292 027c 01       		.byte	0x1
 9293 027d 11       		.uleb128 0x11
 9294 027e 01       		.uleb128 0x1
 9295 027f 12       		.uleb128 0x12
 9296 0280 01       		.uleb128 0x1
 9297 0281 00       		.byte	0
 9298 0282 00       		.byte	0
 9299 0283 2E       		.uleb128 0x2e
 9300 0284 34       		.uleb128 0x34
 9301 0285 00       		.byte	0
 9302 0286 03       		.uleb128 0x3
 9303 0287 0E       		.uleb128 0xe
 9304 0288 3A       		.uleb128 0x3a
 9305 0289 0B       		.uleb128 0xb
 9306 028a 3B       		.uleb128 0x3b
 9307 028b 05       		.uleb128 0x5
 9308 028c 49       		.uleb128 0x49
 9309 028d 13       		.uleb128 0x13
 9310 028e 02       		.uleb128 0x2
 9311 028f 0A       		.uleb128 0xa
 9312 0290 00       		.byte	0
 9313 0291 00       		.byte	0
 9314 0292 2F       		.uleb128 0x2f
 9315 0293 34       		.uleb128 0x34
 9316 0294 00       		.byte	0
 9317 0295 03       		.uleb128 0x3
 9318 0296 0E       		.uleb128 0xe
 9319 0297 3A       		.uleb128 0x3a
 9320 0298 0B       		.uleb128 0xb
 9321 0299 3B       		.uleb128 0x3b
 9322 029a 05       		.uleb128 0x5
 9323 029b 49       		.uleb128 0x49
 9324 029c 13       		.uleb128 0x13
 9325 029d 00       		.byte	0
 9326 029e 00       		.byte	0
 9327 029f 30       		.uleb128 0x30
 9328 02a0 898201   		.uleb128 0x4109
 9329 02a3 01       		.byte	0x1
 9330 02a4 11       		.uleb128 0x11
ARM GAS  /tmp/ccQkqy1T.s 			page 206


 9331 02a5 01       		.uleb128 0x1
 9332 02a6 31       		.uleb128 0x31
 9333 02a7 13       		.uleb128 0x13
 9334 02a8 00       		.byte	0
 9335 02a9 00       		.byte	0
 9336 02aa 31       		.uleb128 0x31
 9337 02ab 2E       		.uleb128 0x2e
 9338 02ac 01       		.byte	0x1
 9339 02ad 3F       		.uleb128 0x3f
 9340 02ae 0C       		.uleb128 0xc
 9341 02af 03       		.uleb128 0x3
 9342 02b0 0E       		.uleb128 0xe
 9343 02b1 3A       		.uleb128 0x3a
 9344 02b2 0B       		.uleb128 0xb
 9345 02b3 3B       		.uleb128 0x3b
 9346 02b4 05       		.uleb128 0x5
 9347 02b5 27       		.uleb128 0x27
 9348 02b6 0C       		.uleb128 0xc
 9349 02b7 49       		.uleb128 0x49
 9350 02b8 13       		.uleb128 0x13
 9351 02b9 20       		.uleb128 0x20
 9352 02ba 0B       		.uleb128 0xb
 9353 02bb 01       		.uleb128 0x1
 9354 02bc 13       		.uleb128 0x13
 9355 02bd 00       		.byte	0
 9356 02be 00       		.byte	0
 9357 02bf 32       		.uleb128 0x32
 9358 02c0 05       		.uleb128 0x5
 9359 02c1 00       		.byte	0
 9360 02c2 03       		.uleb128 0x3
 9361 02c3 0E       		.uleb128 0xe
 9362 02c4 3A       		.uleb128 0x3a
 9363 02c5 0B       		.uleb128 0xb
 9364 02c6 3B       		.uleb128 0x3b
 9365 02c7 05       		.uleb128 0x5
 9366 02c8 49       		.uleb128 0x49
 9367 02c9 13       		.uleb128 0x13
 9368 02ca 00       		.byte	0
 9369 02cb 00       		.byte	0
 9370 02cc 33       		.uleb128 0x33
 9371 02cd 05       		.uleb128 0x5
 9372 02ce 00       		.byte	0
 9373 02cf 03       		.uleb128 0x3
 9374 02d0 08       		.uleb128 0x8
 9375 02d1 3A       		.uleb128 0x3a
 9376 02d2 0B       		.uleb128 0xb
 9377 02d3 3B       		.uleb128 0x3b
 9378 02d4 05       		.uleb128 0x5
 9379 02d5 49       		.uleb128 0x49
 9380 02d6 13       		.uleb128 0x13
 9381 02d7 00       		.byte	0
 9382 02d8 00       		.byte	0
 9383 02d9 34       		.uleb128 0x34
 9384 02da 2E       		.uleb128 0x2e
 9385 02db 01       		.byte	0x1
 9386 02dc 3F       		.uleb128 0x3f
 9387 02dd 0C       		.uleb128 0xc
ARM GAS  /tmp/ccQkqy1T.s 			page 207


 9388 02de 03       		.uleb128 0x3
 9389 02df 0E       		.uleb128 0xe
 9390 02e0 3A       		.uleb128 0x3a
 9391 02e1 0B       		.uleb128 0xb
 9392 02e2 3B       		.uleb128 0x3b
 9393 02e3 05       		.uleb128 0x5
 9394 02e4 27       		.uleb128 0x27
 9395 02e5 0C       		.uleb128 0xc
 9396 02e6 49       		.uleb128 0x49
 9397 02e7 13       		.uleb128 0x13
 9398 02e8 11       		.uleb128 0x11
 9399 02e9 01       		.uleb128 0x1
 9400 02ea 12       		.uleb128 0x12
 9401 02eb 01       		.uleb128 0x1
 9402 02ec 40       		.uleb128 0x40
 9403 02ed 06       		.uleb128 0x6
 9404 02ee 9742     		.uleb128 0x2117
 9405 02f0 0C       		.uleb128 0xc
 9406 02f1 01       		.uleb128 0x1
 9407 02f2 13       		.uleb128 0x13
 9408 02f3 00       		.byte	0
 9409 02f4 00       		.byte	0
 9410 02f5 35       		.uleb128 0x35
 9411 02f6 05       		.uleb128 0x5
 9412 02f7 00       		.byte	0
 9413 02f8 03       		.uleb128 0x3
 9414 02f9 08       		.uleb128 0x8
 9415 02fa 3A       		.uleb128 0x3a
 9416 02fb 0B       		.uleb128 0xb
 9417 02fc 3B       		.uleb128 0x3b
 9418 02fd 05       		.uleb128 0x5
 9419 02fe 49       		.uleb128 0x49
 9420 02ff 13       		.uleb128 0x13
 9421 0300 02       		.uleb128 0x2
 9422 0301 0A       		.uleb128 0xa
 9423 0302 00       		.byte	0
 9424 0303 00       		.byte	0
 9425 0304 36       		.uleb128 0x36
 9426 0305 1D       		.uleb128 0x1d
 9427 0306 01       		.byte	0x1
 9428 0307 31       		.uleb128 0x31
 9429 0308 13       		.uleb128 0x13
 9430 0309 52       		.uleb128 0x52
 9431 030a 01       		.uleb128 0x1
 9432 030b 55       		.uleb128 0x55
 9433 030c 06       		.uleb128 0x6
 9434 030d 58       		.uleb128 0x58
 9435 030e 0B       		.uleb128 0xb
 9436 030f 59       		.uleb128 0x59
 9437 0310 05       		.uleb128 0x5
 9438 0311 00       		.byte	0
 9439 0312 00       		.byte	0
 9440 0313 37       		.uleb128 0x37
 9441 0314 05       		.uleb128 0x5
 9442 0315 00       		.byte	0
 9443 0316 31       		.uleb128 0x31
 9444 0317 13       		.uleb128 0x13
ARM GAS  /tmp/ccQkqy1T.s 			page 208


 9445 0318 02       		.uleb128 0x2
 9446 0319 06       		.uleb128 0x6
 9447 031a 00       		.byte	0
 9448 031b 00       		.byte	0
 9449 031c 38       		.uleb128 0x38
 9450 031d 0B       		.uleb128 0xb
 9451 031e 01       		.byte	0x1
 9452 031f 55       		.uleb128 0x55
 9453 0320 06       		.uleb128 0x6
 9454 0321 00       		.byte	0
 9455 0322 00       		.byte	0
 9456 0323 39       		.uleb128 0x39
 9457 0324 34       		.uleb128 0x34
 9458 0325 00       		.byte	0
 9459 0326 31       		.uleb128 0x31
 9460 0327 13       		.uleb128 0x13
 9461 0328 02       		.uleb128 0x2
 9462 0329 06       		.uleb128 0x6
 9463 032a 00       		.byte	0
 9464 032b 00       		.byte	0
 9465 032c 3A       		.uleb128 0x3a
 9466 032d 34       		.uleb128 0x34
 9467 032e 00       		.byte	0
 9468 032f 03       		.uleb128 0x3
 9469 0330 08       		.uleb128 0x8
 9470 0331 3A       		.uleb128 0x3a
 9471 0332 0B       		.uleb128 0xb
 9472 0333 3B       		.uleb128 0x3b
 9473 0334 05       		.uleb128 0x5
 9474 0335 49       		.uleb128 0x49
 9475 0336 13       		.uleb128 0x13
 9476 0337 00       		.byte	0
 9477 0338 00       		.byte	0
 9478 0339 3B       		.uleb128 0x3b
 9479 033a 0B       		.uleb128 0xb
 9480 033b 01       		.byte	0x1
 9481 033c 55       		.uleb128 0x55
 9482 033d 06       		.uleb128 0x6
 9483 033e 01       		.uleb128 0x1
 9484 033f 13       		.uleb128 0x13
 9485 0340 00       		.byte	0
 9486 0341 00       		.byte	0
 9487 0342 3C       		.uleb128 0x3c
 9488 0343 1D       		.uleb128 0x1d
 9489 0344 01       		.byte	0x1
 9490 0345 31       		.uleb128 0x31
 9491 0346 13       		.uleb128 0x13
 9492 0347 11       		.uleb128 0x11
 9493 0348 01       		.uleb128 0x1
 9494 0349 12       		.uleb128 0x12
 9495 034a 01       		.uleb128 0x1
 9496 034b 58       		.uleb128 0x58
 9497 034c 0B       		.uleb128 0xb
 9498 034d 59       		.uleb128 0x59
 9499 034e 05       		.uleb128 0x5
 9500 034f 00       		.byte	0
 9501 0350 00       		.byte	0
ARM GAS  /tmp/ccQkqy1T.s 			page 209


 9502 0351 3D       		.uleb128 0x3d
 9503 0352 8A8201   		.uleb128 0x410a
 9504 0355 00       		.byte	0
 9505 0356 31       		.uleb128 0x31
 9506 0357 13       		.uleb128 0x13
 9507 0358 9142     		.uleb128 0x2111
 9508 035a 0A       		.uleb128 0xa
 9509 035b 00       		.byte	0
 9510 035c 00       		.byte	0
 9511 035d 3E       		.uleb128 0x3e
 9512 035e 2E       		.uleb128 0x2e
 9513 035f 01       		.byte	0x1
 9514 0360 3F       		.uleb128 0x3f
 9515 0361 0C       		.uleb128 0xc
 9516 0362 03       		.uleb128 0x3
 9517 0363 0E       		.uleb128 0xe
 9518 0364 3A       		.uleb128 0x3a
 9519 0365 0B       		.uleb128 0xb
 9520 0366 3B       		.uleb128 0x3b
 9521 0367 0B       		.uleb128 0xb
 9522 0368 27       		.uleb128 0x27
 9523 0369 0C       		.uleb128 0xc
 9524 036a 49       		.uleb128 0x49
 9525 036b 13       		.uleb128 0x13
 9526 036c 11       		.uleb128 0x11
 9527 036d 01       		.uleb128 0x1
 9528 036e 12       		.uleb128 0x12
 9529 036f 01       		.uleb128 0x1
 9530 0370 40       		.uleb128 0x40
 9531 0371 06       		.uleb128 0x6
 9532 0372 9742     		.uleb128 0x2117
 9533 0374 0C       		.uleb128 0xc
 9534 0375 01       		.uleb128 0x1
 9535 0376 13       		.uleb128 0x13
 9536 0377 00       		.byte	0
 9537 0378 00       		.byte	0
 9538 0379 3F       		.uleb128 0x3f
 9539 037a 05       		.uleb128 0x5
 9540 037b 00       		.byte	0
 9541 037c 03       		.uleb128 0x3
 9542 037d 0E       		.uleb128 0xe
 9543 037e 3A       		.uleb128 0x3a
 9544 037f 0B       		.uleb128 0xb
 9545 0380 3B       		.uleb128 0x3b
 9546 0381 0B       		.uleb128 0xb
 9547 0382 49       		.uleb128 0x49
 9548 0383 13       		.uleb128 0x13
 9549 0384 02       		.uleb128 0x2
 9550 0385 06       		.uleb128 0x6
 9551 0386 00       		.byte	0
 9552 0387 00       		.byte	0
 9553 0388 40       		.uleb128 0x40
 9554 0389 34       		.uleb128 0x34
 9555 038a 00       		.byte	0
 9556 038b 03       		.uleb128 0x3
 9557 038c 08       		.uleb128 0x8
 9558 038d 3A       		.uleb128 0x3a
ARM GAS  /tmp/ccQkqy1T.s 			page 210


 9559 038e 0B       		.uleb128 0xb
 9560 038f 3B       		.uleb128 0x3b
 9561 0390 0B       		.uleb128 0xb
 9562 0391 49       		.uleb128 0x49
 9563 0392 13       		.uleb128 0x13
 9564 0393 02       		.uleb128 0x2
 9565 0394 06       		.uleb128 0x6
 9566 0395 00       		.byte	0
 9567 0396 00       		.byte	0
 9568 0397 41       		.uleb128 0x41
 9569 0398 34       		.uleb128 0x34
 9570 0399 00       		.byte	0
 9571 039a 03       		.uleb128 0x3
 9572 039b 0E       		.uleb128 0xe
 9573 039c 3A       		.uleb128 0x3a
 9574 039d 0B       		.uleb128 0xb
 9575 039e 3B       		.uleb128 0x3b
 9576 039f 0B       		.uleb128 0xb
 9577 03a0 49       		.uleb128 0x49
 9578 03a1 13       		.uleb128 0x13
 9579 03a2 02       		.uleb128 0x2
 9580 03a3 06       		.uleb128 0x6
 9581 03a4 00       		.byte	0
 9582 03a5 00       		.byte	0
 9583 03a6 42       		.uleb128 0x42
 9584 03a7 34       		.uleb128 0x34
 9585 03a8 00       		.byte	0
 9586 03a9 03       		.uleb128 0x3
 9587 03aa 0E       		.uleb128 0xe
 9588 03ab 3A       		.uleb128 0x3a
 9589 03ac 0B       		.uleb128 0xb
 9590 03ad 3B       		.uleb128 0x3b
 9591 03ae 0B       		.uleb128 0xb
 9592 03af 49       		.uleb128 0x49
 9593 03b0 13       		.uleb128 0x13
 9594 03b1 1C       		.uleb128 0x1c
 9595 03b2 0B       		.uleb128 0xb
 9596 03b3 00       		.byte	0
 9597 03b4 00       		.byte	0
 9598 03b5 43       		.uleb128 0x43
 9599 03b6 05       		.uleb128 0x5
 9600 03b7 00       		.byte	0
 9601 03b8 03       		.uleb128 0x3
 9602 03b9 08       		.uleb128 0x8
 9603 03ba 3A       		.uleb128 0x3a
 9604 03bb 0B       		.uleb128 0xb
 9605 03bc 3B       		.uleb128 0x3b
 9606 03bd 0B       		.uleb128 0xb
 9607 03be 49       		.uleb128 0x49
 9608 03bf 13       		.uleb128 0x13
 9609 03c0 02       		.uleb128 0x2
 9610 03c1 06       		.uleb128 0x6
 9611 03c2 00       		.byte	0
 9612 03c3 00       		.byte	0
 9613 03c4 44       		.uleb128 0x44
 9614 03c5 34       		.uleb128 0x34
 9615 03c6 00       		.byte	0
ARM GAS  /tmp/ccQkqy1T.s 			page 211


 9616 03c7 03       		.uleb128 0x3
 9617 03c8 0E       		.uleb128 0xe
 9618 03c9 3A       		.uleb128 0x3a
 9619 03ca 0B       		.uleb128 0xb
 9620 03cb 3B       		.uleb128 0x3b
 9621 03cc 0B       		.uleb128 0xb
 9622 03cd 49       		.uleb128 0x49
 9623 03ce 13       		.uleb128 0x13
 9624 03cf 02       		.uleb128 0x2
 9625 03d0 0A       		.uleb128 0xa
 9626 03d1 00       		.byte	0
 9627 03d2 00       		.byte	0
 9628 03d3 45       		.uleb128 0x45
 9629 03d4 2E       		.uleb128 0x2e
 9630 03d5 01       		.byte	0x1
 9631 03d6 3F       		.uleb128 0x3f
 9632 03d7 0C       		.uleb128 0xc
 9633 03d8 03       		.uleb128 0x3
 9634 03d9 0E       		.uleb128 0xe
 9635 03da 3A       		.uleb128 0x3a
 9636 03db 0B       		.uleb128 0xb
 9637 03dc 3B       		.uleb128 0x3b
 9638 03dd 0B       		.uleb128 0xb
 9639 03de 27       		.uleb128 0x27
 9640 03df 0C       		.uleb128 0xc
 9641 03e0 49       		.uleb128 0x49
 9642 03e1 13       		.uleb128 0x13
 9643 03e2 20       		.uleb128 0x20
 9644 03e3 0B       		.uleb128 0xb
 9645 03e4 01       		.uleb128 0x1
 9646 03e5 13       		.uleb128 0x13
 9647 03e6 00       		.byte	0
 9648 03e7 00       		.byte	0
 9649 03e8 46       		.uleb128 0x46
 9650 03e9 05       		.uleb128 0x5
 9651 03ea 00       		.byte	0
 9652 03eb 03       		.uleb128 0x3
 9653 03ec 0E       		.uleb128 0xe
 9654 03ed 3A       		.uleb128 0x3a
 9655 03ee 0B       		.uleb128 0xb
 9656 03ef 3B       		.uleb128 0x3b
 9657 03f0 0B       		.uleb128 0xb
 9658 03f1 49       		.uleb128 0x49
 9659 03f2 13       		.uleb128 0x13
 9660 03f3 00       		.byte	0
 9661 03f4 00       		.byte	0
 9662 03f5 47       		.uleb128 0x47
 9663 03f6 05       		.uleb128 0x5
 9664 03f7 00       		.byte	0
 9665 03f8 03       		.uleb128 0x3
 9666 03f9 08       		.uleb128 0x8
 9667 03fa 3A       		.uleb128 0x3a
 9668 03fb 0B       		.uleb128 0xb
 9669 03fc 3B       		.uleb128 0x3b
 9670 03fd 0B       		.uleb128 0xb
 9671 03fe 49       		.uleb128 0x49
 9672 03ff 13       		.uleb128 0x13
ARM GAS  /tmp/ccQkqy1T.s 			page 212


 9673 0400 00       		.byte	0
 9674 0401 00       		.byte	0
 9675 0402 48       		.uleb128 0x48
 9676 0403 34       		.uleb128 0x34
 9677 0404 00       		.byte	0
 9678 0405 03       		.uleb128 0x3
 9679 0406 0E       		.uleb128 0xe
 9680 0407 3A       		.uleb128 0x3a
 9681 0408 0B       		.uleb128 0xb
 9682 0409 3B       		.uleb128 0x3b
 9683 040a 0B       		.uleb128 0xb
 9684 040b 49       		.uleb128 0x49
 9685 040c 13       		.uleb128 0x13
 9686 040d 00       		.byte	0
 9687 040e 00       		.byte	0
 9688 040f 49       		.uleb128 0x49
 9689 0410 0B       		.uleb128 0xb
 9690 0411 01       		.byte	0x1
 9691 0412 00       		.byte	0
 9692 0413 00       		.byte	0
 9693 0414 4A       		.uleb128 0x4a
 9694 0415 34       		.uleb128 0x34
 9695 0416 00       		.byte	0
 9696 0417 03       		.uleb128 0x3
 9697 0418 08       		.uleb128 0x8
 9698 0419 3A       		.uleb128 0x3a
 9699 041a 0B       		.uleb128 0xb
 9700 041b 3B       		.uleb128 0x3b
 9701 041c 0B       		.uleb128 0xb
 9702 041d 49       		.uleb128 0x49
 9703 041e 13       		.uleb128 0x13
 9704 041f 00       		.byte	0
 9705 0420 00       		.byte	0
 9706 0421 4B       		.uleb128 0x4b
 9707 0422 2E       		.uleb128 0x2e
 9708 0423 01       		.byte	0x1
 9709 0424 03       		.uleb128 0x3
 9710 0425 0E       		.uleb128 0xe
 9711 0426 3A       		.uleb128 0x3a
 9712 0427 0B       		.uleb128 0xb
 9713 0428 3B       		.uleb128 0x3b
 9714 0429 0B       		.uleb128 0xb
 9715 042a 27       		.uleb128 0x27
 9716 042b 0C       		.uleb128 0xc
 9717 042c 49       		.uleb128 0x49
 9718 042d 13       		.uleb128 0x13
 9719 042e 20       		.uleb128 0x20
 9720 042f 0B       		.uleb128 0xb
 9721 0430 01       		.uleb128 0x1
 9722 0431 13       		.uleb128 0x13
 9723 0432 00       		.byte	0
 9724 0433 00       		.byte	0
 9725 0434 4C       		.uleb128 0x4c
 9726 0435 2E       		.uleb128 0x2e
 9727 0436 01       		.byte	0x1
 9728 0437 03       		.uleb128 0x3
 9729 0438 0E       		.uleb128 0xe
ARM GAS  /tmp/ccQkqy1T.s 			page 213


 9730 0439 3A       		.uleb128 0x3a
 9731 043a 0B       		.uleb128 0xb
 9732 043b 3B       		.uleb128 0x3b
 9733 043c 0B       		.uleb128 0xb
 9734 043d 27       		.uleb128 0x27
 9735 043e 0C       		.uleb128 0xc
 9736 043f 20       		.uleb128 0x20
 9737 0440 0B       		.uleb128 0xb
 9738 0441 01       		.uleb128 0x1
 9739 0442 13       		.uleb128 0x13
 9740 0443 00       		.byte	0
 9741 0444 00       		.byte	0
 9742 0445 4D       		.uleb128 0x4d
 9743 0446 2E       		.uleb128 0x2e
 9744 0447 01       		.byte	0x1
 9745 0448 31       		.uleb128 0x31
 9746 0449 13       		.uleb128 0x13
 9747 044a 11       		.uleb128 0x11
 9748 044b 01       		.uleb128 0x1
 9749 044c 12       		.uleb128 0x12
 9750 044d 01       		.uleb128 0x1
 9751 044e 40       		.uleb128 0x40
 9752 044f 06       		.uleb128 0x6
 9753 0450 9742     		.uleb128 0x2117
 9754 0452 0C       		.uleb128 0xc
 9755 0453 01       		.uleb128 0x1
 9756 0454 13       		.uleb128 0x13
 9757 0455 00       		.byte	0
 9758 0456 00       		.byte	0
 9759 0457 4E       		.uleb128 0x4e
 9760 0458 05       		.uleb128 0x5
 9761 0459 00       		.byte	0
 9762 045a 31       		.uleb128 0x31
 9763 045b 13       		.uleb128 0x13
 9764 045c 00       		.byte	0
 9765 045d 00       		.byte	0
 9766 045e 4F       		.uleb128 0x4f
 9767 045f 34       		.uleb128 0x34
 9768 0460 00       		.byte	0
 9769 0461 31       		.uleb128 0x31
 9770 0462 13       		.uleb128 0x13
 9771 0463 1C       		.uleb128 0x1c
 9772 0464 0B       		.uleb128 0xb
 9773 0465 00       		.byte	0
 9774 0466 00       		.byte	0
 9775 0467 50       		.uleb128 0x50
 9776 0468 34       		.uleb128 0x34
 9777 0469 00       		.byte	0
 9778 046a 31       		.uleb128 0x31
 9779 046b 13       		.uleb128 0x13
 9780 046c 02       		.uleb128 0x2
 9781 046d 0A       		.uleb128 0xa
 9782 046e 00       		.byte	0
 9783 046f 00       		.byte	0
 9784 0470 51       		.uleb128 0x51
 9785 0471 05       		.uleb128 0x5
 9786 0472 00       		.byte	0
ARM GAS  /tmp/ccQkqy1T.s 			page 214


 9787 0473 31       		.uleb128 0x31
 9788 0474 13       		.uleb128 0x13
 9789 0475 02       		.uleb128 0x2
 9790 0476 0A       		.uleb128 0xa
 9791 0477 00       		.byte	0
 9792 0478 00       		.byte	0
 9793 0479 52       		.uleb128 0x52
 9794 047a 0B       		.uleb128 0xb
 9795 047b 01       		.byte	0x1
 9796 047c 31       		.uleb128 0x31
 9797 047d 13       		.uleb128 0x13
 9798 047e 55       		.uleb128 0x55
 9799 047f 06       		.uleb128 0x6
 9800 0480 00       		.byte	0
 9801 0481 00       		.byte	0
 9802 0482 53       		.uleb128 0x53
 9803 0483 34       		.uleb128 0x34
 9804 0484 00       		.byte	0
 9805 0485 31       		.uleb128 0x31
 9806 0486 13       		.uleb128 0x13
 9807 0487 00       		.byte	0
 9808 0488 00       		.byte	0
 9809 0489 54       		.uleb128 0x54
 9810 048a 2E       		.uleb128 0x2e
 9811 048b 01       		.byte	0x1
 9812 048c 31       		.uleb128 0x31
 9813 048d 13       		.uleb128 0x13
 9814 048e 11       		.uleb128 0x11
 9815 048f 01       		.uleb128 0x1
 9816 0490 12       		.uleb128 0x12
 9817 0491 01       		.uleb128 0x1
 9818 0492 40       		.uleb128 0x40
 9819 0493 0A       		.uleb128 0xa
 9820 0494 9742     		.uleb128 0x2117
 9821 0496 0C       		.uleb128 0xc
 9822 0497 01       		.uleb128 0x1
 9823 0498 13       		.uleb128 0x13
 9824 0499 00       		.byte	0
 9825 049a 00       		.byte	0
 9826 049b 55       		.uleb128 0x55
 9827 049c 2E       		.uleb128 0x2e
 9828 049d 00       		.byte	0
 9829 049e 3F       		.uleb128 0x3f
 9830 049f 0C       		.uleb128 0xc
 9831 04a0 3C       		.uleb128 0x3c
 9832 04a1 0C       		.uleb128 0xc
 9833 04a2 8740     		.uleb128 0x2007
 9834 04a4 0E       		.uleb128 0xe
 9835 04a5 03       		.uleb128 0x3
 9836 04a6 0E       		.uleb128 0xe
 9837 04a7 3A       		.uleb128 0x3a
 9838 04a8 0B       		.uleb128 0xb
 9839 04a9 3B       		.uleb128 0x3b
 9840 04aa 0B       		.uleb128 0xb
 9841 04ab 00       		.byte	0
 9842 04ac 00       		.byte	0
 9843 04ad 00       		.byte	0
ARM GAS  /tmp/ccQkqy1T.s 			page 215


 9844              		.section	.debug_loc,"",%progbits
 9845              	.Ldebug_loc0:
 9846              	.LLST115:
 9847 0000 1C080000 		.4byte	.LFB145-.Ltext0
 9848 0004 1E080000 		.4byte	.LCFI25-.Ltext0
 9849 0008 0200     		.2byte	0x2
 9850 000a 7D       		.byte	0x7d
 9851 000b 00       		.sleb128 0
 9852 000c 1E080000 		.4byte	.LCFI25-.Ltext0
 9853 0010 38080000 		.4byte	.LCFI26-.Ltext0
 9854 0014 0200     		.2byte	0x2
 9855 0016 7D       		.byte	0x7d
 9856 0017 0C       		.sleb128 12
 9857 0018 38080000 		.4byte	.LCFI26-.Ltext0
 9858 001c 3C080000 		.4byte	.LCFI27-.Ltext0
 9859 0020 0200     		.2byte	0x2
 9860 0022 7D       		.byte	0x7d
 9861 0023 00       		.sleb128 0
 9862 0024 3C080000 		.4byte	.LCFI27-.Ltext0
 9863 0028 58080000 		.4byte	.LCFI28-.Ltext0
 9864 002c 0200     		.2byte	0x2
 9865 002e 7D       		.byte	0x7d
 9866 002f 0C       		.sleb128 12
 9867 0030 58080000 		.4byte	.LCFI28-.Ltext0
 9868 0034 5C080000 		.4byte	.LCFI29-.Ltext0
 9869 0038 0200     		.2byte	0x2
 9870 003a 7D       		.byte	0x7d
 9871 003b 00       		.sleb128 0
 9872 003c 5C080000 		.4byte	.LCFI29-.Ltext0
 9873 0040 6E080000 		.4byte	.LCFI30-.Ltext0
 9874 0044 0200     		.2byte	0x2
 9875 0046 7D       		.byte	0x7d
 9876 0047 0C       		.sleb128 12
 9877 0048 6E080000 		.4byte	.LCFI30-.Ltext0
 9878 004c 70080000 		.4byte	.LCFI31-.Ltext0
 9879 0050 0200     		.2byte	0x2
 9880 0052 7D       		.byte	0x7d
 9881 0053 00       		.sleb128 0
 9882 0054 70080000 		.4byte	.LCFI31-.Ltext0
 9883 0058 90080000 		.4byte	.LFE145-.Ltext0
 9884 005c 0200     		.2byte	0x2
 9885 005e 7D       		.byte	0x7d
 9886 005f 0C       		.sleb128 12
 9887 0060 00000000 		.4byte	0
 9888 0064 00000000 		.4byte	0
 9889              	.LLST116:
 9890 0068 1C080000 		.4byte	.LVL275-.Ltext0
 9891 006c 3B080000 		.4byte	.LVL279-1-.Ltext0
 9892 0070 0100     		.2byte	0x1
 9893 0072 50       		.byte	0x50
 9894 0073 3B080000 		.4byte	.LVL279-1-.Ltext0
 9895 0077 3C080000 		.4byte	.LVL279-.Ltext0
 9896 007b 0400     		.2byte	0x4
 9897 007d F3       		.byte	0xf3
 9898 007e 01       		.uleb128 0x1
 9899 007f 50       		.byte	0x50
 9900 0080 9F       		.byte	0x9f
ARM GAS  /tmp/ccQkqy1T.s 			page 216


 9901 0081 3C080000 		.4byte	.LVL279-.Ltext0
 9902 0085 56080000 		.4byte	.LVL285-.Ltext0
 9903 0089 0100     		.2byte	0x1
 9904 008b 50       		.byte	0x50
 9905 008c 56080000 		.4byte	.LVL285-.Ltext0
 9906 0090 58080000 		.4byte	.LVL286-.Ltext0
 9907 0094 0100     		.2byte	0x1
 9908 0096 56       		.byte	0x56
 9909 0097 58080000 		.4byte	.LVL286-.Ltext0
 9910 009b 5B080000 		.4byte	.LVL287-1-.Ltext0
 9911 009f 0100     		.2byte	0x1
 9912 00a1 50       		.byte	0x50
 9913 00a2 5B080000 		.4byte	.LVL287-1-.Ltext0
 9914 00a6 5C080000 		.4byte	.LVL287-.Ltext0
 9915 00aa 0400     		.2byte	0x4
 9916 00ac F3       		.byte	0xf3
 9917 00ad 01       		.uleb128 0x1
 9918 00ae 50       		.byte	0x50
 9919 00af 9F       		.byte	0x9f
 9920 00b0 5C080000 		.4byte	.LVL287-.Ltext0
 9921 00b4 90080000 		.4byte	.LFE145-.Ltext0
 9922 00b8 0100     		.2byte	0x1
 9923 00ba 50       		.byte	0x50
 9924 00bb 00000000 		.4byte	0
 9925 00bf 00000000 		.4byte	0
 9926              	.LLST117:
 9927 00c3 1C080000 		.4byte	.LVL275-.Ltext0
 9928 00c7 54080000 		.4byte	.LVL284-.Ltext0
 9929 00cb 0100     		.2byte	0x1
 9930 00cd 51       		.byte	0x51
 9931 00ce 54080000 		.4byte	.LVL284-.Ltext0
 9932 00d2 58080000 		.4byte	.LVL286-.Ltext0
 9933 00d6 0100     		.2byte	0x1
 9934 00d8 55       		.byte	0x55
 9935 00d9 58080000 		.4byte	.LVL286-.Ltext0
 9936 00dd 5B080000 		.4byte	.LVL287-1-.Ltext0
 9937 00e1 0100     		.2byte	0x1
 9938 00e3 51       		.byte	0x51
 9939 00e4 5B080000 		.4byte	.LVL287-1-.Ltext0
 9940 00e8 5C080000 		.4byte	.LVL287-.Ltext0
 9941 00ec 0400     		.2byte	0x4
 9942 00ee F3       		.byte	0xf3
 9943 00ef 01       		.uleb128 0x1
 9944 00f0 51       		.byte	0x51
 9945 00f1 9F       		.byte	0x9f
 9946 00f2 5C080000 		.4byte	.LVL287-.Ltext0
 9947 00f6 90080000 		.4byte	.LFE145-.Ltext0
 9948 00fa 0100     		.2byte	0x1
 9949 00fc 51       		.byte	0x51
 9950 00fd 00000000 		.4byte	0
 9951 0101 00000000 		.4byte	0
 9952              	.LLST118:
 9953 0105 1C080000 		.4byte	.LVL275-.Ltext0
 9954 0109 3B080000 		.4byte	.LVL279-1-.Ltext0
 9955 010d 0100     		.2byte	0x1
 9956 010f 52       		.byte	0x52
 9957 0110 3B080000 		.4byte	.LVL279-1-.Ltext0
ARM GAS  /tmp/ccQkqy1T.s 			page 217


 9958 0114 3C080000 		.4byte	.LVL279-.Ltext0
 9959 0118 0400     		.2byte	0x4
 9960 011a F3       		.byte	0xf3
 9961 011b 01       		.uleb128 0x1
 9962 011c 52       		.byte	0x52
 9963 011d 9F       		.byte	0x9f
 9964 011e 3C080000 		.4byte	.LVL279-.Ltext0
 9965 0122 4C080000 		.4byte	.LVL282-.Ltext0
 9966 0126 0100     		.2byte	0x1
 9967 0128 52       		.byte	0x52
 9968 0129 4C080000 		.4byte	.LVL282-.Ltext0
 9969 012d 5C080000 		.4byte	.LVL287-.Ltext0
 9970 0131 0400     		.2byte	0x4
 9971 0133 F3       		.byte	0xf3
 9972 0134 01       		.uleb128 0x1
 9973 0135 52       		.byte	0x52
 9974 0136 9F       		.byte	0x9f
 9975 0137 5C080000 		.4byte	.LVL287-.Ltext0
 9976 013b 6A080000 		.4byte	.LVL290-.Ltext0
 9977 013f 0100     		.2byte	0x1
 9978 0141 52       		.byte	0x52
 9979 0142 6A080000 		.4byte	.LVL290-.Ltext0
 9980 0146 70080000 		.4byte	.LVL292-.Ltext0
 9981 014a 0400     		.2byte	0x4
 9982 014c F3       		.byte	0xf3
 9983 014d 01       		.uleb128 0x1
 9984 014e 52       		.byte	0x52
 9985 014f 9F       		.byte	0x9f
 9986 0150 70080000 		.4byte	.LVL292-.Ltext0
 9987 0154 7C080000 		.4byte	.LVL293-.Ltext0
 9988 0158 0100     		.2byte	0x1
 9989 015a 52       		.byte	0x52
 9990 015b 7C080000 		.4byte	.LVL293-.Ltext0
 9991 015f 86080000 		.4byte	.LVL296-.Ltext0
 9992 0163 0400     		.2byte	0x4
 9993 0165 F3       		.byte	0xf3
 9994 0166 01       		.uleb128 0x1
 9995 0167 52       		.byte	0x52
 9996 0168 9F       		.byte	0x9f
 9997 0169 86080000 		.4byte	.LVL296-.Ltext0
 9998 016d 90080000 		.4byte	.LFE145-.Ltext0
 9999 0171 0100     		.2byte	0x1
 10000 0173 52       		.byte	0x52
 10001 0174 00000000 		.4byte	0
 10002 0178 00000000 		.4byte	0
 10003              	.LLST119:
 10004 017c 34080000 		.4byte	.LVL277-.Ltext0
 10005 0180 3B080000 		.4byte	.LVL279-1-.Ltext0
 10006 0184 0100     		.2byte	0x1
 10007 0186 53       		.byte	0x53
 10008 0187 3C080000 		.4byte	.LVL279-.Ltext0
 10009 018b 44080000 		.4byte	.LVL280-.Ltext0
 10010 018f 0100     		.2byte	0x1
 10011 0191 53       		.byte	0x53
 10012 0192 46080000 		.4byte	.LVL281-.Ltext0
 10013 0196 50080000 		.4byte	.LVL283-.Ltext0
 10014 019a 0100     		.2byte	0x1
ARM GAS  /tmp/ccQkqy1T.s 			page 218


 10015 019c 53       		.byte	0x53
 10016 019d 64080000 		.4byte	.LVL289-.Ltext0
 10017 01a1 84080000 		.4byte	.LVL295-.Ltext0
 10018 01a5 0100     		.2byte	0x1
 10019 01a7 53       		.byte	0x53
 10020 01a8 86080000 		.4byte	.LVL296-.Ltext0
 10021 01ac 90080000 		.4byte	.LFE145-.Ltext0
 10022 01b0 0100     		.2byte	0x1
 10023 01b2 53       		.byte	0x53
 10024 01b3 00000000 		.4byte	0
 10025 01b7 00000000 		.4byte	0
 10026              	.LLST120:
 10027 01bb 30080000 		.4byte	.LVL276-.Ltext0
 10028 01bf 38080000 		.4byte	.LVL278-.Ltext0
 10029 01c3 0100     		.2byte	0x1
 10030 01c5 54       		.byte	0x54
 10031 01c6 38080000 		.4byte	.LVL278-.Ltext0
 10032 01ca 3B080000 		.4byte	.LVL279-1-.Ltext0
 10033 01ce 0E00     		.2byte	0xe
 10034 01d0 71       		.byte	0x71
 10035 01d1 00       		.sleb128 0
 10036 01d2 94       		.byte	0x94
 10037 01d3 01       		.byte	0x1
 10038 01d4 08       		.byte	0x8
 10039 01d5 FF       		.byte	0xff
 10040 01d6 1A       		.byte	0x1a
 10041 01d7 32       		.byte	0x32
 10042 01d8 24       		.byte	0x24
 10043 01d9 70       		.byte	0x70
 10044 01da 00       		.sleb128 0
 10045 01db 22       		.byte	0x22
 10046 01dc 23       		.byte	0x23
 10047 01dd 18       		.uleb128 0x18
 10048 01de 3C080000 		.4byte	.LVL279-.Ltext0
 10049 01e2 58080000 		.4byte	.LVL286-.Ltext0
 10050 01e6 0100     		.2byte	0x1
 10051 01e8 54       		.byte	0x54
 10052 01e9 5E080000 		.4byte	.LVL288-.Ltext0
 10053 01ed 6E080000 		.4byte	.LVL291-.Ltext0
 10054 01f1 0100     		.2byte	0x1
 10055 01f3 54       		.byte	0x54
 10056 01f4 70080000 		.4byte	.LVL292-.Ltext0
 10057 01f8 90080000 		.4byte	.LFE145-.Ltext0
 10058 01fc 0100     		.2byte	0x1
 10059 01fe 54       		.byte	0x54
 10060 01ff 00000000 		.4byte	0
 10061 0203 00000000 		.4byte	0
 10062              	.LLST111:
 10063 0207 D2070000 		.4byte	.LVL259-.Ltext0
 10064 020b DC070000 		.4byte	.LVL260-.Ltext0
 10065 020f 0100     		.2byte	0x1
 10066 0211 50       		.byte	0x50
 10067 0212 DC070000 		.4byte	.LVL260-.Ltext0
 10068 0216 1C080000 		.4byte	.LFE144-.Ltext0
 10069 021a 0400     		.2byte	0x4
 10070 021c F3       		.byte	0xf3
 10071 021d 01       		.uleb128 0x1
ARM GAS  /tmp/ccQkqy1T.s 			page 219


 10072 021e 50       		.byte	0x50
 10073 021f 9F       		.byte	0x9f
 10074 0220 00000000 		.4byte	0
 10075 0224 00000000 		.4byte	0
 10076              	.LLST112:
 10077 0228 D2070000 		.4byte	.LVL259-.Ltext0
 10078 022c E8070000 		.4byte	.LVL264-.Ltext0
 10079 0230 0100     		.2byte	0x1
 10080 0232 51       		.byte	0x51
 10081 0233 E8070000 		.4byte	.LVL264-.Ltext0
 10082 0237 F6070000 		.4byte	.LVL266-.Ltext0
 10083 023b 0400     		.2byte	0x4
 10084 023d F3       		.byte	0xf3
 10085 023e 01       		.uleb128 0x1
 10086 023f 51       		.byte	0x51
 10087 0240 9F       		.byte	0x9f
 10088 0241 F6070000 		.4byte	.LVL266-.Ltext0
 10089 0245 12080000 		.4byte	.LVL271-.Ltext0
 10090 0249 0100     		.2byte	0x1
 10091 024b 51       		.byte	0x51
 10092 024c 12080000 		.4byte	.LVL271-.Ltext0
 10093 0250 16080000 		.4byte	.LVL273-.Ltext0
 10094 0254 0400     		.2byte	0x4
 10095 0256 F3       		.byte	0xf3
 10096 0257 01       		.uleb128 0x1
 10097 0258 51       		.byte	0x51
 10098 0259 9F       		.byte	0x9f
 10099 025a 16080000 		.4byte	.LVL273-.Ltext0
 10100 025e 1C080000 		.4byte	.LFE144-.Ltext0
 10101 0262 0100     		.2byte	0x1
 10102 0264 51       		.byte	0x51
 10103 0265 00000000 		.4byte	0
 10104 0269 00000000 		.4byte	0
 10105              	.LLST113:
 10106 026d D2070000 		.4byte	.LVL259-.Ltext0
 10107 0271 E2070000 		.4byte	.LVL262-.Ltext0
 10108 0275 0400     		.2byte	0x4
 10109 0277 30       		.byte	0x30
 10110 0278 9F       		.byte	0x9f
 10111 0279 93       		.byte	0x93
 10112 027a 04       		.uleb128 0x4
 10113 027b E2070000 		.4byte	.LVL262-.Ltext0
 10114 027f E6070000 		.4byte	.LVL263-.Ltext0
 10115 0283 0300     		.2byte	0x3
 10116 0285 53       		.byte	0x53
 10117 0286 93       		.byte	0x93
 10118 0287 04       		.uleb128 0x4
 10119 0288 F6070000 		.4byte	.LVL266-.Ltext0
 10120 028c FA070000 		.4byte	.LVL268-.Ltext0
 10121 0290 0400     		.2byte	0x4
 10122 0292 30       		.byte	0x30
 10123 0293 9F       		.byte	0x9f
 10124 0294 93       		.byte	0x93
 10125 0295 04       		.uleb128 0x4
 10126 0296 FA070000 		.4byte	.LVL268-.Ltext0
 10127 029a FE070000 		.4byte	.LVL269-.Ltext0
 10128 029e 0300     		.2byte	0x3
ARM GAS  /tmp/ccQkqy1T.s 			page 220


 10129 02a0 53       		.byte	0x53
 10130 02a1 93       		.byte	0x93
 10131 02a2 04       		.uleb128 0x4
 10132 02a3 00000000 		.4byte	0
 10133 02a7 00000000 		.4byte	0
 10134              	.LLST114:
 10135 02ab E0070000 		.4byte	.LVL261-.Ltext0
 10136 02af E2070000 		.4byte	.LVL262-.Ltext0
 10137 02b3 0100     		.2byte	0x1
 10138 02b5 53       		.byte	0x53
 10139 02b6 E2070000 		.4byte	.LVL262-.Ltext0
 10140 02ba F2070000 		.4byte	.LVL265-.Ltext0
 10141 02be 0200     		.2byte	0x2
 10142 02c0 70       		.byte	0x70
 10143 02c1 18       		.sleb128 24
 10144 02c2 F2070000 		.4byte	.LVL265-.Ltext0
 10145 02c6 F6070000 		.4byte	.LVL266-.Ltext0
 10146 02ca 1000     		.2byte	0x10
 10147 02cc F3       		.byte	0xf3
 10148 02cd 01       		.uleb128 0x1
 10149 02ce 51       		.byte	0x51
 10150 02cf 94       		.byte	0x94
 10151 02d0 01       		.byte	0x1
 10152 02d1 08       		.byte	0x8
 10153 02d2 FF       		.byte	0xff
 10154 02d3 1A       		.byte	0x1a
 10155 02d4 32       		.byte	0x32
 10156 02d5 24       		.byte	0x24
 10157 02d6 F3       		.byte	0xf3
 10158 02d7 01       		.uleb128 0x1
 10159 02d8 50       		.byte	0x50
 10160 02d9 22       		.byte	0x22
 10161 02da 23       		.byte	0x23
 10162 02db 18       		.uleb128 0x18
 10163 02dc F8070000 		.4byte	.LVL267-.Ltext0
 10164 02e0 FA070000 		.4byte	.LVL268-.Ltext0
 10165 02e4 0100     		.2byte	0x1
 10166 02e6 53       		.byte	0x53
 10167 02e7 FA070000 		.4byte	.LVL268-.Ltext0
 10168 02eb 0C080000 		.4byte	.LVL270-.Ltext0
 10169 02ef 0300     		.2byte	0x3
 10170 02f1 70       		.byte	0x70
 10171 02f2 D400     		.sleb128 84
 10172 02f4 0C080000 		.4byte	.LVL270-.Ltext0
 10173 02f8 12080000 		.4byte	.LVL271-.Ltext0
 10174 02fc 0F00     		.2byte	0xf
 10175 02fe 71       		.byte	0x71
 10176 02ff 00       		.sleb128 0
 10177 0300 94       		.byte	0x94
 10178 0301 01       		.byte	0x1
 10179 0302 08       		.byte	0x8
 10180 0303 FF       		.byte	0xff
 10181 0304 1A       		.byte	0x1a
 10182 0305 32       		.byte	0x32
 10183 0306 24       		.byte	0x24
 10184 0307 F3       		.byte	0xf3
 10185 0308 01       		.uleb128 0x1
ARM GAS  /tmp/ccQkqy1T.s 			page 221


 10186 0309 50       		.byte	0x50
 10187 030a 22       		.byte	0x22
 10188 030b 23       		.byte	0x23
 10189 030c 54       		.uleb128 0x54
 10190 030d 12080000 		.4byte	.LVL271-.Ltext0
 10191 0311 14080000 		.4byte	.LVL272-.Ltext0
 10192 0315 0200     		.2byte	0x2
 10193 0317 70       		.byte	0x70
 10194 0318 18       		.sleb128 24
 10195 0319 14080000 		.4byte	.LVL272-.Ltext0
 10196 031d 16080000 		.4byte	.LVL273-.Ltext0
 10197 0321 1000     		.2byte	0x10
 10198 0323 F3       		.byte	0xf3
 10199 0324 01       		.uleb128 0x1
 10200 0325 51       		.byte	0x51
 10201 0326 94       		.byte	0x94
 10202 0327 01       		.byte	0x1
 10203 0328 08       		.byte	0x8
 10204 0329 FF       		.byte	0xff
 10205 032a 1A       		.byte	0x1a
 10206 032b 32       		.byte	0x32
 10207 032c 24       		.byte	0x24
 10208 032d F3       		.byte	0xf3
 10209 032e 01       		.uleb128 0x1
 10210 032f 50       		.byte	0x50
 10211 0330 22       		.byte	0x22
 10212 0331 23       		.byte	0x23
 10213 0332 18       		.uleb128 0x18
 10214 0333 16080000 		.4byte	.LVL273-.Ltext0
 10215 0337 1A080000 		.4byte	.LVL274-.Ltext0
 10216 033b 0300     		.2byte	0x3
 10217 033d 70       		.byte	0x70
 10218 033e D400     		.sleb128 84
 10219 0340 1A080000 		.4byte	.LVL274-.Ltext0
 10220 0344 1C080000 		.4byte	.LFE144-.Ltext0
 10221 0348 0F00     		.2byte	0xf
 10222 034a 71       		.byte	0x71
 10223 034b 00       		.sleb128 0
 10224 034c 94       		.byte	0x94
 10225 034d 01       		.byte	0x1
 10226 034e 08       		.byte	0x8
 10227 034f FF       		.byte	0xff
 10228 0350 1A       		.byte	0x1a
 10229 0351 32       		.byte	0x32
 10230 0352 24       		.byte	0x24
 10231 0353 F3       		.byte	0xf3
 10232 0354 01       		.uleb128 0x1
 10233 0355 50       		.byte	0x50
 10234 0356 22       		.byte	0x22
 10235 0357 23       		.byte	0x23
 10236 0358 54       		.uleb128 0x54
 10237 0359 00000000 		.4byte	0
 10238 035d 00000000 		.4byte	0
 10239              	.LLST108:
 10240 0361 8A070000 		.4byte	.LFB143-.Ltext0
 10241 0365 8C070000 		.4byte	.LCFI22-.Ltext0
 10242 0369 0200     		.2byte	0x2
ARM GAS  /tmp/ccQkqy1T.s 			page 222


 10243 036b 7D       		.byte	0x7d
 10244 036c 00       		.sleb128 0
 10245 036d 8C070000 		.4byte	.LCFI22-.Ltext0
 10246 0371 C2070000 		.4byte	.LCFI23-.Ltext0
 10247 0375 0200     		.2byte	0x2
 10248 0377 7D       		.byte	0x7d
 10249 0378 08       		.sleb128 8
 10250 0379 C2070000 		.4byte	.LCFI23-.Ltext0
 10251 037d C6070000 		.4byte	.LCFI24-.Ltext0
 10252 0381 0200     		.2byte	0x2
 10253 0383 7D       		.byte	0x7d
 10254 0384 00       		.sleb128 0
 10255 0385 C6070000 		.4byte	.LCFI24-.Ltext0
 10256 0389 D2070000 		.4byte	.LFE143-.Ltext0
 10257 038d 0200     		.2byte	0x2
 10258 038f 7D       		.byte	0x7d
 10259 0390 08       		.sleb128 8
 10260 0391 00000000 		.4byte	0
 10261 0395 00000000 		.4byte	0
 10262              	.LLST109:
 10263 0399 8A070000 		.4byte	.LVL253-.Ltext0
 10264 039d A0070000 		.4byte	.LVL255-.Ltext0
 10265 03a1 0100     		.2byte	0x1
 10266 03a3 50       		.byte	0x50
 10267 03a4 A0070000 		.4byte	.LVL255-.Ltext0
 10268 03a8 C2070000 		.4byte	.LVL257-.Ltext0
 10269 03ac 0100     		.2byte	0x1
 10270 03ae 54       		.byte	0x54
 10271 03af C2070000 		.4byte	.LVL257-.Ltext0
 10272 03b3 C5070000 		.4byte	.LVL258-1-.Ltext0
 10273 03b7 0100     		.2byte	0x1
 10274 03b9 50       		.byte	0x50
 10275 03ba C5070000 		.4byte	.LVL258-1-.Ltext0
 10276 03be C6070000 		.4byte	.LVL258-.Ltext0
 10277 03c2 0400     		.2byte	0x4
 10278 03c4 F3       		.byte	0xf3
 10279 03c5 01       		.uleb128 0x1
 10280 03c6 50       		.byte	0x50
 10281 03c7 9F       		.byte	0x9f
 10282 03c8 C6070000 		.4byte	.LVL258-.Ltext0
 10283 03cc D2070000 		.4byte	.LFE143-.Ltext0
 10284 03d0 0100     		.2byte	0x1
 10285 03d2 54       		.byte	0x54
 10286 03d3 00000000 		.4byte	0
 10287 03d7 00000000 		.4byte	0
 10288              	.LLST110:
 10289 03db 94070000 		.4byte	.LVL254-.Ltext0
 10290 03df A0070000 		.4byte	.LVL255-.Ltext0
 10291 03e3 0200     		.2byte	0x2
 10292 03e5 30       		.byte	0x30
 10293 03e6 9F       		.byte	0x9f
 10294 03e7 00000000 		.4byte	0
 10295 03eb 00000000 		.4byte	0
 10296              	.LLST107:
 10297 03ef 72070000 		.4byte	.LVL250-.Ltext0
 10298 03f3 74070000 		.4byte	.LVL251-.Ltext0
 10299 03f7 0300     		.2byte	0x3
ARM GAS  /tmp/ccQkqy1T.s 			page 223


 10300 03f9 53       		.byte	0x53
 10301 03fa 93       		.byte	0x93
 10302 03fb 04       		.uleb128 0x4
 10303 03fc 00000000 		.4byte	0
 10304 0400 00000000 		.4byte	0
 10305              	.LLST103:
 10306 0404 28070000 		.4byte	.LFB141-.Ltext0
 10307 0408 2E070000 		.4byte	.LCFI21-.Ltext0
 10308 040c 0200     		.2byte	0x2
 10309 040e 7D       		.byte	0x7d
 10310 040f 00       		.sleb128 0
 10311 0410 2E070000 		.4byte	.LCFI21-.Ltext0
 10312 0414 6A070000 		.4byte	.LFE141-.Ltext0
 10313 0418 0200     		.2byte	0x2
 10314 041a 7D       		.byte	0x7d
 10315 041b 08       		.sleb128 8
 10316 041c 00000000 		.4byte	0
 10317 0420 00000000 		.4byte	0
 10318              	.LLST104:
 10319 0424 28070000 		.4byte	.LVL242-.Ltext0
 10320 0428 5A070000 		.4byte	.LVL247-.Ltext0
 10321 042c 0100     		.2byte	0x1
 10322 042e 50       		.byte	0x50
 10323 042f 5A070000 		.4byte	.LVL247-.Ltext0
 10324 0433 6A070000 		.4byte	.LFE141-.Ltext0
 10325 0437 0100     		.2byte	0x1
 10326 0439 54       		.byte	0x54
 10327 043a 00000000 		.4byte	0
 10328 043e 00000000 		.4byte	0
 10329              	.LLST105:
 10330 0442 36070000 		.4byte	.LVL243-.Ltext0
 10331 0446 38070000 		.4byte	.LVL244-.Ltext0
 10332 044a 0300     		.2byte	0x3
 10333 044c 53       		.byte	0x53
 10334 044d 93       		.byte	0x93
 10335 044e 04       		.uleb128 0x4
 10336 044f 00000000 		.4byte	0
 10337 0453 00000000 		.4byte	0
 10338              	.LLST106:
 10339 0457 4A070000 		.4byte	.LVL245-.Ltext0
 10340 045b 52070000 		.4byte	.LVL246-.Ltext0
 10341 045f 0100     		.2byte	0x1
 10342 0461 53       		.byte	0x53
 10343 0462 00000000 		.4byte	0
 10344 0466 00000000 		.4byte	0
 10345              	.LLST101:
 10346 046a 00070000 		.4byte	.LFB140-.Ltext0
 10347 046e 08070000 		.4byte	.LCFI19-.Ltext0
 10348 0472 0200     		.2byte	0x2
 10349 0474 7D       		.byte	0x7d
 10350 0475 00       		.sleb128 0
 10351 0476 08070000 		.4byte	.LCFI19-.Ltext0
 10352 047a 20070000 		.4byte	.LCFI20-.Ltext0
 10353 047e 0200     		.2byte	0x2
 10354 0480 7D       		.byte	0x7d
 10355 0481 08       		.sleb128 8
 10356 0482 20070000 		.4byte	.LCFI20-.Ltext0
ARM GAS  /tmp/ccQkqy1T.s 			page 224


 10357 0486 28070000 		.4byte	.LFE140-.Ltext0
 10358 048a 0200     		.2byte	0x2
 10359 048c 7D       		.byte	0x7d
 10360 048d 00       		.sleb128 0
 10361 048e 00000000 		.4byte	0
 10362 0492 00000000 		.4byte	0
 10363              	.LLST102:
 10364 0496 00070000 		.4byte	.LVL239-.Ltext0
 10365 049a 14070000 		.4byte	.LVL240-.Ltext0
 10366 049e 0100     		.2byte	0x1
 10367 04a0 50       		.byte	0x50
 10368 04a1 14070000 		.4byte	.LVL240-.Ltext0
 10369 04a5 1E070000 		.4byte	.LVL241-.Ltext0
 10370 04a9 0400     		.2byte	0x4
 10371 04ab 70       		.byte	0x70
 10372 04ac B474     		.sleb128 -1484
 10373 04ae 9F       		.byte	0x9f
 10374 04af 1E070000 		.4byte	.LVL241-.Ltext0
 10375 04b3 28070000 		.4byte	.LFE140-.Ltext0
 10376 04b7 0400     		.2byte	0x4
 10377 04b9 F3       		.byte	0xf3
 10378 04ba 01       		.uleb128 0x1
 10379 04bb 50       		.byte	0x50
 10380 04bc 9F       		.byte	0x9f
 10381 04bd 00000000 		.4byte	0
 10382 04c1 00000000 		.4byte	0
 10383              	.LLST99:
 10384 04c5 F4060000 		.4byte	.LVL234-.Ltext0
 10385 04c9 F8060000 		.4byte	.LVL235-.Ltext0
 10386 04cd 0100     		.2byte	0x1
 10387 04cf 50       		.byte	0x50
 10388 04d0 F8060000 		.4byte	.LVL235-.Ltext0
 10389 04d4 00070000 		.4byte	.LFE139-.Ltext0
 10390 04d8 0400     		.2byte	0x4
 10391 04da F3       		.byte	0xf3
 10392 04db 01       		.uleb128 0x1
 10393 04dc 50       		.byte	0x50
 10394 04dd 9F       		.byte	0x9f
 10395 04de 00000000 		.4byte	0
 10396 04e2 00000000 		.4byte	0
 10397              	.LLST100:
 10398 04e6 F8060000 		.4byte	.LVL235-.Ltext0
 10399 04ea FA060000 		.4byte	.LVL236-.Ltext0
 10400 04ee 0100     		.2byte	0x1
 10401 04f0 50       		.byte	0x50
 10402 04f1 FA060000 		.4byte	.LVL236-.Ltext0
 10403 04f5 FC060000 		.4byte	.LVL237-.Ltext0
 10404 04f9 0600     		.2byte	0x6
 10405 04fb 70       		.byte	0x70
 10406 04fc 00       		.sleb128 0
 10407 04fd 73       		.byte	0x73
 10408 04fe 00       		.sleb128 0
 10409 04ff 1A       		.byte	0x1a
 10410 0500 9F       		.byte	0x9f
 10411 0501 FC060000 		.4byte	.LVL237-.Ltext0
 10412 0505 FE060000 		.4byte	.LVL238-.Ltext0
 10413 0509 0100     		.2byte	0x1
ARM GAS  /tmp/ccQkqy1T.s 			page 225


 10414 050b 50       		.byte	0x50
 10415 050c 00000000 		.4byte	0
 10416 0510 00000000 		.4byte	0
 10417              	.LLST96:
 10418 0514 E4060000 		.4byte	.LVL229-.Ltext0
 10419 0518 F0060000 		.4byte	.LVL232-.Ltext0
 10420 051c 0100     		.2byte	0x1
 10421 051e 50       		.byte	0x50
 10422 051f F0060000 		.4byte	.LVL232-.Ltext0
 10423 0523 F4060000 		.4byte	.LFE138-.Ltext0
 10424 0527 0400     		.2byte	0x4
 10425 0529 F3       		.byte	0xf3
 10426 052a 01       		.uleb128 0x1
 10427 052b 50       		.byte	0x50
 10428 052c 9F       		.byte	0x9f
 10429 052d 00000000 		.4byte	0
 10430 0531 00000000 		.4byte	0
 10431              	.LLST97:
 10432 0535 E4060000 		.4byte	.LVL229-.Ltext0
 10433 0539 E8060000 		.4byte	.LVL230-.Ltext0
 10434 053d 0100     		.2byte	0x1
 10435 053f 51       		.byte	0x51
 10436 0540 E8060000 		.4byte	.LVL230-.Ltext0
 10437 0544 F4060000 		.4byte	.LFE138-.Ltext0
 10438 0548 0400     		.2byte	0x4
 10439 054a F3       		.byte	0xf3
 10440 054b 01       		.uleb128 0x1
 10441 054c 51       		.byte	0x51
 10442 054d 9F       		.byte	0x9f
 10443 054e 00000000 		.4byte	0
 10444 0552 00000000 		.4byte	0
 10445              	.LLST98:
 10446 0556 EC060000 		.4byte	.LVL231-.Ltext0
 10447 055a F0060000 		.4byte	.LVL232-.Ltext0
 10448 055e 0100     		.2byte	0x1
 10449 0560 52       		.byte	0x52
 10450 0561 F0060000 		.4byte	.LVL232-.Ltext0
 10451 0565 F2060000 		.4byte	.LVL233-.Ltext0
 10452 0569 0600     		.2byte	0x6
 10453 056b 72       		.byte	0x72
 10454 056c 00       		.sleb128 0
 10455 056d 70       		.byte	0x70
 10456 056e 00       		.sleb128 0
 10457 056f 1A       		.byte	0x1a
 10458 0570 9F       		.byte	0x9f
 10459 0571 F2060000 		.4byte	.LVL233-.Ltext0
 10460 0575 F4060000 		.4byte	.LFE138-.Ltext0
 10461 0579 0100     		.2byte	0x1
 10462 057b 50       		.byte	0x50
 10463 057c 00000000 		.4byte	0
 10464 0580 00000000 		.4byte	0
 10465              	.LLST94:
 10466 0584 D8060000 		.4byte	.LVL224-.Ltext0
 10467 0588 DC060000 		.4byte	.LVL225-.Ltext0
 10468 058c 0100     		.2byte	0x1
 10469 058e 50       		.byte	0x50
 10470 058f DC060000 		.4byte	.LVL225-.Ltext0
ARM GAS  /tmp/ccQkqy1T.s 			page 226


 10471 0593 E4060000 		.4byte	.LFE137-.Ltext0
 10472 0597 0400     		.2byte	0x4
 10473 0599 F3       		.byte	0xf3
 10474 059a 01       		.uleb128 0x1
 10475 059b 50       		.byte	0x50
 10476 059c 9F       		.byte	0x9f
 10477 059d 00000000 		.4byte	0
 10478 05a1 00000000 		.4byte	0
 10479              	.LLST95:
 10480 05a5 DC060000 		.4byte	.LVL225-.Ltext0
 10481 05a9 DE060000 		.4byte	.LVL226-.Ltext0
 10482 05ad 0100     		.2byte	0x1
 10483 05af 50       		.byte	0x50
 10484 05b0 DE060000 		.4byte	.LVL226-.Ltext0
 10485 05b4 E0060000 		.4byte	.LVL227-.Ltext0
 10486 05b8 0600     		.2byte	0x6
 10487 05ba 70       		.byte	0x70
 10488 05bb 00       		.sleb128 0
 10489 05bc 73       		.byte	0x73
 10490 05bd 00       		.sleb128 0
 10491 05be 1A       		.byte	0x1a
 10492 05bf 9F       		.byte	0x9f
 10493 05c0 E0060000 		.4byte	.LVL227-.Ltext0
 10494 05c4 E2060000 		.4byte	.LVL228-.Ltext0
 10495 05c8 0100     		.2byte	0x1
 10496 05ca 50       		.byte	0x50
 10497 05cb 00000000 		.4byte	0
 10498 05cf 00000000 		.4byte	0
 10499              	.LLST92:
 10500 05d3 B0060000 		.4byte	.LVL217-.Ltext0
 10501 05d7 BA060000 		.4byte	.LVL219-.Ltext0
 10502 05db 0100     		.2byte	0x1
 10503 05dd 50       		.byte	0x50
 10504 05de BA060000 		.4byte	.LVL219-.Ltext0
 10505 05e2 D8060000 		.4byte	.LFE136-.Ltext0
 10506 05e6 0400     		.2byte	0x4
 10507 05e8 F3       		.byte	0xf3
 10508 05e9 01       		.uleb128 0x1
 10509 05ea 50       		.byte	0x50
 10510 05eb 9F       		.byte	0x9f
 10511 05ec 00000000 		.4byte	0
 10512 05f0 00000000 		.4byte	0
 10513              	.LLST93:
 10514 05f4 B0060000 		.4byte	.LVL217-.Ltext0
 10515 05f8 B6060000 		.4byte	.LVL218-.Ltext0
 10516 05fc 0100     		.2byte	0x1
 10517 05fe 51       		.byte	0x51
 10518 05ff B6060000 		.4byte	.LVL218-.Ltext0
 10519 0603 D8060000 		.4byte	.LFE136-.Ltext0
 10520 0607 0400     		.2byte	0x4
 10521 0609 F3       		.byte	0xf3
 10522 060a 01       		.uleb128 0x1
 10523 060b 51       		.byte	0x51
 10524 060c 9F       		.byte	0x9f
 10525 060d 00000000 		.4byte	0
 10526 0611 00000000 		.4byte	0
 10527              	.LLST82:
ARM GAS  /tmp/ccQkqy1T.s 			page 227


 10528 0615 BC050000 		.4byte	.LFB134-.Ltext0
 10529 0619 BE050000 		.4byte	.LCFI16-.Ltext0
 10530 061d 0200     		.2byte	0x2
 10531 061f 7D       		.byte	0x7d
 10532 0620 00       		.sleb128 0
 10533 0621 BE050000 		.4byte	.LCFI16-.Ltext0
 10534 0625 1A060000 		.4byte	.LCFI17-.Ltext0
 10535 0629 0200     		.2byte	0x2
 10536 062b 7D       		.byte	0x7d
 10537 062c 20       		.sleb128 32
 10538 062d 1A060000 		.4byte	.LCFI17-.Ltext0
 10539 0631 1C060000 		.4byte	.LCFI18-.Ltext0
 10540 0635 0200     		.2byte	0x2
 10541 0637 7D       		.byte	0x7d
 10542 0638 14       		.sleb128 20
 10543 0639 1C060000 		.4byte	.LCFI18-.Ltext0
 10544 063d 88060000 		.4byte	.LFE134-.Ltext0
 10545 0641 0200     		.2byte	0x2
 10546 0643 7D       		.byte	0x7d
 10547 0644 20       		.sleb128 32
 10548 0645 00000000 		.4byte	0
 10549 0649 00000000 		.4byte	0
 10550              	.LLST83:
 10551 064d BC050000 		.4byte	.LVL194-.Ltext0
 10552 0651 0E060000 		.4byte	.LVL200-.Ltext0
 10553 0655 0100     		.2byte	0x1
 10554 0657 50       		.byte	0x50
 10555 0658 0E060000 		.4byte	.LVL200-.Ltext0
 10556 065c 1C060000 		.4byte	.LVL204-.Ltext0
 10557 0660 0400     		.2byte	0x4
 10558 0662 F3       		.byte	0xf3
 10559 0663 01       		.uleb128 0x1
 10560 0664 50       		.byte	0x50
 10561 0665 9F       		.byte	0x9f
 10562 0666 1C060000 		.4byte	.LVL204-.Ltext0
 10563 066a 88060000 		.4byte	.LFE134-.Ltext0
 10564 066e 0100     		.2byte	0x1
 10565 0670 50       		.byte	0x50
 10566 0671 00000000 		.4byte	0
 10567 0675 00000000 		.4byte	0
 10568              	.LLST84:
 10569 0679 BC050000 		.4byte	.LVL194-.Ltext0
 10570 067d 0C060000 		.4byte	.LVL199-.Ltext0
 10571 0681 0100     		.2byte	0x1
 10572 0683 51       		.byte	0x51
 10573 0684 0C060000 		.4byte	.LVL199-.Ltext0
 10574 0688 1C060000 		.4byte	.LVL204-.Ltext0
 10575 068c 0400     		.2byte	0x4
 10576 068e F3       		.byte	0xf3
 10577 068f 01       		.uleb128 0x1
 10578 0690 51       		.byte	0x51
 10579 0691 9F       		.byte	0x9f
 10580 0692 1C060000 		.4byte	.LVL204-.Ltext0
 10581 0696 88060000 		.4byte	.LFE134-.Ltext0
 10582 069a 0100     		.2byte	0x1
 10583 069c 51       		.byte	0x51
 10584 069d 00000000 		.4byte	0
ARM GAS  /tmp/ccQkqy1T.s 			page 228


 10585 06a1 00000000 		.4byte	0
 10586              	.LLST85:
 10587 06a5 CA050000 		.4byte	.LVL196-.Ltext0
 10588 06a9 3C060000 		.4byte	.LVL205-.Ltext0
 10589 06ad 0100     		.2byte	0x1
 10590 06af 54       		.byte	0x54
 10591 06b0 4E060000 		.4byte	.LVL206-.Ltext0
 10592 06b4 88060000 		.4byte	.LFE134-.Ltext0
 10593 06b8 0100     		.2byte	0x1
 10594 06ba 54       		.byte	0x54
 10595 06bb 00000000 		.4byte	0
 10596 06bf 00000000 		.4byte	0
 10597              	.LLST86:
 10598 06c3 C8050000 		.4byte	.LVL195-.Ltext0
 10599 06c7 16060000 		.4byte	.LVL203-.Ltext0
 10600 06cb 0100     		.2byte	0x1
 10601 06cd 55       		.byte	0x55
 10602 06ce 1C060000 		.4byte	.LVL204-.Ltext0
 10603 06d2 3C060000 		.4byte	.LVL205-.Ltext0
 10604 06d6 0100     		.2byte	0x1
 10605 06d8 55       		.byte	0x55
 10606 06d9 00000000 		.4byte	0
 10607 06dd 00000000 		.4byte	0
 10608              	.LLST87:
 10609 06e1 BC050000 		.4byte	.LVL194-.Ltext0
 10610 06e5 08060000 		.4byte	.LVL198-.Ltext0
 10611 06e9 0200     		.2byte	0x2
 10612 06eb 30       		.byte	0x30
 10613 06ec 9F       		.byte	0x9f
 10614 06ed 08060000 		.4byte	.LVL198-.Ltext0
 10615 06f1 0C060000 		.4byte	.LVL199-.Ltext0
 10616 06f5 0A00     		.2byte	0xa
 10617 06f7 31       		.byte	0x31
 10618 06f8 71       		.byte	0x71
 10619 06f9 00       		.sleb128 0
 10620 06fa 94       		.byte	0x94
 10621 06fb 01       		.byte	0x1
 10622 06fc 08       		.byte	0x8
 10623 06fd FF       		.byte	0xff
 10624 06fe 1A       		.byte	0x1a
 10625 06ff 24       		.byte	0x24
 10626 0700 9F       		.byte	0x9f
 10627 0701 0C060000 		.4byte	.LVL199-.Ltext0
 10628 0705 12060000 		.4byte	.LVL201-.Ltext0
 10629 0709 0800     		.2byte	0x8
 10630 070b 31       		.byte	0x31
 10631 070c 71       		.byte	0x71
 10632 070d 00       		.sleb128 0
 10633 070e 08       		.byte	0x8
 10634 070f FF       		.byte	0xff
 10635 0710 1A       		.byte	0x1a
 10636 0711 24       		.byte	0x24
 10637 0712 9F       		.byte	0x9f
 10638 0713 12060000 		.4byte	.LVL201-.Ltext0
 10639 0717 14060000 		.4byte	.LVL202-.Ltext0
 10640 071b 0100     		.2byte	0x1
 10641 071d 53       		.byte	0x53
ARM GAS  /tmp/ccQkqy1T.s 			page 229


 10642 071e 14060000 		.4byte	.LVL202-.Ltext0
 10643 0722 16060000 		.4byte	.LVL203-.Ltext0
 10644 0726 0800     		.2byte	0x8
 10645 0728 31       		.byte	0x31
 10646 0729 71       		.byte	0x71
 10647 072a 00       		.sleb128 0
 10648 072b 08       		.byte	0x8
 10649 072c FF       		.byte	0xff
 10650 072d 1A       		.byte	0x1a
 10651 072e 24       		.byte	0x24
 10652 072f 9F       		.byte	0x9f
 10653 0730 1C060000 		.4byte	.LVL204-.Ltext0
 10654 0734 88060000 		.4byte	.LFE134-.Ltext0
 10655 0738 0200     		.2byte	0x2
 10656 073a 30       		.byte	0x30
 10657 073b 9F       		.byte	0x9f
 10658 073c 00000000 		.4byte	0
 10659 0740 00000000 		.4byte	0
 10660              	.LLST76:
 10661 0744 CA040000 		.4byte	.LFB133-.Ltext0
 10662 0748 CC040000 		.4byte	.LCFI15-.Ltext0
 10663 074c 0200     		.2byte	0x2
 10664 074e 7D       		.byte	0x7d
 10665 074f 00       		.sleb128 0
 10666 0750 CC040000 		.4byte	.LCFI15-.Ltext0
 10667 0754 BC050000 		.4byte	.LFE133-.Ltext0
 10668 0758 0200     		.2byte	0x2
 10669 075a 7D       		.byte	0x7d
 10670 075b 18       		.sleb128 24
 10671 075c 00000000 		.4byte	0
 10672 0760 00000000 		.4byte	0
 10673              	.LLST77:
 10674 0764 CA040000 		.4byte	.LVL172-.Ltext0
 10675 0768 5B050000 		.4byte	.LVL187-1-.Ltext0
 10676 076c 0100     		.2byte	0x1
 10677 076e 50       		.byte	0x50
 10678 076f 5B050000 		.4byte	.LVL187-1-.Ltext0
 10679 0773 60050000 		.4byte	.LVL188-.Ltext0
 10680 0777 0400     		.2byte	0x4
 10681 0779 F3       		.byte	0xf3
 10682 077a 01       		.uleb128 0x1
 10683 077b 50       		.byte	0x50
 10684 077c 9F       		.byte	0x9f
 10685 077d 60050000 		.4byte	.LVL188-.Ltext0
 10686 0781 BC050000 		.4byte	.LFE133-.Ltext0
 10687 0785 0100     		.2byte	0x1
 10688 0787 50       		.byte	0x50
 10689 0788 00000000 		.4byte	0
 10690 078c 00000000 		.4byte	0
 10691              	.LLST78:
 10692 0790 CA040000 		.4byte	.LVL172-.Ltext0
 10693 0794 58050000 		.4byte	.LVL186-.Ltext0
 10694 0798 0100     		.2byte	0x1
 10695 079a 51       		.byte	0x51
 10696 079b 58050000 		.4byte	.LVL186-.Ltext0
 10697 079f 60050000 		.4byte	.LVL188-.Ltext0
 10698 07a3 0400     		.2byte	0x4
ARM GAS  /tmp/ccQkqy1T.s 			page 230


 10699 07a5 F3       		.byte	0xf3
 10700 07a6 01       		.uleb128 0x1
 10701 07a7 51       		.byte	0x51
 10702 07a8 9F       		.byte	0x9f
 10703 07a9 60050000 		.4byte	.LVL188-.Ltext0
 10704 07ad BC050000 		.4byte	.LFE133-.Ltext0
 10705 07b1 0100     		.2byte	0x1
 10706 07b3 51       		.byte	0x51
 10707 07b4 00000000 		.4byte	0
 10708 07b8 00000000 		.4byte	0
 10709              	.LLST79:
 10710 07bc E4040000 		.4byte	.LVL173-.Ltext0
 10711 07c0 10050000 		.4byte	.LVL177-.Ltext0
 10712 07c4 0100     		.2byte	0x1
 10713 07c6 54       		.byte	0x54
 10714 07c7 12050000 		.4byte	.LVL178-.Ltext0
 10715 07cb 4E050000 		.4byte	.LVL184-.Ltext0
 10716 07cf 0100     		.2byte	0x1
 10717 07d1 54       		.byte	0x54
 10718 07d2 50050000 		.4byte	.LVL185-.Ltext0
 10719 07d6 60050000 		.4byte	.LVL188-.Ltext0
 10720 07da 0100     		.2byte	0x1
 10721 07dc 54       		.byte	0x54
 10722 07dd 70050000 		.4byte	.LVL189-.Ltext0
 10723 07e1 BA050000 		.4byte	.LVL193-.Ltext0
 10724 07e5 0100     		.2byte	0x1
 10725 07e7 54       		.byte	0x54
 10726 07e8 00000000 		.4byte	0
 10727 07ec 00000000 		.4byte	0
 10728              	.LLST80:
 10729 07f0 E6040000 		.4byte	.LVL174-.Ltext0
 10730 07f4 F4040000 		.4byte	.LVL175-.Ltext0
 10731 07f8 0100     		.2byte	0x1
 10732 07fa 55       		.byte	0x55
 10733 07fb 12050000 		.4byte	.LVL178-.Ltext0
 10734 07ff 30050000 		.4byte	.LVL179-.Ltext0
 10735 0803 0100     		.2byte	0x1
 10736 0805 55       		.byte	0x55
 10737 0806 5C050000 		.4byte	.LVL187-.Ltext0
 10738 080a 60050000 		.4byte	.LVL188-.Ltext0
 10739 080e 0100     		.2byte	0x1
 10740 0810 55       		.byte	0x55
 10741 0811 72050000 		.4byte	.LVL190-.Ltext0
 10742 0815 BC050000 		.4byte	.LFE133-.Ltext0
 10743 0819 0100     		.2byte	0x1
 10744 081b 55       		.byte	0x55
 10745 081c 00000000 		.4byte	0
 10746 0820 00000000 		.4byte	0
 10747              	.LLST81:
 10748 0824 CA040000 		.4byte	.LVL172-.Ltext0
 10749 0828 36050000 		.4byte	.LVL180-.Ltext0
 10750 082c 0200     		.2byte	0x2
 10751 082e 30       		.byte	0x30
 10752 082f 9F       		.byte	0x9f
 10753 0830 36050000 		.4byte	.LVL180-.Ltext0
 10754 0834 42050000 		.4byte	.LVL181-.Ltext0
 10755 0838 0500     		.2byte	0x5
ARM GAS  /tmp/ccQkqy1T.s 			page 231


 10756 083a 31       		.byte	0x31
 10757 083b 72       		.byte	0x72
 10758 083c 00       		.sleb128 0
 10759 083d 24       		.byte	0x24
 10760 083e 9F       		.byte	0x9f
 10761 083f 42050000 		.4byte	.LVL181-.Ltext0
 10762 0843 46050000 		.4byte	.LVL182-.Ltext0
 10763 0847 0100     		.2byte	0x1
 10764 0849 55       		.byte	0x55
 10765 084a 46050000 		.4byte	.LVL182-.Ltext0
 10766 084e 4A050000 		.4byte	.LVL183-.Ltext0
 10767 0852 0500     		.2byte	0x5
 10768 0854 31       		.byte	0x31
 10769 0855 72       		.byte	0x72
 10770 0856 00       		.sleb128 0
 10771 0857 24       		.byte	0x24
 10772 0858 9F       		.byte	0x9f
 10773 0859 60050000 		.4byte	.LVL188-.Ltext0
 10774 085d BC050000 		.4byte	.LFE133-.Ltext0
 10775 0861 0200     		.2byte	0x2
 10776 0863 30       		.byte	0x30
 10777 0864 9F       		.byte	0x9f
 10778 0865 00000000 		.4byte	0
 10779 0869 00000000 		.4byte	0
 10780              	.LLST71:
 10781 086d 8E040000 		.4byte	.LFB132-.Ltext0
 10782 0871 90040000 		.4byte	.LCFI14-.Ltext0
 10783 0875 0200     		.2byte	0x2
 10784 0877 7D       		.byte	0x7d
 10785 0878 00       		.sleb128 0
 10786 0879 90040000 		.4byte	.LCFI14-.Ltext0
 10787 087d CA040000 		.4byte	.LFE132-.Ltext0
 10788 0881 0200     		.2byte	0x2
 10789 0883 7D       		.byte	0x7d
 10790 0884 0C       		.sleb128 12
 10791 0885 00000000 		.4byte	0
 10792 0889 00000000 		.4byte	0
 10793              	.LLST72:
 10794 088d 8E040000 		.4byte	.LVL163-.Ltext0
 10795 0891 C8040000 		.4byte	.LVL171-.Ltext0
 10796 0895 0100     		.2byte	0x1
 10797 0897 50       		.byte	0x50
 10798 0898 C8040000 		.4byte	.LVL171-.Ltext0
 10799 089c CA040000 		.4byte	.LFE132-.Ltext0
 10800 08a0 0400     		.2byte	0x4
 10801 08a2 F3       		.byte	0xf3
 10802 08a3 01       		.uleb128 0x1
 10803 08a4 50       		.byte	0x50
 10804 08a5 9F       		.byte	0x9f
 10805 08a6 00000000 		.4byte	0
 10806 08aa 00000000 		.4byte	0
 10807              	.LLST73:
 10808 08ae 8E040000 		.4byte	.LVL163-.Ltext0
 10809 08b2 94040000 		.4byte	.LVL164-.Ltext0
 10810 08b6 0100     		.2byte	0x1
 10811 08b8 51       		.byte	0x51
 10812 08b9 94040000 		.4byte	.LVL164-.Ltext0
ARM GAS  /tmp/ccQkqy1T.s 			page 232


 10813 08bd CA040000 		.4byte	.LFE132-.Ltext0
 10814 08c1 0400     		.2byte	0x4
 10815 08c3 F3       		.byte	0xf3
 10816 08c4 01       		.uleb128 0x1
 10817 08c5 51       		.byte	0x51
 10818 08c6 9F       		.byte	0x9f
 10819 08c7 00000000 		.4byte	0
 10820 08cb 00000000 		.4byte	0
 10821              	.LLST74:
 10822 08cf B2040000 		.4byte	.LVL169-.Ltext0
 10823 08d3 CA040000 		.4byte	.LFE132-.Ltext0
 10824 08d7 0100     		.2byte	0x1
 10825 08d9 54       		.byte	0x54
 10826 08da 00000000 		.4byte	0
 10827 08de 00000000 		.4byte	0
 10828              	.LLST75:
 10829 08e2 A8040000 		.4byte	.LVL167-.Ltext0
 10830 08e6 C0040000 		.4byte	.LVL170-.Ltext0
 10831 08ea 0100     		.2byte	0x1
 10832 08ec 53       		.byte	0x53
 10833 08ed 00000000 		.4byte	0
 10834 08f1 00000000 		.4byte	0
 10835              	.LLST67:
 10836 08f5 3A040000 		.4byte	.LFB131-.Ltext0
 10837 08f9 3E040000 		.4byte	.LCFI13-.Ltext0
 10838 08fd 0200     		.2byte	0x2
 10839 08ff 7D       		.byte	0x7d
 10840 0900 00       		.sleb128 0
 10841 0901 3E040000 		.4byte	.LCFI13-.Ltext0
 10842 0905 8E040000 		.4byte	.LFE131-.Ltext0
 10843 0909 0200     		.2byte	0x2
 10844 090b 7D       		.byte	0x7d
 10845 090c 0C       		.sleb128 12
 10846 090d 00000000 		.4byte	0
 10847 0911 00000000 		.4byte	0
 10848              	.LLST68:
 10849 0915 3A040000 		.4byte	.LVL152-.Ltext0
 10850 0919 8C040000 		.4byte	.LVL162-.Ltext0
 10851 091d 0100     		.2byte	0x1
 10852 091f 50       		.byte	0x50
 10853 0920 8C040000 		.4byte	.LVL162-.Ltext0
 10854 0924 8E040000 		.4byte	.LFE131-.Ltext0
 10855 0928 0400     		.2byte	0x4
 10856 092a F3       		.byte	0xf3
 10857 092b 01       		.uleb128 0x1
 10858 092c 50       		.byte	0x50
 10859 092d 9F       		.byte	0x9f
 10860 092e 00000000 		.4byte	0
 10861 0932 00000000 		.4byte	0
 10862              	.LLST69:
 10863 0936 52040000 		.4byte	.LVL155-.Ltext0
 10864 093a 84040000 		.4byte	.LVL160-.Ltext0
 10865 093e 0100     		.2byte	0x1
 10866 0940 53       		.byte	0x53
 10867 0941 00000000 		.4byte	0
 10868 0945 00000000 		.4byte	0
 10869              	.LLST70:
ARM GAS  /tmp/ccQkqy1T.s 			page 233


 10870 0949 5E040000 		.4byte	.LVL157-.Ltext0
 10871 094d 88040000 		.4byte	.LVL161-.Ltext0
 10872 0951 0100     		.2byte	0x1
 10873 0953 54       		.byte	0x54
 10874 0954 00000000 		.4byte	0
 10875 0958 00000000 		.4byte	0
 10876              	.LLST65:
 10877 095c 12040000 		.4byte	.LVL148-.Ltext0
 10878 0960 16040000 		.4byte	.LVL149-.Ltext0
 10879 0964 0100     		.2byte	0x1
 10880 0966 50       		.byte	0x50
 10881 0967 16040000 		.4byte	.LVL149-.Ltext0
 10882 096b 3A040000 		.4byte	.LFE130-.Ltext0
 10883 096f 0400     		.2byte	0x4
 10884 0971 F3       		.byte	0xf3
 10885 0972 01       		.uleb128 0x1
 10886 0973 50       		.byte	0x50
 10887 0974 9F       		.byte	0x9f
 10888 0975 00000000 		.4byte	0
 10889 0979 00000000 		.4byte	0
 10890              	.LLST66:
 10891 097d 1A040000 		.4byte	.LVL150-.Ltext0
 10892 0981 30040000 		.4byte	.LVL151-.Ltext0
 10893 0985 0100     		.2byte	0x1
 10894 0987 52       		.byte	0x52
 10895 0988 00000000 		.4byte	0
 10896 098c 00000000 		.4byte	0
 10897              	.LLST63:
 10898 0990 F4030000 		.4byte	.LVL142-.Ltext0
 10899 0994 08040000 		.4byte	.LVL143-.Ltext0
 10900 0998 0100     		.2byte	0x1
 10901 099a 50       		.byte	0x50
 10902 099b 08040000 		.4byte	.LVL143-.Ltext0
 10903 099f 0A040000 		.4byte	.LVL144-.Ltext0
 10904 09a3 0400     		.2byte	0x4
 10905 09a5 F3       		.byte	0xf3
 10906 09a6 01       		.uleb128 0x1
 10907 09a7 50       		.byte	0x50
 10908 09a8 9F       		.byte	0x9f
 10909 09a9 0A040000 		.4byte	.LVL144-.Ltext0
 10910 09ad 0C040000 		.4byte	.LVL145-.Ltext0
 10911 09b1 0100     		.2byte	0x1
 10912 09b3 50       		.byte	0x50
 10913 09b4 0C040000 		.4byte	.LVL145-.Ltext0
 10914 09b8 0E040000 		.4byte	.LVL146-.Ltext0
 10915 09bc 0400     		.2byte	0x4
 10916 09be F3       		.byte	0xf3
 10917 09bf 01       		.uleb128 0x1
 10918 09c0 50       		.byte	0x50
 10919 09c1 9F       		.byte	0x9f
 10920 09c2 0E040000 		.4byte	.LVL146-.Ltext0
 10921 09c6 10040000 		.4byte	.LVL147-.Ltext0
 10922 09ca 0100     		.2byte	0x1
 10923 09cc 50       		.byte	0x50
 10924 09cd 10040000 		.4byte	.LVL147-.Ltext0
 10925 09d1 12040000 		.4byte	.LFE129-.Ltext0
 10926 09d5 0400     		.2byte	0x4
ARM GAS  /tmp/ccQkqy1T.s 			page 234


 10927 09d7 F3       		.byte	0xf3
 10928 09d8 01       		.uleb128 0x1
 10929 09d9 50       		.byte	0x50
 10930 09da 9F       		.byte	0x9f
 10931 09db 00000000 		.4byte	0
 10932 09df 00000000 		.4byte	0
 10933              	.LLST64:
 10934 09e3 F4030000 		.4byte	.LVL142-.Ltext0
 10935 09e7 0A040000 		.4byte	.LVL144-.Ltext0
 10936 09eb 0200     		.2byte	0x2
 10937 09ed 30       		.byte	0x30
 10938 09ee 9F       		.byte	0x9f
 10939 09ef 0A040000 		.4byte	.LVL144-.Ltext0
 10940 09f3 0E040000 		.4byte	.LVL146-.Ltext0
 10941 09f7 0200     		.2byte	0x2
 10942 09f9 31       		.byte	0x31
 10943 09fa 9F       		.byte	0x9f
 10944 09fb 0E040000 		.4byte	.LVL146-.Ltext0
 10945 09ff 10040000 		.4byte	.LVL147-.Ltext0
 10946 0a03 0200     		.2byte	0x2
 10947 0a05 30       		.byte	0x30
 10948 0a06 9F       		.byte	0x9f
 10949 0a07 10040000 		.4byte	.LVL147-.Ltext0
 10950 0a0b 12040000 		.4byte	.LFE129-.Ltext0
 10951 0a0f 0100     		.2byte	0x1
 10952 0a11 50       		.byte	0x50
 10953 0a12 00000000 		.4byte	0
 10954 0a16 00000000 		.4byte	0
 10955              	.LLST49:
 10956 0a1a E0020000 		.4byte	.LFB128-.Ltext0
 10957 0a1e E2020000 		.4byte	.LCFI11-.Ltext0
 10958 0a22 0200     		.2byte	0x2
 10959 0a24 7D       		.byte	0x7d
 10960 0a25 00       		.sleb128 0
 10961 0a26 E2020000 		.4byte	.LCFI11-.Ltext0
 10962 0a2a 20030000 		.4byte	.LFE128-.Ltext0
 10963 0a2e 0200     		.2byte	0x2
 10964 0a30 7D       		.byte	0x7d
 10965 0a31 08       		.sleb128 8
 10966 0a32 00000000 		.4byte	0
 10967 0a36 00000000 		.4byte	0
 10968              	.LLST50:
 10969 0a3a E0020000 		.4byte	.LVL102-.Ltext0
 10970 0a3e 1A030000 		.4byte	.LVL116-.Ltext0
 10971 0a42 0100     		.2byte	0x1
 10972 0a44 50       		.byte	0x50
 10973 0a45 1A030000 		.4byte	.LVL116-.Ltext0
 10974 0a49 20030000 		.4byte	.LFE128-.Ltext0
 10975 0a4d 0400     		.2byte	0x4
 10976 0a4f F3       		.byte	0xf3
 10977 0a50 01       		.uleb128 0x1
 10978 0a51 50       		.byte	0x50
 10979 0a52 9F       		.byte	0x9f
 10980 0a53 00000000 		.4byte	0
 10981 0a57 00000000 		.4byte	0
 10982              	.LLST51:
 10983 0a5b EE020000 		.4byte	.LVL104-.Ltext0
ARM GAS  /tmp/ccQkqy1T.s 			page 235


 10984 0a5f FE020000 		.4byte	.LVL108-.Ltext0
 10985 0a63 0100     		.2byte	0x1
 10986 0a65 53       		.byte	0x53
 10987 0a66 02030000 		.4byte	.LVL109-.Ltext0
 10988 0a6a 0A030000 		.4byte	.LVL111-.Ltext0
 10989 0a6e 0100     		.2byte	0x1
 10990 0a70 53       		.byte	0x53
 10991 0a71 0C030000 		.4byte	.LVL112-.Ltext0
 10992 0a75 16030000 		.4byte	.LVL115-.Ltext0
 10993 0a79 0100     		.2byte	0x1
 10994 0a7b 53       		.byte	0x53
 10995 0a7c 00000000 		.4byte	0
 10996 0a80 00000000 		.4byte	0
 10997              	.LLST52:
 10998 0a84 F2020000 		.4byte	.LVL105-.Ltext0
 10999 0a88 1A030000 		.4byte	.LVL116-.Ltext0
 11000 0a8c 0100     		.2byte	0x1
 11001 0a8e 50       		.byte	0x50
 11002 0a8f 1A030000 		.4byte	.LVL116-.Ltext0
 11003 0a93 20030000 		.4byte	.LFE128-.Ltext0
 11004 0a97 0400     		.2byte	0x4
 11005 0a99 F3       		.byte	0xf3
 11006 0a9a 01       		.uleb128 0x1
 11007 0a9b 50       		.byte	0x50
 11008 0a9c 9F       		.byte	0x9f
 11009 0a9d 00000000 		.4byte	0
 11010 0aa1 00000000 		.4byte	0
 11011              	.LLST53:
 11012 0aa5 F8020000 		.4byte	.LVL106-.Ltext0
 11013 0aa9 FC020000 		.4byte	.LVL107-.Ltext0
 11014 0aad 0100     		.2byte	0x1
 11015 0aaf 51       		.byte	0x51
 11016 0ab0 00000000 		.4byte	0
 11017 0ab4 00000000 		.4byte	0
 11018              	.LLST54:
 11019 0ab8 20030000 		.4byte	.LFB127-.Ltext0
 11020 0abc 22030000 		.4byte	.LCFI12-.Ltext0
 11021 0ac0 0200     		.2byte	0x2
 11022 0ac2 7D       		.byte	0x7d
 11023 0ac3 00       		.sleb128 0
 11024 0ac4 22030000 		.4byte	.LCFI12-.Ltext0
 11025 0ac8 F4030000 		.4byte	.LFE127-.Ltext0
 11026 0acc 0200     		.2byte	0x2
 11027 0ace 7D       		.byte	0x7d
 11028 0acf 18       		.sleb128 24
 11029 0ad0 00000000 		.4byte	0
 11030 0ad4 00000000 		.4byte	0
 11031              	.LLST55:
 11032 0ad8 20030000 		.4byte	.LVL117-.Ltext0
 11033 0adc 66030000 		.4byte	.LVL126-.Ltext0
 11034 0ae0 0100     		.2byte	0x1
 11035 0ae2 50       		.byte	0x50
 11036 0ae3 66030000 		.4byte	.LVL126-.Ltext0
 11037 0ae7 F4030000 		.4byte	.LFE127-.Ltext0
 11038 0aeb 0100     		.2byte	0x1
 11039 0aed 54       		.byte	0x54
 11040 0aee 00000000 		.4byte	0
ARM GAS  /tmp/ccQkqy1T.s 			page 236


 11041 0af2 00000000 		.4byte	0
 11042              	.LLST56:
 11043 0af6 8E030000 		.4byte	.LVL130-.Ltext0
 11044 0afa C4030000 		.4byte	.LVL136-.Ltext0
 11045 0afe 0100     		.2byte	0x1
 11046 0b00 57       		.byte	0x57
 11047 0b01 CE030000 		.4byte	.LVL137-.Ltext0
 11048 0b05 DC030000 		.4byte	.LVL139-.Ltext0
 11049 0b09 0100     		.2byte	0x1
 11050 0b0b 57       		.byte	0x57
 11051 0b0c 00000000 		.4byte	0
 11052 0b10 00000000 		.4byte	0
 11053              	.LLST57:
 11054 0b14 82030000 		.4byte	.LVL129-.Ltext0
 11055 0b18 8E030000 		.4byte	.LVL130-.Ltext0
 11056 0b1c 0200     		.2byte	0x2
 11057 0b1e 30       		.byte	0x30
 11058 0b1f 9F       		.byte	0x9f
 11059 0b20 9C030000 		.4byte	.LVL131-.Ltext0
 11060 0b24 A4030000 		.4byte	.LVL132-.Ltext0
 11061 0b28 0100     		.2byte	0x1
 11062 0b2a 53       		.byte	0x53
 11063 0b2b D6030000 		.4byte	.LVL138-.Ltext0
 11064 0b2f F4030000 		.4byte	.LFE127-.Ltext0
 11065 0b33 0100     		.2byte	0x1
 11066 0b35 53       		.byte	0x53
 11067 0b36 00000000 		.4byte	0
 11068 0b3a 00000000 		.4byte	0
 11069              	.LLST58:
 11070 0b3e 32030000 		.4byte	.LVL118-.Ltext0
 11071 0b42 36030000 		.4byte	.LVL119-.Ltext0
 11072 0b46 0100     		.2byte	0x1
 11073 0b48 53       		.byte	0x53
 11074 0b49 00000000 		.4byte	0
 11075 0b4d 00000000 		.4byte	0
 11076              	.LLST59:
 11077 0b51 48030000 		.4byte	.LVL121-.Ltext0
 11078 0b55 52030000 		.4byte	.LVL124-.Ltext0
 11079 0b59 0100     		.2byte	0x1
 11080 0b5b 52       		.byte	0x52
 11081 0b5c 00000000 		.4byte	0
 11082 0b60 00000000 		.4byte	0
 11083              	.LLST60:
 11084 0b64 4E030000 		.4byte	.LVL123-.Ltext0
 11085 0b68 69030000 		.4byte	.LVL127-1-.Ltext0
 11086 0b6c 0100     		.2byte	0x1
 11087 0b6e 52       		.byte	0x52
 11088 0b6f 00000000 		.4byte	0
 11089 0b73 00000000 		.4byte	0
 11090              	.LLST61:
 11091 0b77 B2030000 		.4byte	.LVL133-.Ltext0
 11092 0b7b B9030000 		.4byte	.LVL134-1-.Ltext0
 11093 0b7f 0100     		.2byte	0x1
 11094 0b81 53       		.byte	0x53
 11095 0b82 00000000 		.4byte	0
 11096 0b86 00000000 		.4byte	0
 11097              	.LLST62:
ARM GAS  /tmp/ccQkqy1T.s 			page 237


 11098 0b8a 9C030000 		.4byte	.LVL131-.Ltext0
 11099 0b8e BE030000 		.4byte	.LVL135-.Ltext0
 11100 0b92 0100     		.2byte	0x1
 11101 0b94 57       		.byte	0x57
 11102 0b95 D6030000 		.4byte	.LVL138-.Ltext0
 11103 0b99 DC030000 		.4byte	.LVL139-.Ltext0
 11104 0b9d 0100     		.2byte	0x1
 11105 0b9f 57       		.byte	0x57
 11106 0ba0 E6030000 		.4byte	.LVL140-.Ltext0
 11107 0ba4 F4030000 		.4byte	.LFE127-.Ltext0
 11108 0ba8 0100     		.2byte	0x1
 11109 0baa 57       		.byte	0x57
 11110 0bab 00000000 		.4byte	0
 11111 0baf 00000000 		.4byte	0
 11112              	.LLST48:
 11113 0bb3 CE020000 		.4byte	.LVL98-.Ltext0
 11114 0bb7 D2020000 		.4byte	.LVL99-.Ltext0
 11115 0bbb 0100     		.2byte	0x1
 11116 0bbd 50       		.byte	0x50
 11117 0bbe D2020000 		.4byte	.LVL99-.Ltext0
 11118 0bc2 D4020000 		.4byte	.LFE125-.Ltext0
 11119 0bc6 0400     		.2byte	0x4
 11120 0bc8 F3       		.byte	0xf3
 11121 0bc9 01       		.uleb128 0x1
 11122 0bca 50       		.byte	0x50
 11123 0bcb 9F       		.byte	0x9f
 11124 0bcc 00000000 		.4byte	0
 11125 0bd0 00000000 		.4byte	0
 11126              	.LLST46:
 11127 0bd4 C4020000 		.4byte	.LVL94-.Ltext0
 11128 0bd8 C8020000 		.4byte	.LVL95-.Ltext0
 11129 0bdc 0100     		.2byte	0x1
 11130 0bde 50       		.byte	0x50
 11131 0bdf C8020000 		.4byte	.LVL95-.Ltext0
 11132 0be3 CE020000 		.4byte	.LFE124-.Ltext0
 11133 0be7 0400     		.2byte	0x4
 11134 0be9 F3       		.byte	0xf3
 11135 0bea 01       		.uleb128 0x1
 11136 0beb 50       		.byte	0x50
 11137 0bec 9F       		.byte	0x9f
 11138 0bed 00000000 		.4byte	0
 11139 0bf1 00000000 		.4byte	0
 11140              	.LLST47:
 11141 0bf5 C4020000 		.4byte	.LVL94-.Ltext0
 11142 0bf9 C8020000 		.4byte	.LVL95-.Ltext0
 11143 0bfd 0200     		.2byte	0x2
 11144 0bff 30       		.byte	0x30
 11145 0c00 9F       		.byte	0x9f
 11146 0c01 C8020000 		.4byte	.LVL95-.Ltext0
 11147 0c05 CA020000 		.4byte	.LVL96-.Ltext0
 11148 0c09 0100     		.2byte	0x1
 11149 0c0b 50       		.byte	0x50
 11150 0c0c CA020000 		.4byte	.LVL96-.Ltext0
 11151 0c10 CC020000 		.4byte	.LVL97-.Ltext0
 11152 0c14 0600     		.2byte	0x6
 11153 0c16 70       		.byte	0x70
 11154 0c17 00       		.sleb128 0
ARM GAS  /tmp/ccQkqy1T.s 			page 238


 11155 0c18 73       		.byte	0x73
 11156 0c19 00       		.sleb128 0
 11157 0c1a 1A       		.byte	0x1a
 11158 0c1b 9F       		.byte	0x9f
 11159 0c1c CC020000 		.4byte	.LVL97-.Ltext0
 11160 0c20 CE020000 		.4byte	.LFE124-.Ltext0
 11161 0c24 0100     		.2byte	0x1
 11162 0c26 50       		.byte	0x50
 11163 0c27 00000000 		.4byte	0
 11164 0c2b 00000000 		.4byte	0
 11165              	.LLST44:
 11166 0c2f BA020000 		.4byte	.LVL92-.Ltext0
 11167 0c33 BE020000 		.4byte	.LVL93-.Ltext0
 11168 0c37 0100     		.2byte	0x1
 11169 0c39 50       		.byte	0x50
 11170 0c3a BE020000 		.4byte	.LVL93-.Ltext0
 11171 0c3e C4020000 		.4byte	.LFE123-.Ltext0
 11172 0c42 0400     		.2byte	0x4
 11173 0c44 F3       		.byte	0xf3
 11174 0c45 01       		.uleb128 0x1
 11175 0c46 50       		.byte	0x50
 11176 0c47 9F       		.byte	0x9f
 11177 0c48 00000000 		.4byte	0
 11178 0c4c 00000000 		.4byte	0
 11179              	.LLST45:
 11180 0c50 BA020000 		.4byte	.LVL92-.Ltext0
 11181 0c54 BE020000 		.4byte	.LVL93-.Ltext0
 11182 0c58 0100     		.2byte	0x1
 11183 0c5a 50       		.byte	0x50
 11184 0c5b 00000000 		.4byte	0
 11185 0c5f 00000000 		.4byte	0
 11186              	.LLST42:
 11187 0c63 AE020000 		.4byte	.LVL90-.Ltext0
 11188 0c67 B2020000 		.4byte	.LVL91-.Ltext0
 11189 0c6b 0100     		.2byte	0x1
 11190 0c6d 50       		.byte	0x50
 11191 0c6e B2020000 		.4byte	.LVL91-.Ltext0
 11192 0c72 BA020000 		.4byte	.LFE122-.Ltext0
 11193 0c76 0400     		.2byte	0x4
 11194 0c78 F3       		.byte	0xf3
 11195 0c79 01       		.uleb128 0x1
 11196 0c7a 50       		.byte	0x50
 11197 0c7b 9F       		.byte	0x9f
 11198 0c7c 00000000 		.4byte	0
 11199 0c80 00000000 		.4byte	0
 11200              	.LLST43:
 11201 0c84 AE020000 		.4byte	.LVL90-.Ltext0
 11202 0c88 B2020000 		.4byte	.LVL91-.Ltext0
 11203 0c8c 0100     		.2byte	0x1
 11204 0c8e 50       		.byte	0x50
 11205 0c8f 00000000 		.4byte	0
 11206 0c93 00000000 		.4byte	0
 11207              	.LLST37:
 11208 0c97 78020000 		.4byte	.LFB120-.Ltext0
 11209 0c9b 7C020000 		.4byte	.LCFI10-.Ltext0
 11210 0c9f 0200     		.2byte	0x2
 11211 0ca1 7D       		.byte	0x7d
ARM GAS  /tmp/ccQkqy1T.s 			page 239


 11212 0ca2 00       		.sleb128 0
 11213 0ca3 7C020000 		.4byte	.LCFI10-.Ltext0
 11214 0ca7 A4020000 		.4byte	.LFE120-.Ltext0
 11215 0cab 0200     		.2byte	0x2
 11216 0cad 7D       		.byte	0x7d
 11217 0cae 08       		.sleb128 8
 11218 0caf 00000000 		.4byte	0
 11219 0cb3 00000000 		.4byte	0
 11220              	.LLST38:
 11221 0cb7 78020000 		.4byte	.LVL81-.Ltext0
 11222 0cbb 92020000 		.4byte	.LVL84-.Ltext0
 11223 0cbf 0100     		.2byte	0x1
 11224 0cc1 50       		.byte	0x50
 11225 0cc2 92020000 		.4byte	.LVL84-.Ltext0
 11226 0cc6 9A020000 		.4byte	.LVL86-.Ltext0
 11227 0cca 0400     		.2byte	0x4
 11228 0ccc F3       		.byte	0xf3
 11229 0ccd 01       		.uleb128 0x1
 11230 0cce 50       		.byte	0x50
 11231 0ccf 9F       		.byte	0x9f
 11232 0cd0 9A020000 		.4byte	.LVL86-.Ltext0
 11233 0cd4 A4020000 		.4byte	.LFE120-.Ltext0
 11234 0cd8 0100     		.2byte	0x1
 11235 0cda 50       		.byte	0x50
 11236 0cdb 00000000 		.4byte	0
 11237 0cdf 00000000 		.4byte	0
 11238              	.LLST39:
 11239 0ce3 78020000 		.4byte	.LVL81-.Ltext0
 11240 0ce7 95020000 		.4byte	.LVL85-1-.Ltext0
 11241 0ceb 0100     		.2byte	0x1
 11242 0ced 51       		.byte	0x51
 11243 0cee 95020000 		.4byte	.LVL85-1-.Ltext0
 11244 0cf2 9A020000 		.4byte	.LVL86-.Ltext0
 11245 0cf6 0400     		.2byte	0x4
 11246 0cf8 F3       		.byte	0xf3
 11247 0cf9 01       		.uleb128 0x1
 11248 0cfa 51       		.byte	0x51
 11249 0cfb 9F       		.byte	0x9f
 11250 0cfc 9A020000 		.4byte	.LVL86-.Ltext0
 11251 0d00 A4020000 		.4byte	.LFE120-.Ltext0
 11252 0d04 0100     		.2byte	0x1
 11253 0d06 51       		.byte	0x51
 11254 0d07 00000000 		.4byte	0
 11255 0d0b 00000000 		.4byte	0
 11256              	.LLST40:
 11257 0d0f 7E020000 		.4byte	.LVL82-.Ltext0
 11258 0d13 95020000 		.4byte	.LVL85-1-.Ltext0
 11259 0d17 0100     		.2byte	0x1
 11260 0d19 53       		.byte	0x53
 11261 0d1a 9A020000 		.4byte	.LVL86-.Ltext0
 11262 0d1e A2020000 		.4byte	.LVL87-.Ltext0
 11263 0d22 0100     		.2byte	0x1
 11264 0d24 53       		.byte	0x53
 11265 0d25 00000000 		.4byte	0
 11266 0d29 00000000 		.4byte	0
 11267              	.LLST34:
 11268 0d2d 40020000 		.4byte	.LFB119-.Ltext0
ARM GAS  /tmp/ccQkqy1T.s 			page 240


 11269 0d31 42020000 		.4byte	.LCFI8-.Ltext0
 11270 0d35 0200     		.2byte	0x2
 11271 0d37 7D       		.byte	0x7d
 11272 0d38 00       		.sleb128 0
 11273 0d39 42020000 		.4byte	.LCFI8-.Ltext0
 11274 0d3d 6E020000 		.4byte	.LCFI9-.Ltext0
 11275 0d41 0200     		.2byte	0x2
 11276 0d43 7D       		.byte	0x7d
 11277 0d44 10       		.sleb128 16
 11278 0d45 6E020000 		.4byte	.LCFI9-.Ltext0
 11279 0d49 78020000 		.4byte	.LFE119-.Ltext0
 11280 0d4d 0200     		.2byte	0x2
 11281 0d4f 7D       		.byte	0x7d
 11282 0d50 04       		.sleb128 4
 11283 0d51 00000000 		.4byte	0
 11284 0d55 00000000 		.4byte	0
 11285              	.LLST35:
 11286 0d59 40020000 		.4byte	.LVL73-.Ltext0
 11287 0d5d 66020000 		.4byte	.LVL79-.Ltext0
 11288 0d61 0100     		.2byte	0x1
 11289 0d63 50       		.byte	0x50
 11290 0d64 66020000 		.4byte	.LVL79-.Ltext0
 11291 0d68 78020000 		.4byte	.LFE119-.Ltext0
 11292 0d6c 0400     		.2byte	0x4
 11293 0d6e F3       		.byte	0xf3
 11294 0d6f 01       		.uleb128 0x1
 11295 0d70 50       		.byte	0x50
 11296 0d71 9F       		.byte	0x9f
 11297 0d72 00000000 		.4byte	0
 11298 0d76 00000000 		.4byte	0
 11299              	.LLST36:
 11300 0d7a 40020000 		.4byte	.LVL73-.Ltext0
 11301 0d7e 56020000 		.4byte	.LVL74-.Ltext0
 11302 0d82 0200     		.2byte	0x2
 11303 0d84 30       		.byte	0x30
 11304 0d85 9F       		.byte	0x9f
 11305 0d86 56020000 		.4byte	.LVL74-.Ltext0
 11306 0d8a 5A020000 		.4byte	.LVL75-.Ltext0
 11307 0d8e 0900     		.2byte	0x9
 11308 0d90 0C       		.byte	0xc
 11309 0d91 410D0300 		.4byte	0x30d41
 11310 0d95 73       		.byte	0x73
 11311 0d96 00       		.sleb128 0
 11312 0d97 1C       		.byte	0x1c
 11313 0d98 9F       		.byte	0x9f
 11314 0d99 5A020000 		.4byte	.LVL75-.Ltext0
 11315 0d9d 5C020000 		.4byte	.LVL76-.Ltext0
 11316 0da1 0900     		.2byte	0x9
 11317 0da3 0C       		.byte	0xc
 11318 0da4 420D0300 		.4byte	0x30d42
 11319 0da8 73       		.byte	0x73
 11320 0da9 00       		.sleb128 0
 11321 0daa 1C       		.byte	0x1c
 11322 0dab 9F       		.byte	0x9f
 11323 0dac 5C020000 		.4byte	.LVL76-.Ltext0
 11324 0db0 5E020000 		.4byte	.LVL77-.Ltext0
 11325 0db4 0900     		.2byte	0x9
ARM GAS  /tmp/ccQkqy1T.s 			page 241


 11326 0db6 0C       		.byte	0xc
 11327 0db7 410D0300 		.4byte	0x30d41
 11328 0dbb 73       		.byte	0x73
 11329 0dbc 00       		.sleb128 0
 11330 0dbd 1C       		.byte	0x1c
 11331 0dbe 9F       		.byte	0x9f
 11332 0dbf 5E020000 		.4byte	.LVL77-.Ltext0
 11333 0dc3 64020000 		.4byte	.LVL78-.Ltext0
 11334 0dc7 0900     		.2byte	0x9
 11335 0dc9 0C       		.byte	0xc
 11336 0dca 420D0300 		.4byte	0x30d42
 11337 0dce 73       		.byte	0x73
 11338 0dcf 00       		.sleb128 0
 11339 0dd0 1C       		.byte	0x1c
 11340 0dd1 9F       		.byte	0x9f
 11341 0dd2 00000000 		.4byte	0
 11342 0dd6 00000000 		.4byte	0
 11343              	.LLST30:
 11344 0dda 00020000 		.4byte	.LFB118-.Ltext0
 11345 0dde 02020000 		.4byte	.LCFI6-.Ltext0
 11346 0de2 0200     		.2byte	0x2
 11347 0de4 7D       		.byte	0x7d
 11348 0de5 00       		.sleb128 0
 11349 0de6 02020000 		.4byte	.LCFI6-.Ltext0
 11350 0dea 36020000 		.4byte	.LCFI7-.Ltext0
 11351 0dee 0200     		.2byte	0x2
 11352 0df0 7D       		.byte	0x7d
 11353 0df1 10       		.sleb128 16
 11354 0df2 36020000 		.4byte	.LCFI7-.Ltext0
 11355 0df6 40020000 		.4byte	.LFE118-.Ltext0
 11356 0dfa 0200     		.2byte	0x2
 11357 0dfc 7D       		.byte	0x7d
 11358 0dfd 04       		.sleb128 4
 11359 0dfe 00000000 		.4byte	0
 11360 0e02 00000000 		.4byte	0
 11361              	.LLST31:
 11362 0e06 00020000 		.4byte	.LVL65-.Ltext0
 11363 0e0a 2E020000 		.4byte	.LVL71-.Ltext0
 11364 0e0e 0100     		.2byte	0x1
 11365 0e10 50       		.byte	0x50
 11366 0e11 2E020000 		.4byte	.LVL71-.Ltext0
 11367 0e15 40020000 		.4byte	.LFE118-.Ltext0
 11368 0e19 0400     		.2byte	0x4
 11369 0e1b F3       		.byte	0xf3
 11370 0e1c 01       		.uleb128 0x1
 11371 0e1d 50       		.byte	0x50
 11372 0e1e 9F       		.byte	0x9f
 11373 0e1f 00000000 		.4byte	0
 11374 0e23 00000000 		.4byte	0
 11375              	.LLST32:
 11376 0e27 00020000 		.4byte	.LVL65-.Ltext0
 11377 0e2b 1E020000 		.4byte	.LVL66-.Ltext0
 11378 0e2f 0100     		.2byte	0x1
 11379 0e31 51       		.byte	0x51
 11380 0e32 1E020000 		.4byte	.LVL66-.Ltext0
 11381 0e36 40020000 		.4byte	.LFE118-.Ltext0
 11382 0e3a 0400     		.2byte	0x4
ARM GAS  /tmp/ccQkqy1T.s 			page 242


 11383 0e3c F3       		.byte	0xf3
 11384 0e3d 01       		.uleb128 0x1
 11385 0e3e 51       		.byte	0x51
 11386 0e3f 9F       		.byte	0x9f
 11387 0e40 00000000 		.4byte	0
 11388 0e44 00000000 		.4byte	0
 11389              	.LLST33:
 11390 0e48 00020000 		.4byte	.LVL65-.Ltext0
 11391 0e4c 1E020000 		.4byte	.LVL66-.Ltext0
 11392 0e50 0200     		.2byte	0x2
 11393 0e52 30       		.byte	0x30
 11394 0e53 9F       		.byte	0x9f
 11395 0e54 1E020000 		.4byte	.LVL66-.Ltext0
 11396 0e58 22020000 		.4byte	.LVL67-.Ltext0
 11397 0e5c 0900     		.2byte	0x9
 11398 0e5e 0C       		.byte	0xc
 11399 0e5f 410D0300 		.4byte	0x30d41
 11400 0e63 73       		.byte	0x73
 11401 0e64 00       		.sleb128 0
 11402 0e65 1C       		.byte	0x1c
 11403 0e66 9F       		.byte	0x9f
 11404 0e67 22020000 		.4byte	.LVL67-.Ltext0
 11405 0e6b 24020000 		.4byte	.LVL68-.Ltext0
 11406 0e6f 0900     		.2byte	0x9
 11407 0e71 0C       		.byte	0xc
 11408 0e72 420D0300 		.4byte	0x30d42
 11409 0e76 73       		.byte	0x73
 11410 0e77 00       		.sleb128 0
 11411 0e78 1C       		.byte	0x1c
 11412 0e79 9F       		.byte	0x9f
 11413 0e7a 24020000 		.4byte	.LVL68-.Ltext0
 11414 0e7e 26020000 		.4byte	.LVL69-.Ltext0
 11415 0e82 0900     		.2byte	0x9
 11416 0e84 0C       		.byte	0xc
 11417 0e85 410D0300 		.4byte	0x30d41
 11418 0e89 73       		.byte	0x73
 11419 0e8a 00       		.sleb128 0
 11420 0e8b 1C       		.byte	0x1c
 11421 0e8c 9F       		.byte	0x9f
 11422 0e8d 26020000 		.4byte	.LVL69-.Ltext0
 11423 0e91 2C020000 		.4byte	.LVL70-.Ltext0
 11424 0e95 0900     		.2byte	0x9
 11425 0e97 0C       		.byte	0xc
 11426 0e98 420D0300 		.4byte	0x30d42
 11427 0e9c 73       		.byte	0x73
 11428 0e9d 00       		.sleb128 0
 11429 0e9e 1C       		.byte	0x1c
 11430 0e9f 9F       		.byte	0x9f
 11431 0ea0 00000000 		.4byte	0
 11432 0ea4 00000000 		.4byte	0
 11433              	.LLST29:
 11434 0ea8 F2010000 		.4byte	.LVL63-.Ltext0
 11435 0eac FE010000 		.4byte	.LVL64-.Ltext0
 11436 0eb0 0100     		.2byte	0x1
 11437 0eb2 50       		.byte	0x50
 11438 0eb3 FE010000 		.4byte	.LVL64-.Ltext0
 11439 0eb7 00020000 		.4byte	.LFE117-.Ltext0
ARM GAS  /tmp/ccQkqy1T.s 			page 243


 11440 0ebb 0400     		.2byte	0x4
 11441 0ebd F3       		.byte	0xf3
 11442 0ebe 01       		.uleb128 0x1
 11443 0ebf 50       		.byte	0x50
 11444 0ec0 9F       		.byte	0x9f
 11445 0ec1 00000000 		.4byte	0
 11446 0ec5 00000000 		.4byte	0
 11447              	.LLST28:
 11448 0ec9 E4010000 		.4byte	.LVL61-.Ltext0
 11449 0ecd F0010000 		.4byte	.LVL62-.Ltext0
 11450 0ed1 0100     		.2byte	0x1
 11451 0ed3 50       		.byte	0x50
 11452 0ed4 F0010000 		.4byte	.LVL62-.Ltext0
 11453 0ed8 F2010000 		.4byte	.LFE116-.Ltext0
 11454 0edc 0400     		.2byte	0x4
 11455 0ede F3       		.byte	0xf3
 11456 0edf 01       		.uleb128 0x1
 11457 0ee0 50       		.byte	0x50
 11458 0ee1 9F       		.byte	0x9f
 11459 0ee2 00000000 		.4byte	0
 11460 0ee6 00000000 		.4byte	0
 11461              	.LLST23:
 11462 0eea 58010000 		.4byte	.LFB115-.Ltext0
 11463 0eee 5A010000 		.4byte	.LCFI5-.Ltext0
 11464 0ef2 0200     		.2byte	0x2
 11465 0ef4 7D       		.byte	0x7d
 11466 0ef5 00       		.sleb128 0
 11467 0ef6 5A010000 		.4byte	.LCFI5-.Ltext0
 11468 0efa E4010000 		.4byte	.LFE115-.Ltext0
 11469 0efe 0200     		.2byte	0x2
 11470 0f00 7D       		.byte	0x7d
 11471 0f01 10       		.sleb128 16
 11472 0f02 00000000 		.4byte	0
 11473 0f06 00000000 		.4byte	0
 11474              	.LLST24:
 11475 0f0a 58010000 		.4byte	.LVL43-.Ltext0
 11476 0f0e 64010000 		.4byte	.LVL45-.Ltext0
 11477 0f12 0100     		.2byte	0x1
 11478 0f14 50       		.byte	0x50
 11479 0f15 64010000 		.4byte	.LVL45-.Ltext0
 11480 0f19 E4010000 		.4byte	.LFE115-.Ltext0
 11481 0f1d 0100     		.2byte	0x1
 11482 0f1f 55       		.byte	0x55
 11483 0f20 00000000 		.4byte	0
 11484 0f24 00000000 		.4byte	0
 11485              	.LLST25:
 11486 0f28 7E010000 		.4byte	.LVL50-.Ltext0
 11487 0f2c 8F010000 		.4byte	.LVL51-1-.Ltext0
 11488 0f30 0100     		.2byte	0x1
 11489 0f32 53       		.byte	0x53
 11490 0f33 C4010000 		.4byte	.LVL57-.Ltext0
 11491 0f37 C9010000 		.4byte	.LVL58-1-.Ltext0
 11492 0f3b 0100     		.2byte	0x1
 11493 0f3d 53       		.byte	0x53
 11494 0f3e 00000000 		.4byte	0
 11495 0f42 00000000 		.4byte	0
 11496              	.LLST26:
ARM GAS  /tmp/ccQkqy1T.s 			page 244


 11497 0f46 6A010000 		.4byte	.LVL46-.Ltext0
 11498 0f4a 7A010000 		.4byte	.LVL49-.Ltext0
 11499 0f4e 0100     		.2byte	0x1
 11500 0f50 53       		.byte	0x53
 11501 0f51 DA010000 		.4byte	.LVL59-.Ltext0
 11502 0f55 E1010000 		.4byte	.LVL60-1-.Ltext0
 11503 0f59 0100     		.2byte	0x1
 11504 0f5b 53       		.byte	0x53
 11505 0f5c 00000000 		.4byte	0
 11506 0f60 00000000 		.4byte	0
 11507              	.LLST27:
 11508 0f64 6C010000 		.4byte	.LVL47-.Ltext0
 11509 0f68 AE010000 		.4byte	.LVL53-.Ltext0
 11510 0f6c 0100     		.2byte	0x1
 11511 0f6e 54       		.byte	0x54
 11512 0f6f B4010000 		.4byte	.LVL54-.Ltext0
 11513 0f73 BE010000 		.4byte	.LVL56-.Ltext0
 11514 0f77 0100     		.2byte	0x1
 11515 0f79 54       		.byte	0x54
 11516 0f7a 00000000 		.4byte	0
 11517 0f7e 00000000 		.4byte	0
 11518              	.LLST18:
 11519 0f82 92000000 		.4byte	.LFB114-.Ltext0
 11520 0f86 96000000 		.4byte	.LCFI4-.Ltext0
 11521 0f8a 0200     		.2byte	0x2
 11522 0f8c 7D       		.byte	0x7d
 11523 0f8d 00       		.sleb128 0
 11524 0f8e 96000000 		.4byte	.LCFI4-.Ltext0
 11525 0f92 58010000 		.4byte	.LFE114-.Ltext0
 11526 0f96 0200     		.2byte	0x2
 11527 0f98 7D       		.byte	0x7d
 11528 0f99 0C       		.sleb128 12
 11529 0f9a 00000000 		.4byte	0
 11530 0f9e 00000000 		.4byte	0
 11531              	.LLST19:
 11532 0fa2 92000000 		.4byte	.LVL29-.Ltext0
 11533 0fa6 18010000 		.4byte	.LVL38-.Ltext0
 11534 0faa 0100     		.2byte	0x1
 11535 0fac 50       		.byte	0x50
 11536 0fad 18010000 		.4byte	.LVL38-.Ltext0
 11537 0fb1 1A010000 		.4byte	.LVL39-.Ltext0
 11538 0fb5 0400     		.2byte	0x4
 11539 0fb7 F3       		.byte	0xf3
 11540 0fb8 01       		.uleb128 0x1
 11541 0fb9 50       		.byte	0x50
 11542 0fba 9F       		.byte	0x9f
 11543 0fbb 1A010000 		.4byte	.LVL39-.Ltext0
 11544 0fbf 58010000 		.4byte	.LFE114-.Ltext0
 11545 0fc3 0100     		.2byte	0x1
 11546 0fc5 50       		.byte	0x50
 11547 0fc6 00000000 		.4byte	0
 11548 0fca 00000000 		.4byte	0
 11549              	.LLST20:
 11550 0fce 92000000 		.4byte	.LVL29-.Ltext0
 11551 0fd2 CE000000 		.4byte	.LVL33-.Ltext0
 11552 0fd6 0100     		.2byte	0x1
 11553 0fd8 51       		.byte	0x51
ARM GAS  /tmp/ccQkqy1T.s 			page 245


 11554 0fd9 CE000000 		.4byte	.LVL33-.Ltext0
 11555 0fdd 1A010000 		.4byte	.LVL39-.Ltext0
 11556 0fe1 0400     		.2byte	0x4
 11557 0fe3 F3       		.byte	0xf3
 11558 0fe4 01       		.uleb128 0x1
 11559 0fe5 51       		.byte	0x51
 11560 0fe6 9F       		.byte	0x9f
 11561 0fe7 1A010000 		.4byte	.LVL39-.Ltext0
 11562 0feb 32010000 		.4byte	.LVL42-.Ltext0
 11563 0fef 0100     		.2byte	0x1
 11564 0ff1 51       		.byte	0x51
 11565 0ff2 32010000 		.4byte	.LVL42-.Ltext0
 11566 0ff6 58010000 		.4byte	.LFE114-.Ltext0
 11567 0ffa 0400     		.2byte	0x4
 11568 0ffc F3       		.byte	0xf3
 11569 0ffd 01       		.uleb128 0x1
 11570 0ffe 51       		.byte	0x51
 11571 0fff 9F       		.byte	0x9f
 11572 1000 00000000 		.4byte	0
 11573 1004 00000000 		.4byte	0
 11574              	.LLST21:
 11575 1008 C4000000 		.4byte	.LVL32-.Ltext0
 11576 100c D2000000 		.4byte	.LVL34-.Ltext0
 11577 1010 0200     		.2byte	0x2
 11578 1012 30       		.byte	0x30
 11579 1013 9F       		.byte	0x9f
 11580 1014 E6000000 		.4byte	.LVL35-.Ltext0
 11581 1018 F6000000 		.4byte	.LVL36-.Ltext0
 11582 101c 0200     		.2byte	0x2
 11583 101e 30       		.byte	0x30
 11584 101f 9F       		.byte	0x9f
 11585 1020 00000000 		.4byte	0
 11586 1024 00000000 		.4byte	0
 11587              	.LLST22:
 11588 1028 92000000 		.4byte	.LVL29-.Ltext0
 11589 102c A2000000 		.4byte	.LVL30-.Ltext0
 11590 1030 0200     		.2byte	0x2
 11591 1032 30       		.byte	0x30
 11592 1033 9F       		.byte	0x9f
 11593 1034 A2000000 		.4byte	.LVL30-.Ltext0
 11594 1038 BC000000 		.4byte	.LVL31-.Ltext0
 11595 103c 0400     		.2byte	0x4
 11596 103e 44       		.byte	0x44
 11597 103f 4A       		.byte	0x4a
 11598 1040 24       		.byte	0x24
 11599 1041 9F       		.byte	0x9f
 11600 1042 BC000000 		.4byte	.LVL31-.Ltext0
 11601 1046 12010000 		.4byte	.LVL37-.Ltext0
 11602 104a 0100     		.2byte	0x1
 11603 104c 53       		.byte	0x53
 11604 104d 12010000 		.4byte	.LVL37-.Ltext0
 11605 1051 18010000 		.4byte	.LVL38-.Ltext0
 11606 1055 0200     		.2byte	0x2
 11607 1057 70       		.byte	0x70
 11608 1058 0C       		.sleb128 12
 11609 1059 18010000 		.4byte	.LVL38-.Ltext0
 11610 105d 1A010000 		.4byte	.LVL39-.Ltext0
ARM GAS  /tmp/ccQkqy1T.s 			page 246


 11611 1061 0400     		.2byte	0x4
 11612 1063 73       		.byte	0x73
 11613 1064 8064     		.sleb128 -3584
 11614 1066 9F       		.byte	0x9f
 11615 1067 1A010000 		.4byte	.LVL39-.Ltext0
 11616 106b 1C010000 		.4byte	.LVL40-.Ltext0
 11617 106f 0200     		.2byte	0x2
 11618 1071 30       		.byte	0x30
 11619 1072 9F       		.byte	0x9f
 11620 1073 1C010000 		.4byte	.LVL40-.Ltext0
 11621 1077 2E010000 		.4byte	.LVL41-.Ltext0
 11622 107b 0600     		.2byte	0x6
 11623 107d 0C       		.byte	0xc
 11624 107e 00000440 		.4byte	0x40040000
 11625 1082 9F       		.byte	0x9f
 11626 1083 2E010000 		.4byte	.LVL41-.Ltext0
 11627 1087 32010000 		.4byte	.LVL42-.Ltext0
 11628 108b 0200     		.2byte	0x2
 11629 108d 30       		.byte	0x30
 11630 108e 9F       		.byte	0x9f
 11631 108f 32010000 		.4byte	.LVL42-.Ltext0
 11632 1093 58010000 		.4byte	.LFE114-.Ltext0
 11633 1097 0100     		.2byte	0x1
 11634 1099 53       		.byte	0x53
 11635 109a 00000000 		.4byte	0
 11636 109e 00000000 		.4byte	0
 11637              	.LLST13:
 11638 10a2 72000000 		.4byte	.LFB113-.Ltext0
 11639 10a6 74000000 		.4byte	.LCFI3-.Ltext0
 11640 10aa 0200     		.2byte	0x2
 11641 10ac 7D       		.byte	0x7d
 11642 10ad 00       		.sleb128 0
 11643 10ae 74000000 		.4byte	.LCFI3-.Ltext0
 11644 10b2 92000000 		.4byte	.LFE113-.Ltext0
 11645 10b6 0200     		.2byte	0x2
 11646 10b8 7D       		.byte	0x7d
 11647 10b9 08       		.sleb128 8
 11648 10ba 00000000 		.4byte	0
 11649 10be 00000000 		.4byte	0
 11650              	.LLST14:
 11651 10c2 72000000 		.4byte	.LVL22-.Ltext0
 11652 10c6 7E000000 		.4byte	.LVL25-.Ltext0
 11653 10ca 0100     		.2byte	0x1
 11654 10cc 50       		.byte	0x50
 11655 10cd 7E000000 		.4byte	.LVL25-.Ltext0
 11656 10d1 92000000 		.4byte	.LFE113-.Ltext0
 11657 10d5 0400     		.2byte	0x4
 11658 10d7 F3       		.byte	0xf3
 11659 10d8 01       		.uleb128 0x1
 11660 10d9 50       		.byte	0x50
 11661 10da 9F       		.byte	0x9f
 11662 10db 00000000 		.4byte	0
 11663 10df 00000000 		.4byte	0
 11664              	.LLST15:
 11665 10e3 72000000 		.4byte	.LVL22-.Ltext0
 11666 10e7 7E000000 		.4byte	.LVL25-.Ltext0
 11667 10eb 0100     		.2byte	0x1
ARM GAS  /tmp/ccQkqy1T.s 			page 247


 11668 10ed 51       		.byte	0x51
 11669 10ee 90000000 		.4byte	.LVL28-.Ltext0
 11670 10f2 92000000 		.4byte	.LFE113-.Ltext0
 11671 10f6 0800     		.2byte	0x8
 11672 10f8 70       		.byte	0x70
 11673 10f9 00       		.sleb128 0
 11674 10fa 32       		.byte	0x32
 11675 10fb 24       		.byte	0x24
 11676 10fc 71       		.byte	0x71
 11677 10fd 00       		.sleb128 0
 11678 10fe 22       		.byte	0x22
 11679 10ff 9F       		.byte	0x9f
 11680 1100 00000000 		.4byte	0
 11681 1104 00000000 		.4byte	0
 11682              	.LLST16:
 11683 1108 72000000 		.4byte	.LVL22-.Ltext0
 11684 110c 76000000 		.4byte	.LVL23-.Ltext0
 11685 1110 0100     		.2byte	0x1
 11686 1112 52       		.byte	0x52
 11687 1113 76000000 		.4byte	.LVL23-.Ltext0
 11688 1117 92000000 		.4byte	.LFE113-.Ltext0
 11689 111b 0400     		.2byte	0x4
 11690 111d F3       		.byte	0xf3
 11691 111e 01       		.uleb128 0x1
 11692 111f 52       		.byte	0x52
 11693 1120 9F       		.byte	0x9f
 11694 1121 00000000 		.4byte	0
 11695 1125 00000000 		.4byte	0
 11696              	.LLST17:
 11697 1129 72000000 		.4byte	.LVL22-.Ltext0
 11698 112d 7E000000 		.4byte	.LVL25-.Ltext0
 11699 1131 0200     		.2byte	0x2
 11700 1133 30       		.byte	0x30
 11701 1134 9F       		.byte	0x9f
 11702 1135 7E000000 		.4byte	.LVL25-.Ltext0
 11703 1139 86000000 		.4byte	.LVL26-.Ltext0
 11704 113d 0100     		.2byte	0x1
 11705 113f 50       		.byte	0x50
 11706 1140 88000000 		.4byte	.LVL27-.Ltext0
 11707 1144 92000000 		.4byte	.LFE113-.Ltext0
 11708 1148 0100     		.2byte	0x1
 11709 114a 50       		.byte	0x50
 11710 114b 00000000 		.4byte	0
 11711 114f 00000000 		.4byte	0
 11712              	.LLST0:
 11713 1153 00000000 		.4byte	.LFB147-.Ltext0
 11714 1157 02000000 		.4byte	.LCFI0-.Ltext0
 11715 115b 0200     		.2byte	0x2
 11716 115d 7D       		.byte	0x7d
 11717 115e 00       		.sleb128 0
 11718 115f 02000000 		.4byte	.LCFI0-.Ltext0
 11719 1163 46000000 		.4byte	.LCFI1-.Ltext0
 11720 1167 0200     		.2byte	0x2
 11721 1169 7D       		.byte	0x7d
 11722 116a 18       		.sleb128 24
 11723 116b 46000000 		.4byte	.LCFI1-.Ltext0
 11724 116f 4C000000 		.4byte	.LFE147-.Ltext0
ARM GAS  /tmp/ccQkqy1T.s 			page 248


 11725 1173 0200     		.2byte	0x2
 11726 1175 7D       		.byte	0x7d
 11727 1176 0C       		.sleb128 12
 11728 1177 00000000 		.4byte	0
 11729 117b 00000000 		.4byte	0
 11730              	.LLST1:
 11731 117f 00000000 		.4byte	.LVL0-.Ltext0
 11732 1183 0A000000 		.4byte	.LVL1-.Ltext0
 11733 1187 0200     		.2byte	0x2
 11734 1189 30       		.byte	0x30
 11735 118a 9F       		.byte	0x9f
 11736 118b 0A000000 		.4byte	.LVL1-.Ltext0
 11737 118f 14000000 		.4byte	.LVL3-.Ltext0
 11738 1193 0900     		.2byte	0x9
 11739 1195 0C       		.byte	0xc
 11740 1196 410D0300 		.4byte	0x30d41
 11741 119a 74       		.byte	0x74
 11742 119b 00       		.sleb128 0
 11743 119c 1C       		.byte	0x1c
 11744 119d 9F       		.byte	0x9f
 11745 119e 14000000 		.4byte	.LVL3-.Ltext0
 11746 11a2 18000000 		.4byte	.LVL4-.Ltext0
 11747 11a6 0900     		.2byte	0x9
 11748 11a8 0C       		.byte	0xc
 11749 11a9 400D0300 		.4byte	0x30d40
 11750 11ad 74       		.byte	0x74
 11751 11ae 00       		.sleb128 0
 11752 11af 1C       		.byte	0x1c
 11753 11b0 9F       		.byte	0x9f
 11754 11b1 1A000000 		.4byte	.LVL5-.Ltext0
 11755 11b5 20000000 		.4byte	.LVL6-.Ltext0
 11756 11b9 0900     		.2byte	0x9
 11757 11bb 0C       		.byte	0xc
 11758 11bc 420D0300 		.4byte	0x30d42
 11759 11c0 74       		.byte	0x74
 11760 11c1 00       		.sleb128 0
 11761 11c2 1C       		.byte	0x1c
 11762 11c3 9F       		.byte	0x9f
 11763 11c4 20000000 		.4byte	.LVL6-.Ltext0
 11764 11c8 2E000000 		.4byte	.LVL7-.Ltext0
 11765 11cc 0200     		.2byte	0x2
 11766 11ce 30       		.byte	0x30
 11767 11cf 9F       		.byte	0x9f
 11768 11d0 2E000000 		.4byte	.LVL7-.Ltext0
 11769 11d4 32000000 		.4byte	.LVL8-.Ltext0
 11770 11d8 0900     		.2byte	0x9
 11771 11da 0C       		.byte	0xc
 11772 11db 410D0300 		.4byte	0x30d41
 11773 11df 72       		.byte	0x72
 11774 11e0 00       		.sleb128 0
 11775 11e1 1C       		.byte	0x1c
 11776 11e2 9F       		.byte	0x9f
 11777 11e3 32000000 		.4byte	.LVL8-.Ltext0
 11778 11e7 34000000 		.4byte	.LVL9-.Ltext0
 11779 11eb 0900     		.2byte	0x9
 11780 11ed 0C       		.byte	0xc
 11781 11ee 420D0300 		.4byte	0x30d42
ARM GAS  /tmp/ccQkqy1T.s 			page 249


 11782 11f2 72       		.byte	0x72
 11783 11f3 00       		.sleb128 0
 11784 11f4 1C       		.byte	0x1c
 11785 11f5 9F       		.byte	0x9f
 11786 11f6 34000000 		.4byte	.LVL9-.Ltext0
 11787 11fa 36000000 		.4byte	.LVL10-.Ltext0
 11788 11fe 0900     		.2byte	0x9
 11789 1200 0C       		.byte	0xc
 11790 1201 410D0300 		.4byte	0x30d41
 11791 1205 72       		.byte	0x72
 11792 1206 00       		.sleb128 0
 11793 1207 1C       		.byte	0x1c
 11794 1208 9F       		.byte	0x9f
 11795 1209 36000000 		.4byte	.LVL10-.Ltext0
 11796 120d 3C000000 		.4byte	.LVL11-.Ltext0
 11797 1211 0900     		.2byte	0x9
 11798 1213 0C       		.byte	0xc
 11799 1214 420D0300 		.4byte	0x30d42
 11800 1218 72       		.byte	0x72
 11801 1219 00       		.sleb128 0
 11802 121a 1C       		.byte	0x1c
 11803 121b 9F       		.byte	0x9f
 11804 121c 00000000 		.4byte	0
 11805 1220 00000000 		.4byte	0
 11806              	.LLST2:
 11807 1224 4C000000 		.4byte	.LFB112-.Ltext0
 11808 1228 4E000000 		.4byte	.LCFI2-.Ltext0
 11809 122c 0200     		.2byte	0x2
 11810 122e 7D       		.byte	0x7d
 11811 122f 00       		.sleb128 0
 11812 1230 4E000000 		.4byte	.LCFI2-.Ltext0
 11813 1234 72000000 		.4byte	.LFE112-.Ltext0
 11814 1238 0200     		.2byte	0x2
 11815 123a 7D       		.byte	0x7d
 11816 123b 08       		.sleb128 8
 11817 123c 00000000 		.4byte	0
 11818 1240 00000000 		.4byte	0
 11819              	.LLST3:
 11820 1244 4C000000 		.4byte	.LVL13-.Ltext0
 11821 1248 56000000 		.4byte	.LVL15-.Ltext0
 11822 124c 0100     		.2byte	0x1
 11823 124e 50       		.byte	0x50
 11824 124f 56000000 		.4byte	.LVL15-.Ltext0
 11825 1253 72000000 		.4byte	.LFE112-.Ltext0
 11826 1257 0400     		.2byte	0x4
 11827 1259 F3       		.byte	0xf3
 11828 125a 01       		.uleb128 0x1
 11829 125b 50       		.byte	0x50
 11830 125c 9F       		.byte	0x9f
 11831 125d 00000000 		.4byte	0
 11832 1261 00000000 		.4byte	0
 11833              	.LLST4:
 11834 1265 4C000000 		.4byte	.LVL13-.Ltext0
 11835 1269 60000000 		.4byte	.LVL18-.Ltext0
 11836 126d 0100     		.2byte	0x1
 11837 126f 52       		.byte	0x52
 11838 1270 60000000 		.4byte	.LVL18-.Ltext0
ARM GAS  /tmp/ccQkqy1T.s 			page 250


 11839 1274 72000000 		.4byte	.LFE112-.Ltext0
 11840 1278 0400     		.2byte	0x4
 11841 127a F3       		.byte	0xf3
 11842 127b 01       		.uleb128 0x1
 11843 127c 52       		.byte	0x52
 11844 127d 9F       		.byte	0x9f
 11845 127e 00000000 		.4byte	0
 11846 1282 00000000 		.4byte	0
 11847              	.LLST5:
 11848 1286 4C000000 		.4byte	.LVL13-.Ltext0
 11849 128a 58000000 		.4byte	.LVL16-.Ltext0
 11850 128e 0100     		.2byte	0x1
 11851 1290 53       		.byte	0x53
 11852 1291 58000000 		.4byte	.LVL16-.Ltext0
 11853 1295 72000000 		.4byte	.LFE112-.Ltext0
 11854 1299 0400     		.2byte	0x4
 11855 129b F3       		.byte	0xf3
 11856 129c 01       		.uleb128 0x1
 11857 129d 53       		.byte	0x53
 11858 129e 9F       		.byte	0x9f
 11859 129f 00000000 		.4byte	0
 11860 12a3 00000000 		.4byte	0
 11861              	.LLST6:
 11862 12a7 52000000 		.4byte	.LVL14-.Ltext0
 11863 12ab 58000000 		.4byte	.LVL16-.Ltext0
 11864 12af 0100     		.2byte	0x1
 11865 12b1 53       		.byte	0x53
 11866 12b2 58000000 		.4byte	.LVL16-.Ltext0
 11867 12b6 64000000 		.4byte	.LVL19-.Ltext0
 11868 12ba 0400     		.2byte	0x4
 11869 12bc F3       		.byte	0xf3
 11870 12bd 01       		.uleb128 0x1
 11871 12be 53       		.byte	0x53
 11872 12bf 9F       		.byte	0x9f
 11873 12c0 68000000 		.4byte	.LVL20-.Ltext0
 11874 12c4 72000000 		.4byte	.LFE112-.Ltext0
 11875 12c8 0400     		.2byte	0x4
 11876 12ca F3       		.byte	0xf3
 11877 12cb 01       		.uleb128 0x1
 11878 12cc 53       		.byte	0x53
 11879 12cd 9F       		.byte	0x9f
 11880 12ce 00000000 		.4byte	0
 11881 12d2 00000000 		.4byte	0
 11882              	.LLST7:
 11883 12d6 52000000 		.4byte	.LVL14-.Ltext0
 11884 12da 60000000 		.4byte	.LVL18-.Ltext0
 11885 12de 0100     		.2byte	0x1
 11886 12e0 52       		.byte	0x52
 11887 12e1 60000000 		.4byte	.LVL18-.Ltext0
 11888 12e5 64000000 		.4byte	.LVL19-.Ltext0
 11889 12e9 0400     		.2byte	0x4
 11890 12eb F3       		.byte	0xf3
 11891 12ec 01       		.uleb128 0x1
 11892 12ed 52       		.byte	0x52
 11893 12ee 9F       		.byte	0x9f
 11894 12ef 68000000 		.4byte	.LVL20-.Ltext0
 11895 12f3 72000000 		.4byte	.LFE112-.Ltext0
ARM GAS  /tmp/ccQkqy1T.s 			page 251


 11896 12f7 0400     		.2byte	0x4
 11897 12f9 F3       		.byte	0xf3
 11898 12fa 01       		.uleb128 0x1
 11899 12fb 52       		.byte	0x52
 11900 12fc 9F       		.byte	0x9f
 11901 12fd 00000000 		.4byte	0
 11902 1301 00000000 		.4byte	0
 11903              	.LLST8:
 11904 1305 52000000 		.4byte	.LVL14-.Ltext0
 11905 1309 60000000 		.4byte	.LVL18-.Ltext0
 11906 130d 0100     		.2byte	0x1
 11907 130f 51       		.byte	0x51
 11908 1310 70000000 		.4byte	.LVL21-.Ltext0
 11909 1314 72000000 		.4byte	.LFE112-.Ltext0
 11910 1318 0800     		.2byte	0x8
 11911 131a 72       		.byte	0x72
 11912 131b 00       		.sleb128 0
 11913 131c 32       		.byte	0x32
 11914 131d 24       		.byte	0x24
 11915 131e 71       		.byte	0x71
 11916 131f 00       		.sleb128 0
 11917 1320 22       		.byte	0x22
 11918 1321 9F       		.byte	0x9f
 11919 1322 00000000 		.4byte	0
 11920 1326 00000000 		.4byte	0
 11921              	.LLST9:
 11922 132a 52000000 		.4byte	.LVL14-.Ltext0
 11923 132e 56000000 		.4byte	.LVL15-.Ltext0
 11924 1332 0100     		.2byte	0x1
 11925 1334 50       		.byte	0x50
 11926 1335 56000000 		.4byte	.LVL15-.Ltext0
 11927 1339 64000000 		.4byte	.LVL19-.Ltext0
 11928 133d 0400     		.2byte	0x4
 11929 133f F3       		.byte	0xf3
 11930 1340 01       		.uleb128 0x1
 11931 1341 50       		.byte	0x50
 11932 1342 9F       		.byte	0x9f
 11933 1343 68000000 		.4byte	.LVL20-.Ltext0
 11934 1347 72000000 		.4byte	.LFE112-.Ltext0
 11935 134b 0400     		.2byte	0x4
 11936 134d F3       		.byte	0xf3
 11937 134e 01       		.uleb128 0x1
 11938 134f 50       		.byte	0x50
 11939 1350 9F       		.byte	0x9f
 11940 1351 00000000 		.4byte	0
 11941 1355 00000000 		.4byte	0
 11942              	.LLST10:
 11943 1359 52000000 		.4byte	.LVL14-.Ltext0
 11944 135d 5E000000 		.4byte	.LVL17-.Ltext0
 11945 1361 0200     		.2byte	0x2
 11946 1363 30       		.byte	0x30
 11947 1364 9F       		.byte	0x9f
 11948 1365 5E000000 		.4byte	.LVL17-.Ltext0
 11949 1369 64000000 		.4byte	.LVL19-.Ltext0
 11950 136d 0100     		.2byte	0x1
 11951 136f 53       		.byte	0x53
 11952 1370 68000000 		.4byte	.LVL20-.Ltext0
ARM GAS  /tmp/ccQkqy1T.s 			page 252


 11953 1374 72000000 		.4byte	.LFE112-.Ltext0
 11954 1378 0100     		.2byte	0x1
 11955 137a 53       		.byte	0x53
 11956 137b 00000000 		.4byte	0
 11957 137f 00000000 		.4byte	0
 11958              	.LLST11:
 11959 1383 52000000 		.4byte	.LVL14-.Ltext0
 11960 1387 60000000 		.4byte	.LVL18-.Ltext0
 11961 138b 0200     		.2byte	0x2
 11962 138d 30       		.byte	0x30
 11963 138e 9F       		.byte	0x9f
 11964 138f 60000000 		.4byte	.LVL18-.Ltext0
 11965 1393 64000000 		.4byte	.LVL19-.Ltext0
 11966 1397 0100     		.2byte	0x1
 11967 1399 52       		.byte	0x52
 11968 139a 68000000 		.4byte	.LVL20-.Ltext0
 11969 139e 72000000 		.4byte	.LFE112-.Ltext0
 11970 13a2 0100     		.2byte	0x1
 11971 13a4 52       		.byte	0x52
 11972 13a5 00000000 		.4byte	0
 11973 13a9 00000000 		.4byte	0
 11974              	.LLST12:
 11975 13ad 5E000000 		.4byte	.LVL17-.Ltext0
 11976 13b1 64000000 		.4byte	.LVL19-.Ltext0
 11977 13b5 0100     		.2byte	0x1
 11978 13b7 50       		.byte	0x50
 11979 13b8 68000000 		.4byte	.LVL20-.Ltext0
 11980 13bc 72000000 		.4byte	.LFE112-.Ltext0
 11981 13c0 0100     		.2byte	0x1
 11982 13c2 50       		.byte	0x50
 11983 13c3 00000000 		.4byte	0
 11984 13c7 00000000 		.4byte	0
 11985              	.LLST41:
 11986 13cb A4020000 		.4byte	.LVL88-.Ltext0
 11987 13cf A8020000 		.4byte	.LVL89-.Ltext0
 11988 13d3 0100     		.2byte	0x1
 11989 13d5 50       		.byte	0x50
 11990 13d6 A8020000 		.4byte	.LVL89-.Ltext0
 11991 13da AE020000 		.4byte	.LFE121-.Ltext0
 11992 13de 0400     		.2byte	0x4
 11993 13e0 F3       		.byte	0xf3
 11994 13e1 01       		.uleb128 0x1
 11995 13e2 50       		.byte	0x50
 11996 13e3 9F       		.byte	0x9f
 11997 13e4 00000000 		.4byte	0
 11998 13e8 00000000 		.4byte	0
 11999              	.LLST88:
 12000 13ec 88060000 		.4byte	.LVL208-.Ltext0
 12001 13f0 92060000 		.4byte	.LVL209-.Ltext0
 12002 13f4 0100     		.2byte	0x1
 12003 13f6 50       		.byte	0x50
 12004 13f7 92060000 		.4byte	.LVL209-.Ltext0
 12005 13fb B0060000 		.4byte	.LFE135-.Ltext0
 12006 13ff 0400     		.2byte	0x4
 12007 1401 F3       		.byte	0xf3
 12008 1402 01       		.uleb128 0x1
 12009 1403 50       		.byte	0x50
ARM GAS  /tmp/ccQkqy1T.s 			page 253


 12010 1404 9F       		.byte	0x9f
 12011 1405 00000000 		.4byte	0
 12012 1409 00000000 		.4byte	0
 12013              	.LLST89:
 12014 140d A4060000 		.4byte	.LVL214-.Ltext0
 12015 1411 AA060000 		.4byte	.LVL215-.Ltext0
 12016 1415 0100     		.2byte	0x1
 12017 1417 53       		.byte	0x53
 12018 1418 00000000 		.4byte	0
 12019 141c 00000000 		.4byte	0
 12020              	.LLST90:
 12021 1420 94060000 		.4byte	.LVL210-.Ltext0
 12022 1424 A0060000 		.4byte	.LVL213-.Ltext0
 12023 1428 0100     		.2byte	0x1
 12024 142a 51       		.byte	0x51
 12025 142b 00000000 		.4byte	0
 12026 142f 00000000 		.4byte	0
 12027              	.LLST91:
 12028 1433 94060000 		.4byte	.LVL210-.Ltext0
 12029 1437 A0060000 		.4byte	.LVL213-.Ltext0
 12030 143b 0100     		.2byte	0x1
 12031 143d 50       		.byte	0x50
 12032 143e 00000000 		.4byte	0
 12033 1442 00000000 		.4byte	0
 12034              		.section	.debug_aranges,"",%progbits
 12035 0000 1C000000 		.4byte	0x1c
 12036 0004 0200     		.2byte	0x2
 12037 0006 00000000 		.4byte	.Ldebug_info0
 12038 000a 04       		.byte	0x4
 12039 000b 00       		.byte	0
 12040 000c 0000     		.2byte	0
 12041 000e 0000     		.2byte	0
 12042 0010 00000000 		.4byte	.Ltext0
 12043 0014 90080000 		.4byte	.Letext0-.Ltext0
 12044 0018 00000000 		.4byte	0
 12045 001c 00000000 		.4byte	0
 12046              		.section	.debug_ranges,"",%progbits
 12047              	.Ldebug_ranges0:
 12048 0000 52000000 		.4byte	.LBB11-.Ltext0
 12049 0004 64000000 		.4byte	.LBE11-.Ltext0
 12050 0008 68000000 		.4byte	.LBB16-.Ltext0
 12051 000c 72000000 		.4byte	.LBE16-.Ltext0
 12052 0010 00000000 		.4byte	0
 12053 0014 00000000 		.4byte	0
 12054 0018 EA020000 		.4byte	.LBB23-.Ltext0
 12055 001c EE020000 		.4byte	.LBE23-.Ltext0
 12056 0020 F2020000 		.4byte	.LBB26-.Ltext0
 12057 0024 FA020000 		.4byte	.LBE26-.Ltext0
 12058 0028 00000000 		.4byte	0
 12059 002c 00000000 		.4byte	0
 12060 0030 9A030000 		.4byte	.LBB27-.Ltext0
 12061 0034 9C030000 		.4byte	.LBE27-.Ltext0
 12062 0038 D6030000 		.4byte	.LBB28-.Ltext0
 12063 003c E8030000 		.4byte	.LBE28-.Ltext0
 12064 0040 EA030000 		.4byte	.LBB29-.Ltext0
 12065 0044 F4030000 		.4byte	.LBE29-.Ltext0
 12066 0048 00000000 		.4byte	0
ARM GAS  /tmp/ccQkqy1T.s 			page 254


 12067 004c 00000000 		.4byte	0
 12068 0050 8E060000 		.4byte	.LBB32-.Ltext0
 12069 0054 92060000 		.4byte	.LBE32-.Ltext0
 12070 0058 94060000 		.4byte	.LBB35-.Ltext0
 12071 005c A0060000 		.4byte	.LBE35-.Ltext0
 12072 0060 00000000 		.4byte	0
 12073 0064 00000000 		.4byte	0
 12074              		.section	.debug_line,"",%progbits
 12075              	.Ldebug_line0:
 12076 0000 B1040000 		.section	.debug_str,"MS",%progbits,1
 12076      02005E01 
 12076      00000201 
 12076      FB0E0D00 
 12076      01010101 
 12077              	.LASF363:
 12078 0000 7573725F 		.ascii	"usr_device\000"
 12078      64657669 
 12078      636500
 12079              	.LASF7:
 12080 000b 6C6F6E67 		.ascii	"long int\000"
 12080      20696E74 
 12080      00
 12081              	.LASF346:
 12082 0014 44657669 		.ascii	"DeviceConnected\000"
 12082      6365436F 
 12082      6E6E6563 
 12082      74656400 
 12083              	.LASF232:
 12084 0024 5F555342 		.ascii	"_USB_OTG_DAINT_TypeDef\000"
 12084      5F4F5447 
 12084      5F444149 
 12084      4E545F54 
 12084      79706544 
 12085              	.LASF227:
 12086 003b 656D7074 		.ascii	"emptyintr\000"
 12086      79696E74 
 12086      7200
 12087              	.LASF236:
 12088 0045 74785F74 		.ascii	"tx_thr_len\000"
 12088      68725F6C 
 12088      656E00
 12089              	.LASF313:
 12090 0050 7573625F 		.ascii	"usb_setup_req\000"
 12090      73657475 
 12090      705F7265 
 12090      7100
 12091              	.LASF284:
 12092 005e 5553425F 		.ascii	"USB_OTG_FAIL\000"
 12092      4F54475F 
 12092      4641494C 
 12092      00
 12093              	.LASF298:
 12094 006b 72656D5F 		.ascii	"rem_data_len\000"
 12094      64617461 
 12094      5F6C656E 
 12094      00
 12095              	.LASF18:
ARM GAS  /tmp/ccQkqy1T.s 			page 255


 12096 0078 53797374 		.ascii	"SystemCoreClock\000"
 12096      656D436F 
 12096      7265436C 
 12096      6F636B00 
 12097              	.LASF304:
 12098 0088 6465765F 		.ascii	"dev_endpoints\000"
 12098      656E6470 
 12098      6F696E74 
 12098      7300
 12099              	.LASF246:
 12100 0096 75736261 		.ascii	"usbactep\000"
 12100      63746570 
 12100      00
 12101              	.LASF207:
 12102 009f 73676F75 		.ascii	"sgoutnak\000"
 12102      746E616B 
 12102      00
 12103              	.LASF175:
 12104 00a8 73657373 		.ascii	"sessreqintr\000"
 12104      72657169 
 12104      6E747200 
 12105              	.LASF55:
 12106 00b4 44494E45 		.ascii	"DINEP1MSK\000"
 12106      50314D53 
 12106      4B00
 12107              	.LASF33:
 12108 00be 52657365 		.ascii	"Reserved40\000"
 12108      72766564 
 12108      343000
 12109              	.LASF220:
 12110 00c9 78666572 		.ascii	"xfercompl\000"
 12110      636F6D70 
 12110      6C00
 12111              	.LASF56:
 12112 00d3 52657365 		.ascii	"Reserved44\000"
 12112      72766564 
 12112      343400
 12113              	.LASF39:
 12114 00de 44434647 		.ascii	"DCFG\000"
 12114      00
 12115              	.LASF140:
 12116 00e3 72786666 		.ascii	"rxfflsh\000"
 12116      6C736800 
 12117              	.LASF426:
 12118 00eb 5553425F 		.ascii	"USB_OTG_CoreInit\000"
 12118      4F54475F 
 12118      436F7265 
 12118      496E6974 
 12118      00
 12119              	.LASF161:
 12120 00fc 69736F6F 		.ascii	"isooutdrop\000"
 12120      75746472 
 12120      6F7000
 12121              	.LASF301:
 12122 0107 5553425F 		.ascii	"USB_OTG_EP\000"
 12122      4F54475F 
 12122      455000
ARM GAS  /tmp/ccQkqy1T.s 			page 256


 12123              	.LASF282:
 12124 0112 5553425F 		.ascii	"USB_SPEED_HIGH\000"
 12124      53504545 
 12124      445F4849 
 12124      474800
 12125              	.LASF171:
 12126 0121 70747866 		.ascii	"ptxfempty\000"
 12126      656D7074 
 12126      7900
 12127              	.LASF257:
 12128 012b 5F555342 		.ascii	"_USB_OTG_DEPCTL_TypeDef\000"
 12128      5F4F5447 
 12128      5F444550 
 12128      43544C5F 
 12128      54797065 
 12129              	.LASF184:
 12130 0143 7077646E 		.ascii	"pwdn\000"
 12130      00
 12131              	.LASF241:
 12132 0148 6172705F 		.ascii	"arp_en\000"
 12132      656E00
 12133              	.LASF155:
 12134 014f 676F7574 		.ascii	"goutnakeff\000"
 12134      6E616B65 
 12134      666600
 12135              	.LASF216:
 12136 015a 736F6666 		.ascii	"soffn\000"
 12136      6E00
 12137              	.LASF224:
 12138 0160 696E746B 		.ascii	"intktxfemp\000"
 12138      74786665 
 12138      6D7000
 12139              	.LASF358:
 12140 016b 696E5F65 		.ascii	"in_ep\000"
 12140      7000
 12141              	.LASF267:
 12142 0171 5F555342 		.ascii	"_USB_OTG_DEP0XFRSIZ_TypeDef\000"
 12142      5F4F5447 
 12142      5F444550 
 12142      30584652 
 12142      53495A5F 
 12143              	.LASF174:
 12144 018d 64697363 		.ascii	"disconnect\000"
 12144      6F6E6E65 
 12144      637400
 12145              	.LASF178:
 12146 0198 5553425F 		.ascii	"USB_OTG_GINTMSK_TypeDef\000"
 12146      4F54475F 
 12146      47494E54 
 12146      4D534B5F 
 12146      54797065 
 12147              	.LASF74:
 12148 01b0 5F555342 		.ascii	"_USB_OTG_HREGS\000"
 12148      5F4F5447 
 12148      5F485245 
 12148      475300
 12149              	.LASF436:
ARM GAS  /tmp/ccQkqy1T.s 			page 257


 12150 01bf 696E745F 		.ascii	"int_mask\000"
 12150      6D61736B 
 12150      00
 12151              	.LASF326:
 12152 01c8 47657443 		.ascii	"GetConfigurationStrDescriptor\000"
 12152      6F6E6669 
 12152      67757261 
 12152      74696F6E 
 12152      53747244 
 12153              	.LASF370:
 12154 01e6 53746174 		.ascii	"Status\000"
 12154      757300
 12155              	.LASF153:
 12156 01ed 6E707478 		.ascii	"nptxfempty\000"
 12156      66656D70 
 12156      747900
 12157              	.LASF59:
 12158 01f8 5F555342 		.ascii	"_USB_OTG_INEPREGS\000"
 12158      5F4F5447 
 12158      5F494E45 
 12158      50524547 
 12158      5300
 12159              	.LASF360:
 12160 020a 73657475 		.ascii	"setup_packet\000"
 12160      705F7061 
 12160      636B6574 
 12160      00
 12161              	.LASF332:
 12162 0217 53657475 		.ascii	"Setup\000"
 12162      7000
 12163              	.LASF108:
 12164 021d 52657365 		.ascii	"Reserved9_31\000"
 12164      72766564 
 12164      395F3331 
 12164      00
 12165              	.LASF97:
 12166 022a 4F555445 		.ascii	"OUTEP_REGS\000"
 12166      505F5245 
 12166      475300
 12167              	.LASF99:
 12168 0235 48505254 		.ascii	"HPRT0\000"
 12168      3000
 12169              	.LASF24:
 12170 023b 47494E54 		.ascii	"GINTSTS\000"
 12170      53545300 
 12171              	.LASF173:
 12172 0243 636F6E69 		.ascii	"conidstschng\000"
 12172      64737473 
 12172      63686E67 
 12172      00
 12173              	.LASF32:
 12174 0250 47434346 		.ascii	"GCCFG\000"
 12174      4700
 12175              	.LASF131:
 12176 0256 666F7263 		.ascii	"force_dev\000"
 12176      655F6465 
 12176      7600
ARM GAS  /tmp/ccQkqy1T.s 			page 258


 12177              	.LASF442:
 12178 0260 5553425F 		.ascii	"USB_OTG_SPEED\000"
 12178      4F54475F 
 12178      53504545 
 12178      4400
 12179              	.LASF104:
 12180 026e 68627572 		.ascii	"hburstlen\000"
 12180      73746C65 
 12180      6E00
 12181              	.LASF118:
 12182 0278 7068796C 		.ascii	"phylpwrclksel\000"
 12182      70777263 
 12182      6C6B7365 
 12182      6C00
 12183              	.LASF264:
 12184 0286 52657365 		.ascii	"Reserved20_28\000"
 12184      72766564 
 12184      32305F32 
 12184      3800
 12185              	.LASF379:
 12186 0294 5553425F 		.ascii	"USB_OTG_EP0_OutStart\000"
 12186      4F54475F 
 12186      4550305F 
 12186      4F757453 
 12186      74617274 
 12187              	.LASF165:
 12188 02a9 6F757465 		.ascii	"outepintr\000"
 12188      70696E74 
 12188      7200
 12189              	.LASF221:
 12190 02b3 65706469 		.ascii	"epdisabled\000"
 12190      7361626C 
 12190      656400
 12191              	.LASF2:
 12192 02be 73686F72 		.ascii	"short int\000"
 12192      7420696E 
 12192      7400
 12193              	.LASF406:
 12194 02c8 6E707478 		.ascii	"nptxfifosize\000"
 12194      6669666F 
 12194      73697A65 
 12194      00
 12195              	.LASF310:
 12196 02d5 6C6F775F 		.ascii	"low_power\000"
 12196      706F7765 
 12196      7200
 12197              	.LASF373:
 12198 02df 5553425F 		.ascii	"USB_OTG_SetEPStatus\000"
 12198      4F54475F 
 12198      53657445 
 12198      50537461 
 12198      74757300 
 12199              	.LASF179:
 12200 02f3 73746172 		.ascii	"startaddr\000"
 12200      74616464 
 12200      7200
 12201              	.LASF79:
ARM GAS  /tmp/ccQkqy1T.s 			page 259


 12202 02fd 48505458 		.ascii	"HPTXSTS\000"
 12202      53545300 
 12203              	.LASF385:
 12204 0305 5553425F 		.ascii	"USB_OTG_ReadDevOutEP_itr\000"
 12204      4F54475F 
 12204      52656164 
 12204      4465764F 
 12204      75744550 
 12205              	.LASF157:
 12206 031e 65726C79 		.ascii	"erlysuspend\000"
 12206      73757370 
 12206      656E6400 
 12207              	.LASF383:
 12208 032a 5553425F 		.ascii	"USB_OTG_GetEPStatus\000"
 12208      4F54475F 
 12208      47657445 
 12208      50537461 
 12208      74757300 
 12209              	.LASF417:
 12210 033e 6D6F6465 		.ascii	"mode\000"
 12210      00
 12211              	.LASF29:
 12212 0343 44494550 		.ascii	"DIEPTXF0_HNPTXFSIZ\000"
 12212      54584630 
 12212      5F484E50 
 12212      54584653 
 12212      495A00
 12213              	.LASF49:
 12214 0356 44564255 		.ascii	"DVBUSDIS\000"
 12214      53444953 
 12214      00
 12215              	.LASF160:
 12216 035f 656E756D 		.ascii	"enumdone\000"
 12216      646F6E65 
 12216      00
 12217              	.LASF269:
 12218 0368 73746F70 		.ascii	"stoppclk\000"
 12218      70636C6B 
 12218      00
 12219              	.LASF299:
 12220 0371 746F7461 		.ascii	"total_data_len\000"
 12220      6C5F6461 
 12220      74615F6C 
 12220      656E00
 12221              	.LASF439:
 12222 0380 474E5520 		.ascii	"GNU C11 7.2.1 20170904 (release) [ARM/embedded-7-br"
 12222      43313120 
 12222      372E322E 
 12222      31203230 
 12222      31373039 
 12223 03b3 616E6368 		.ascii	"anch revision 255204] -mcpu=cortex-m4 -mthumb -g -g"
 12223      20726576 
 12223      6973696F 
 12223      6E203235 
 12223      35323034 
 12224 03e6 64776172 		.ascii	"dwarf-2 -Os -fomit-frame-pointer\000"
 12224      662D3220 
ARM GAS  /tmp/ccQkqy1T.s 			page 260


 12224      2D4F7320 
 12224      2D666F6D 
 12224      69742D66 
 12225              	.LASF327:
 12226 0407 47657449 		.ascii	"GetInterfaceStrDescriptor\000"
 12226      6E746572 
 12226      66616365 
 12226      53747244 
 12226      65736372 
 12227              	.LASF316:
 12228 0421 7756616C 		.ascii	"wValue\000"
 12228      756500
 12229              	.LASF295:
 12230 0428 646D615F 		.ascii	"dma_addr\000"
 12230      61646472 
 12230      00
 12231              	.LASF367:
 12232 0431 72656773 		.ascii	"regs\000"
 12232      00
 12233              	.LASF357:
 12234 0436 44657652 		.ascii	"DevRemoteWakeup\000"
 12234      656D6F74 
 12234      6557616B 
 12234      65757000 
 12235              	.LASF116:
 12236 0446 75736274 		.ascii	"usbtrdtim\000"
 12236      72647469 
 12236      6D00
 12237              	.LASF305:
 12238 0450 73706565 		.ascii	"speed\000"
 12238      6400
 12239              	.LASF83:
 12240 0456 5F555342 		.ascii	"_USB_OTG_HC_REGS\000"
 12240      5F4F5447 
 12240      5F48435F 
 12240      52454753 
 12240      00
 12241              	.LASF226:
 12242 0467 696E6570 		.ascii	"inepnakeff\000"
 12242      6E616B65 
 12242      666600
 12243              	.LASF392:
 12244 0472 696E5F72 		.ascii	"in_regs\000"
 12244      65677300 
 12245              	.LASF286:
 12246 047a 5553425F 		.ascii	"USB_OTG_ep\000"
 12246      4F54475F 
 12246      657000
 12247              	.LASF158:
 12248 0485 75736273 		.ascii	"usbsuspend\000"
 12248      75737065 
 12248      6E6400
 12249              	.LASF409:
 12250 0490 5553425F 		.ascii	"USB_OTG_InitDevSpeed\000"
 12250      4F54475F 
 12250      496E6974 
 12250      44657653 
ARM GAS  /tmp/ccQkqy1T.s 			page 261


 12250      70656564 
 12251              	.LASF412:
 12252 04a5 5553425F 		.ascii	"USB_OTG_IsHostMode\000"
 12252      4F54475F 
 12252      4973486F 
 12252      73744D6F 
 12252      646500
 12253              	.LASF335:
 12254 04b8 44617461 		.ascii	"DataIn\000"
 12254      496E00
 12255              	.LASF279:
 12256 04bf 5553425F 		.ascii	"USB_SPEED_UNKNOWN\000"
 12256      53504545 
 12256      445F554E 
 12256      4B4E4F57 
 12256      4E00
 12257              	.LASF16:
 12258 04d1 75696E74 		.ascii	"uint32_t\000"
 12258      33325F74 
 12258      00
 12259              	.LASF142:
 12260 04da 7478666E 		.ascii	"txfnum\000"
 12260      756D00
 12261              	.LASF209:
 12262 04e1 706F7072 		.ascii	"poprg_done\000"
 12262      675F646F 
 12262      6E6500
 12263              	.LASF420:
 12264 04ec 67726573 		.ascii	"greset\000"
 12264      657400
 12265              	.LASF52:
 12266 04f3 44494550 		.ascii	"DIEPEMPMSK\000"
 12266      454D504D 
 12266      534B00
 12267              	.LASF88:
 12268 04fe 48435453 		.ascii	"HCTSIZ\000"
 12268      495A00
 12269              	.LASF408:
 12270 0505 64746872 		.ascii	"dthrctl\000"
 12270      63746C00 
 12271              	.LASF219:
 12272 050d 5553425F 		.ascii	"USB_OTG_DSTS_TypeDef\000"
 12272      4F54475F 
 12272      44535453 
 12272      5F547970 
 12272      65446566 
 12273              	.LASF229:
 12274 0522 52657365 		.ascii	"Reserved14_31\000"
 12274      72766564 
 12274      31345F33 
 12274      3100
 12275              	.LASF293:
 12276 0530 6D617870 		.ascii	"maxpacket\000"
 12276      61636B65 
 12276      7400
 12277              	.LASF400:
 12278 053a 64696570 		.ascii	"diepctl\000"
ARM GAS  /tmp/ccQkqy1T.s 			page 262


 12278      63746C00 
 12279              	.LASF294:
 12280 0542 78666572 		.ascii	"xfer_buff\000"
 12280      5F627566 
 12280      6600
 12281              	.LASF427:
 12282 054c 67636366 		.ascii	"gccfg\000"
 12282      6700
 12283              	.LASF347:
 12284 0552 44657669 		.ascii	"DeviceDisconnected\000"
 12284      63654469 
 12284      73636F6E 
 12284      6E656374 
 12284      656400
 12285              	.LASF359:
 12286 0565 6F75745F 		.ascii	"out_ep\000"
 12286      657000
 12287              	.LASF208:
 12288 056c 63676F75 		.ascii	"cgoutnak\000"
 12288      746E616B 
 12288      00
 12289              	.LASF176:
 12290 0575 776B7570 		.ascii	"wkupintr\000"
 12290      696E7472 
 12290      00
 12291              	.LASF388:
 12292 057e 5553425F 		.ascii	"USB_OTG_EPClearStall\000"
 12292      4F54475F 
 12292      4550436C 
 12292      65617253 
 12292      74616C6C 
 12293              	.LASF105:
 12294 0593 646D6165 		.ascii	"dmaenable\000"
 12294      6E61626C 
 12294      6500
 12295              	.LASF425:
 12296 059d 5553425F 		.ascii	"USB_OTG_EnableGlobalInt\000"
 12296      4F54475F 
 12296      456E6162 
 12296      6C65476C 
 12296      6F62616C 
 12297              	.LASF11:
 12298 05b5 6C6F6E67 		.ascii	"long long unsigned int\000"
 12298      206C6F6E 
 12298      6720756E 
 12298      7369676E 
 12298      65642069 
 12299              	.LASF381:
 12300 05cc 6463746C 		.ascii	"dctl\000"
 12300      00
 12301              	.LASF82:
 12302 05d1 5553425F 		.ascii	"USB_OTG_HREGS\000"
 12302      4F54475F 
 12302      48524547 
 12302      5300
 12303              	.LASF331:
 12304 05df 4465496E 		.ascii	"DeInit\000"
ARM GAS  /tmp/ccQkqy1T.s 			page 263


 12304      697400
 12305              	.LASF28:
 12306 05e6 47525846 		.ascii	"GRXFSIZ\000"
 12306      53495A00 
 12307              	.LASF292:
 12308 05ee 74785F66 		.ascii	"tx_fifo_num\000"
 12308      69666F5F 
 12308      6E756D00 
 12309              	.LASF291:
 12310 05fa 6576656E 		.ascii	"even_odd_frame\000"
 12310      5F6F6464 
 12310      5F667261 
 12310      6D6500
 12311              	.LASF362:
 12312 0609 7573725F 		.ascii	"usr_cb\000"
 12312      636200
 12313              	.LASF200:
 12314 0610 726D7477 		.ascii	"rmtwkupsig\000"
 12314      6B757073 
 12314      696700
 12315              	.LASF149:
 12316 061b 6D6F6465 		.ascii	"modemismatch\000"
 12316      6D69736D 
 12316      61746368 
 12316      00
 12317              	.LASF103:
 12318 0628 676C626C 		.ascii	"glblintrmsk\000"
 12318      696E7472 
 12318      6D736B00 
 12319              	.LASF168:
 12320 0634 52657365 		.ascii	"Reserved22_23\000"
 12320      72766564 
 12320      32325F32 
 12320      3300
 12321              	.LASF156:
 12322 0642 52657365 		.ascii	"Reserved8_9\000"
 12322      72766564 
 12322      385F3900 
 12323              	.LASF4:
 12324 064e 5F5F7569 		.ascii	"__uint16_t\000"
 12324      6E743136 
 12324      5F7400
 12325              	.LASF100:
 12326 0659 44464946 		.ascii	"DFIFO\000"
 12326      4F00
 12327              	.LASF202:
 12328 065f 676E7069 		.ascii	"gnpinnaksts\000"
 12328      6E6E616B 
 12328      73747300 
 12329              	.LASF416:
 12330 066b 5553425F 		.ascii	"USB_OTG_SetCurrentMode\000"
 12330      4F54475F 
 12330      53657443 
 12330      75727265 
 12330      6E744D6F 
 12331              	.LASF199:
 12332 0682 5553425F 		.ascii	"USB_OTG_DCFG_TypeDef\000"
ARM GAS  /tmp/ccQkqy1T.s 			page 264


 12332      4F54475F 
 12332      44434647 
 12332      5F547970 
 12332      65446566 
 12333              	.LASF111:
 12334 0697 52657365 		.ascii	"Reserved3_5\000"
 12334      72766564 
 12334      335F3500 
 12335              	.LASF95:
 12336 06a3 48524547 		.ascii	"HREGS\000"
 12336      5300
 12337              	.LASF119:
 12338 06a9 52657365 		.ascii	"Reserved16\000"
 12338      72766564 
 12338      313600
 12339              	.LASF54:
 12340 06b4 44454143 		.ascii	"DEACHMSK\000"
 12340      484D534B 
 12340      00
 12341              	.LASF57:
 12342 06bd 444F5554 		.ascii	"DOUTEP1MSK\000"
 12342      4550314D 
 12342      534B00
 12343              	.LASF212:
 12344 06c8 73757370 		.ascii	"suspsts\000"
 12344      73747300 
 12345              	.LASF137:
 12346 06d0 68736674 		.ascii	"hsftrst\000"
 12346      72737400 
 12347              	.LASF87:
 12348 06d8 4843494E 		.ascii	"HCINTMSK\000"
 12348      544D534B 
 12348      00
 12349              	.LASF138:
 12350 06e1 68737466 		.ascii	"hstfrm\000"
 12350      726D00
 12351              	.LASF312:
 12352 06e8 5553425F 		.ascii	"USB_OTG_CORE_CFGS\000"
 12352      4F54475F 
 12352      434F5245 
 12352      5F434647 
 12352      5300
 12353              	.LASF441:
 12354 06fa 2F686F6D 		.ascii	"/home/sticky/Projects/stuff/stm32f4_usb\000"
 12354      652F7374 
 12354      69636B79 
 12354      2F50726F 
 12354      6A656374 
 12355              	.LASF41:
 12356 0722 44535453 		.ascii	"DSTS\000"
 12356      00
 12357              	.LASF432:
 12358 0727 636F756E 		.ascii	"count32b\000"
 12358      74333262 
 12358      00
 12359              	.LASF159:
 12360 0730 75736272 		.ascii	"usbreset\000"
ARM GAS  /tmp/ccQkqy1T.s 			page 265


 12360      65736574 
 12360      00
 12361              	.LASF330:
 12362 0739 496E6974 		.ascii	"Init\000"
 12362      00
 12363              	.LASF296:
 12364 073e 78666572 		.ascii	"xfer_len\000"
 12364      5F6C656E 
 12364      00
 12365              	.LASF405:
 12366 0747 64636667 		.ascii	"dcfg\000"
 12366      00
 12367              	.LASF214:
 12368 074c 65727274 		.ascii	"errticerr\000"
 12368      69636572 
 12368      7200
 12369              	.LASF96:
 12370 0756 494E4550 		.ascii	"INEP_REGS\000"
 12370      5F524547 
 12370      5300
 12371              	.LASF114:
 12372 0760 73727063 		.ascii	"srpcap\000"
 12372      617000
 12373              	.LASF440:
 12374 0767 696E632F 		.ascii	"inc/user_libs/usb_core.c\000"
 12374      75736572 
 12374      5F6C6962 
 12374      732F7573 
 12374      625F636F 
 12375              	.LASF422:
 12376 0780 5553425F 		.ascii	"USB_OTG_FlushTxFifo\000"
 12376      4F54475F 
 12376      466C7573 
 12376      68547846 
 12376      69666F00 
 12377              	.LASF75:
 12378 0794 48434647 		.ascii	"HCFG\000"
 12378      00
 12379              	.LASF317:
 12380 0799 77496E64 		.ascii	"wIndex\000"
 12380      657800
 12381              	.LASF334:
 12382 07a0 4550305F 		.ascii	"EP0_RxReady\000"
 12382      52785265 
 12382      61647900 
 12383              	.LASF250:
 12384 07ac 7374616C 		.ascii	"stall\000"
 12384      6C00
 12385              	.LASF283:
 12386 07b2 5553425F 		.ascii	"USB_OTG_OK\000"
 12386      4F54475F 
 12386      4F4B00
 12387              	.LASF84:
 12388 07bd 48434348 		.ascii	"HCCHAR\000"
 12388      415200
 12389              	.LASF133:
 12390 07c4 5F555342 		.ascii	"_USB_OTG_GAHBCFG_TypeDef\000"
ARM GAS  /tmp/ccQkqy1T.s 			page 266


 12390      5F4F5447 
 12390      5F474148 
 12390      42434647 
 12390      5F547970 
 12391              	.LASF333:
 12392 07dd 4550305F 		.ascii	"EP0_TxSent\000"
 12392      54785365 
 12392      6E7400
 12393              	.LASF309:
 12394 07e8 536F665F 		.ascii	"Sof_output\000"
 12394      6F757470 
 12394      757400
 12395              	.LASF210:
 12396 07f3 5F555342 		.ascii	"_USB_OTG_DCTL_TypeDef\000"
 12396      5F4F5447 
 12396      5F444354 
 12396      4C5F5479 
 12396      70654465 
 12397              	.LASF395:
 12398 0809 5553425F 		.ascii	"USB_OTG_EPDeactivate\000"
 12398      4F54475F 
 12398      45504465 
 12398      61637469 
 12398      76617465 
 12399              	.LASF93:
 12400 081e 47524547 		.ascii	"GREGS\000"
 12400      5300
 12401              	.LASF195:
 12402 0824 64657661 		.ascii	"devaddr\000"
 12402      64647200 
 12403              	.LASF380:
 12404 082c 646F6570 		.ascii	"doeptsize0\000"
 12404      7473697A 
 12404      653000
 12405              	.LASF274:
 12406 0837 5F555342 		.ascii	"_USB_OTG_PCGCCTL_TypeDef\000"
 12406      5F4F5447 
 12406      5F504347 
 12406      4343544C 
 12406      5F547970 
 12407              	.LASF89:
 12408 0850 4843444D 		.ascii	"HCDMA\000"
 12408      4100
 12409              	.LASF53:
 12410 0856 44454143 		.ascii	"DEACHINT\000"
 12410      48494E54 
 12410      00
 12411              	.LASF287:
 12412 085f 69735F69 		.ascii	"is_in\000"
 12412      6E00
 12413              	.LASF290:
 12414 0865 64617461 		.ascii	"data_pid_start\000"
 12414      5F706964 
 12414      5F737461 
 12414      727400
 12415              	.LASF277:
 12416 0874 5553425F 		.ascii	"USB_OTG_FS_CORE_ID\000"
ARM GAS  /tmp/ccQkqy1T.s 			page 267


 12416      4F54475F 
 12416      46535F43 
 12416      4F52455F 
 12416      494400
 12417              	.LASF182:
 12418 0887 5553425F 		.ascii	"USB_OTG_FSIZ_TypeDef\000"
 12418      4F54475F 
 12418      4653495A 
 12418      5F547970 
 12418      65446566 
 12419              	.LASF345:
 12420 089c 44657669 		.ascii	"DeviceResumed\000"
 12420      63655265 
 12420      73756D65 
 12420      6400
 12421              	.LASF259:
 12422 08aa 78666572 		.ascii	"xfersize\000"
 12422      73697A65 
 12422      00
 12423              	.LASF421:
 12424 08b3 636F756E 		.ascii	"count\000"
 12424      7400
 12425              	.LASF71:
 12426 08b9 444F4550 		.ascii	"DOEPTSIZ\000"
 12426      5453495A 
 12426      00
 12427              	.LASF342:
 12428 08c2 44657669 		.ascii	"DeviceReset\000"
 12428      63655265 
 12428      73657400 
 12429              	.LASF44:
 12430 08ce 444F4550 		.ascii	"DOEPMSK\000"
 12430      4D534B00 
 12431              	.LASF127:
 12432 08d6 756C7069 		.ascii	"ulpi_passthrough\000"
 12432      5F706173 
 12432      73746872 
 12432      6F756768 
 12432      00
 12433              	.LASF341:
 12434 08e7 5F555342 		.ascii	"_USBD_USR_PROP\000"
 12434      445F5553 
 12434      525F5052 
 12434      4F5000
 12435              	.LASF248:
 12436 08f6 6E616B73 		.ascii	"naksts\000"
 12436      747300
 12437              	.LASF81:
 12438 08fd 4841494E 		.ascii	"HAINTMSK\000"
 12438      544D534B 
 12438      00
 12439              	.LASF307:
 12440 0906 546F7461 		.ascii	"TotalFifoSize\000"
 12440      6C466966 
 12440      6F53697A 
 12440      6500
 12441              	.LASF329:
ARM GAS  /tmp/ccQkqy1T.s 			page 268


 12442 0914 5F446576 		.ascii	"_Device_cb\000"
 12442      6963655F 
 12442      636200
 12443              	.LASF132:
 12444 091f 636F7272 		.ascii	"corrupt_tx\000"
 12444      7570745F 
 12444      747800
 12445              	.LASF122:
 12446 092a 756C7069 		.ascii	"ulpi_clk_sus_m\000"
 12446      5F636C6B 
 12446      5F737573 
 12446      5F6D00
 12447              	.LASF278:
 12448 0939 5553425F 		.ascii	"USB_OTG_CORE_ID_TypeDef\000"
 12448      4F54475F 
 12448      434F5245 
 12448      5F49445F 
 12448      54797065 
 12449              	.LASF120:
 12450 0951 756C7069 		.ascii	"ulpi_fsls\000"
 12450      5F66736C 
 12450      7300
 12451              	.LASF188:
 12452 095b 736F666F 		.ascii	"sofouten\000"
 12452      7574656E 
 12452      00
 12453              	.LASF72:
 12454 0964 444F4550 		.ascii	"DOEPDMA\000"
 12454      444D4100 
 12455              	.LASF23:
 12456 096c 47525354 		.ascii	"GRSTCTL\000"
 12456      43544C00 
 12457              	.LASF403:
 12458 0974 696E746D 		.ascii	"intmsk\000"
 12458      736B00
 12459              	.LASF311:
 12460 097b 636F7265 		.ascii	"coreID\000"
 12460      494400
 12461              	.LASF112:
 12462 0982 70687973 		.ascii	"physel\000"
 12462      656C00
 12463              	.LASF410:
 12464 0989 5553425F 		.ascii	"USB_OTG_ReadOtgItr\000"
 12464      4F54475F 
 12464      52656164 
 12464      4F746749 
 12464      747200
 12465              	.LASF10:
 12466 099c 6C6F6E67 		.ascii	"long long int\000"
 12466      206C6F6E 
 12466      6720696E 
 12466      7400
 12467              	.LASF183:
 12468 09aa 52657365 		.ascii	"Reserved_in\000"
 12468      72766564 
 12468      5F696E00 
 12469              	.LASF428:
ARM GAS  /tmp/ccQkqy1T.s 			page 269


 12470 09b6 5553425F 		.ascii	"USB_OTG_SelectCore\000"
 12470      4F54475F 
 12470      53656C65 
 12470      6374436F 
 12470      726500
 12471              	.LASF323:
 12472 09c9 4765744D 		.ascii	"GetManufacturerStrDescriptor\000"
 12472      616E7566 
 12472      61637475 
 12472      72657253 
 12472      74724465 
 12473              	.LASF231:
 12474 09e6 5553425F 		.ascii	"USB_OTG_DIEPMSK_TypeDef\000"
 12474      4F54475F 
 12474      44494550 
 12474      4D534B5F 
 12474      54797065 
 12475              	.LASF434:
 12476 09fe 5553425F 		.ascii	"USB_OTG_WritePacket\000"
 12476      4F54475F 
 12476      57726974 
 12476      65506163 
 12476      6B657400 
 12477              	.LASF340:
 12478 0a12 55534244 		.ascii	"USBD_Class_cb_TypeDef\000"
 12478      5F436C61 
 12478      73735F63 
 12478      625F5479 
 12478      70654465 
 12479              	.LASF239:
 12480 0a28 72785F74 		.ascii	"rx_thr_len\000"
 12480      68725F6C 
 12480      656E00
 12481              	.LASF353:
 12482 0a33 64657669 		.ascii	"device_old_status\000"
 12482      63655F6F 
 12482      6C645F73 
 12482      74617475 
 12482      7300
 12483              	.LASF13:
 12484 0a45 75696E74 		.ascii	"uint8_t\000"
 12484      385F7400 
 12485              	.LASF270:
 12486 0a4d 67617465 		.ascii	"gatehclk\000"
 12486      68636C6B 
 12486      00
 12487              	.LASF404:
 12488 0a56 5553425F 		.ascii	"USB_OTG_CoreInitDev\000"
 12488      4F54475F 
 12488      436F7265 
 12488      496E6974 
 12488      44657600 
 12489              	.LASF435:
 12490 0a6a 63685F65 		.ascii	"ch_ep_num\000"
 12490      705F6E75 
 12490      6D00
 12491              	.LASF151:
ARM GAS  /tmp/ccQkqy1T.s 			page 270


 12492 0a74 736F6669 		.ascii	"sofintr\000"
 12492      6E747200 
 12493              	.LASF238:
 12494 0a7c 72785F74 		.ascii	"rx_thr_en\000"
 12494      68725F65 
 12494      6E00
 12495              	.LASF204:
 12496 0a86 74737463 		.ascii	"tstctl\000"
 12496      746C00
 12497              	.LASF339:
 12498 0a8d 47657443 		.ascii	"GetConfigDescriptor\000"
 12498      6F6E6669 
 12498      67446573 
 12498      63726970 
 12498      746F7200 
 12499              	.LASF419:
 12500 0aa1 5553425F 		.ascii	"USB_OTG_FlushRxFifo\000"
 12500      4F54475F 
 12500      466C7573 
 12500      68527846 
 12500      69666F00 
 12501              	.LASF314:
 12502 0ab5 626D5265 		.ascii	"bmRequest\000"
 12502      71756573 
 12502      7400
 12503              	.LASF109:
 12504 0abf 5553425F 		.ascii	"USB_OTG_GAHBCFG_TypeDef\000"
 12504      4F54475F 
 12504      47414842 
 12504      4346475F 
 12504      54797065 
 12505              	.LASF371:
 12506 0ad7 64657063 		.ascii	"depctl\000"
 12506      746C00
 12507              	.LASF126:
 12508 0ade 756C7069 		.ascii	"ulpi_ind_cpl\000"
 12508      5F696E64 
 12508      5F63706C 
 12508      00
 12509              	.LASF169:
 12510 0aeb 706F7274 		.ascii	"portintr\000"
 12510      696E7472 
 12510      00
 12511              	.LASF215:
 12512 0af4 52657365 		.ascii	"Reserved4_7\000"
 12512      72766564 
 12512      345F3700 
 12513              	.LASF275:
 12514 0b00 5553425F 		.ascii	"USB_OTG_PCGCCTL_TypeDef\000"
 12514      4F54475F 
 12514      50434743 
 12514      43544C5F 
 12514      54797065 
 12515              	.LASF85:
 12516 0b18 48435350 		.ascii	"HCSPLT\000"
 12516      4C5400
 12517              	.LASF399:
ARM GAS  /tmp/ccQkqy1T.s 			page 271


 12518 0b1f 5553425F 		.ascii	"USB_OTG_EP0Activate\000"
 12518      4F54475F 
 12518      45503041 
 12518      63746976 
 12518      61746500 
 12519              	.LASF152:
 12520 0b33 72787374 		.ascii	"rxstsqlvl\000"
 12520      73716C76 
 12520      6C00
 12521              	.LASF70:
 12522 0b3d 444F4550 		.ascii	"DOEPINT\000"
 12522      494E5400 
 12523              	.LASF69:
 12524 0b45 444F4550 		.ascii	"DOEPCTL\000"
 12524      43544C00 
 12525              	.LASF58:
 12526 0b4d 5553425F 		.ascii	"USB_OTG_DREGS\000"
 12526      4F54475F 
 12526      44524547 
 12526      5300
 12527              	.LASF166:
 12528 0b5b 696E636F 		.ascii	"incomplisoin\000"
 12528      6D706C69 
 12528      736F696E 
 12528      00
 12529              	.LASF180:
 12530 0b68 64657074 		.ascii	"depth\000"
 12530      6800
 12531              	.LASF73:
 12532 0b6e 5553425F 		.ascii	"USB_OTG_OUTEPREGS\000"
 12532      4F54475F 
 12532      4F555445 
 12532      50524547 
 12532      5300
 12533              	.LASF444:
 12534 0b80 5553425F 		.ascii	"USB_OTG_EnableCommonInt\000"
 12534      4F54475F 
 12534      456E6162 
 12534      6C65436F 
 12534      6D6D6F6E 
 12535              	.LASF121:
 12536 0b98 756C7069 		.ascii	"ulpi_auto_res\000"
 12536      5F617574 
 12536      6F5F7265 
 12536      7300
 12537              	.LASF205:
 12538 0ba6 73676E70 		.ascii	"sgnpinnak\000"
 12538      696E6E61 
 12538      6B00
 12539              	.LASF146:
 12540 0bb0 5F555342 		.ascii	"_USB_OTG_GRSTCTL_TypeDef\000"
 12540      5F4F5447 
 12540      5F475253 
 12540      5443544C 
 12540      5F547970 
 12541              	.LASF80:
 12542 0bc9 4841494E 		.ascii	"HAINT\000"
ARM GAS  /tmp/ccQkqy1T.s 			page 272


 12542      5400
 12543              	.LASF167:
 12544 0bcf 696E636F 		.ascii	"incomplisoout\000"
 12544      6D706C69 
 12544      736F6F75 
 12544      7400
 12545              	.LASF243:
 12546 0bdd 5F555342 		.ascii	"_USB_OTG_DTHRCTL_TypeDef\000"
 12546      5F4F5447 
 12546      5F445448 
 12546      5243544C 
 12546      5F547970 
 12547              	.LASF364:
 12548 0bf6 70436F6E 		.ascii	"pConfig_descriptor\000"
 12548      6669675F 
 12548      64657363 
 12548      72697074 
 12548      6F7200
 12549              	.LASF46:
 12550 0c09 4441494E 		.ascii	"DAINTMSK\000"
 12550      544D534B 
 12550      00
 12551              	.LASF31:
 12552 0c12 52657365 		.ascii	"Reserved30\000"
 12552      72766564 
 12552      333000
 12553              	.LASF192:
 12554 0c1d 5553425F 		.ascii	"USB_OTG_GCCFG_TypeDef\000"
 12554      4F54475F 
 12554      47434346 
 12554      475F5479 
 12554      70654465 
 12555              	.LASF110:
 12556 0c33 746F7574 		.ascii	"toutcal\000"
 12556      63616C00 
 12557              	.LASF213:
 12558 0c3b 656E756D 		.ascii	"enumspd\000"
 12558      73706400 
 12559              	.LASF203:
 12560 0c43 676F7574 		.ascii	"goutnaksts\000"
 12560      6E616B73 
 12560      747300
 12561              	.LASF260:
 12562 0c4e 706B7463 		.ascii	"pktcnt\000"
 12562      6E7400
 12563              	.LASF65:
 12564 0c55 44545846 		.ascii	"DTXFSTS\000"
 12564      53545300 
 12565              	.LASF413:
 12566 0c5d 5553425F 		.ascii	"USB_OTG_IsDeviceMode\000"
 12566      4F54475F 
 12566      49734465 
 12566      76696365 
 12566      4D6F6465 
 12567              	.LASF144:
 12568 0c72 646D6172 		.ascii	"dmareq\000"
 12568      657100
ARM GAS  /tmp/ccQkqy1T.s 			page 273


 12569              	.LASF235:
 12570 0c79 69736F5F 		.ascii	"iso_thr_en\000"
 12570      7468725F 
 12570      656E00
 12571              	.LASF98:
 12572 0c84 48435F52 		.ascii	"HC_REGS\000"
 12572      45475300 
 12573              	.LASF135:
 12574 0c8c 5553425F 		.ascii	"USB_OTG_GUSBCFG_TypeDef\000"
 12574      4F54475F 
 12574      47555342 
 12574      4346475F 
 12574      54797065 
 12575              	.LASF265:
 12576 0ca4 73757063 		.ascii	"supcnt\000"
 12576      6E7400
 12577              	.LASF91:
 12578 0cab 5553425F 		.ascii	"USB_OTG_HC_REGS\000"
 12578      4F54475F 
 12578      48435F52 
 12578      45475300 
 12579              	.LASF102:
 12580 0cbb 5553425F 		.ascii	"USB_OTG_CORE_REGS\000"
 12580      4F54475F 
 12580      434F5245 
 12580      5F524547 
 12580      5300
 12581              	.LASF30:
 12582 0ccd 484E5054 		.ascii	"HNPTXSTS\000"
 12582      58535453 
 12582      00
 12583              	.LASF398:
 12584 0cd6 5553425F 		.ascii	"USB_OTG_EPActivate\000"
 12584      4F54475F 
 12584      45504163 
 12584      74697661 
 12584      746500
 12585              	.LASF375:
 12586 0ce9 5553425F 		.ascii	"USB_OTG_UngateClock\000"
 12586      4F54475F 
 12586      556E6761 
 12586      7465436C 
 12586      6F636B00 
 12587              	.LASF337:
 12588 0cfd 49736F49 		.ascii	"IsoINIncomplete\000"
 12588      4E496E63 
 12588      6F6D706C 
 12588      65746500 
 12589              	.LASF328:
 12590 0d0d 55534244 		.ascii	"USBD_DEVICE\000"
 12590      5F444556 
 12590      49434500 
 12591              	.LASF376:
 12592 0d19 64737473 		.ascii	"dsts\000"
 12592      00
 12593              	.LASF48:
 12594 0d1e 52657365 		.ascii	"Reserved9\000"
ARM GAS  /tmp/ccQkqy1T.s 			page 274


 12594      72766564 
 12594      3900
 12595              	.LASF254:
 12596 0d28 73657464 		.ascii	"setd1pid\000"
 12596      31706964 
 12596      00
 12597              	.LASF308:
 12598 0d31 7068795F 		.ascii	"phy_itface\000"
 12598      69746661 
 12598      636500
 12599              	.LASF129:
 12600 0d3c 52657365 		.ascii	"Reserved26_28\000"
 12600      72766564 
 12600      32365F32 
 12600      3800
 12601              	.LASF141:
 12602 0d4a 74786666 		.ascii	"txfflsh\000"
 12602      6C736800 
 12603              	.LASF136:
 12604 0d52 63736674 		.ascii	"csftrst\000"
 12604      72737400 
 12605              	.LASF218:
 12606 0d5a 5F555342 		.ascii	"_USB_OTG_DSTS_TypeDef\000"
 12606      5F4F5447 
 12606      5F445354 
 12606      535F5479 
 12606      70654465 
 12607              	.LASF50:
 12608 0d70 44564255 		.ascii	"DVBUSPULSE\000"
 12608      5350554C 
 12608      534500
 12609              	.LASF130:
 12610 0d7b 666F7263 		.ascii	"force_host\000"
 12610      655F686F 
 12610      737400
 12611              	.LASF369:
 12612 0d86 70646576 		.ascii	"pdev\000"
 12612      00
 12613              	.LASF36:
 12614 0d8b 5553425F 		.ascii	"USB_OTG_GREGS\000"
 12614      4F54475F 
 12614      47524547 
 12614      5300
 12615              	.LASF106:
 12616 0d99 6E707478 		.ascii	"nptxfemplvl_txfemplvl\000"
 12616      66656D70 
 12616      6C766C5F 
 12616      74786665 
 12616      6D706C76 
 12617              	.LASF394:
 12618 0daf 5553425F 		.ascii	"USB_OTG_EPStartXfer\000"
 12618      4F54475F 
 12618      45505374 
 12618      61727458 
 12618      66657200 
 12619              	.LASF78:
 12620 0dc3 52657365 		.ascii	"Reserved40C\000"
ARM GAS  /tmp/ccQkqy1T.s 			page 275


 12620      72766564 
 12620      34304300 
 12621              	.LASF411:
 12622 0dcf 5553425F 		.ascii	"USB_OTG_ReadCoreItr\000"
 12622      4F54475F 
 12622      52656164 
 12622      436F7265 
 12622      49747200 
 12623              	.LASF134:
 12624 0de3 5F555342 		.ascii	"_USB_OTG_GUSBCFG_TypeDef\000"
 12624      5F4F5447 
 12624      5F475553 
 12624      42434647 
 12624      5F547970 
 12625              	.LASF115:
 12626 0dfc 686E7063 		.ascii	"hnpcap\000"
 12626      617000
 12627              	.LASF424:
 12628 0e03 61686263 		.ascii	"ahbcfg\000"
 12628      666700
 12629              	.LASF67:
 12630 0e0a 5553425F 		.ascii	"USB_OTG_INEPREGS\000"
 12630      4F54475F 
 12630      494E4550 
 12630      52454753 
 12630      00
 12631              	.LASF90:
 12632 0e1b 52657365 		.ascii	"Reserved\000"
 12632      72766564 
 12632      00
 12633              	.LASF147:
 12634 0e24 5553425F 		.ascii	"USB_OTG_GRSTCTL_TypeDef\000"
 12634      4F54475F 
 12634      47525354 
 12634      43544C5F 
 12634      54797065 
 12635              	.LASF14:
 12636 0e3c 75696E74 		.ascii	"uint16_t\000"
 12636      31365F74 
 12636      00
 12637              	.LASF21:
 12638 0e45 47414842 		.ascii	"GAHBCFG\000"
 12638      43464700 
 12639              	.LASF352:
 12640 0e4d 64657669 		.ascii	"device_status\000"
 12640      63655F73 
 12640      74617475 
 12640      7300
 12641              	.LASF244:
 12642 0e5b 5553425F 		.ascii	"USB_OTG_DTHRCTL_TypeDef\000"
 12642      4F54475F 
 12642      44544852 
 12642      43544C5F 
 12642      54797065 
 12643              	.LASF401:
 12644 0e73 5553425F 		.ascii	"USB_OTG_GetDeviceSpeed\000"
 12644      4F54475F 
ARM GAS  /tmp/ccQkqy1T.s 			page 276


 12644      47657444 
 12644      65766963 
 12644      65537065 
 12645              	.LASF355:
 12646 0e8a 636F6E6E 		.ascii	"connection_status\000"
 12646      65637469 
 12646      6F6E5F73 
 12646      74617475 
 12646      7300
 12647              	.LASF325:
 12648 0e9c 47657453 		.ascii	"GetSerialStrDescriptor\000"
 12648      65726961 
 12648      6C537472 
 12648      44657363 
 12648      72697074 
 12649              	.LASF230:
 12650 0eb3 5F555342 		.ascii	"_USB_OTG_DIEPINTn_TypeDef\000"
 12650      5F4F5447 
 12650      5F444945 
 12650      50494E54 
 12650      6E5F5479 
 12651              	.LASF198:
 12652 0ecd 5F555342 		.ascii	"_USB_OTG_DCFG_TypeDef\000"
 12652      5F4F5447 
 12652      5F444346 
 12652      475F5479 
 12652      70654465 
 12653              	.LASF223:
 12654 0ee3 74696D65 		.ascii	"timeout\000"
 12654      6F757400 
 12655              	.LASF25:
 12656 0eeb 47494E54 		.ascii	"GINTMSK\000"
 12656      4D534B00 
 12657              	.LASF196:
 12658 0ef3 70657266 		.ascii	"perfrint\000"
 12658      72696E74 
 12658      00
 12659              	.LASF34:
 12660 0efc 48505458 		.ascii	"HPTXFSIZ\000"
 12660      4653495A 
 12660      00
 12661              	.LASF443:
 12662 0f05 5553425F 		.ascii	"USB_OTG_CoreReset\000"
 12662      4F54475F 
 12662      436F7265 
 12662      52657365 
 12662      7400
 12663              	.LASF148:
 12664 0f17 52657365 		.ascii	"Reserved0\000"
 12664      72766564 
 12664      3000
 12665              	.LASF150:
 12666 0f21 6F746769 		.ascii	"otgintr\000"
 12666      6E747200 
 12667              	.LASF351:
 12668 0f29 64657669 		.ascii	"device_state\000"
 12668      63655F73 
ARM GAS  /tmp/ccQkqy1T.s 			page 277


 12668      74617465 
 12668      00
 12669              	.LASF255:
 12670 0f36 65706469 		.ascii	"epdis\000"
 12670      7300
 12671              	.LASF139:
 12672 0f3c 52657365 		.ascii	"Reserved3\000"
 12672      72766564 
 12672      3300
 12673              	.LASF247:
 12674 0f46 64706964 		.ascii	"dpid\000"
 12674      00
 12675              	.LASF86:
 12676 0f4b 4843494E 		.ascii	"HCINT\000"
 12676      5400
 12677              	.LASF94:
 12678 0f51 44524547 		.ascii	"DREGS\000"
 12678      5300
 12679              	.LASF163:
 12680 0f57 65706D69 		.ascii	"epmismatch\000"
 12680      736D6174 
 12680      636800
 12681              	.LASF113:
 12682 0f62 52657365 		.ascii	"Reserved7\000"
 12682      72766564 
 12682      3700
 12683              	.LASF372:
 12684 0f6c 64657063 		.ascii	"depctl_addr\000"
 12684      746C5F61 
 12684      64647200 
 12685              	.LASF320:
 12686 0f78 5F446576 		.ascii	"_Device_TypeDef\000"
 12686      6963655F 
 12686      54797065 
 12686      44656600 
 12687              	.LASF280:
 12688 0f88 5553425F 		.ascii	"USB_SPEED_LOW\000"
 12688      53504545 
 12688      445F4C4F 
 12688      5700
 12689              	.LASF268:
 12690 0f96 5553425F 		.ascii	"USB_OTG_DEP0XFRSIZ_TypeDef\000"
 12690      4F54475F 
 12690      44455030 
 12690      58465253 
 12690      495A5F54 
 12691              	.LASF234:
 12692 0fb1 6E6F6E5F 		.ascii	"non_iso_thr_en\000"
 12692      69736F5F 
 12692      7468725F 
 12692      656E00
 12693              	.LASF365:
 12694 0fc0 4443445F 		.ascii	"DCD_DEV\000"
 12694      44455600 
 12695              	.LASF17:
 12696 0fc8 49544D5F 		.ascii	"ITM_RxBuffer\000"
 12696      52784275 
ARM GAS  /tmp/ccQkqy1T.s 			page 278


 12696      66666572 
 12696      00
 12697              	.LASF60:
 12698 0fd5 44494550 		.ascii	"DIEPCTL\000"
 12698      43544C00 
 12699              	.LASF51:
 12700 0fdd 44544852 		.ascii	"DTHRCTL\000"
 12700      43544C00 
 12701              	.LASF414:
 12702 0fe5 5553425F 		.ascii	"USB_OTG_EPSetStall\000"
 12702      4F54475F 
 12702      45505365 
 12702      74537461 
 12702      6C6C00
 12703              	.LASF272:
 12704 0ff8 7068795F 		.ascii	"phy_susp\000"
 12704      73757370 
 12704      00
 12705              	.LASF306:
 12706 1001 646D615F 		.ascii	"dma_enable\000"
 12706      656E6162 
 12706      6C6500
 12707              	.LASF402:
 12708 100c 5553425F 		.ascii	"USB_OTG_EnableDevInt\000"
 12708      4F54475F 
 12708      456E6162 
 12708      6C654465 
 12708      76496E74 
 12709              	.LASF318:
 12710 1021 774C656E 		.ascii	"wLength\000"
 12710      67746800 
 12711              	.LASF189:
 12712 1029 64697361 		.ascii	"disablevbussensing\000"
 12712      626C6576 
 12712      62757373 
 12712      656E7369 
 12712      6E6700
 12713              	.LASF366:
 12714 103c 5553425F 		.ascii	"USB_OTG_handle\000"
 12714      4F54475F 
 12714      68616E64 
 12714      6C6500
 12715              	.LASF350:
 12716 104b 64657669 		.ascii	"device_config\000"
 12716      63655F63 
 12716      6F6E6669 
 12716      6700
 12717              	.LASF185:
 12718 1059 52657365 		.ascii	"Reserved_17\000"
 12718      72766564 
 12718      5F313700 
 12719              	.LASF324:
 12720 1065 47657450 		.ascii	"GetProductStrDescriptor\000"
 12720      726F6475 
 12720      63745374 
 12720      72446573 
 12720      63726970 
ARM GAS  /tmp/ccQkqy1T.s 			page 279


 12721              	.LASF288:
 12722 107d 69735F73 		.ascii	"is_stall\000"
 12722      74616C6C 
 12722      00
 12723              	.LASF101:
 12724 1086 50434743 		.ascii	"PCGCCTL\000"
 12724      43544C00 
 12725              	.LASF201:
 12726 108e 73667464 		.ascii	"sftdiscon\000"
 12726      6973636F 
 12726      6E00
 12727              	.LASF374:
 12728 1098 5553425F 		.ascii	"USB_OTG_StopDevice\000"
 12728      4F54475F 
 12728      53746F70 
 12728      44657669 
 12728      636500
 12729              	.LASF228:
 12730 10ab 74786669 		.ascii	"txfifoundrn\000"
 12730      666F756E 
 12730      64726E00 
 12731              	.LASF162:
 12732 10b7 656F7066 		.ascii	"eopframe\000"
 12732      72616D65 
 12732      00
 12733              	.LASF285:
 12734 10c0 5553425F 		.ascii	"USB_OTG_STS\000"
 12734      4F54475F 
 12734      53545300 
 12735              	.LASF391:
 12736 10cc 64657074 		.ascii	"deptsiz\000"
 12736      73697A00 
 12737              	.LASF256:
 12738 10d4 6570656E 		.ascii	"epena\000"
 12738      6100
 12739              	.LASF302:
 12740 10da 5553425F 		.ascii	"USB_OTG_core_cfg\000"
 12740      4F54475F 
 12740      636F7265 
 12740      5F636667 
 12740      00
 12741              	.LASF63:
 12742 10eb 44494550 		.ascii	"DIEPTSIZ\000"
 12742      5453495A 
 12742      00
 12743              	.LASF336:
 12744 10f4 44617461 		.ascii	"DataOut\000"
 12744      4F757400 
 12745              	.LASF6:
 12746 10fc 5F5F696E 		.ascii	"__int32_t\000"
 12746      7433325F 
 12746      7400
 12747              	.LASF3:
 12748 1106 5F5F7569 		.ascii	"__uint8_t\000"
 12748      6E74385F 
 12748      7400
 12749              	.LASF368:
ARM GAS  /tmp/ccQkqy1T.s 			page 280


 12750 1110 5553425F 		.ascii	"USB_OTG_CORE_HANDLE\000"
 12750      4F54475F 
 12750      434F5245 
 12750      5F48414E 
 12750      444C4500 
 12751              	.LASF315:
 12752 1124 62526571 		.ascii	"bRequest\000"
 12752      75657374 
 12752      00
 12753              	.LASF181:
 12754 112d 5F555342 		.ascii	"_USB_OTG_FSIZ_TypeDef\000"
 12754      5F4F5447 
 12754      5F465349 
 12754      5A5F5479 
 12754      70654465 
 12755              	.LASF197:
 12756 1143 52657365 		.ascii	"Reserved12_31\000"
 12756      72766564 
 12756      31325F33 
 12756      3100
 12757              	.LASF12:
 12758 1151 756E7369 		.ascii	"unsigned int\000"
 12758      676E6564 
 12758      20696E74 
 12758      00
 12759              	.LASF190:
 12760 115e 52657365 		.ascii	"Reserved_out\000"
 12760      72766564 
 12760      5F6F7574 
 12760      00
 12761              	.LASF20:
 12762 116b 474F5447 		.ascii	"GOTGINT\000"
 12762      494E5400 
 12763              	.LASF145:
 12764 1173 61686269 		.ascii	"ahbidle\000"
 12764      646C6500 
 12765              	.LASF338:
 12766 117b 49736F4F 		.ascii	"IsoOUTIncomplete\000"
 12766      5554496E 
 12766      636F6D70 
 12766      6C657465 
 12766      00
 12767              	.LASF438:
 12768 118c 5553425F 		.ascii	"USB_OTG_BSP_uDelay\000"
 12768      4F54475F 
 12768      4253505F 
 12768      7544656C 
 12768      617900
 12769              	.LASF19:
 12770 119f 474F5447 		.ascii	"GOTGCTL\000"
 12770      43544C00 
 12771              	.LASF61:
 12772 11a7 52657365 		.ascii	"Reserved04\000"
 12772      72766564 
 12772      303400
 12773              	.LASF191:
 12774 11b2 5F555342 		.ascii	"_USB_OTG_GCCFG_TypeDef\000"
ARM GAS  /tmp/ccQkqy1T.s 			page 281


 12774      5F4F5447 
 12774      5F474343 
 12774      46475F54 
 12774      79706544 
 12775              	.LASF387:
 12776 11c9 5553425F 		.ascii	"USB_OTG_ReadDevAllOutEp_itr\000"
 12776      4F54475F 
 12776      52656164 
 12776      44657641 
 12776      6C6C4F75 
 12777              	.LASF384:
 12778 11e5 5553425F 		.ascii	"USB_OTG_ReadDevAllInEPItr\000"
 12778      4F54475F 
 12778      52656164 
 12778      44657641 
 12778      6C6C496E 
 12779              	.LASF143:
 12780 11ff 52657365 		.ascii	"Reserved11_29\000"
 12780      72766564 
 12780      31315F32 
 12780      3900
 12781              	.LASF43:
 12782 120d 44494550 		.ascii	"DIEPMSK\000"
 12782      4D534B00 
 12783              	.LASF386:
 12784 1215 65706E75 		.ascii	"epnum\000"
 12784      6D00
 12785              	.LASF251:
 12786 121b 636E616B 		.ascii	"cnak\000"
 12786      00
 12787              	.LASF42:
 12788 1220 52657365 		.ascii	"Reserved0C\000"
 12788      72766564 
 12788      304300
 12789              	.LASF9:
 12790 122b 6C6F6E67 		.ascii	"long unsigned int\000"
 12790      20756E73 
 12790      69676E65 
 12790      6420696E 
 12790      7400
 12791              	.LASF273:
 12792 123d 52657365 		.ascii	"Reserved5_31\000"
 12792      72766564 
 12792      355F3331 
 12792      00
 12793              	.LASF242:
 12794 124a 52657365 		.ascii	"Reserved28_31\000"
 12794      72766564 
 12794      32385F33 
 12794      3100
 12795              	.LASF27:
 12796 1258 47525853 		.ascii	"GRXSTSP\000"
 12796      54535000 
 12797              	.LASF26:
 12798 1260 47525853 		.ascii	"GRXSTSR\000"
 12798      54535200 
 12799              	.LASF430:
ARM GAS  /tmp/ccQkqy1T.s 			page 282


 12800 1268 5553425F 		.ascii	"USB_OTG_ReadPacket\000"
 12800      4F54475F 
 12800      52656164 
 12800      5061636B 
 12800      657400
 12801              	.LASF217:
 12802 127b 52657365 		.ascii	"Reserved22_31\000"
 12802      72766564 
 12802      32325F33 
 12802      3100
 12803              	.LASF15:
 12804 1289 696E7433 		.ascii	"int32_t\000"
 12804      325F7400 
 12805              	.LASF64:
 12806 1291 44494550 		.ascii	"DIEPDMA\000"
 12806      444D4100 
 12807              	.LASF349:
 12808 1299 5F444344 		.ascii	"_DCD\000"
 12808      00
 12809              	.LASF418:
 12810 129e 75736263 		.ascii	"usbcfg\000"
 12810      666700
 12811              	.LASF276:
 12812 12a5 5553425F 		.ascii	"USB_OTG_HS_CORE_ID\000"
 12812      4F54475F 
 12812      48535F43 
 12812      4F52455F 
 12812      494400
 12813              	.LASF124:
 12814 12b8 756C7069 		.ascii	"ulpi_int_vbus_ind\000"
 12814      5F696E74 
 12814      5F766275 
 12814      735F696E 
 12814      6400
 12815              	.LASF263:
 12816 12ca 52657365 		.ascii	"Reserved7_18\000"
 12816      72766564 
 12816      375F3138 
 12816      00
 12817              	.LASF356:
 12818 12d7 74657374 		.ascii	"test_mode\000"
 12818      5F6D6F64 
 12818      6500
 12819              	.LASF390:
 12820 12e1 5553425F 		.ascii	"USB_OTG_EP0StartXfer\000"
 12820      4F54475F 
 12820      45503053 
 12820      74617274 
 12820      58666572 
 12821              	.LASF193:
 12822 12f6 64657673 		.ascii	"devspd\000"
 12822      706400
 12823              	.LASF154:
 12824 12fd 67696E6E 		.ascii	"ginnakeff\000"
 12824      616B6566 
 12824      6600
 12825              	.LASF423:
ARM GAS  /tmp/ccQkqy1T.s 			page 283


 12826 1307 5553425F 		.ascii	"USB_OTG_DisableGlobalInt\000"
 12826      4F54475F 
 12826      44697361 
 12826      626C6547 
 12826      6C6F6261 
 12827              	.LASF289:
 12828 1320 74797065 		.ascii	"type\000"
 12828      00
 12829              	.LASF92:
 12830 1325 5553425F 		.ascii	"USB_OTG_core_regs\000"
 12830      4F54475F 
 12830      636F7265 
 12830      5F726567 
 12830      7300
 12831              	.LASF1:
 12832 1337 756E7369 		.ascii	"unsigned char\000"
 12832      676E6564 
 12832      20636861 
 12832      7200
 12833              	.LASF361:
 12834 1345 636C6173 		.ascii	"class_cb\000"
 12834      735F6362 
 12834      00
 12835              	.LASF8:
 12836 134e 5F5F7569 		.ascii	"__uint32_t\000"
 12836      6E743332 
 12836      5F7400
 12837              	.LASF117:
 12838 1359 52657365 		.ascii	"Reserved14\000"
 12838      72766564 
 12838      313400
 12839              	.LASF77:
 12840 1364 48464E55 		.ascii	"HFNUM\000"
 12840      4D00
 12841              	.LASF348:
 12842 136a 55534244 		.ascii	"USBD_Usr_cb_TypeDef\000"
 12842      5F557372 
 12842      5F63625F 
 12842      54797065 
 12842      44656600 
 12843              	.LASF66:
 12844 137e 52657365 		.ascii	"Reserved18\000"
 12844      72766564 
 12844      313800
 12845              	.LASF170:
 12846 1389 6863696E 		.ascii	"hcintr\000"
 12846      747200
 12847              	.LASF382:
 12848 1390 646F6570 		.ascii	"doepctl\000"
 12848      63746C00 
 12849              	.LASF344:
 12850 1398 44657669 		.ascii	"DeviceSuspended\000"
 12850      63655375 
 12850      7370656E 
 12850      64656400 
 12851              	.LASF433:
 12852 13a8 6669666F 		.ascii	"fifo\000"
ARM GAS  /tmp/ccQkqy1T.s 			page 284


 12852      00
 12853              	.LASF397:
 12854 13ad 61646472 		.ascii	"addr\000"
 12854      00
 12855              	.LASF319:
 12856 13b2 5553425F 		.ascii	"USB_SETUP_REQ\000"
 12856      53455455 
 12856      505F5245 
 12856      5100
 12857              	.LASF437:
 12858 13c0 5553425F 		.ascii	"USB_OTG_BSP_mDelay\000"
 12858      4F54475F 
 12858      4253505F 
 12858      6D44656C 
 12858      617900
 12859              	.LASF343:
 12860 13d3 44657669 		.ascii	"DeviceConfigured\000"
 12860      6365436F 
 12860      6E666967 
 12860      75726564 
 12860      00
 12861              	.LASF62:
 12862 13e4 44494550 		.ascii	"DIEPINT\000"
 12862      494E5400 
 12863              	.LASF222:
 12864 13ec 52657365 		.ascii	"Reserved2\000"
 12864      72766564 
 12864      3200
 12865              	.LASF271:
 12866 13f6 52657365 		.ascii	"Reserved2_3\000"
 12866      72766564 
 12866      325F3300 
 12867              	.LASF35:
 12868 1402 44494550 		.ascii	"DIEPTXF\000"
 12868      54584600 
 12869              	.LASF378:
 12870 140a 5553425F 		.ascii	"USB_OTG_ActiveRemoteWakeup\000"
 12870      4F54475F 
 12870      41637469 
 12870      76655265 
 12870      6D6F7465 
 12871              	.LASF225:
 12872 1425 52657365 		.ascii	"Reserved5\000"
 12872      72766564 
 12872      3500
 12873              	.LASF300:
 12874 142f 63746C5F 		.ascii	"ctl_data_len\000"
 12874      64617461 
 12874      5F6C656E 
 12874      00
 12875              	.LASF377:
 12876 143c 706F7765 		.ascii	"power\000"
 12876      7200
 12877              	.LASF261:
 12878 1442 5F555342 		.ascii	"_USB_OTG_DEPXFRSIZ_TypeDef\000"
 12878      5F4F5447 
 12878      5F444550 
ARM GAS  /tmp/ccQkqy1T.s 			page 285


 12878      58465253 
 12878      495A5F54 
 12879              	.LASF47:
 12880 145d 52657365 		.ascii	"Reserved20\000"
 12880      72766564 
 12880      323000
 12881              	.LASF321:
 12882 1468 47657444 		.ascii	"GetDeviceDescriptor\000"
 12882      65766963 
 12882      65446573 
 12882      63726970 
 12882      746F7200 
 12883              	.LASF322:
 12884 147c 4765744C 		.ascii	"GetLangIDStrDescriptor\000"
 12884      616E6749 
 12884      44537472 
 12884      44657363 
 12884      72697074 
 12885              	.LASF240:
 12886 1493 52657365 		.ascii	"Reserved26\000"
 12886      72766564 
 12886      323600
 12887              	.LASF172:
 12888 149e 52657365 		.ascii	"Reserved27\000"
 12888      72766564 
 12888      323700
 12889              	.LASF252:
 12890 14a9 736E616B 		.ascii	"snak\000"
 12890      00
 12891              	.LASF0:
 12892 14ae 7369676E 		.ascii	"signed char\000"
 12892      65642063 
 12892      68617200 
 12893              	.LASF393:
 12894 14ba 6669666F 		.ascii	"fifoemptymsk\000"
 12894      656D7074 
 12894      796D736B 
 12894      00
 12895              	.LASF164:
 12896 14c7 696E6570 		.ascii	"inepintr\000"
 12896      696E7472 
 12896      00
 12897              	.LASF5:
 12898 14d0 73686F72 		.ascii	"short unsigned int\000"
 12898      7420756E 
 12898      7369676E 
 12898      65642069 
 12898      6E7400
 12899              	.LASF407:
 12900 14e3 74786669 		.ascii	"txfifosize\000"
 12900      666F7369 
 12900      7A6500
 12901              	.LASF415:
 12902 14ee 5553425F 		.ascii	"USB_OTG_GetMode\000"
 12902      4F54475F 
 12902      4765744D 
 12902      6F646500 
ARM GAS  /tmp/ccQkqy1T.s 			page 286


 12903              	.LASF429:
 12904 14fe 62617365 		.ascii	"baseAddress\000"
 12904      41646472 
 12904      65737300 
 12905              	.LASF206:
 12906 150a 63676E70 		.ascii	"cgnpinnak\000"
 12906      696E6E61 
 12906      6B00
 12907              	.LASF76:
 12908 1514 48464952 		.ascii	"HFIR\000"
 12908      00
 12909              	.LASF125:
 12910 1519 7465726D 		.ascii	"term_sel_dl_pulse\000"
 12910      5F73656C 
 12910      5F646C5F 
 12910      70756C73 
 12910      6500
 12911              	.LASF22:
 12912 152b 47555342 		.ascii	"GUSBCFG\000"
 12912      43464700 
 12913              	.LASF245:
 12914 1533 72657365 		.ascii	"reserved\000"
 12914      72766564 
 12914      00
 12915              	.LASF45:
 12916 153c 4441494E 		.ascii	"DAINT\000"
 12916      5400
 12917              	.LASF249:
 12918 1542 65707479 		.ascii	"eptype\000"
 12918      706500
 12919              	.LASF389:
 12920 1549 73746174 		.ascii	"status\000"
 12920      757300
 12921              	.LASF396:
 12922 1550 6461696E 		.ascii	"daintmsk\000"
 12922      746D736B 
 12922      00
 12923              	.LASF194:
 12924 1559 6E7A7374 		.ascii	"nzstsouthshk\000"
 12924      736F7574 
 12924      6873686B 
 12924      00
 12925              	.LASF354:
 12926 1566 64657669 		.ascii	"device_address\000"
 12926      63655F61 
 12926      64647265 
 12926      737300
 12927              	.LASF37:
 12928 1575 5F555342 		.ascii	"_USB_OTG_GREGS\000"
 12928      5F4F5447 
 12928      5F475245 
 12928      475300
 12929              	.LASF186:
 12930 1584 76627573 		.ascii	"vbussensingA\000"
 12930      73656E73 
 12930      696E6741 
 12930      00
ARM GAS  /tmp/ccQkqy1T.s 			page 287


 12931              	.LASF187:
 12932 1591 76627573 		.ascii	"vbussensingB\000"
 12932      73656E73 
 12932      696E6742 
 12932      00
 12933              	.LASF40:
 12934 159e 4443544C 		.ascii	"DCTL\000"
 12934      00
 12935              	.LASF177:
 12936 15a3 5F555342 		.ascii	"_USB_OTG_GINTMSK_TypeDef\000"
 12936      5F4F5447 
 12936      5F47494E 
 12936      544D534B 
 12936      5F547970 
 12937              	.LASF123:
 12938 15bc 756C7069 		.ascii	"ulpi_ext_vbus_drv\000"
 12938      5F657874 
 12938      5F766275 
 12938      735F6472 
 12938      7600
 12939              	.LASF128:
 12940 15ce 756C7069 		.ascii	"ulpi_protect_disable\000"
 12940      5F70726F 
 12940      74656374 
 12940      5F646973 
 12940      61626C65 
 12941              	.LASF266:
 12942 15e3 52657365 		.ascii	"Reserved31\000"
 12942      72766564 
 12942      333100
 12943              	.LASF297:
 12944 15ee 78666572 		.ascii	"xfer_count\000"
 12944      5F636F75 
 12944      6E7400
 12945              	.LASF258:
 12946 15f9 5553425F 		.ascii	"USB_OTG_DEPCTL_TypeDef\000"
 12946      4F54475F 
 12946      44455043 
 12946      544C5F54 
 12946      79706544 
 12947              	.LASF107:
 12948 1610 70747866 		.ascii	"ptxfemplvl\000"
 12948      656D706C 
 12948      766C00
 12949              	.LASF237:
 12950 161b 52657365 		.ascii	"Reserved11_15\000"
 12950      72766564 
 12950      31315F31 
 12950      3500
 12951              	.LASF262:
 12952 1629 5553425F 		.ascii	"USB_OTG_DEPXFRSIZ_TypeDef\000"
 12952      4F54475F 
 12952      44455058 
 12952      46525349 
 12952      5A5F5479 
 12953              	.LASF431:
 12954 1643 64657374 		.ascii	"dest\000"
ARM GAS  /tmp/ccQkqy1T.s 			page 288


 12954      00
 12955              	.LASF281:
 12956 1648 5553425F 		.ascii	"USB_SPEED_FULL\000"
 12956      53504545 
 12956      445F4655 
 12956      4C4C00
 12957              	.LASF233:
 12958 1657 5553425F 		.ascii	"USB_OTG_DAINT_TypeDef\000"
 12958      4F54475F 
 12958      4441494E 
 12958      545F5479 
 12958      70654465 
 12959              	.LASF38:
 12960 166d 5F555342 		.ascii	"_USB_OTG_DREGS\000"
 12960      5F4F5447 
 12960      5F445245 
 12960      475300
 12961              	.LASF303:
 12962 167c 686F7374 		.ascii	"host_channels\000"
 12962      5F636861 
 12962      6E6E656C 
 12962      7300
 12963              	.LASF253:
 12964 168a 73657464 		.ascii	"setd0pid\000"
 12964      30706964 
 12964      00
 12965              	.LASF211:
 12966 1693 5553425F 		.ascii	"USB_OTG_DCTL_TypeDef\000"
 12966      4F54475F 
 12966      4443544C 
 12966      5F547970 
 12966      65446566 
 12967              	.LASF68:
 12968 16a8 5F555342 		.ascii	"_USB_OTG_OUTEPREGS\000"
 12968      5F4F5447 
 12968      5F4F5554 
 12968      45505245 
 12968      475300
 12969              		.ident	"GCC: (GNU Tools for Arm Embedded Processors 7-2017-q4-major) 7.2.1 20170904 (release) [ARM
ARM GAS  /tmp/ccQkqy1T.s 			page 289


DEFINED SYMBOLS
                            *ABS*:0000000000000000 usb_core.c
     /tmp/ccQkqy1T.s:74     .text:0000000000000000 $t
     /tmp/ccQkqy1T.s:80     .text:0000000000000000 USB_OTG_CoreReset.isra.1
     /tmp/ccQkqy1T.s:178    .text:0000000000000048 $d
     /tmp/ccQkqy1T.s:182    .text:000000000000004c $t
     /tmp/ccQkqy1T.s:189    .text:000000000000004c USB_OTG_WritePacket
     /tmp/ccQkqy1T.s:267    .text:0000000000000072 USB_OTG_ReadPacket
     /tmp/ccQkqy1T.s:325    .text:0000000000000092 USB_OTG_SelectCore
     /tmp/ccQkqy1T.s:493    .text:0000000000000154 $d
     /tmp/ccQkqy1T.s:497    .text:0000000000000158 $t
     /tmp/ccQkqy1T.s:504    .text:0000000000000158 USB_OTG_CoreInit
     /tmp/ccQkqy1T.s:673    .text:00000000000001e4 USB_OTG_EnableGlobalInt
     /tmp/ccQkqy1T.s:702    .text:00000000000001f2 USB_OTG_DisableGlobalInt
     /tmp/ccQkqy1T.s:731    .text:0000000000000200 USB_OTG_FlushTxFifo
     /tmp/ccQkqy1T.s:799    .text:000000000000023c $d
     /tmp/ccQkqy1T.s:803    .text:0000000000000240 $t
     /tmp/ccQkqy1T.s:810    .text:0000000000000240 USB_OTG_FlushRxFifo
     /tmp/ccQkqy1T.s:873    .text:0000000000000274 $d
     /tmp/ccQkqy1T.s:877    .text:0000000000000278 $t
     /tmp/ccQkqy1T.s:884    .text:0000000000000278 USB_OTG_SetCurrentMode
     /tmp/ccQkqy1T.s:956    .text:00000000000002a4 USB_OTG_GetMode
     /tmp/ccQkqy1T.s:983    .text:00000000000002ae USB_OTG_IsDeviceMode
     /tmp/ccQkqy1T.s:1017   .text:00000000000002ba USB_OTG_IsHostMode
     /tmp/ccQkqy1T.s:1048   .text:00000000000002c4 USB_OTG_ReadCoreItr
     /tmp/ccQkqy1T.s:1080   .text:00000000000002ce USB_OTG_ReadOtgItr
     /tmp/ccQkqy1T.s:1106   .text:00000000000002d4 USB_OTG_InitDevSpeed
     /tmp/ccQkqy1T.s:1138   .text:00000000000002e0 USB_OTG_EnableDevInt
     /tmp/ccQkqy1T.s:1232   .text:000000000000031c $d
     /tmp/ccQkqy1T.s:1236   .text:0000000000000320 $t
     /tmp/ccQkqy1T.s:1243   .text:0000000000000320 USB_OTG_CoreInitDev
     /tmp/ccQkqy1T.s:1474   .text:00000000000003f0 $d
     /tmp/ccQkqy1T.s:1479   .text:00000000000003f4 $t
     /tmp/ccQkqy1T.s:1486   .text:00000000000003f4 USB_OTG_GetDeviceSpeed
     /tmp/ccQkqy1T.s:1540   .text:0000000000000412 USB_OTG_EP0Activate
     /tmp/ccQkqy1T.s:1599   .text:000000000000043a USB_OTG_EPActivate
     /tmp/ccQkqy1T.s:1699   .text:000000000000048e USB_OTG_EPDeactivate
     /tmp/ccQkqy1T.s:1781   .text:00000000000004ca USB_OTG_EPStartXfer
     /tmp/ccQkqy1T.s:2022   .text:00000000000005bc USB_OTG_EP0StartXfer
     /tmp/ccQkqy1T.s:2228   .text:0000000000000688 USB_OTG_EPSetStall
     /tmp/ccQkqy1T.s:2305   .text:00000000000006b0 USB_OTG_EPClearStall
     /tmp/ccQkqy1T.s:2370   .text:00000000000006d8 USB_OTG_ReadDevAllOutEp_itr
     /tmp/ccQkqy1T.s:2404   .text:00000000000006e4 USB_OTG_ReadDevOutEP_itr
     /tmp/ccQkqy1T.s:2439   .text:00000000000006f4 USB_OTG_ReadDevAllInEPItr
     /tmp/ccQkqy1T.s:2473   .text:0000000000000700 USB_OTG_EP0_OutStart
     /tmp/ccQkqy1T.s:2529   .text:0000000000000724 $d
     /tmp/ccQkqy1T.s:2533   .text:0000000000000728 $t
     /tmp/ccQkqy1T.s:2540   .text:0000000000000728 USB_OTG_ActiveRemoteWakeup
     /tmp/ccQkqy1T.s:2626   .text:000000000000076a USB_OTG_UngateClock
     /tmp/ccQkqy1T.s:2680   .text:000000000000078a USB_OTG_StopDevice
     /tmp/ccQkqy1T.s:2775   .text:00000000000007d2 USB_OTG_GetEPStatus
     /tmp/ccQkqy1T.s:2872   .text:000000000000081c USB_OTG_SetEPStatus

UNDEFINED SYMBOLS
USB_OTG_BSP_uDelay
USB_OTG_BSP_mDelay
