ARM GAS  /tmp/ccccQJ22.s 			page 1


   1              		.cpu cortex-m4
   2              		.eabi_attribute 20, 1	@ Tag_ABI_FP_denormal
   3              		.eabi_attribute 21, 1	@ Tag_ABI_FP_exceptions
   4              		.eabi_attribute 23, 3	@ Tag_ABI_FP_number_model
   5              		.eabi_attribute 24, 1	@ Tag_ABI_align8_needed
   6              		.eabi_attribute 25, 1	@ Tag_ABI_align8_preserved
   7              		.eabi_attribute 26, 1	@ Tag_ABI_enum_size
   8              		.eabi_attribute 30, 4	@ Tag_ABI_optimization_goals
   9              		.eabi_attribute 34, 1	@ Tag_CPU_unaligned_access
  10              		.eabi_attribute 18, 4	@ Tag_ABI_PCS_wchar_t
  11              		.file	"usb_dcd.c"
  12              	@ GNU C11 (GNU Tools for Arm Embedded Processors 7-2017-q4-major) version 7.2.1 20170904 (release) 
  13              	@	compiled by GNU C version 4.8.4, GMP version 6.1.0, MPFR version 3.1.4, MPC version 1.0.3, isl ve
  14              	
  15              	@ GGC heuristics: --param ggc-min-expand=100 --param ggc-min-heapsize=131072
  16              	@ options passed:  -I . -I ./inc -I ./inc/CMSIS
  17              	@ -I STM32F4xx_StdPeriph_Driver/inc -I ./inc/user_libs
  18              	@ -imultilib thumb/v7e-m
  19              	@ -iprefix /home/sticky/opt/gcc-arm-none-eabi-7-2017-q4-major/bin/../lib/gcc/arm-none-eabi/7.2.1/
  20              	@ -isysroot /home/sticky/opt/gcc-arm-none-eabi-7-2017-q4-major/bin/../arm-none-eabi
  21              	@ -D__USES_INITFINI__ -D STM32F40XX -D USE_STDPERIPH_DRIVER
  22              	@ -D RUN_FROM_FLASH=1 inc/user_libs/usb_dcd.c -mcpu=cortex-m4 -mthumb
  23              	@ -auxbase-strip inc/user_libs/usb_dcd.o -g -gdwarf-2 -Os -Wall
  24              	@ -Wstrict-prototypes -fomit-frame-pointer -fverbose-asm
  25              	@ options enabled:  -faggressive-loop-optimizations -falign-jumps
  26              	@ -falign-labels -falign-loops -fauto-inc-dec -fbranch-count-reg
  27              	@ -fcaller-saves -fchkp-check-incomplete-type -fchkp-check-read
  28              	@ -fchkp-check-write -fchkp-instrument-calls -fchkp-narrow-bounds
  29              	@ -fchkp-optimize -fchkp-store-bounds -fchkp-use-static-bounds
  30              	@ -fchkp-use-static-const-bounds -fchkp-use-wrappers -fcode-hoisting
  31              	@ -fcombine-stack-adjustments -fcommon -fcompare-elim -fcprop-registers
  32              	@ -fcrossjumping -fcse-follow-jumps -fdefer-pop
  33              	@ -fdelete-null-pointer-checks -fdevirtualize -fdevirtualize-speculatively
  34              	@ -fdwarf2-cfi-asm -fearly-inlining -feliminate-unused-debug-types
  35              	@ -fexpensive-optimizations -fforward-propagate -ffp-int-builtin-inexact
  36              	@ -ffunction-cse -fgcse -fgcse-lm -fgnu-runtime -fgnu-unique
  37              	@ -fguess-branch-probability -fhoist-adjacent-loads -fident -fif-conversion
  38              	@ -fif-conversion2 -findirect-inlining -finline -finline-atomics
  39              	@ -finline-functions -finline-functions-called-once
  40              	@ -finline-small-functions -fipa-bit-cp -fipa-cp -fipa-icf
  41              	@ -fipa-icf-functions -fipa-icf-variables -fipa-profile -fipa-pure-const
  42              	@ -fipa-ra -fipa-reference -fipa-sra -fipa-vrp -fira-hoist-pressure
  43              	@ -fira-share-save-slots -fira-share-spill-slots
  44              	@ -fisolate-erroneous-paths-dereference -fivopts -fkeep-static-consts
  45              	@ -fleading-underscore -flifetime-dse -flra-remat -flto-odr-type-merging
  46              	@ -fmath-errno -fmerge-constants -fmerge-debug-strings
  47              	@ -fmove-loop-invariants -fomit-frame-pointer -foptimize-sibling-calls
  48              	@ -fpartial-inlining -fpeephole -fpeephole2 -fplt -fprefetch-loop-arrays
  49              	@ -freg-struct-return -freorder-blocks -freorder-functions
  50              	@ -frerun-cse-after-loop -fsched-critical-path-heuristic
  51              	@ -fsched-dep-count-heuristic -fsched-group-heuristic -fsched-interblock
  52              	@ -fsched-last-insn-heuristic -fsched-pressure -fsched-rank-heuristic
  53              	@ -fsched-spec -fsched-spec-insn-heuristic -fsched-stalled-insns-dep
  54              	@ -fschedule-insns2 -fsection-anchors -fsemantic-interposition
  55              	@ -fshow-column -fshrink-wrap-separate -fsigned-zeros
  56              	@ -fsplit-ivs-in-unroller -fsplit-wide-types -fssa-backprop -fssa-phiopt
  57              	@ -fstdarg-opt -fstore-merging -fstrict-aliasing -fstrict-overflow
ARM GAS  /tmp/ccccQJ22.s 			page 2


  58              	@ -fstrict-volatile-bitfields -fsync-libcalls -fthread-jumps
  59              	@ -ftoplevel-reorder -ftrapping-math -ftree-bit-ccp -ftree-builtin-call-dce
  60              	@ -ftree-ccp -ftree-ch -ftree-coalesce-vars -ftree-copy-prop -ftree-cselim
  61              	@ -ftree-dce -ftree-dominator-opts -ftree-dse -ftree-forwprop -ftree-fre
  62              	@ -ftree-loop-if-convert -ftree-loop-im -ftree-loop-ivcanon
  63              	@ -ftree-loop-optimize -ftree-parallelize-loops= -ftree-phiprop -ftree-pre
  64              	@ -ftree-pta -ftree-reassoc -ftree-scev-cprop -ftree-sink -ftree-slsr
  65              	@ -ftree-sra -ftree-switch-conversion -ftree-tail-merge -ftree-ter
  66              	@ -ftree-vrp -funit-at-a-time -fvar-tracking -fvar-tracking-assignments
  67              	@ -fverbose-asm -fzero-initialized-in-bss -masm-syntax-unified
  68              	@ -mlittle-endian -mpic-data-is-text-relative -msched-prolog -mthumb
  69              	@ -munaligned-access -mvectorize-with-neon-quad
  70              	
  71              		.text
  72              	.Ltext0:
  73              		.cfi_sections	.debug_frame
  74              		.align	1
  75              		.global	DCD_Init
  76              		.syntax unified
  77              		.thumb
  78              		.thumb_func
  79              		.fpu softvfp
  80              		.type	DCD_Init, %function
  81              	DCD_Init:
  82              	.LFB110:
  83              		.file 1 "inc/user_libs/usb_dcd.c"
   1:inc/user_libs/usb_dcd.c **** /**
   2:inc/user_libs/usb_dcd.c ****   ******************************************************************************
   3:inc/user_libs/usb_dcd.c ****   * @file    usb_dcd.c
   4:inc/user_libs/usb_dcd.c ****   * @author  MCD Application Team
   5:inc/user_libs/usb_dcd.c ****   * @version V2.1.0
   6:inc/user_libs/usb_dcd.c ****   * @date    19-March-2012
   7:inc/user_libs/usb_dcd.c ****   * @brief   Peripheral Device Interface Layer
   8:inc/user_libs/usb_dcd.c ****   ******************************************************************************
   9:inc/user_libs/usb_dcd.c ****   * @attention
  10:inc/user_libs/usb_dcd.c ****   *
  11:inc/user_libs/usb_dcd.c ****   * <h2><center>&copy; COPYRIGHT 2012 STMicroelectronics</center></h2>
  12:inc/user_libs/usb_dcd.c ****   *
  13:inc/user_libs/usb_dcd.c ****   * Licensed under MCD-ST Liberty SW License Agreement V2, (the "License");
  14:inc/user_libs/usb_dcd.c ****   * You may not use this file except in compliance with the License.
  15:inc/user_libs/usb_dcd.c ****   * You may obtain a copy of the License at:
  16:inc/user_libs/usb_dcd.c ****   *
  17:inc/user_libs/usb_dcd.c ****   *        http://www.st.com/software_license_agreement_liberty_v2
  18:inc/user_libs/usb_dcd.c ****   *
  19:inc/user_libs/usb_dcd.c ****   * Unless required by applicable law or agreed to in writing, software 
  20:inc/user_libs/usb_dcd.c ****   * distributed under the License is distributed on an "AS IS" BASIS, 
  21:inc/user_libs/usb_dcd.c ****   * WITHOUT WARRANTIES OR CONDITIONS OF ANY KIND, either express or implied.
  22:inc/user_libs/usb_dcd.c ****   * See the License for the specific language governing permissions and
  23:inc/user_libs/usb_dcd.c ****   * limitations under the License.
  24:inc/user_libs/usb_dcd.c ****   *
  25:inc/user_libs/usb_dcd.c ****   ******************************************************************************
  26:inc/user_libs/usb_dcd.c ****   */
  27:inc/user_libs/usb_dcd.c **** 
  28:inc/user_libs/usb_dcd.c **** /* Includes ------------------------------------------------------------------*/
  29:inc/user_libs/usb_dcd.c **** #include "usb_dcd.h"
  30:inc/user_libs/usb_dcd.c **** #include "usb_bsp.h"
  31:inc/user_libs/usb_dcd.c **** 
ARM GAS  /tmp/ccccQJ22.s 			page 3


  32:inc/user_libs/usb_dcd.c **** 
  33:inc/user_libs/usb_dcd.c **** /** @addtogroup USB_OTG_DRIVER
  34:inc/user_libs/usb_dcd.c **** * @{
  35:inc/user_libs/usb_dcd.c **** */
  36:inc/user_libs/usb_dcd.c **** 
  37:inc/user_libs/usb_dcd.c **** /** @defgroup USB_DCD 
  38:inc/user_libs/usb_dcd.c **** * @brief This file is the interface between EFSL ans Host mass-storage class
  39:inc/user_libs/usb_dcd.c **** * @{
  40:inc/user_libs/usb_dcd.c **** */
  41:inc/user_libs/usb_dcd.c **** 
  42:inc/user_libs/usb_dcd.c **** 
  43:inc/user_libs/usb_dcd.c **** /** @defgroup USB_DCD_Private_Defines
  44:inc/user_libs/usb_dcd.c **** * @{
  45:inc/user_libs/usb_dcd.c **** */ 
  46:inc/user_libs/usb_dcd.c **** /**
  47:inc/user_libs/usb_dcd.c **** * @}
  48:inc/user_libs/usb_dcd.c **** */ 
  49:inc/user_libs/usb_dcd.c **** 
  50:inc/user_libs/usb_dcd.c **** 
  51:inc/user_libs/usb_dcd.c **** /** @defgroup USB_DCD_Private_TypesDefinitions
  52:inc/user_libs/usb_dcd.c **** * @{
  53:inc/user_libs/usb_dcd.c **** */ 
  54:inc/user_libs/usb_dcd.c **** /**
  55:inc/user_libs/usb_dcd.c **** * @}
  56:inc/user_libs/usb_dcd.c **** */ 
  57:inc/user_libs/usb_dcd.c **** 
  58:inc/user_libs/usb_dcd.c **** 
  59:inc/user_libs/usb_dcd.c **** 
  60:inc/user_libs/usb_dcd.c **** /** @defgroup USB_DCD_Private_Macros
  61:inc/user_libs/usb_dcd.c **** * @{
  62:inc/user_libs/usb_dcd.c **** */ 
  63:inc/user_libs/usb_dcd.c **** /**
  64:inc/user_libs/usb_dcd.c **** * @}
  65:inc/user_libs/usb_dcd.c **** */ 
  66:inc/user_libs/usb_dcd.c **** 
  67:inc/user_libs/usb_dcd.c **** 
  68:inc/user_libs/usb_dcd.c **** /** @defgroup USB_DCD_Private_Variables
  69:inc/user_libs/usb_dcd.c **** * @{
  70:inc/user_libs/usb_dcd.c **** */ 
  71:inc/user_libs/usb_dcd.c **** /**
  72:inc/user_libs/usb_dcd.c **** * @}
  73:inc/user_libs/usb_dcd.c **** */ 
  74:inc/user_libs/usb_dcd.c **** 
  75:inc/user_libs/usb_dcd.c **** 
  76:inc/user_libs/usb_dcd.c **** /** @defgroup USB_DCD_Private_FunctionPrototypes
  77:inc/user_libs/usb_dcd.c **** * @{
  78:inc/user_libs/usb_dcd.c **** */ 
  79:inc/user_libs/usb_dcd.c **** 
  80:inc/user_libs/usb_dcd.c **** /**
  81:inc/user_libs/usb_dcd.c **** * @}
  82:inc/user_libs/usb_dcd.c **** */ 
  83:inc/user_libs/usb_dcd.c **** 
  84:inc/user_libs/usb_dcd.c **** 
  85:inc/user_libs/usb_dcd.c **** /** @defgroup USB_DCD_Private_Functions
  86:inc/user_libs/usb_dcd.c **** * @{
  87:inc/user_libs/usb_dcd.c **** */ 
  88:inc/user_libs/usb_dcd.c **** 
ARM GAS  /tmp/ccccQJ22.s 			page 4


  89:inc/user_libs/usb_dcd.c **** 
  90:inc/user_libs/usb_dcd.c **** 
  91:inc/user_libs/usb_dcd.c **** void DCD_Init(USB_OTG_CORE_HANDLE *pdev , 
  92:inc/user_libs/usb_dcd.c ****               USB_OTG_CORE_ID_TypeDef coreID)
  93:inc/user_libs/usb_dcd.c **** {
  84              		.loc 1 93 0
  85              		.cfi_startproc
  86              		@ args = 0, pretend = 0, frame = 0
  87              		@ frame_needed = 0, uses_anonymous_args = 0
  88              	.LVL0:
  89 0000 70B5     		push	{r4, r5, r6, lr}	@
  90              	.LCFI0:
  91              		.cfi_def_cfa_offset 16
  92              		.cfi_offset 4, -16
  93              		.cfi_offset 5, -12
  94              		.cfi_offset 6, -8
  95              		.cfi_offset 14, -4
  96              	@ inc/user_libs/usb_dcd.c:93: {
  97              		.loc 1 93 0
  98 0002 0446     		mov	r4, r0	@ pdev, pdev
  99              	@ inc/user_libs/usb_dcd.c:97:   USB_OTG_SelectCore (pdev , coreID);
  94:inc/user_libs/usb_dcd.c ****   uint32_t i;
  95:inc/user_libs/usb_dcd.c ****   USB_OTG_EP *ep;
  96:inc/user_libs/usb_dcd.c ****   
  97:inc/user_libs/usb_dcd.c ****   USB_OTG_SelectCore (pdev , coreID);
 100              		.loc 1 97 0
 101 0004 FFF7FEFF 		bl	USB_OTG_SelectCore	@
 102              	.LVL1:
 103              	@ inc/user_libs/usb_dcd.c:100:   pdev->dev.device_address = 0;
  98:inc/user_libs/usb_dcd.c **** 
  99:inc/user_libs/usb_dcd.c ****   pdev->dev.device_status = USB_OTG_DEFAULT;
 100:inc/user_libs/usb_dcd.c ****   pdev->dev.device_address = 0;
 104              		.loc 1 100 0
 105 0008 0023     		movs	r3, #0	@ tmp246,
 106              	@ inc/user_libs/usb_dcd.c:99:   pdev->dev.device_status = USB_OTG_DEFAULT;
  99:inc/user_libs/usb_dcd.c ****   pdev->dev.device_address = 0;
 107              		.loc 1 99 0
 108 000a 0121     		movs	r1, #1	@ tmp244,
 109              	@ inc/user_libs/usb_dcd.c:103:   for (i = 0; i < pdev->cfg.dev_endpoints ; i++)
 101:inc/user_libs/usb_dcd.c ****   
 102:inc/user_libs/usb_dcd.c ****   /* Init ep structure */
 103:inc/user_libs/usb_dcd.c ****   for (i = 0; i < pdev->cfg.dev_endpoints ; i++)
 110              		.loc 1 103 0
 111 000c 6578     		ldrb	r5, [r4, #1]	@ zero_extendqisi2	@ _4, pdev_13(D)->cfg.dev_endpoints
 112              	@ inc/user_libs/usb_dcd.c:99:   pdev->dev.device_status = USB_OTG_DEFAULT;
  99:inc/user_libs/usb_dcd.c ****   pdev->dev.device_address = 0;
 113              		.loc 1 99 0
 114 000e 84F81211 		strb	r1, [r4, #274]	@ tmp244, pdev_13(D)->dev.device_status
 115              	@ inc/user_libs/usb_dcd.c:100:   pdev->dev.device_address = 0;
 100:inc/user_libs/usb_dcd.c ****   
 116              		.loc 1 100 0
 117 0012 84F81431 		strb	r3, [r4, #276]	@ tmp246, pdev_13(D)->dev.device_address
 118              	.LVL2:
 119 0016 04F58E72 		add	r2, r4, #284	@ ivtmp.47, pdev,
 120              	@ inc/user_libs/usb_dcd.c:111:     ep->type = EP_TYPE_CTRL;
 104:inc/user_libs/usb_dcd.c ****   {
 105:inc/user_libs/usb_dcd.c ****     ep = &pdev->dev.in_ep[i];
ARM GAS  /tmp/ccccQJ22.s 			page 5


 106:inc/user_libs/usb_dcd.c ****     /* Init ep structure */
 107:inc/user_libs/usb_dcd.c ****     ep->is_in = 1;
 108:inc/user_libs/usb_dcd.c ****     ep->num = i;
 109:inc/user_libs/usb_dcd.c ****     ep->tx_fifo_num = i;
 110:inc/user_libs/usb_dcd.c ****     /* Control until ep is actvated */
 111:inc/user_libs/usb_dcd.c ****     ep->type = EP_TYPE_CTRL;
 121              		.loc 1 111 0
 122 001a 1846     		mov	r0, r3	@ tmp269, i
 123              	@ inc/user_libs/usb_dcd.c:112:     ep->maxpacket =  USB_OTG_MAX_EP0_SIZE;
 112:inc/user_libs/usb_dcd.c ****     ep->maxpacket =  USB_OTG_MAX_EP0_SIZE;
 124              		.loc 1 112 0
 125 001c 4026     		movs	r6, #64	@ tmp270,
 126              	.LVL3:
 127              	.L2:
 128              	@ inc/user_libs/usb_dcd.c:103:   for (i = 0; i < pdev->cfg.dev_endpoints ; i++)
 103:inc/user_libs/usb_dcd.c ****   {
 129              		.loc 1 103 0 discriminator 1
 130 001e 9D42     		cmp	r5, r3	@ _4, i
 131 0020 02F12802 		add	r2, r2, #40	@ ivtmp.47, ivtmp.47,
 132 0024 1AD8     		bhi	.L3	@,
 133              	@ inc/user_libs/usb_dcd.c:117:   for (i = 0; i < pdev->cfg.dev_endpoints; i++)
 113:inc/user_libs/usb_dcd.c ****     ep->xfer_buff = 0;
 114:inc/user_libs/usb_dcd.c ****     ep->xfer_len = 0;
 115:inc/user_libs/usb_dcd.c ****   }
 116:inc/user_libs/usb_dcd.c ****   
 117:inc/user_libs/usb_dcd.c ****   for (i = 0; i < pdev->cfg.dev_endpoints; i++)
 134              		.loc 1 117 0
 135 0026 0022     		movs	r2, #0	@ i,
 136 0028 04F55D73 		add	r3, r4, #884	@ ivtmp.32, pdev,
 137              	.LVL4:
 138              	@ inc/user_libs/usb_dcd.c:121:     ep->is_in = 0;
 118:inc/user_libs/usb_dcd.c ****   {
 119:inc/user_libs/usb_dcd.c ****     ep = &pdev->dev.out_ep[i];
 120:inc/user_libs/usb_dcd.c ****     /* Init ep structure */
 121:inc/user_libs/usb_dcd.c ****     ep->is_in = 0;
 139              		.loc 1 121 0
 140 002c 1146     		mov	r1, r2	@ tmp266, i
 141              	@ inc/user_libs/usb_dcd.c:126:     ep->maxpacket = USB_OTG_MAX_EP0_SIZE;
 122:inc/user_libs/usb_dcd.c ****     ep->num = i;
 123:inc/user_libs/usb_dcd.c ****     ep->tx_fifo_num = i;
 124:inc/user_libs/usb_dcd.c ****     /* Control until ep is activated */
 125:inc/user_libs/usb_dcd.c ****     ep->type = EP_TYPE_CTRL;
 126:inc/user_libs/usb_dcd.c ****     ep->maxpacket = USB_OTG_MAX_EP0_SIZE;
 142              		.loc 1 126 0
 143 002e 4020     		movs	r0, #64	@ tmp267,
 144              	.L4:
 145              	.LVL5:
 146              	@ inc/user_libs/usb_dcd.c:117:   for (i = 0; i < pdev->cfg.dev_endpoints; i++)
 117:inc/user_libs/usb_dcd.c ****   {
 147              		.loc 1 117 0 discriminator 1
 148 0030 9542     		cmp	r5, r2	@ _4, i
 149 0032 03F12803 		add	r3, r3, #40	@ ivtmp.32, ivtmp.32,
 150 0036 1FD8     		bhi	.L5	@,
 151              	@ inc/user_libs/usb_dcd.c:131:   USB_OTG_DisableGlobalInt(pdev);
 127:inc/user_libs/usb_dcd.c ****     ep->xfer_buff = 0;
 128:inc/user_libs/usb_dcd.c ****     ep->xfer_len = 0;
 129:inc/user_libs/usb_dcd.c ****   }
ARM GAS  /tmp/ccccQJ22.s 			page 6


 130:inc/user_libs/usb_dcd.c ****   
 131:inc/user_libs/usb_dcd.c ****   USB_OTG_DisableGlobalInt(pdev);
 152              		.loc 1 131 0
 153 0038 2046     		mov	r0, r4	@, pdev
 154 003a FFF7FEFF 		bl	USB_OTG_DisableGlobalInt	@
 155              	.LVL6:
 156              	@ inc/user_libs/usb_dcd.c:134:   USB_OTG_CoreInit(pdev);
 132:inc/user_libs/usb_dcd.c ****   
 133:inc/user_libs/usb_dcd.c ****   /*Init the Core (common init.) */
 134:inc/user_libs/usb_dcd.c ****   USB_OTG_CoreInit(pdev);
 157              		.loc 1 134 0
 158 003e 2046     		mov	r0, r4	@, pdev
 159 0040 FFF7FEFF 		bl	USB_OTG_CoreInit	@
 160              	.LVL7:
 161              	@ inc/user_libs/usb_dcd.c:138:   USB_OTG_SetCurrentMode(pdev, DEVICE_MODE);
 135:inc/user_libs/usb_dcd.c **** 
 136:inc/user_libs/usb_dcd.c **** 
 137:inc/user_libs/usb_dcd.c ****   /* Force Device Mode*/
 138:inc/user_libs/usb_dcd.c ****   USB_OTG_SetCurrentMode(pdev, DEVICE_MODE);
 162              		.loc 1 138 0
 163 0044 0021     		movs	r1, #0	@,
 164 0046 2046     		mov	r0, r4	@, pdev
 165 0048 FFF7FEFF 		bl	USB_OTG_SetCurrentMode	@
 166              	.LVL8:
 167              	@ inc/user_libs/usb_dcd.c:141:   USB_OTG_CoreInitDev(pdev);
 139:inc/user_libs/usb_dcd.c ****   
 140:inc/user_libs/usb_dcd.c ****   /* Init Device */
 141:inc/user_libs/usb_dcd.c ****   USB_OTG_CoreInitDev(pdev);
 168              		.loc 1 141 0
 169 004c 2046     		mov	r0, r4	@, pdev
 170 004e FFF7FEFF 		bl	USB_OTG_CoreInitDev	@
 171              	.LVL9:
 172              	@ inc/user_libs/usb_dcd.c:145:   USB_OTG_EnableGlobalInt(pdev);
 142:inc/user_libs/usb_dcd.c ****   
 143:inc/user_libs/usb_dcd.c ****   
 144:inc/user_libs/usb_dcd.c ****   /* Enable USB Global interrupt */
 145:inc/user_libs/usb_dcd.c ****   USB_OTG_EnableGlobalInt(pdev);
 173              		.loc 1 145 0
 174 0052 2046     		mov	r0, r4	@, pdev
 175              	@ inc/user_libs/usb_dcd.c:146: }
 146:inc/user_libs/usb_dcd.c **** }
 176              		.loc 1 146 0
 177 0054 BDE87040 		pop	{r4, r5, r6, lr}	@
 178              	.LCFI1:
 179              		.cfi_remember_state
 180              		.cfi_restore 14
 181              		.cfi_restore 6
 182              		.cfi_restore 5
 183              		.cfi_restore 4
 184              		.cfi_def_cfa_offset 0
 185              	.LVL10:
 186              	@ inc/user_libs/usb_dcd.c:145:   USB_OTG_EnableGlobalInt(pdev);
 145:inc/user_libs/usb_dcd.c **** }
 187              		.loc 1 145 0
 188 0058 FFF7FEBF 		b	USB_OTG_EnableGlobalInt	@
 189              	.LVL11:
 190              	.L3:
ARM GAS  /tmp/ccccQJ22.s 			page 7


 191              	.LCFI2:
 192              		.cfi_restore_state
 193              	@ inc/user_libs/usb_dcd.c:108:     ep->num = i;
 108:inc/user_libs/usb_dcd.c ****     ep->tx_fifo_num = i;
 194              		.loc 1 108 0 discriminator 3
 195 005c 02F8283C 		strb	r3, [r2, #-40]	@ i, MEM[base: _54, offset: 4294967256B]
 196              	@ inc/user_libs/usb_dcd.c:109:     ep->tx_fifo_num = i;
 109:inc/user_libs/usb_dcd.c ****     /* Control until ep is actvated */
 197              		.loc 1 109 0 discriminator 3
 198 0060 22F8223C 		strh	r3, [r2, #-34]	@ movhi	@ i, MEM[base: _54, offset: 4294967262B]
 199              	@ inc/user_libs/usb_dcd.c:107:     ep->is_in = 1;
 107:inc/user_libs/usb_dcd.c ****     ep->num = i;
 200              		.loc 1 107 0 discriminator 3
 201 0064 02F8271C 		strb	r1, [r2, #-39]	@ tmp268, MEM[base: _54, offset: 4294967257B]
 202              	@ inc/user_libs/usb_dcd.c:111:     ep->type = EP_TYPE_CTRL;
 111:inc/user_libs/usb_dcd.c ****     ep->maxpacket =  USB_OTG_MAX_EP0_SIZE;
 203              		.loc 1 111 0 discriminator 3
 204 0068 02F8250C 		strb	r0, [r2, #-37]	@ tmp269, MEM[base: _54, offset: 4294967259B]
 205              	@ inc/user_libs/usb_dcd.c:113:     ep->xfer_buff = 0;
 113:inc/user_libs/usb_dcd.c ****     ep->xfer_len = 0;
 206              		.loc 1 113 0 discriminator 3
 207 006c 42E90860 		strd	r6, r0, [r2, #-32]	@ tmp270, tmp269, ivtmp.47,
 208              	@ inc/user_libs/usb_dcd.c:114:     ep->xfer_len = 0;
 114:inc/user_libs/usb_dcd.c ****   }
 209              		.loc 1 114 0 discriminator 3
 210 0070 42F8140C 		str	r0, [r2, #-20]	@ tmp269, MEM[base: _54, offset: 4294967276B]
 211              	@ inc/user_libs/usb_dcd.c:103:   for (i = 0; i < pdev->cfg.dev_endpoints ; i++)
 103:inc/user_libs/usb_dcd.c ****   {
 212              		.loc 1 103 0 discriminator 3
 213 0074 0133     		adds	r3, r3, #1	@ i, i,
 214              	.LVL12:
 215 0076 D2E7     		b	.L2	@
 216              	.LVL13:
 217              	.L5:
 218              	@ inc/user_libs/usb_dcd.c:122:     ep->num = i;
 122:inc/user_libs/usb_dcd.c ****     ep->tx_fifo_num = i;
 219              		.loc 1 122 0 discriminator 3
 220 0078 03F8282C 		strb	r2, [r3, #-40]	@ i, MEM[base: _42, offset: 4294967256B]
 221              	@ inc/user_libs/usb_dcd.c:123:     ep->tx_fifo_num = i;
 123:inc/user_libs/usb_dcd.c ****     /* Control until ep is activated */
 222              		.loc 1 123 0 discriminator 3
 223 007c 23F8222C 		strh	r2, [r3, #-34]	@ movhi	@ i, MEM[base: _42, offset: 4294967262B]
 224              	@ inc/user_libs/usb_dcd.c:121:     ep->is_in = 0;
 121:inc/user_libs/usb_dcd.c ****     ep->num = i;
 225              		.loc 1 121 0 discriminator 3
 226 0080 03F8271C 		strb	r1, [r3, #-39]	@ tmp266, MEM[base: _42, offset: 4294967257B]
 227              	@ inc/user_libs/usb_dcd.c:125:     ep->type = EP_TYPE_CTRL;
 125:inc/user_libs/usb_dcd.c ****     ep->maxpacket = USB_OTG_MAX_EP0_SIZE;
 228              		.loc 1 125 0 discriminator 3
 229 0084 03F8251C 		strb	r1, [r3, #-37]	@ tmp266, MEM[base: _42, offset: 4294967259B]
 230              	@ inc/user_libs/usb_dcd.c:127:     ep->xfer_buff = 0;
 127:inc/user_libs/usb_dcd.c ****     ep->xfer_len = 0;
 231              		.loc 1 127 0 discriminator 3
 232 0088 43E90801 		strd	r0, r1, [r3, #-32]	@ tmp267, tmp266, ivtmp.32,
 233              	@ inc/user_libs/usb_dcd.c:128:     ep->xfer_len = 0;
 128:inc/user_libs/usb_dcd.c ****   }
 234              		.loc 1 128 0 discriminator 3
ARM GAS  /tmp/ccccQJ22.s 			page 8


 235 008c 43F8141C 		str	r1, [r3, #-20]	@ tmp266, MEM[base: _42, offset: 4294967276B]
 236              	@ inc/user_libs/usb_dcd.c:117:   for (i = 0; i < pdev->cfg.dev_endpoints; i++)
 117:inc/user_libs/usb_dcd.c ****   {
 237              		.loc 1 117 0 discriminator 3
 238 0090 0132     		adds	r2, r2, #1	@ i, i,
 239              	.LVL14:
 240 0092 CDE7     		b	.L4	@
 241              		.cfi_endproc
 242              	.LFE110:
 243              		.size	DCD_Init, .-DCD_Init
 244              		.align	1
 245              		.global	DCD_EP_Open
 246              		.syntax unified
 247              		.thumb
 248              		.thumb_func
 249              		.fpu softvfp
 250              		.type	DCD_EP_Open, %function
 251              	DCD_EP_Open:
 252              	.LFB111:
 147:inc/user_libs/usb_dcd.c **** 
 148:inc/user_libs/usb_dcd.c **** 
 149:inc/user_libs/usb_dcd.c **** /**
 150:inc/user_libs/usb_dcd.c **** * @brief  Configure an EP
 151:inc/user_libs/usb_dcd.c **** * @param pdev : Device instance
 152:inc/user_libs/usb_dcd.c **** * @param epdesc : Endpoint Descriptor
 153:inc/user_libs/usb_dcd.c **** * @retval : status
 154:inc/user_libs/usb_dcd.c **** */
 155:inc/user_libs/usb_dcd.c **** uint32_t DCD_EP_Open(USB_OTG_CORE_HANDLE *pdev , 
 156:inc/user_libs/usb_dcd.c ****                      uint8_t ep_addr,
 157:inc/user_libs/usb_dcd.c ****                      uint16_t ep_mps,
 158:inc/user_libs/usb_dcd.c ****                      uint8_t ep_type)
 159:inc/user_libs/usb_dcd.c **** {
 253              		.loc 1 159 0
 254              		.cfi_startproc
 255              		@ args = 0, pretend = 0, frame = 0
 256              		@ frame_needed = 0, uses_anonymous_args = 0
 257              	.LVL15:
 258 0094 70B5     		push	{r4, r5, r6, lr}	@
 259              	.LCFI3:
 260              		.cfi_def_cfa_offset 16
 261              		.cfi_offset 4, -16
 262              		.cfi_offset 5, -12
 263              		.cfi_offset 6, -8
 264              		.cfi_offset 14, -4
 265              	@ inc/user_libs/usb_dcd.c:162:   if ((ep_addr & 0x80) == 0x80)
 160:inc/user_libs/usb_dcd.c ****   USB_OTG_EP *ep;
 161:inc/user_libs/usb_dcd.c ****   
 162:inc/user_libs/usb_dcd.c ****   if ((ep_addr & 0x80) == 0x80)
 266              		.loc 1 162 0
 267 0096 4EB2     		sxtb	r6, r1	@ ep_addr.0_1, ep_addr
 268 0098 01F07F05 		and	r5, r1, #127	@ _28, ep_addr,
 269 009c 002E     		cmp	r6, #0	@ ep_addr.0_1,
 270 009e 4FF02804 		mov	r4, #40	@ tmp146,
 271              	@ inc/user_libs/usb_dcd.c:164:     ep = &pdev->dev.in_ep[ep_addr & 0x7F];
 163:inc/user_libs/usb_dcd.c ****   {
 164:inc/user_libs/usb_dcd.c ****     ep = &pdev->dev.in_ep[ep_addr & 0x7F];
 272              		.loc 1 164 0
ARM GAS  /tmp/ccccQJ22.s 			page 9


 273 00a2 B5BF     		itete	lt
 274 00a4 04FB0501 		mlalt	r1, r4, r5, r0	@ tmp129, tmp146, _28, pdev
 275              	.LVL16:
 276              	@ inc/user_libs/usb_dcd.c:168:     ep = &pdev->dev.out_ep[ep_addr & 0x7F];
 165:inc/user_libs/usb_dcd.c ****   }
 166:inc/user_libs/usb_dcd.c ****   else
 167:inc/user_libs/usb_dcd.c ****   {
 168:inc/user_libs/usb_dcd.c ****     ep = &pdev->dev.out_ep[ep_addr & 0x7F];
 277              		.loc 1 168 0
 278 00a8 04FB0101 		mlage	r1, r4, r1, r0	@ tmp133, tmp146, ep_addr, pdev
 279              	@ inc/user_libs/usb_dcd.c:164:     ep = &pdev->dev.in_ep[ep_addr & 0x7F];
 164:inc/user_libs/usb_dcd.c ****   }
 280              		.loc 1 164 0
 281 00ac 01F58E71 		addlt	r1, r1, #284	@ ep, tmp129,
 282              	@ inc/user_libs/usb_dcd.c:168:     ep = &pdev->dev.out_ep[ep_addr & 0x7F];
 283              		.loc 1 168 0
 284 00b0 01F55D71 		addge	r1, r1, #884	@ ep, tmp133,
 285              	.LVL17:
 286              	@ inc/user_libs/usb_dcd.c:175:   if (ep->is_in)
 169:inc/user_libs/usb_dcd.c ****   }
 170:inc/user_libs/usb_dcd.c ****   ep->num   = ep_addr & 0x7F;
 171:inc/user_libs/usb_dcd.c ****   
 172:inc/user_libs/usb_dcd.c ****   ep->is_in = (0x80 & ep_addr) != 0;
 173:inc/user_libs/usb_dcd.c ****   ep->maxpacket = ep_mps;
 174:inc/user_libs/usb_dcd.c ****   ep->type = ep_type;
 175:inc/user_libs/usb_dcd.c ****   if (ep->is_in)
 287              		.loc 1 175 0
 288 00b4 002E     		cmp	r6, #0	@ ep_addr.0_1,
 289              	@ inc/user_libs/usb_dcd.c:178:     ep->tx_fifo_num = ep->num;
 176:inc/user_libs/usb_dcd.c ****   {
 177:inc/user_libs/usb_dcd.c ****     /* Assign a Tx FIFO */
 178:inc/user_libs/usb_dcd.c ****     ep->tx_fifo_num = ep->num;
 290              		.loc 1 178 0
 291 00b6 B8BF     		it	lt
 292 00b8 CD80     		strhlt	r5, [r1, #6]	@ movhi	@ _28, ep_9->tx_fifo_num
 293              	@ inc/user_libs/usb_dcd.c:181:   if (ep_type == USB_OTG_EP_BULK )
 179:inc/user_libs/usb_dcd.c ****   }
 180:inc/user_libs/usb_dcd.c ****   /* Set initial data PID. */
 181:inc/user_libs/usb_dcd.c ****   if (ep_type == USB_OTG_EP_BULK )
 294              		.loc 1 181 0
 295 00ba 022B     		cmp	r3, #2	@ ep_type,
 296              	@ inc/user_libs/usb_dcd.c:174:   ep->type = ep_type;
 174:inc/user_libs/usb_dcd.c ****   if (ep->is_in)
 297              		.loc 1 174 0
 298 00bc CB70     		strb	r3, [r1, #3]	@ ep_type, ep_9->type
 299              	@ inc/user_libs/usb_dcd.c:172:   ep->is_in = (0x80 & ep_addr) != 0;
 172:inc/user_libs/usb_dcd.c ****   ep->maxpacket = ep_mps;
 300              		.loc 1 172 0
 301 00be 4FEAD674 		lsr	r4, r6, #31	@ tmp139, ep_addr.0_1,
 302              	@ inc/user_libs/usb_dcd.c:183:     ep->data_pid_start = 0;
 182:inc/user_libs/usb_dcd.c ****   {
 183:inc/user_libs/usb_dcd.c ****     ep->data_pid_start = 0;
 303              		.loc 1 183 0
 304 00c2 08BF     		it	eq
 305 00c4 0023     		moveq	r3, #0	@ tmp143,
 306              	.LVL18:
 307              	@ inc/user_libs/usb_dcd.c:170:   ep->num   = ep_addr & 0x7F;
ARM GAS  /tmp/ccccQJ22.s 			page 10


 170:inc/user_libs/usb_dcd.c ****   
 308              		.loc 1 170 0
 309 00c6 0D70     		strb	r5, [r1]	@ _28, ep_9->num
 310              	@ inc/user_libs/usb_dcd.c:172:   ep->is_in = (0x80 & ep_addr) != 0;
 172:inc/user_libs/usb_dcd.c ****   ep->maxpacket = ep_mps;
 311              		.loc 1 172 0
 312 00c8 4C70     		strb	r4, [r1, #1]	@ tmp139, ep_9->is_in
 313              	@ inc/user_libs/usb_dcd.c:173:   ep->maxpacket = ep_mps;
 173:inc/user_libs/usb_dcd.c ****   ep->type = ep_type;
 314              		.loc 1 173 0
 315 00ca 8A60     		str	r2, [r1, #8]	@ ep_mps, ep_9->maxpacket
 316              	@ inc/user_libs/usb_dcd.c:183:     ep->data_pid_start = 0;
 317              		.loc 1 183 0
 318 00cc 08BF     		it	eq
 319 00ce 0B71     		strbeq	r3, [r1, #4]	@ tmp143, ep_9->data_pid_start
 320              	@ inc/user_libs/usb_dcd.c:185:   USB_OTG_EPActivate(pdev , ep );
 184:inc/user_libs/usb_dcd.c ****   }
 185:inc/user_libs/usb_dcd.c ****   USB_OTG_EPActivate(pdev , ep );
 321              		.loc 1 185 0
 322 00d0 FFF7FEFF 		bl	USB_OTG_EPActivate	@
 323              	.LVL19:
 324              	@ inc/user_libs/usb_dcd.c:187: }
 186:inc/user_libs/usb_dcd.c ****   return 0;
 187:inc/user_libs/usb_dcd.c **** }
 325              		.loc 1 187 0
 326 00d4 0020     		movs	r0, #0	@,
 327 00d6 70BD     		pop	{r4, r5, r6, pc}	@
 328              		.cfi_endproc
 329              	.LFE111:
 330              		.size	DCD_EP_Open, .-DCD_EP_Open
 331              		.align	1
 332              		.global	DCD_EP_Close
 333              		.syntax unified
 334              		.thumb
 335              		.thumb_func
 336              		.fpu softvfp
 337              		.type	DCD_EP_Close, %function
 338              	DCD_EP_Close:
 339              	.LFB112:
 188:inc/user_libs/usb_dcd.c **** /**
 189:inc/user_libs/usb_dcd.c **** * @brief  called when an EP is disabled
 190:inc/user_libs/usb_dcd.c **** * @param pdev: device instance
 191:inc/user_libs/usb_dcd.c **** * @param ep_addr: endpoint address
 192:inc/user_libs/usb_dcd.c **** * @retval : status
 193:inc/user_libs/usb_dcd.c **** */
 194:inc/user_libs/usb_dcd.c **** uint32_t DCD_EP_Close(USB_OTG_CORE_HANDLE *pdev , uint8_t  ep_addr)
 195:inc/user_libs/usb_dcd.c **** {
 340              		.loc 1 195 0
 341              		.cfi_startproc
 342              		@ args = 0, pretend = 0, frame = 0
 343              		@ frame_needed = 0, uses_anonymous_args = 0
 344              	.LVL20:
 345              	@ inc/user_libs/usb_dcd.c:198:   if ((ep_addr&0x80) == 0x80)
 196:inc/user_libs/usb_dcd.c ****   USB_OTG_EP *ep;
 197:inc/user_libs/usb_dcd.c ****   
 198:inc/user_libs/usb_dcd.c ****   if ((ep_addr&0x80) == 0x80)
 346              		.loc 1 198 0
ARM GAS  /tmp/ccccQJ22.s 			page 11


 347 00d8 4BB2     		sxtb	r3, r1	@ ep_addr.2_1, ep_addr
 348 00da 002B     		cmp	r3, #0	@ ep_addr.2_1,
 349              	@ inc/user_libs/usb_dcd.c:195: {
 195:inc/user_libs/usb_dcd.c ****   USB_OTG_EP *ep;
 350              		.loc 1 195 0
 351 00dc 10B5     		push	{r4, lr}	@
 352              	.LCFI4:
 353              		.cfi_def_cfa_offset 8
 354              		.cfi_offset 4, -8
 355              		.cfi_offset 14, -4
 356 00de 4FF02802 		mov	r2, #40	@ tmp138,
 357 00e2 01F07F04 		and	r4, r1, #127	@ _23, ep_addr,
 358              	@ inc/user_libs/usb_dcd.c:200:     ep = &pdev->dev.in_ep[ep_addr & 0x7F];
 199:inc/user_libs/usb_dcd.c ****   {
 200:inc/user_libs/usb_dcd.c ****     ep = &pdev->dev.in_ep[ep_addr & 0x7F];
 359              		.loc 1 200 0
 360 00e6 B5BF     		itete	lt
 361 00e8 02FB0401 		mlalt	r1, r2, r4, r0	@ tmp125, tmp138, _23, pdev
 362              	.LVL21:
 363              	@ inc/user_libs/usb_dcd.c:204:     ep = &pdev->dev.out_ep[ep_addr & 0x7F];
 201:inc/user_libs/usb_dcd.c ****   }
 202:inc/user_libs/usb_dcd.c ****   else
 203:inc/user_libs/usb_dcd.c ****   {
 204:inc/user_libs/usb_dcd.c ****     ep = &pdev->dev.out_ep[ep_addr & 0x7F];
 364              		.loc 1 204 0
 365 00ec 02FB0101 		mlage	r1, r2, r1, r0	@ tmp129, tmp138, ep_addr, pdev
 366              	@ inc/user_libs/usb_dcd.c:200:     ep = &pdev->dev.in_ep[ep_addr & 0x7F];
 200:inc/user_libs/usb_dcd.c ****   }
 367              		.loc 1 200 0
 368 00f0 01F58E71 		addlt	r1, r1, #284	@ ep, tmp125,
 369              	@ inc/user_libs/usb_dcd.c:204:     ep = &pdev->dev.out_ep[ep_addr & 0x7F];
 370              		.loc 1 204 0
 371 00f4 01F55D71 		addge	r1, r1, #884	@ ep, tmp129,
 372              	.LVL22:
 373              	@ inc/user_libs/usb_dcd.c:207:   ep->is_in = (0x80 & ep_addr) != 0;
 205:inc/user_libs/usb_dcd.c ****   }
 206:inc/user_libs/usb_dcd.c ****   ep->num   = ep_addr & 0x7F;
 207:inc/user_libs/usb_dcd.c ****   ep->is_in = (0x80 & ep_addr) != 0;
 374              		.loc 1 207 0
 375 00f8 DB0F     		lsrs	r3, r3, #31	@ tmp135, ep_addr.2_1,
 376              	.LVL23:
 377              	@ inc/user_libs/usb_dcd.c:206:   ep->num   = ep_addr & 0x7F;
 206:inc/user_libs/usb_dcd.c ****   ep->is_in = (0x80 & ep_addr) != 0;
 378              		.loc 1 206 0
 379 00fa 0C70     		strb	r4, [r1]	@ _23, ep_7->num
 380              	@ inc/user_libs/usb_dcd.c:207:   ep->is_in = (0x80 & ep_addr) != 0;
 381              		.loc 1 207 0
 382 00fc 4B70     		strb	r3, [r1, #1]	@ tmp135, ep_7->is_in
 383              	@ inc/user_libs/usb_dcd.c:208:   USB_OTG_EPDeactivate(pdev , ep );
 208:inc/user_libs/usb_dcd.c ****   USB_OTG_EPDeactivate(pdev , ep );
 384              		.loc 1 208 0
 385 00fe FFF7FEFF 		bl	USB_OTG_EPDeactivate	@
 386              	.LVL24:
 387              	@ inc/user_libs/usb_dcd.c:210: }
 209:inc/user_libs/usb_dcd.c ****   return 0;
 210:inc/user_libs/usb_dcd.c **** }
 388              		.loc 1 210 0
ARM GAS  /tmp/ccccQJ22.s 			page 12


 389 0102 0020     		movs	r0, #0	@,
 390 0104 10BD     		pop	{r4, pc}	@
 391              		.cfi_endproc
 392              	.LFE112:
 393              		.size	DCD_EP_Close, .-DCD_EP_Close
 394              		.align	1
 395              		.global	DCD_EP_PrepareRx
 396              		.syntax unified
 397              		.thumb
 398              		.thumb_func
 399              		.fpu softvfp
 400              		.type	DCD_EP_PrepareRx, %function
 401              	DCD_EP_PrepareRx:
 402              	.LFB113:
 211:inc/user_libs/usb_dcd.c **** 
 212:inc/user_libs/usb_dcd.c **** 
 213:inc/user_libs/usb_dcd.c **** /**
 214:inc/user_libs/usb_dcd.c **** * @brief  DCD_EP_PrepareRx
 215:inc/user_libs/usb_dcd.c **** * @param pdev: device instance
 216:inc/user_libs/usb_dcd.c **** * @param ep_addr: endpoint address
 217:inc/user_libs/usb_dcd.c **** * @param pbuf: pointer to Rx buffer
 218:inc/user_libs/usb_dcd.c **** * @param buf_len: data length
 219:inc/user_libs/usb_dcd.c **** * @retval : status
 220:inc/user_libs/usb_dcd.c **** */
 221:inc/user_libs/usb_dcd.c **** uint32_t   DCD_EP_PrepareRx( USB_OTG_CORE_HANDLE *pdev,
 222:inc/user_libs/usb_dcd.c ****                             uint8_t   ep_addr,
 223:inc/user_libs/usb_dcd.c ****                             uint8_t *pbuf,                        
 224:inc/user_libs/usb_dcd.c ****                             uint16_t  buf_len)
 225:inc/user_libs/usb_dcd.c **** {
 403              		.loc 1 225 0
 404              		.cfi_startproc
 405              		@ args = 0, pretend = 0, frame = 0
 406              		@ frame_needed = 0, uses_anonymous_args = 0
 407              	.LVL25:
 408 0106 70B5     		push	{r4, r5, r6, lr}	@
 409              	.LCFI5:
 410              		.cfi_def_cfa_offset 16
 411              		.cfi_offset 4, -16
 412              		.cfi_offset 5, -12
 413              		.cfi_offset 6, -8
 414              		.cfi_offset 14, -4
 415 0108 01F07F04 		and	r4, r1, #127	@ _1, ep_addr,
 416              	@ inc/user_libs/usb_dcd.c:228:   ep = &pdev->dev.out_ep[ep_addr & 0x7F];
 226:inc/user_libs/usb_dcd.c ****   USB_OTG_EP *ep;
 227:inc/user_libs/usb_dcd.c ****   
 228:inc/user_libs/usb_dcd.c ****   ep = &pdev->dev.out_ep[ep_addr & 0x7F];
 417              		.loc 1 228 0
 418 010c 2826     		movs	r6, #40	@ tmp128,
 419              	@ inc/user_libs/usb_dcd.c:231:   ep->xfer_buff = pbuf;  
 229:inc/user_libs/usb_dcd.c ****   
 230:inc/user_libs/usb_dcd.c ****   /*setup and start the Xfer */
 231:inc/user_libs/usb_dcd.c ****   ep->xfer_buff = pbuf;  
 420              		.loc 1 231 0
 421 010e 06FB0405 		mla	r5, r6, r4, r0	@ tmp132, tmp128, _1, pdev
 422              	@ inc/user_libs/usb_dcd.c:228:   ep = &pdev->dev.out_ep[ep_addr & 0x7F];
 228:inc/user_libs/usb_dcd.c ****   
 423              		.loc 1 228 0
ARM GAS  /tmp/ccccQJ22.s 			page 13


 424 0112 06FB0401 		mla	r1, r6, r4, r0	@ tmp126, tmp128, _1, pdev
 425              	.LVL26:
 426              	@ inc/user_libs/usb_dcd.c:232:   ep->xfer_len = buf_len;
 232:inc/user_libs/usb_dcd.c ****   ep->xfer_len = buf_len;
 427              		.loc 1 232 0
 428 0116 C5F88833 		str	r3, [r5, #904]	@ buf_len, MEM[(struct USB_OTG_EP *)pdev_9(D)].dev.out_ep[_1].xfer_len
 429              	@ inc/user_libs/usb_dcd.c:233:   ep->xfer_count = 0;
 233:inc/user_libs/usb_dcd.c ****   ep->xfer_count = 0;
 430              		.loc 1 233 0
 431 011a 0023     		movs	r3, #0	@ tmp142,
 432              	.LVL27:
 433              	@ inc/user_libs/usb_dcd.c:235:   ep->num = ep_addr & 0x7F;
 234:inc/user_libs/usb_dcd.c ****   ep->is_in = 0;
 235:inc/user_libs/usb_dcd.c ****   ep->num = ep_addr & 0x7F;
 434              		.loc 1 235 0
 435 011c 85F87443 		strb	r4, [r5, #884]	@ _1, MEM[(struct USB_OTG_EP *)pdev_9(D)].dev.out_ep[_1].num
 436              	@ inc/user_libs/usb_dcd.c:231:   ep->xfer_buff = pbuf;  
 231:inc/user_libs/usb_dcd.c ****   ep->xfer_len = buf_len;
 437              		.loc 1 231 0
 438 0120 C5F88023 		str	r2, [r5, #896]	@ pbuf, MEM[(struct USB_OTG_EP *)pdev_9(D)].dev.out_ep[_1].xfer_buff
 439              	@ inc/user_libs/usb_dcd.c:233:   ep->xfer_count = 0;
 233:inc/user_libs/usb_dcd.c ****   ep->xfer_count = 0;
 440              		.loc 1 233 0
 441 0124 C5F88C33 		str	r3, [r5, #908]	@ tmp142, MEM[(struct USB_OTG_EP *)pdev_9(D)].dev.out_ep[_1].xfer_count
 442              	@ inc/user_libs/usb_dcd.c:234:   ep->is_in = 0;
 234:inc/user_libs/usb_dcd.c ****   ep->is_in = 0;
 443              		.loc 1 234 0
 444 0128 85F87533 		strb	r3, [r5, #885]	@ tmp142, MEM[(struct USB_OTG_EP *)pdev_9(D)].dev.out_ep[_1].is_in
 445              	@ inc/user_libs/usb_dcd.c:237:   if (pdev->cfg.dma_enable == 1)
 236:inc/user_libs/usb_dcd.c ****   
 237:inc/user_libs/usb_dcd.c ****   if (pdev->cfg.dma_enable == 1)
 446              		.loc 1 237 0
 447 012c C378     		ldrb	r3, [r0, #3]	@ zero_extendqisi2	@ pdev_9(D)->cfg.dma_enable, pdev_9(D)->cfg.dma_enable
 448              	@ inc/user_libs/usb_dcd.c:242:   if ( ep->num == 0 )
 238:inc/user_libs/usb_dcd.c ****   {
 239:inc/user_libs/usb_dcd.c ****     ep->dma_addr = (uint32_t)pbuf;  
 240:inc/user_libs/usb_dcd.c ****   }
 241:inc/user_libs/usb_dcd.c ****   
 242:inc/user_libs/usb_dcd.c ****   if ( ep->num == 0 )
 449              		.loc 1 242 0
 450 012e 06FB0404 		mla	r4, r6, r4, r0	@ tmp161, tmp165, _1, pdev
 451              	@ inc/user_libs/usb_dcd.c:237:   if (pdev->cfg.dma_enable == 1)
 237:inc/user_libs/usb_dcd.c ****   {
 452              		.loc 1 237 0
 453 0132 012B     		cmp	r3, #1	@ pdev_9(D)->cfg.dma_enable,
 454              	@ inc/user_libs/usb_dcd.c:239:     ep->dma_addr = (uint32_t)pbuf;  
 239:inc/user_libs/usb_dcd.c ****   }
 455              		.loc 1 239 0
 456 0134 08BF     		it	eq
 457 0136 C5F88423 		streq	r2, [r5, #900]	@ pbuf, MEM[(struct USB_OTG_EP *)pdev_9(D)].dev.out_ep[_1].dma_addr
 458              	@ inc/user_libs/usb_dcd.c:242:   if ( ep->num == 0 )
 459              		.loc 1 242 0
 460 013a 94F87433 		ldrb	r3, [r4, #884]	@ zero_extendqisi2	@ MEM[(struct USB_OTG_EP *)pdev_9(D)].dev.out_ep[_1].num, M
 461              	@ inc/user_libs/usb_dcd.c:228:   ep = &pdev->dev.out_ep[ep_addr & 0x7F];
 228:inc/user_libs/usb_dcd.c ****   
 462              		.loc 1 228 0
 463 013e 01F55D71 		add	r1, r1, #884	@ ep, tmp126,
ARM GAS  /tmp/ccccQJ22.s 			page 14


 464              	.LVL28:
 465              	@ inc/user_libs/usb_dcd.c:242:   if ( ep->num == 0 )
 466              		.loc 1 242 0
 467 0142 1BB9     		cbnz	r3, .L16	@ MEM[(struct USB_OTG_EP *)pdev_9(D)].dev.out_ep[_1].num,
 468              	@ inc/user_libs/usb_dcd.c:244:     USB_OTG_EP0StartXfer(pdev , ep);
 243:inc/user_libs/usb_dcd.c ****   {
 244:inc/user_libs/usb_dcd.c ****     USB_OTG_EP0StartXfer(pdev , ep);
 469              		.loc 1 244 0
 470 0144 FFF7FEFF 		bl	USB_OTG_EP0StartXfer	@
 471              	.LVL29:
 472              	.L17:
 473              	@ inc/user_libs/usb_dcd.c:251: }
 245:inc/user_libs/usb_dcd.c ****   }
 246:inc/user_libs/usb_dcd.c ****   else
 247:inc/user_libs/usb_dcd.c ****   {
 248:inc/user_libs/usb_dcd.c ****     USB_OTG_EPStartXfer(pdev, ep );
 249:inc/user_libs/usb_dcd.c ****   }
 250:inc/user_libs/usb_dcd.c ****   return 0;
 251:inc/user_libs/usb_dcd.c **** }
 474              		.loc 1 251 0
 475 0148 0020     		movs	r0, #0	@,
 476 014a 70BD     		pop	{r4, r5, r6, pc}	@
 477              	.LVL30:
 478              	.L16:
 479              	@ inc/user_libs/usb_dcd.c:248:     USB_OTG_EPStartXfer(pdev, ep );
 248:inc/user_libs/usb_dcd.c ****   }
 480              		.loc 1 248 0
 481 014c FFF7FEFF 		bl	USB_OTG_EPStartXfer	@
 482              	.LVL31:
 483 0150 FAE7     		b	.L17	@
 484              		.cfi_endproc
 485              	.LFE113:
 486              		.size	DCD_EP_PrepareRx, .-DCD_EP_PrepareRx
 487              		.align	1
 488              		.global	DCD_EP_Tx
 489              		.syntax unified
 490              		.thumb
 491              		.thumb_func
 492              		.fpu softvfp
 493              		.type	DCD_EP_Tx, %function
 494              	DCD_EP_Tx:
 495              	.LFB114:
 252:inc/user_libs/usb_dcd.c **** 
 253:inc/user_libs/usb_dcd.c **** /**
 254:inc/user_libs/usb_dcd.c **** * @brief  Transmit data over USB
 255:inc/user_libs/usb_dcd.c **** * @param pdev: device instance
 256:inc/user_libs/usb_dcd.c **** * @param ep_addr: endpoint address
 257:inc/user_libs/usb_dcd.c **** * @param pbuf: pointer to Tx buffer
 258:inc/user_libs/usb_dcd.c **** * @param buf_len: data length
 259:inc/user_libs/usb_dcd.c **** * @retval : status
 260:inc/user_libs/usb_dcd.c **** */
 261:inc/user_libs/usb_dcd.c **** uint32_t  DCD_EP_Tx ( USB_OTG_CORE_HANDLE *pdev,
 262:inc/user_libs/usb_dcd.c ****                      uint8_t   ep_addr,
 263:inc/user_libs/usb_dcd.c ****                      uint8_t   *pbuf,
 264:inc/user_libs/usb_dcd.c ****                      uint32_t   buf_len)
 265:inc/user_libs/usb_dcd.c **** {
 496              		.loc 1 265 0
ARM GAS  /tmp/ccccQJ22.s 			page 15


 497              		.cfi_startproc
 498              		@ args = 0, pretend = 0, frame = 0
 499              		@ frame_needed = 0, uses_anonymous_args = 0
 500              	.LVL32:
 501 0152 70B5     		push	{r4, r5, r6, lr}	@
 502              	.LCFI6:
 503              		.cfi_def_cfa_offset 16
 504              		.cfi_offset 4, -16
 505              		.cfi_offset 5, -12
 506              		.cfi_offset 6, -8
 507              		.cfi_offset 14, -4
 508 0154 01F07F05 		and	r5, r1, #127	@ _19, ep_addr,
 509              	@ inc/user_libs/usb_dcd.c:268:   ep = &pdev->dev.in_ep[ep_addr & 0x7F];
 266:inc/user_libs/usb_dcd.c ****   USB_OTG_EP *ep;
 267:inc/user_libs/usb_dcd.c ****   
 268:inc/user_libs/usb_dcd.c ****   ep = &pdev->dev.in_ep[ep_addr & 0x7F];
 510              		.loc 1 268 0
 511 0158 2824     		movs	r4, #40	@ tmp126,
 512 015a 04FB0501 		mla	r1, r4, r5, r0	@ tmp124, tmp126, _19, pdev
 513              	.LVL33:
 514              	@ inc/user_libs/usb_dcd.c:271:   ep->is_in = 1;
 269:inc/user_libs/usb_dcd.c ****   
 270:inc/user_libs/usb_dcd.c ****   /* Setup and start the Transfer */
 271:inc/user_libs/usb_dcd.c ****   ep->is_in = 1;
 515              		.loc 1 271 0
 516 015e 04FB0504 		mla	r4, r4, r5, r0	@ tmp130, tmp126, _19, pdev
 517 0162 0126     		movs	r6, #1	@ tmp132,
 518              	@ inc/user_libs/usb_dcd.c:273:   ep->xfer_buff = pbuf;
 272:inc/user_libs/usb_dcd.c ****   ep->num = ep_addr & 0x7F;  
 273:inc/user_libs/usb_dcd.c ****   ep->xfer_buff = pbuf;
 519              		.loc 1 273 0
 520 0164 C4F82821 		str	r2, [r4, #296]	@ pbuf, MEM[(struct USB_OTG_EP *)pdev_6(D)].dev.in_ep[_1].xfer_buff
 521              	@ inc/user_libs/usb_dcd.c:274:   ep->dma_addr = (uint32_t)pbuf;  
 274:inc/user_libs/usb_dcd.c ****   ep->dma_addr = (uint32_t)pbuf;  
 522              		.loc 1 274 0
 523 0168 C4F82C21 		str	r2, [r4, #300]	@ pbuf, MEM[(struct USB_OTG_EP *)pdev_6(D)].dev.in_ep[_1].dma_addr
 524              	@ inc/user_libs/usb_dcd.c:275:   ep->xfer_count = 0;
 275:inc/user_libs/usb_dcd.c ****   ep->xfer_count = 0;
 525              		.loc 1 275 0
 526 016c 0022     		movs	r2, #0	@ tmp151,
 527              	.LVL34:
 528              	@ inc/user_libs/usb_dcd.c:268:   ep = &pdev->dev.in_ep[ep_addr & 0x7F];
 268:inc/user_libs/usb_dcd.c ****   
 529              		.loc 1 268 0
 530 016e 01F58E71 		add	r1, r1, #284	@ ep, tmp124,
 531              	.LVL35:
 532              	@ inc/user_libs/usb_dcd.c:271:   ep->is_in = 1;
 271:inc/user_libs/usb_dcd.c ****   ep->num = ep_addr & 0x7F;  
 533              		.loc 1 271 0
 534 0172 84F81D61 		strb	r6, [r4, #285]	@ tmp132, MEM[(struct USB_OTG_EP *)pdev_6(D)].dev.in_ep[_1].is_in
 535              	@ inc/user_libs/usb_dcd.c:272:   ep->num = ep_addr & 0x7F;  
 272:inc/user_libs/usb_dcd.c ****   ep->xfer_buff = pbuf;
 536              		.loc 1 272 0
 537 0176 84F81C51 		strb	r5, [r4, #284]	@ _19, MEM[(struct USB_OTG_EP *)pdev_6(D)].dev.in_ep[_1].num
 538              	@ inc/user_libs/usb_dcd.c:275:   ep->xfer_count = 0;
 539              		.loc 1 275 0
 540 017a C4F83421 		str	r2, [r4, #308]	@ tmp151, MEM[(struct USB_OTG_EP *)pdev_6(D)].dev.in_ep[_1].xfer_count
ARM GAS  /tmp/ccccQJ22.s 			page 16


 541              	@ inc/user_libs/usb_dcd.c:276:   ep->xfer_len  = buf_len;
 276:inc/user_libs/usb_dcd.c ****   ep->xfer_len  = buf_len;
 542              		.loc 1 276 0
 543 017e C4F83031 		str	r3, [r4, #304]	@ buf_len, MEM[(struct USB_OTG_EP *)pdev_6(D)].dev.in_ep[_1].xfer_len
 544              	@ inc/user_libs/usb_dcd.c:278:   if ( ep->num == 0 )
 277:inc/user_libs/usb_dcd.c ****   
 278:inc/user_libs/usb_dcd.c ****   if ( ep->num == 0 )
 545              		.loc 1 278 0
 546 0182 1DB9     		cbnz	r5, .L19	@ _19,
 547              	@ inc/user_libs/usb_dcd.c:280:     USB_OTG_EP0StartXfer(pdev , ep);
 279:inc/user_libs/usb_dcd.c ****   {
 280:inc/user_libs/usb_dcd.c ****     USB_OTG_EP0StartXfer(pdev , ep);
 548              		.loc 1 280 0
 549 0184 FFF7FEFF 		bl	USB_OTG_EP0StartXfer	@
 550              	.LVL36:
 551              	.L20:
 552              	@ inc/user_libs/usb_dcd.c:287: }
 281:inc/user_libs/usb_dcd.c ****   }
 282:inc/user_libs/usb_dcd.c ****   else
 283:inc/user_libs/usb_dcd.c ****   {
 284:inc/user_libs/usb_dcd.c ****     USB_OTG_EPStartXfer(pdev, ep );
 285:inc/user_libs/usb_dcd.c ****   }
 286:inc/user_libs/usb_dcd.c ****   return 0;
 287:inc/user_libs/usb_dcd.c **** }
 553              		.loc 1 287 0
 554 0188 0020     		movs	r0, #0	@,
 555 018a 70BD     		pop	{r4, r5, r6, pc}	@
 556              	.LVL37:
 557              	.L19:
 558              	@ inc/user_libs/usb_dcd.c:284:     USB_OTG_EPStartXfer(pdev, ep );
 284:inc/user_libs/usb_dcd.c ****   }
 559              		.loc 1 284 0
 560 018c FFF7FEFF 		bl	USB_OTG_EPStartXfer	@
 561              	.LVL38:
 562 0190 FAE7     		b	.L20	@
 563              		.cfi_endproc
 564              	.LFE114:
 565              		.size	DCD_EP_Tx, .-DCD_EP_Tx
 566              		.align	1
 567              		.global	DCD_EP_Stall
 568              		.syntax unified
 569              		.thumb
 570              		.thumb_func
 571              		.fpu softvfp
 572              		.type	DCD_EP_Stall, %function
 573              	DCD_EP_Stall:
 574              	.LFB115:
 288:inc/user_libs/usb_dcd.c **** 
 289:inc/user_libs/usb_dcd.c **** 
 290:inc/user_libs/usb_dcd.c **** /**
 291:inc/user_libs/usb_dcd.c **** * @brief  Stall an endpoint.
 292:inc/user_libs/usb_dcd.c **** * @param pdev: device instance
 293:inc/user_libs/usb_dcd.c **** * @param epnum: endpoint address
 294:inc/user_libs/usb_dcd.c **** * @retval : status
 295:inc/user_libs/usb_dcd.c **** */
 296:inc/user_libs/usb_dcd.c **** uint32_t  DCD_EP_Stall (USB_OTG_CORE_HANDLE *pdev, uint8_t   epnum)
 297:inc/user_libs/usb_dcd.c **** {
ARM GAS  /tmp/ccccQJ22.s 			page 17


 575              		.loc 1 297 0
 576              		.cfi_startproc
 577              		@ args = 0, pretend = 0, frame = 0
 578              		@ frame_needed = 0, uses_anonymous_args = 0
 579              	.LVL39:
 580              	@ inc/user_libs/usb_dcd.c:299:   if ((0x80 & epnum) == 0x80)
 298:inc/user_libs/usb_dcd.c ****   USB_OTG_EP *ep;
 299:inc/user_libs/usb_dcd.c ****   if ((0x80 & epnum) == 0x80)
 581              		.loc 1 299 0
 582 0192 4BB2     		sxtb	r3, r1	@ epnum.6_1, epnum
 583 0194 002B     		cmp	r3, #0	@ epnum.6_1,
 584              	@ inc/user_libs/usb_dcd.c:297: {
 297:inc/user_libs/usb_dcd.c ****   USB_OTG_EP *ep;
 585              		.loc 1 297 0
 586 0196 10B5     		push	{r4, lr}	@
 587              	.LCFI7:
 588              		.cfi_def_cfa_offset 8
 589              		.cfi_offset 4, -8
 590              		.cfi_offset 14, -4
 591 0198 4FF02802 		mov	r2, #40	@ tmp140,
 592 019c 01F07F04 		and	r4, r1, #127	@ _24, epnum,
 593              	@ inc/user_libs/usb_dcd.c:301:     ep = &pdev->dev.in_ep[epnum & 0x7F];
 300:inc/user_libs/usb_dcd.c ****   {
 301:inc/user_libs/usb_dcd.c ****     ep = &pdev->dev.in_ep[epnum & 0x7F];
 594              		.loc 1 301 0
 595 01a0 B5BF     		itete	lt
 596 01a2 02FB0401 		mlalt	r1, r2, r4, r0	@ tmp125, tmp140, _24, pdev
 597              	.LVL40:
 598              	@ inc/user_libs/usb_dcd.c:305:     ep = &pdev->dev.out_ep[epnum];
 302:inc/user_libs/usb_dcd.c ****   }
 303:inc/user_libs/usb_dcd.c ****   else
 304:inc/user_libs/usb_dcd.c ****   {
 305:inc/user_libs/usb_dcd.c ****     ep = &pdev->dev.out_ep[epnum];
 599              		.loc 1 305 0
 600 01a6 02FB0101 		mlage	r1, r2, r1, r0	@ tmp129, tmp140, epnum, pdev
 601              	@ inc/user_libs/usb_dcd.c:301:     ep = &pdev->dev.in_ep[epnum & 0x7F];
 301:inc/user_libs/usb_dcd.c ****   }
 602              		.loc 1 301 0
 603 01aa 01F58E71 		addlt	r1, r1, #284	@ ep, tmp125,
 604              	@ inc/user_libs/usb_dcd.c:305:     ep = &pdev->dev.out_ep[epnum];
 605              		.loc 1 305 0
 606 01ae 01F55D71 		addge	r1, r1, #884	@ ep, tmp129,
 607              	.LVL41:
 608              	@ inc/user_libs/usb_dcd.c:308:   ep->is_stall = 1;
 306:inc/user_libs/usb_dcd.c ****   }
 307:inc/user_libs/usb_dcd.c **** 
 308:inc/user_libs/usb_dcd.c ****   ep->is_stall = 1;
 609              		.loc 1 308 0
 610 01b2 0122     		movs	r2, #1	@ tmp133,
 611              	@ inc/user_libs/usb_dcd.c:310:   ep->is_in = ((epnum & 0x80) == 0x80);
 309:inc/user_libs/usb_dcd.c ****   ep->num   = epnum & 0x7F;
 310:inc/user_libs/usb_dcd.c ****   ep->is_in = ((epnum & 0x80) == 0x80);
 612              		.loc 1 310 0
 613 01b4 DB0F     		lsrs	r3, r3, #31	@ tmp137, epnum.6_1,
 614              	.LVL42:
 615              	@ inc/user_libs/usb_dcd.c:308:   ep->is_stall = 1;
 308:inc/user_libs/usb_dcd.c ****   ep->num   = epnum & 0x7F;
ARM GAS  /tmp/ccccQJ22.s 			page 18


 616              		.loc 1 308 0
 617 01b6 8A70     		strb	r2, [r1, #2]	@ tmp133, ep_7->is_stall
 618              	@ inc/user_libs/usb_dcd.c:309:   ep->num   = epnum & 0x7F;
 309:inc/user_libs/usb_dcd.c ****   ep->num   = epnum & 0x7F;
 619              		.loc 1 309 0
 620 01b8 0C70     		strb	r4, [r1]	@ _24, ep_7->num
 621              	@ inc/user_libs/usb_dcd.c:310:   ep->is_in = ((epnum & 0x80) == 0x80);
 622              		.loc 1 310 0
 623 01ba 4B70     		strb	r3, [r1, #1]	@ tmp137, ep_7->is_in
 624              	@ inc/user_libs/usb_dcd.c:312:   USB_OTG_EPSetStall(pdev , ep);
 311:inc/user_libs/usb_dcd.c ****   
 312:inc/user_libs/usb_dcd.c ****   USB_OTG_EPSetStall(pdev , ep);
 625              		.loc 1 312 0
 626 01bc FFF7FEFF 		bl	USB_OTG_EPSetStall	@
 627              	.LVL43:
 628              	@ inc/user_libs/usb_dcd.c:314: }
 313:inc/user_libs/usb_dcd.c ****   return (0);
 314:inc/user_libs/usb_dcd.c **** }
 629              		.loc 1 314 0
 630 01c0 0020     		movs	r0, #0	@,
 631 01c2 10BD     		pop	{r4, pc}	@
 632              		.cfi_endproc
 633              	.LFE115:
 634              		.size	DCD_EP_Stall, .-DCD_EP_Stall
 635              		.align	1
 636              		.global	DCD_EP_ClrStall
 637              		.syntax unified
 638              		.thumb
 639              		.thumb_func
 640              		.fpu softvfp
 641              		.type	DCD_EP_ClrStall, %function
 642              	DCD_EP_ClrStall:
 643              	.LFB116:
 315:inc/user_libs/usb_dcd.c **** 
 316:inc/user_libs/usb_dcd.c **** 
 317:inc/user_libs/usb_dcd.c **** /**
 318:inc/user_libs/usb_dcd.c **** * @brief  Clear stall condition on endpoints.
 319:inc/user_libs/usb_dcd.c **** * @param pdev: device instance
 320:inc/user_libs/usb_dcd.c **** * @param epnum: endpoint address
 321:inc/user_libs/usb_dcd.c **** * @retval : status
 322:inc/user_libs/usb_dcd.c **** */
 323:inc/user_libs/usb_dcd.c **** uint32_t  DCD_EP_ClrStall (USB_OTG_CORE_HANDLE *pdev, uint8_t epnum)
 324:inc/user_libs/usb_dcd.c **** {
 644              		.loc 1 324 0
 645              		.cfi_startproc
 646              		@ args = 0, pretend = 0, frame = 0
 647              		@ frame_needed = 0, uses_anonymous_args = 0
 648              	.LVL44:
 649 01c4 38B5     		push	{r3, r4, r5, lr}	@
 650              	.LCFI8:
 651              		.cfi_def_cfa_offset 16
 652              		.cfi_offset 3, -16
 653              		.cfi_offset 4, -12
 654              		.cfi_offset 5, -8
 655              		.cfi_offset 14, -4
 656              	@ inc/user_libs/usb_dcd.c:326:   if ((0x80 & epnum) == 0x80)
 325:inc/user_libs/usb_dcd.c ****   USB_OTG_EP *ep;
ARM GAS  /tmp/ccccQJ22.s 			page 19


 326:inc/user_libs/usb_dcd.c ****   if ((0x80 & epnum) == 0x80)
 657              		.loc 1 326 0
 658 01c6 4BB2     		sxtb	r3, r1	@ epnum.8_1, epnum
 659 01c8 01F07F05 		and	r5, r1, #127	@ _24, epnum,
 660 01cc 002B     		cmp	r3, #0	@ epnum.8_1,
 661 01ce 4FF02802 		mov	r2, #40	@ tmp140,
 662              	@ inc/user_libs/usb_dcd.c:328:     ep = &pdev->dev.in_ep[epnum & 0x7F];    
 327:inc/user_libs/usb_dcd.c ****   {
 328:inc/user_libs/usb_dcd.c ****     ep = &pdev->dev.in_ep[epnum & 0x7F];    
 663              		.loc 1 328 0
 664 01d2 B5BF     		itete	lt
 665 01d4 02FB0501 		mlalt	r1, r2, r5, r0	@ tmp125, tmp140, _24, pdev
 666              	.LVL45:
 667              	@ inc/user_libs/usb_dcd.c:332:     ep = &pdev->dev.out_ep[epnum];
 329:inc/user_libs/usb_dcd.c ****   }
 330:inc/user_libs/usb_dcd.c ****   else
 331:inc/user_libs/usb_dcd.c ****   {
 332:inc/user_libs/usb_dcd.c ****     ep = &pdev->dev.out_ep[epnum];
 668              		.loc 1 332 0
 669 01d8 02FB0101 		mlage	r1, r2, r1, r0	@ tmp129, tmp140, epnum, pdev
 670              	@ inc/user_libs/usb_dcd.c:328:     ep = &pdev->dev.in_ep[epnum & 0x7F];    
 328:inc/user_libs/usb_dcd.c ****   }
 671              		.loc 1 328 0
 672 01dc 01F58E71 		addlt	r1, r1, #284	@ ep, tmp125,
 673              	@ inc/user_libs/usb_dcd.c:332:     ep = &pdev->dev.out_ep[epnum];
 674              		.loc 1 332 0
 675 01e0 01F55D71 		addge	r1, r1, #884	@ ep, tmp129,
 676              	.LVL46:
 677              	@ inc/user_libs/usb_dcd.c:335:   ep->is_stall = 0;  
 333:inc/user_libs/usb_dcd.c ****   }
 334:inc/user_libs/usb_dcd.c ****   
 335:inc/user_libs/usb_dcd.c ****   ep->is_stall = 0;  
 678              		.loc 1 335 0
 679 01e4 0024     		movs	r4, #0	@ tmp133,
 680              	@ inc/user_libs/usb_dcd.c:337:   ep->is_in = ((epnum & 0x80) == 0x80);
 336:inc/user_libs/usb_dcd.c ****   ep->num   = epnum & 0x7F;
 337:inc/user_libs/usb_dcd.c ****   ep->is_in = ((epnum & 0x80) == 0x80);
 681              		.loc 1 337 0
 682 01e6 DB0F     		lsrs	r3, r3, #31	@ tmp137, epnum.8_1,
 683              	.LVL47:
 684              	@ inc/user_libs/usb_dcd.c:335:   ep->is_stall = 0;  
 335:inc/user_libs/usb_dcd.c ****   ep->num   = epnum & 0x7F;
 685              		.loc 1 335 0
 686 01e8 8C70     		strb	r4, [r1, #2]	@ tmp133, ep_7->is_stall
 687              	@ inc/user_libs/usb_dcd.c:336:   ep->num   = epnum & 0x7F;
 336:inc/user_libs/usb_dcd.c ****   ep->num   = epnum & 0x7F;
 688              		.loc 1 336 0
 689 01ea 0D70     		strb	r5, [r1]	@ _24, ep_7->num
 690              	@ inc/user_libs/usb_dcd.c:337:   ep->is_in = ((epnum & 0x80) == 0x80);
 691              		.loc 1 337 0
 692 01ec 4B70     		strb	r3, [r1, #1]	@ tmp137, ep_7->is_in
 693              	@ inc/user_libs/usb_dcd.c:339:   USB_OTG_EPClearStall(pdev , ep);
 338:inc/user_libs/usb_dcd.c ****   
 339:inc/user_libs/usb_dcd.c ****   USB_OTG_EPClearStall(pdev , ep);
 694              		.loc 1 339 0
 695 01ee FFF7FEFF 		bl	USB_OTG_EPClearStall	@
 696              	.LVL48:
ARM GAS  /tmp/ccccQJ22.s 			page 20


 697              	@ inc/user_libs/usb_dcd.c:341: }
 340:inc/user_libs/usb_dcd.c ****   return (0);
 341:inc/user_libs/usb_dcd.c **** }
 698              		.loc 1 341 0
 699 01f2 2046     		mov	r0, r4	@, tmp133
 700 01f4 38BD     		pop	{r3, r4, r5, pc}	@
 701              		.cfi_endproc
 702              	.LFE116:
 703              		.size	DCD_EP_ClrStall, .-DCD_EP_ClrStall
 704              		.align	1
 705              		.global	DCD_EP_Flush
 706              		.syntax unified
 707              		.thumb
 708              		.thumb_func
 709              		.fpu softvfp
 710              		.type	DCD_EP_Flush, %function
 711              	DCD_EP_Flush:
 712              	.LFB117:
 342:inc/user_libs/usb_dcd.c **** 
 343:inc/user_libs/usb_dcd.c **** 
 344:inc/user_libs/usb_dcd.c **** /**
 345:inc/user_libs/usb_dcd.c **** * @brief  This Function flushes the FIFOs.
 346:inc/user_libs/usb_dcd.c **** * @param pdev: device instance
 347:inc/user_libs/usb_dcd.c **** * @param epnum: endpoint address
 348:inc/user_libs/usb_dcd.c **** * @retval : status
 349:inc/user_libs/usb_dcd.c **** */
 350:inc/user_libs/usb_dcd.c **** uint32_t  DCD_EP_Flush (USB_OTG_CORE_HANDLE *pdev , uint8_t epnum)
 351:inc/user_libs/usb_dcd.c **** {
 713              		.loc 1 351 0
 714              		.cfi_startproc
 715              		@ args = 0, pretend = 0, frame = 0
 716              		@ frame_needed = 0, uses_anonymous_args = 0
 717              	.LVL49:
 718 01f6 08B5     		push	{r3, lr}	@
 719              	.LCFI9:
 720              		.cfi_def_cfa_offset 8
 721              		.cfi_offset 3, -8
 722              		.cfi_offset 14, -4
 723              	@ inc/user_libs/usb_dcd.c:353:   if ((epnum & 0x80) == 0x80)
 352:inc/user_libs/usb_dcd.c **** 
 353:inc/user_libs/usb_dcd.c ****   if ((epnum & 0x80) == 0x80)
 724              		.loc 1 353 0
 725 01f8 0B06     		lsls	r3, r1, #24	@, epnum,
 726 01fa 05D5     		bpl	.L28	@,
 727              	@ inc/user_libs/usb_dcd.c:355:     USB_OTG_FlushTxFifo(pdev, epnum & 0x7F);
 354:inc/user_libs/usb_dcd.c ****   {
 355:inc/user_libs/usb_dcd.c ****     USB_OTG_FlushTxFifo(pdev, epnum & 0x7F);
 728              		.loc 1 355 0
 729 01fc 01F07F01 		and	r1, r1, #127	@, epnum,
 730              	.LVL50:
 731 0200 FFF7FEFF 		bl	USB_OTG_FlushTxFifo	@
 732              	.LVL51:
 733              	.L29:
 734              	@ inc/user_libs/usb_dcd.c:363: }
 356:inc/user_libs/usb_dcd.c ****   }
 357:inc/user_libs/usb_dcd.c ****   else
 358:inc/user_libs/usb_dcd.c ****   {
ARM GAS  /tmp/ccccQJ22.s 			page 21


 359:inc/user_libs/usb_dcd.c ****     USB_OTG_FlushRxFifo(pdev);
 360:inc/user_libs/usb_dcd.c ****   }
 361:inc/user_libs/usb_dcd.c **** 
 362:inc/user_libs/usb_dcd.c ****   return (0);
 363:inc/user_libs/usb_dcd.c **** }
 735              		.loc 1 363 0
 736 0204 0020     		movs	r0, #0	@,
 737 0206 08BD     		pop	{r3, pc}	@
 738              	.LVL52:
 739              	.L28:
 740              	@ inc/user_libs/usb_dcd.c:359:     USB_OTG_FlushRxFifo(pdev);
 359:inc/user_libs/usb_dcd.c ****   }
 741              		.loc 1 359 0
 742 0208 FFF7FEFF 		bl	USB_OTG_FlushRxFifo	@
 743              	.LVL53:
 744 020c FAE7     		b	.L29	@
 745              		.cfi_endproc
 746              	.LFE117:
 747              		.size	DCD_EP_Flush, .-DCD_EP_Flush
 748              		.align	1
 749              		.global	DCD_EP_SetAddress
 750              		.syntax unified
 751              		.thumb
 752              		.thumb_func
 753              		.fpu softvfp
 754              		.type	DCD_EP_SetAddress, %function
 755              	DCD_EP_SetAddress:
 756              	.LFB118:
 364:inc/user_libs/usb_dcd.c **** 
 365:inc/user_libs/usb_dcd.c **** 
 366:inc/user_libs/usb_dcd.c **** /**
 367:inc/user_libs/usb_dcd.c **** * @brief  This Function set USB device address
 368:inc/user_libs/usb_dcd.c **** * @param pdev: device instance
 369:inc/user_libs/usb_dcd.c **** * @param address: new device address
 370:inc/user_libs/usb_dcd.c **** * @retval : status
 371:inc/user_libs/usb_dcd.c **** */
 372:inc/user_libs/usb_dcd.c **** void  DCD_EP_SetAddress (USB_OTG_CORE_HANDLE *pdev, uint8_t address)
 373:inc/user_libs/usb_dcd.c **** {
 757              		.loc 1 373 0
 758              		.cfi_startproc
 759              		@ args = 0, pretend = 0, frame = 0
 760              		@ frame_needed = 0, uses_anonymous_args = 0
 761              		@ link register save eliminated.
 762              	.LVL54:
 763              	@ inc/user_libs/usb_dcd.c:377:   USB_OTG_MODIFY_REG32( &pdev->regs.DREGS->DCFG, 0, dcfg.d32);
 374:inc/user_libs/usb_dcd.c ****   USB_OTG_DCFG_TypeDef  dcfg;
 375:inc/user_libs/usb_dcd.c ****   dcfg.d32 = 0;
 376:inc/user_libs/usb_dcd.c ****   dcfg.b.devaddr = address;
 377:inc/user_libs/usb_dcd.c ****   USB_OTG_MODIFY_REG32( &pdev->regs.DREGS->DCFG, 0, dcfg.d32);
 764              		.loc 1 377 0
 765 020e 0269     		ldr	r2, [r0, #16]	@ _2, pdev_10(D)->regs.DREGS
 766              	@ inc/user_libs/usb_dcd.c:375:   dcfg.d32 = 0;
 375:inc/user_libs/usb_dcd.c ****   dcfg.b.devaddr = address;
 767              		.loc 1 375 0
 768 0210 0023     		movs	r3, #0	@ dcfg,
 769              	.LVL55:
 770              	@ inc/user_libs/usb_dcd.c:376:   dcfg.b.devaddr = address;
ARM GAS  /tmp/ccccQJ22.s 			page 22


 376:inc/user_libs/usb_dcd.c ****   USB_OTG_MODIFY_REG32( &pdev->regs.DREGS->DCFG, 0, dcfg.d32);
 771              		.loc 1 376 0
 772 0212 61F30A13 		bfi	r3, r1, #4, #7	@ dcfg, address,,
 773              	.LVL56:
 774              	@ inc/user_libs/usb_dcd.c:377:   USB_OTG_MODIFY_REG32( &pdev->regs.DREGS->DCFG, 0, dcfg.d32);
 775              		.loc 1 377 0
 776 0216 1168     		ldr	r1, [r2]	@ _3, _2->DCFG
 777              	.LVL57:
 778 0218 0B43     		orrs	r3, r3, r1	@, _5, dcfg, _3
 779              	.LVL58:
 780 021a 1360     		str	r3, [r2]	@ _5, _2->DCFG
 781              	@ inc/user_libs/usb_dcd.c:378: }
 378:inc/user_libs/usb_dcd.c **** }
 782              		.loc 1 378 0
 783 021c 7047     		bx	lr	@
 784              		.cfi_endproc
 785              	.LFE118:
 786              		.size	DCD_EP_SetAddress, .-DCD_EP_SetAddress
 787              		.align	1
 788              		.global	DCD_DevConnect
 789              		.syntax unified
 790              		.thumb
 791              		.thumb_func
 792              		.fpu softvfp
 793              		.type	DCD_DevConnect, %function
 794              	DCD_DevConnect:
 795              	.LFB119:
 379:inc/user_libs/usb_dcd.c **** 
 380:inc/user_libs/usb_dcd.c **** /**
 381:inc/user_libs/usb_dcd.c **** * @brief  Connect device (enable internal pull-up)
 382:inc/user_libs/usb_dcd.c **** * @param pdev: device instance
 383:inc/user_libs/usb_dcd.c **** * @retval : None
 384:inc/user_libs/usb_dcd.c **** */
 385:inc/user_libs/usb_dcd.c **** void  DCD_DevConnect (USB_OTG_CORE_HANDLE *pdev)
 386:inc/user_libs/usb_dcd.c **** {
 796              		.loc 1 386 0
 797              		.cfi_startproc
 798              		@ args = 0, pretend = 0, frame = 0
 799              		@ frame_needed = 0, uses_anonymous_args = 0
 800              		@ link register save eliminated.
 801              	.LVL59:
 802              	@ inc/user_libs/usb_dcd.c:389:   dctl.d32 = USB_OTG_READ_REG32(&pdev->regs.DREGS->DCTL);
 387:inc/user_libs/usb_dcd.c **** #ifndef USE_OTG_MODE
 388:inc/user_libs/usb_dcd.c ****   USB_OTG_DCTL_TypeDef  dctl;
 389:inc/user_libs/usb_dcd.c ****   dctl.d32 = USB_OTG_READ_REG32(&pdev->regs.DREGS->DCTL);
 803              		.loc 1 389 0
 804 021e 0269     		ldr	r2, [r0, #16]	@ _1, pdev_5(D)->regs.DREGS
 805 0220 5368     		ldr	r3, [r2, #4]	@ _2, _1->DCTL
 806              	@ inc/user_libs/usb_dcd.c:391:   dctl.b.sftdiscon  = 0;
 390:inc/user_libs/usb_dcd.c ****   /* Connect device */
 391:inc/user_libs/usb_dcd.c ****   dctl.b.sftdiscon  = 0;
 807              		.loc 1 391 0
 808 0222 6FF34103 		bfc	r3, #1, #1	@ dctl,,
 809              	.LVL60:
 810              	@ inc/user_libs/usb_dcd.c:392:   USB_OTG_WRITE_REG32(&pdev->regs.DREGS->DCTL, dctl.d32);
 392:inc/user_libs/usb_dcd.c ****   USB_OTG_WRITE_REG32(&pdev->regs.DREGS->DCTL, dctl.d32);
 811              		.loc 1 392 0
ARM GAS  /tmp/ccccQJ22.s 			page 23


 812 0226 5360     		str	r3, [r2, #4]	@ dctl, _1->DCTL
 813              	@ inc/user_libs/usb_dcd.c:393:   USB_OTG_BSP_mDelay(3);
 393:inc/user_libs/usb_dcd.c ****   USB_OTG_BSP_mDelay(3);
 814              		.loc 1 393 0
 815 0228 0320     		movs	r0, #3	@,
 816              	.LVL61:
 817 022a FFF7FEBF 		b	USB_OTG_BSP_mDelay	@
 818              	.LVL62:
 819              		.cfi_endproc
 820              	.LFE119:
 821              		.size	DCD_DevConnect, .-DCD_DevConnect
 822              		.align	1
 823              		.global	DCD_DevDisconnect
 824              		.syntax unified
 825              		.thumb
 826              		.thumb_func
 827              		.fpu softvfp
 828              		.type	DCD_DevDisconnect, %function
 829              	DCD_DevDisconnect:
 830              	.LFB120:
 394:inc/user_libs/usb_dcd.c **** #endif
 395:inc/user_libs/usb_dcd.c **** }
 396:inc/user_libs/usb_dcd.c **** 
 397:inc/user_libs/usb_dcd.c **** 
 398:inc/user_libs/usb_dcd.c **** /**
 399:inc/user_libs/usb_dcd.c **** * @brief  Disconnect device (disable internal pull-up)
 400:inc/user_libs/usb_dcd.c **** * @param pdev: device instance
 401:inc/user_libs/usb_dcd.c **** * @retval : None
 402:inc/user_libs/usb_dcd.c **** */
 403:inc/user_libs/usb_dcd.c **** void  DCD_DevDisconnect (USB_OTG_CORE_HANDLE *pdev)
 404:inc/user_libs/usb_dcd.c **** {
 831              		.loc 1 404 0
 832              		.cfi_startproc
 833              		@ args = 0, pretend = 0, frame = 0
 834              		@ frame_needed = 0, uses_anonymous_args = 0
 835              		@ link register save eliminated.
 836              	.LVL63:
 837              	@ inc/user_libs/usb_dcd.c:407:   dctl.d32 = USB_OTG_READ_REG32(&pdev->regs.DREGS->DCTL);
 405:inc/user_libs/usb_dcd.c **** #ifndef USE_OTG_MODE
 406:inc/user_libs/usb_dcd.c ****   USB_OTG_DCTL_TypeDef  dctl;
 407:inc/user_libs/usb_dcd.c ****   dctl.d32 = USB_OTG_READ_REG32(&pdev->regs.DREGS->DCTL);
 838              		.loc 1 407 0
 839 022e 0269     		ldr	r2, [r0, #16]	@ _1, pdev_5(D)->regs.DREGS
 840 0230 5368     		ldr	r3, [r2, #4]	@ _2, _1->DCTL
 841              	@ inc/user_libs/usb_dcd.c:409:   dctl.b.sftdiscon  = 1;
 408:inc/user_libs/usb_dcd.c ****   /* Disconnect device for 3ms */
 409:inc/user_libs/usb_dcd.c ****   dctl.b.sftdiscon  = 1;
 842              		.loc 1 409 0
 843 0232 43F00203 		orr	r3, r3, #2	@ dctl, _2,
 844              	.LVL64:
 845              	@ inc/user_libs/usb_dcd.c:410:   USB_OTG_WRITE_REG32(&pdev->regs.DREGS->DCTL, dctl.d32);
 410:inc/user_libs/usb_dcd.c ****   USB_OTG_WRITE_REG32(&pdev->regs.DREGS->DCTL, dctl.d32);
 846              		.loc 1 410 0
 847 0236 5360     		str	r3, [r2, #4]	@ dctl, _1->DCTL
 848              	@ inc/user_libs/usb_dcd.c:411:   USB_OTG_BSP_mDelay(3);
 411:inc/user_libs/usb_dcd.c ****   USB_OTG_BSP_mDelay(3);
 849              		.loc 1 411 0
ARM GAS  /tmp/ccccQJ22.s 			page 24


 850 0238 0320     		movs	r0, #3	@,
 851              	.LVL65:
 852 023a FFF7FEBF 		b	USB_OTG_BSP_mDelay	@
 853              	.LVL66:
 854              		.cfi_endproc
 855              	.LFE120:
 856              		.size	DCD_DevDisconnect, .-DCD_DevDisconnect
 857              		.align	1
 858              		.global	DCD_GetEPStatus
 859              		.syntax unified
 860              		.thumb
 861              		.thumb_func
 862              		.fpu softvfp
 863              		.type	DCD_GetEPStatus, %function
 864              	DCD_GetEPStatus:
 865              	.LFB121:
 412:inc/user_libs/usb_dcd.c **** #endif
 413:inc/user_libs/usb_dcd.c **** }
 414:inc/user_libs/usb_dcd.c **** 
 415:inc/user_libs/usb_dcd.c **** 
 416:inc/user_libs/usb_dcd.c **** /**
 417:inc/user_libs/usb_dcd.c **** * @brief  returns the EP Status
 418:inc/user_libs/usb_dcd.c **** * @param  pdev : Selected device
 419:inc/user_libs/usb_dcd.c **** *         epnum : endpoint address
 420:inc/user_libs/usb_dcd.c **** * @retval : EP status
 421:inc/user_libs/usb_dcd.c **** */
 422:inc/user_libs/usb_dcd.c **** 
 423:inc/user_libs/usb_dcd.c **** uint32_t DCD_GetEPStatus(USB_OTG_CORE_HANDLE *pdev ,uint8_t epnum)
 424:inc/user_libs/usb_dcd.c **** {
 866              		.loc 1 424 0
 867              		.cfi_startproc
 868              		@ args = 0, pretend = 0, frame = 0
 869              		@ frame_needed = 0, uses_anonymous_args = 0
 870              		@ link register save eliminated.
 871              	.LVL67:
 872              	@ inc/user_libs/usb_dcd.c:428:   if ((0x80 & epnum) == 0x80)
 425:inc/user_libs/usb_dcd.c ****   USB_OTG_EP *ep;
 426:inc/user_libs/usb_dcd.c ****   uint32_t Status = 0;  
 427:inc/user_libs/usb_dcd.c ****   
 428:inc/user_libs/usb_dcd.c ****   if ((0x80 & epnum) == 0x80)
 873              		.loc 1 428 0
 874 023e 11F0800F 		tst	r1, #128	@ epnum,
 875 0242 4FF02803 		mov	r3, #40	@ tmp134,
 876              	@ inc/user_libs/usb_dcd.c:430:     ep = &pdev->dev.in_ep[epnum & 0x7F];    
 429:inc/user_libs/usb_dcd.c ****   {
 430:inc/user_libs/usb_dcd.c ****     ep = &pdev->dev.in_ep[epnum & 0x7F];    
 877              		.loc 1 430 0
 878 0246 1BBF     		ittet	ne
 879 0248 01F07F01 		andne	r1, r1, #127	@ tmp125, epnum,
 880              	.LVL68:
 881 024c 03FB0101 		mlane	r1, r3, r1, r0	@ tmp126, tmp134, tmp125, pdev
 882              	@ inc/user_libs/usb_dcd.c:434:     ep = &pdev->dev.out_ep[epnum];
 431:inc/user_libs/usb_dcd.c ****   }
 432:inc/user_libs/usb_dcd.c ****   else
 433:inc/user_libs/usb_dcd.c ****   {
 434:inc/user_libs/usb_dcd.c ****     ep = &pdev->dev.out_ep[epnum];
 883              		.loc 1 434 0
ARM GAS  /tmp/ccccQJ22.s 			page 25


 884 0250 03FB0101 		mlaeq	r1, r3, r1, r0	@ tmp130, tmp134, epnum, pdev
 885              	@ inc/user_libs/usb_dcd.c:430:     ep = &pdev->dev.in_ep[epnum & 0x7F];    
 430:inc/user_libs/usb_dcd.c ****   }
 886              		.loc 1 430 0
 887 0254 01F58E71 		addne	r1, r1, #284	@ ep, tmp126,
 888              	@ inc/user_libs/usb_dcd.c:434:     ep = &pdev->dev.out_ep[epnum];
 889              		.loc 1 434 0
 890 0258 08BF     		it	eq
 891 025a 01F55D71 		addeq	r1, r1, #884	@ ep, tmp130,
 892              	.LVL69:
 893              	@ inc/user_libs/usb_dcd.c:437:   Status = USB_OTG_GetEPStatus(pdev ,ep);
 435:inc/user_libs/usb_dcd.c ****   }
 436:inc/user_libs/usb_dcd.c ****   
 437:inc/user_libs/usb_dcd.c ****   Status = USB_OTG_GetEPStatus(pdev ,ep);
 894              		.loc 1 437 0
 895 025e FFF7FEBF 		b	USB_OTG_GetEPStatus	@
 896              	.LVL70:
 897              		.cfi_endproc
 898              	.LFE121:
 899              		.size	DCD_GetEPStatus, .-DCD_GetEPStatus
 900              		.align	1
 901              		.global	DCD_SetEPStatus
 902              		.syntax unified
 903              		.thumb
 904              		.thumb_func
 905              		.fpu softvfp
 906              		.type	DCD_SetEPStatus, %function
 907              	DCD_SetEPStatus:
 908              	.LFB122:
 438:inc/user_libs/usb_dcd.c **** 
 439:inc/user_libs/usb_dcd.c ****   /* Return the current status */
 440:inc/user_libs/usb_dcd.c ****   return Status;
 441:inc/user_libs/usb_dcd.c **** }
 442:inc/user_libs/usb_dcd.c **** 
 443:inc/user_libs/usb_dcd.c **** /**
 444:inc/user_libs/usb_dcd.c **** * @brief  Set the EP Status
 445:inc/user_libs/usb_dcd.c **** * @param  pdev : Selected device
 446:inc/user_libs/usb_dcd.c **** *         Status : new Status
 447:inc/user_libs/usb_dcd.c **** *         epnum : EP address
 448:inc/user_libs/usb_dcd.c **** * @retval : None
 449:inc/user_libs/usb_dcd.c **** */
 450:inc/user_libs/usb_dcd.c **** void DCD_SetEPStatus (USB_OTG_CORE_HANDLE *pdev , uint8_t epnum , uint32_t Status)
 451:inc/user_libs/usb_dcd.c **** {
 909              		.loc 1 451 0
 910              		.cfi_startproc
 911              		@ args = 0, pretend = 0, frame = 0
 912              		@ frame_needed = 0, uses_anonymous_args = 0
 913              		@ link register save eliminated.
 914              	.LVL71:
 915              	@ inc/user_libs/usb_dcd.c:454:   if ((0x80 & epnum) == 0x80)
 452:inc/user_libs/usb_dcd.c ****   USB_OTG_EP *ep;
 453:inc/user_libs/usb_dcd.c ****   
 454:inc/user_libs/usb_dcd.c ****   if ((0x80 & epnum) == 0x80)
 916              		.loc 1 454 0
 917 0262 11F0800F 		tst	r1, #128	@ epnum,
 918 0266 4FF02803 		mov	r3, #40	@ tmp134,
 919              	@ inc/user_libs/usb_dcd.c:456:     ep = &pdev->dev.in_ep[epnum & 0x7F];    
ARM GAS  /tmp/ccccQJ22.s 			page 26


 455:inc/user_libs/usb_dcd.c ****   {
 456:inc/user_libs/usb_dcd.c ****     ep = &pdev->dev.in_ep[epnum & 0x7F];    
 920              		.loc 1 456 0
 921 026a 1BBF     		ittet	ne
 922 026c 01F07F01 		andne	r1, r1, #127	@ tmp125, epnum,
 923              	.LVL72:
 924 0270 03FB0101 		mlane	r1, r3, r1, r0	@ tmp126, tmp134, tmp125, pdev
 925              	@ inc/user_libs/usb_dcd.c:460:     ep = &pdev->dev.out_ep[epnum];
 457:inc/user_libs/usb_dcd.c ****   }
 458:inc/user_libs/usb_dcd.c ****   else
 459:inc/user_libs/usb_dcd.c ****   {
 460:inc/user_libs/usb_dcd.c ****     ep = &pdev->dev.out_ep[epnum];
 926              		.loc 1 460 0
 927 0274 03FB0101 		mlaeq	r1, r3, r1, r0	@ tmp130, tmp134, epnum, pdev
 928              	@ inc/user_libs/usb_dcd.c:456:     ep = &pdev->dev.in_ep[epnum & 0x7F];    
 456:inc/user_libs/usb_dcd.c ****   }
 929              		.loc 1 456 0
 930 0278 01F58E71 		addne	r1, r1, #284	@ ep, tmp126,
 931              	@ inc/user_libs/usb_dcd.c:460:     ep = &pdev->dev.out_ep[epnum];
 932              		.loc 1 460 0
 933 027c 08BF     		it	eq
 934 027e 01F55D71 		addeq	r1, r1, #884	@ ep, tmp130,
 935              	.LVL73:
 936              	@ inc/user_libs/usb_dcd.c:463:    USB_OTG_SetEPStatus(pdev ,ep , Status);
 461:inc/user_libs/usb_dcd.c ****   }
 462:inc/user_libs/usb_dcd.c ****   
 463:inc/user_libs/usb_dcd.c ****    USB_OTG_SetEPStatus(pdev ,ep , Status);
 937              		.loc 1 463 0
 938 0282 FFF7FEBF 		b	USB_OTG_SetEPStatus	@
 939              	.LVL74:
 940              		.cfi_endproc
 941              	.LFE122:
 942              		.size	DCD_SetEPStatus, .-DCD_SetEPStatus
 943              	.Letext0:
 944              		.file 2 "/home/sticky/opt/gcc-arm-none-eabi-7-2017-q4-major/arm-none-eabi/include/machine/_default
 945              		.file 3 "/home/sticky/opt/gcc-arm-none-eabi-7-2017-q4-major/arm-none-eabi/include/sys/_stdint.h"
 946              		.file 4 "./inc/CMSIS/core_cm4.h"
 947              		.file 5 "./inc/system_stm32f4xx.h"
 948              		.file 6 "inc/user_libs/usb_regs.h"
 949              		.file 7 "inc/user_libs/usb_defines.h"
 950              		.file 8 "inc/user_libs/usb_core.h"
 951              		.file 9 "inc/user_libs/usb_bsp.h"