ARM GAS  /tmp/ccQkqy1T.s 			page 1


   1              		.cpu cortex-m4
   2              		.eabi_attribute 20, 1	@ Tag_ABI_FP_denormal
   3              		.eabi_attribute 21, 1	@ Tag_ABI_FP_exceptions
   4              		.eabi_attribute 23, 3	@ Tag_ABI_FP_number_model
   5              		.eabi_attribute 24, 1	@ Tag_ABI_align8_needed
   6              		.eabi_attribute 25, 1	@ Tag_ABI_align8_preserved
   7              		.eabi_attribute 26, 1	@ Tag_ABI_enum_size
   8              		.eabi_attribute 30, 4	@ Tag_ABI_optimization_goals
   9              		.eabi_attribute 34, 1	@ Tag_CPU_unaligned_access
  10              		.eabi_attribute 18, 4	@ Tag_ABI_PCS_wchar_t
  11              		.file	"usb_core.c"
  12              	@ GNU C11 (GNU Tools for Arm Embedded Processors 7-2017-q4-major) version 7.2.1 20170904 (release) 
  13              	@	compiled by GNU C version 4.8.4, GMP version 6.1.0, MPFR version 3.1.4, MPC version 1.0.3, isl ve
  14              	
  15              	@ GGC heuristics: --param ggc-min-expand=100 --param ggc-min-heapsize=131072
  16              	@ options passed:  -I . -I ./inc -I ./inc/CMSIS
  17              	@ -I STM32F4xx_StdPeriph_Driver/inc -I ./inc/user_libs
  18              	@ -imultilib thumb/v7e-m
  19              	@ -iprefix /home/sticky/opt/gcc-arm-none-eabi-7-2017-q4-major/bin/../lib/gcc/arm-none-eabi/7.2.1/
  20              	@ -isysroot /home/sticky/opt/gcc-arm-none-eabi-7-2017-q4-major/bin/../arm-none-eabi
  21              	@ -D__USES_INITFINI__ -D STM32F40XX -D USE_STDPERIPH_DRIVER
  22              	@ -D RUN_FROM_FLASH=1 inc/user_libs/usb_core.c -mcpu=cortex-m4 -mthumb
  23              	@ -auxbase-strip inc/user_libs/usb_core.o -g -gdwarf-2 -Os -Wall
  24              	@ -Wstrict-prototypes -fomit-frame-pointer -fverbose-asm
  25              	@ options enabled:  -faggressive-loop-optimizations -falign-jumps
  26              	@ -falign-labels -falign-loops -fauto-inc-dec -fbranch-count-reg
  27              	@ -fcaller-saves -fchkp-check-incomplete-type -fchkp-check-read
  28              	@ -fchkp-check-write -fchkp-instrument-calls -fchkp-narrow-bounds
  29              	@ -fchkp-optimize -fchkp-store-bounds -fchkp-use-static-bounds
  30              	@ -fchkp-use-static-const-bounds -fchkp-use-wrappers -fcode-hoisting
  31              	@ -fcombine-stack-adjustments -fcommon -fcompare-elim -fcprop-registers
  32              	@ -fcrossjumping -fcse-follow-jumps -fdefer-pop
  33              	@ -fdelete-null-pointer-checks -fdevirtualize -fdevirtualize-speculatively
  34              	@ -fdwarf2-cfi-asm -fearly-inlining -feliminate-unused-debug-types
  35              	@ -fexpensive-optimizations -fforward-propagate -ffp-int-builtin-inexact
  36              	@ -ffunction-cse -fgcse -fgcse-lm -fgnu-runtime -fgnu-unique
  37              	@ -fguess-branch-probability -fhoist-adjacent-loads -fident -fif-conversion
  38              	@ -fif-conversion2 -findirect-inlining -finline -finline-atomics
  39              	@ -finline-functions -finline-functions-called-once
  40              	@ -finline-small-functions -fipa-bit-cp -fipa-cp -fipa-icf
  41              	@ -fipa-icf-functions -fipa-icf-variables -fipa-profile -fipa-pure-const
  42              	@ -fipa-ra -fipa-reference -fipa-sra -fipa-vrp -fira-hoist-pressure
  43              	@ -fira-share-save-slots -fira-share-spill-slots
  44              	@ -fisolate-erroneous-paths-dereference -fivopts -fkeep-static-consts
  45              	@ -fleading-underscore -flifetime-dse -flra-remat -flto-odr-type-merging
  46              	@ -fmath-errno -fmerge-constants -fmerge-debug-strings
  47              	@ -fmove-loop-invariants -fomit-frame-pointer -foptimize-sibling-calls
  48              	@ -fpartial-inlining -fpeephole -fpeephole2 -fplt -fprefetch-loop-arrays
  49              	@ -freg-struct-return -freorder-blocks -freorder-functions
  50              	@ -frerun-cse-after-loop -fsched-critical-path-heuristic
  51              	@ -fsched-dep-count-heuristic -fsched-group-heuristic -fsched-interblock
  52              	@ -fsched-last-insn-heuristic -fsched-pressure -fsched-rank-heuristic
  53              	@ -fsched-spec -fsched-spec-insn-heuristic -fsched-stalled-insns-dep
  54              	@ -fschedule-insns2 -fsection-anchors -fsemantic-interposition
  55              	@ -fshow-column -fshrink-wrap-separate -fsigned-zeros
  56              	@ -fsplit-ivs-in-unroller -fsplit-wide-types -fssa-backprop -fssa-phiopt
  57              	@ -fstdarg-opt -fstore-merging -fstrict-aliasing -fstrict-overflow
ARM GAS  /tmp/ccQkqy1T.s 			page 2


  58              	@ -fstrict-volatile-bitfields -fsync-libcalls -fthread-jumps
  59              	@ -ftoplevel-reorder -ftrapping-math -ftree-bit-ccp -ftree-builtin-call-dce
  60              	@ -ftree-ccp -ftree-ch -ftree-coalesce-vars -ftree-copy-prop -ftree-cselim
  61              	@ -ftree-dce -ftree-dominator-opts -ftree-dse -ftree-forwprop -ftree-fre
  62              	@ -ftree-loop-if-convert -ftree-loop-im -ftree-loop-ivcanon
  63              	@ -ftree-loop-optimize -ftree-parallelize-loops= -ftree-phiprop -ftree-pre
  64              	@ -ftree-pta -ftree-reassoc -ftree-scev-cprop -ftree-sink -ftree-slsr
  65              	@ -ftree-sra -ftree-switch-conversion -ftree-tail-merge -ftree-ter
  66              	@ -ftree-vrp -funit-at-a-time -fvar-tracking -fvar-tracking-assignments
  67              	@ -fverbose-asm -fzero-initialized-in-bss -masm-syntax-unified
  68              	@ -mlittle-endian -mpic-data-is-text-relative -msched-prolog -mthumb
  69              	@ -munaligned-access -mvectorize-with-neon-quad
  70              	
  71              		.text
  72              	.Ltext0:
  73              		.cfi_sections	.debug_frame
  74              		.align	1
  75              		.syntax unified
  76              		.thumb
  77              		.thumb_func
  78              		.fpu softvfp
  79              		.type	USB_OTG_CoreReset.isra.1, %function
  80              	USB_OTG_CoreReset.isra.1:
  81              	.LFB147:
  82              		.file 1 "inc/user_libs/usb_core.c"
   1:inc/user_libs/usb_core.c **** /**
   2:inc/user_libs/usb_core.c ****   ******************************************************************************
   3:inc/user_libs/usb_core.c ****   * @file    usb_core.c
   4:inc/user_libs/usb_core.c ****   * @author  MCD Application Team
   5:inc/user_libs/usb_core.c ****   * @version V2.1.0
   6:inc/user_libs/usb_core.c ****   * @date    19-March-2012
   7:inc/user_libs/usb_core.c ****   * @brief   USB-OTG Core Layer
   8:inc/user_libs/usb_core.c ****   ******************************************************************************
   9:inc/user_libs/usb_core.c ****   * @attention
  10:inc/user_libs/usb_core.c ****   *
  11:inc/user_libs/usb_core.c ****   * <h2><center>&copy; COPYRIGHT 2012 STMicroelectronics</center></h2>
  12:inc/user_libs/usb_core.c ****   *
  13:inc/user_libs/usb_core.c ****   * Licensed under MCD-ST Liberty SW License Agreement V2, (the "License");
  14:inc/user_libs/usb_core.c ****   * You may not use this file except in compliance with the License.
  15:inc/user_libs/usb_core.c ****   * You may obtain a copy of the License at:
  16:inc/user_libs/usb_core.c ****   *
  17:inc/user_libs/usb_core.c ****   *        http://www.st.com/software_license_agreement_liberty_v2
  18:inc/user_libs/usb_core.c ****   *
  19:inc/user_libs/usb_core.c ****   * Unless required by applicable law or agreed to in writing, software 
  20:inc/user_libs/usb_core.c ****   * distributed under the License is distributed on an "AS IS" BASIS, 
  21:inc/user_libs/usb_core.c ****   * WITHOUT WARRANTIES OR CONDITIONS OF ANY KIND, either express or implied.
  22:inc/user_libs/usb_core.c ****   * See the License for the specific language governing permissions and
  23:inc/user_libs/usb_core.c ****   * limitations under the License.
  24:inc/user_libs/usb_core.c ****   *
  25:inc/user_libs/usb_core.c ****   ******************************************************************************
  26:inc/user_libs/usb_core.c ****   */
  27:inc/user_libs/usb_core.c **** 
  28:inc/user_libs/usb_core.c **** /* Includes ------------------------------------------------------------------*/
  29:inc/user_libs/usb_core.c **** #include "usb_core.h"
  30:inc/user_libs/usb_core.c **** #include "usb_bsp.h"
  31:inc/user_libs/usb_core.c **** 
  32:inc/user_libs/usb_core.c **** 
ARM GAS  /tmp/ccQkqy1T.s 			page 3


  33:inc/user_libs/usb_core.c **** /** @addtogroup USB_OTG_DRIVER
  34:inc/user_libs/usb_core.c **** * @{
  35:inc/user_libs/usb_core.c **** */
  36:inc/user_libs/usb_core.c **** 
  37:inc/user_libs/usb_core.c **** /** @defgroup USB_CORE 
  38:inc/user_libs/usb_core.c **** * @brief This file includes the USB-OTG Core Layer
  39:inc/user_libs/usb_core.c **** * @{
  40:inc/user_libs/usb_core.c **** */
  41:inc/user_libs/usb_core.c **** 
  42:inc/user_libs/usb_core.c **** 
  43:inc/user_libs/usb_core.c **** /** @defgroup USB_CORE_Private_Defines
  44:inc/user_libs/usb_core.c **** * @{
  45:inc/user_libs/usb_core.c **** */ 
  46:inc/user_libs/usb_core.c **** 
  47:inc/user_libs/usb_core.c **** /**
  48:inc/user_libs/usb_core.c **** * @}
  49:inc/user_libs/usb_core.c **** */ 
  50:inc/user_libs/usb_core.c **** 
  51:inc/user_libs/usb_core.c **** 
  52:inc/user_libs/usb_core.c **** /** @defgroup USB_CORE_Private_TypesDefinitions
  53:inc/user_libs/usb_core.c **** * @{
  54:inc/user_libs/usb_core.c **** */ 
  55:inc/user_libs/usb_core.c **** /**
  56:inc/user_libs/usb_core.c **** * @}
  57:inc/user_libs/usb_core.c **** */ 
  58:inc/user_libs/usb_core.c **** 
  59:inc/user_libs/usb_core.c **** 
  60:inc/user_libs/usb_core.c **** 
  61:inc/user_libs/usb_core.c **** /** @defgroup USB_CORE_Private_Macros
  62:inc/user_libs/usb_core.c **** * @{
  63:inc/user_libs/usb_core.c **** */ 
  64:inc/user_libs/usb_core.c **** /**
  65:inc/user_libs/usb_core.c **** * @}
  66:inc/user_libs/usb_core.c **** */ 
  67:inc/user_libs/usb_core.c **** 
  68:inc/user_libs/usb_core.c **** 
  69:inc/user_libs/usb_core.c **** /** @defgroup USB_CORE_Private_Variables
  70:inc/user_libs/usb_core.c **** * @{
  71:inc/user_libs/usb_core.c **** */ 
  72:inc/user_libs/usb_core.c **** /**
  73:inc/user_libs/usb_core.c **** * @}
  74:inc/user_libs/usb_core.c **** */ 
  75:inc/user_libs/usb_core.c **** 
  76:inc/user_libs/usb_core.c **** 
  77:inc/user_libs/usb_core.c **** /** @defgroup USB_CORE_Private_FunctionPrototypes
  78:inc/user_libs/usb_core.c **** * @{
  79:inc/user_libs/usb_core.c **** */ 
  80:inc/user_libs/usb_core.c **** /**
  81:inc/user_libs/usb_core.c **** * @}
  82:inc/user_libs/usb_core.c **** */ 
  83:inc/user_libs/usb_core.c **** 
  84:inc/user_libs/usb_core.c **** 
  85:inc/user_libs/usb_core.c **** /** @defgroup USB_CORE_Private_Functions
  86:inc/user_libs/usb_core.c **** * @{
  87:inc/user_libs/usb_core.c **** */ 
  88:inc/user_libs/usb_core.c **** 
  89:inc/user_libs/usb_core.c **** /**
ARM GAS  /tmp/ccQkqy1T.s 			page 4


  90:inc/user_libs/usb_core.c **** * @brief  USB_OTG_EnableCommonInt
  91:inc/user_libs/usb_core.c **** *         Initializes the commmon interrupts, used in both device and modes
  92:inc/user_libs/usb_core.c **** * @param  pdev : Selected device
  93:inc/user_libs/usb_core.c **** * @retval None
  94:inc/user_libs/usb_core.c **** */
  95:inc/user_libs/usb_core.c **** static void USB_OTG_EnableCommonInt(USB_OTG_CORE_HANDLE *pdev)
  96:inc/user_libs/usb_core.c **** {
  97:inc/user_libs/usb_core.c ****   USB_OTG_GINTMSK_TypeDef  int_mask;
  98:inc/user_libs/usb_core.c ****   
  99:inc/user_libs/usb_core.c ****   int_mask.d32 = 0;
 100:inc/user_libs/usb_core.c ****   /* Clear any pending USB_OTG Interrupts */
 101:inc/user_libs/usb_core.c **** #ifndef USE_OTG_MODE
 102:inc/user_libs/usb_core.c ****   USB_OTG_WRITE_REG32( &pdev->regs.GREGS->GOTGINT, 0xFFFFFFFF);
 103:inc/user_libs/usb_core.c **** #endif
 104:inc/user_libs/usb_core.c ****   /* Clear any pending interrupts */
 105:inc/user_libs/usb_core.c ****   USB_OTG_WRITE_REG32( &pdev->regs.GREGS->GINTSTS, 0xBFFFFFFF);
 106:inc/user_libs/usb_core.c ****   /* Enable the interrupts in the INTMSK */
 107:inc/user_libs/usb_core.c ****   int_mask.b.wkupintr = 1;
 108:inc/user_libs/usb_core.c ****   int_mask.b.usbsuspend = 1; 
 109:inc/user_libs/usb_core.c ****   
 110:inc/user_libs/usb_core.c **** #ifdef USE_OTG_MODE
 111:inc/user_libs/usb_core.c ****   int_mask.b.otgintr = 1;
 112:inc/user_libs/usb_core.c ****   int_mask.b.sessreqintr = 1;
 113:inc/user_libs/usb_core.c ****   int_mask.b.conidstschng = 1;
 114:inc/user_libs/usb_core.c **** #endif
 115:inc/user_libs/usb_core.c ****   USB_OTG_WRITE_REG32( &pdev->regs.GREGS->GINTMSK, int_mask.d32);
 116:inc/user_libs/usb_core.c **** }
 117:inc/user_libs/usb_core.c **** 
 118:inc/user_libs/usb_core.c **** /**
 119:inc/user_libs/usb_core.c **** * @brief  USB_OTG_CoreReset : Soft reset of the core
 120:inc/user_libs/usb_core.c **** * @param  pdev : Selected device
 121:inc/user_libs/usb_core.c **** * @retval USB_OTG_STS : status
 122:inc/user_libs/usb_core.c **** */
 123:inc/user_libs/usb_core.c **** static USB_OTG_STS USB_OTG_CoreReset(USB_OTG_CORE_HANDLE *pdev)
  83              		.loc 1 123 0
  84              		.cfi_startproc
  85              		@ args = 0, pretend = 0, frame = 8
  86              		@ frame_needed = 0, uses_anonymous_args = 0
  87              	.LVL0:
  88 0000 37B5     		push	{r0, r1, r2, r4, r5, lr}	@
  89              	.LCFI0:
  90              		.cfi_def_cfa_offset 24
  91              		.cfi_offset 4, -12
  92              		.cfi_offset 5, -8
  93              		.cfi_offset 14, -4
  94              	@ inc/user_libs/usb_core.c:129:   greset.d32 = 0;
 124:inc/user_libs/usb_core.c **** {
 125:inc/user_libs/usb_core.c ****   USB_OTG_STS status = USB_OTG_OK;
 126:inc/user_libs/usb_core.c ****   __IO USB_OTG_GRSTCTL_TypeDef  greset;
 127:inc/user_libs/usb_core.c ****   uint32_t count = 0;
 128:inc/user_libs/usb_core.c ****   
 129:inc/user_libs/usb_core.c ****   greset.d32 = 0;
  95              		.loc 1 129 0
  96 0002 0023     		movs	r3, #0	@ tmp121,
  97 0004 104C     		ldr	r4, .L17	@ ivtmp_25,
  98 0006 0193     		str	r3, [sp, #4]	@ tmp121, greset.d32
  99              	@ inc/user_libs/usb_core.c:123: static USB_OTG_STS USB_OTG_CoreReset(USB_OTG_CORE_HANDLE *pdev)
ARM GAS  /tmp/ccQkqy1T.s 			page 5


 123:inc/user_libs/usb_core.c **** {
 100              		.loc 1 123 0
 101 0008 0546     		mov	r5, r0	@ ISRA.4, ISRA.4
 102              	.LVL1:
 103              	.L3:
 104              	@ inc/user_libs/usb_core.c:133:     USB_OTG_BSP_uDelay(3);
 130:inc/user_libs/usb_core.c ****   /* Wait for AHB master IDLE state. */
 131:inc/user_libs/usb_core.c ****   do
 132:inc/user_libs/usb_core.c ****   {
 133:inc/user_libs/usb_core.c ****     USB_OTG_BSP_uDelay(3);
 105              		.loc 1 133 0
 106 000a 0320     		movs	r0, #3	@,
 107 000c FFF7FEFF 		bl	USB_OTG_BSP_uDelay	@
 108              	.LVL2:
 109              	@ inc/user_libs/usb_core.c:134:     greset.d32 = USB_OTG_READ_REG32(&pdev->regs.GREGS->GRSTCTL);
 134:inc/user_libs/usb_core.c ****     greset.d32 = USB_OTG_READ_REG32(&pdev->regs.GREGS->GRSTCTL);
 110              		.loc 1 134 0
 111 0010 2B68     		ldr	r3, [r5]	@ _2, *ISRA.4_24(D)
 112              	@ inc/user_libs/usb_core.c:135:     if (++count > 200000)
 135:inc/user_libs/usb_core.c ****     if (++count > 200000)
 113              		.loc 1 135 0
 114 0012 013C     		subs	r4, r4, #1	@ ivtmp_25, ivtmp_25,
 115              	.LVL3:
 116              	@ inc/user_libs/usb_core.c:134:     greset.d32 = USB_OTG_READ_REG32(&pdev->regs.GREGS->GRSTCTL);
 134:inc/user_libs/usb_core.c ****     greset.d32 = USB_OTG_READ_REG32(&pdev->regs.GREGS->GRSTCTL);
 117              		.loc 1 134 0
 118 0014 1A69     		ldr	r2, [r3, #16]	@ _3, _2->GRSTCTL
 119 0016 0192     		str	r2, [sp, #4]	@ _3, greset.d32
 120              	.LVL4:
 121              	@ inc/user_libs/usb_core.c:135:     if (++count > 200000)
 122              		.loc 1 135 0
 123 0018 13D0     		beq	.L2	@,
 124              	.LVL5:
 125              	@ inc/user_libs/usb_core.c:140:   while (greset.b.ahbidle == 0);
 136:inc/user_libs/usb_core.c ****     {
 137:inc/user_libs/usb_core.c ****       return USB_OTG_OK;
 138:inc/user_libs/usb_core.c ****     }
 139:inc/user_libs/usb_core.c ****   }
 140:inc/user_libs/usb_core.c ****   while (greset.b.ahbidle == 0);
 126              		.loc 1 140 0
 127 001a 019A     		ldr	r2, [sp, #4]	@ greset, greset
 128 001c 002A     		cmp	r2, #0	@ greset,
 129 001e F4DA     		bge	.L3	@,
 130              	.LVL6:
 131              	@ inc/user_libs/usb_core.c:143:   greset.b.csftrst = 1;
 141:inc/user_libs/usb_core.c ****   /* Core Soft Reset */
 142:inc/user_libs/usb_core.c ****   count = 0;
 143:inc/user_libs/usb_core.c ****   greset.b.csftrst = 1;
 132              		.loc 1 143 0
 133 0020 019A     		ldr	r2, [sp, #4]	@ tmp124,
 134 0022 42F00102 		orr	r2, r2, #1	@ tmp124, tmp124,
 135 0026 0192     		str	r2, [sp, #4]	@ tmp124,
 136              	@ inc/user_libs/usb_core.c:144:   USB_OTG_WRITE_REG32(&pdev->regs.GREGS->GRSTCTL, greset.d32 );
 144:inc/user_libs/usb_core.c ****   USB_OTG_WRITE_REG32(&pdev->regs.GREGS->GRSTCTL, greset.d32 );
 137              		.loc 1 144 0
 138 0028 019A     		ldr	r2, [sp, #4]	@ _7, greset.d32
 139 002a 1A61     		str	r2, [r3, #16]	@ _7, _2->GRSTCTL
ARM GAS  /tmp/ccQkqy1T.s 			page 6


 140 002c 064A     		ldr	r2, .L17	@ ivtmp_27,
 141              	.LVL7:
 142              	.L5:
 143              	@ inc/user_libs/usb_core.c:147:     greset.d32 = USB_OTG_READ_REG32(&pdev->regs.GREGS->GRSTCTL);
 145:inc/user_libs/usb_core.c ****   do
 146:inc/user_libs/usb_core.c ****   {
 147:inc/user_libs/usb_core.c ****     greset.d32 = USB_OTG_READ_REG32(&pdev->regs.GREGS->GRSTCTL);
 144              		.loc 1 147 0
 145 002e 1969     		ldr	r1, [r3, #16]	@ _9, _2->GRSTCTL
 146 0030 0191     		str	r1, [sp, #4]	@ _9, greset.d32
 147              	.LVL8:
 148              	@ inc/user_libs/usb_core.c:148:     if (++count > 200000)
 148:inc/user_libs/usb_core.c ****     if (++count > 200000)
 149              		.loc 1 148 0
 150 0032 013A     		subs	r2, r2, #1	@ ivtmp_27, ivtmp_27,
 151              	.LVL9:
 152 0034 02D0     		beq	.L4	@,
 153              	.LVL10:
 154              	@ inc/user_libs/usb_core.c:153:   while (greset.b.csftrst == 1);
 149:inc/user_libs/usb_core.c ****     {
 150:inc/user_libs/usb_core.c ****       break;
 151:inc/user_libs/usb_core.c ****     }
 152:inc/user_libs/usb_core.c ****   }
 153:inc/user_libs/usb_core.c ****   while (greset.b.csftrst == 1);
 155              		.loc 1 153 0
 156 0036 0199     		ldr	r1, [sp, #4]	@ greset, greset
 157 0038 C907     		lsls	r1, r1, #31	@, greset,
 158 003a F8D4     		bmi	.L5	@,
 159              	.LVL11:
 160              	.L4:
 161              	@ inc/user_libs/usb_core.c:155:   USB_OTG_BSP_uDelay(3);
 154:inc/user_libs/usb_core.c ****   /* Wait for 3 PHY Clocks*/
 155:inc/user_libs/usb_core.c ****   USB_OTG_BSP_uDelay(3);
 162              		.loc 1 155 0
 163 003c 0320     		movs	r0, #3	@,
 164 003e FFF7FEFF 		bl	USB_OTG_BSP_uDelay	@
 165              	.LVL12:
 166              	.L2:
 167              	@ inc/user_libs/usb_core.c:157: }
 156:inc/user_libs/usb_core.c ****   return status;
 157:inc/user_libs/usb_core.c **** }
 168              		.loc 1 157 0
 169 0042 0020     		movs	r0, #0	@,
 170 0044 03B0     		add	sp, sp, #12	@,,
 171              	.LCFI1:
 172              		.cfi_def_cfa_offset 12
 173              		@ sp needed	@
 174 0046 30BD     		pop	{r4, r5, pc}	@
 175              	.L18:
 176              		.align	2
 177              	.L17:
 178 0048 410D0300 		.word	200001
 179              		.cfi_endproc
 180              	.LFE147:
 181              		.size	USB_OTG_CoreReset.isra.1, .-USB_OTG_CoreReset.isra.1
 182              		.align	1
 183              		.global	USB_OTG_WritePacket
ARM GAS  /tmp/ccQkqy1T.s 			page 7


 184              		.syntax unified
 185              		.thumb
 186              		.thumb_func
 187              		.fpu softvfp
 188              		.type	USB_OTG_WritePacket, %function
 189              	USB_OTG_WritePacket:
 190              	.LFB112:
 158:inc/user_libs/usb_core.c **** 
 159:inc/user_libs/usb_core.c **** /**
 160:inc/user_libs/usb_core.c **** * @brief  USB_OTG_WritePacket : Writes a packet into the Tx FIFO associated 
 161:inc/user_libs/usb_core.c **** *         with the EP
 162:inc/user_libs/usb_core.c **** * @param  pdev : Selected device
 163:inc/user_libs/usb_core.c **** * @param  src : source pointer
 164:inc/user_libs/usb_core.c **** * @param  ch_ep_num : end point number
 165:inc/user_libs/usb_core.c **** * @param  bytes : No. of bytes
 166:inc/user_libs/usb_core.c **** * @retval USB_OTG_STS : status
 167:inc/user_libs/usb_core.c **** */
 168:inc/user_libs/usb_core.c **** USB_OTG_STS USB_OTG_WritePacket(USB_OTG_CORE_HANDLE *pdev, 
 169:inc/user_libs/usb_core.c ****                                 uint8_t             *src, 
 170:inc/user_libs/usb_core.c ****                                 uint8_t             ch_ep_num, 
 171:inc/user_libs/usb_core.c ****                                 uint16_t            len)
 172:inc/user_libs/usb_core.c **** {
 191              		.loc 1 172 0
 192              		.cfi_startproc
 193              		@ args = 0, pretend = 0, frame = 0
 194              		@ frame_needed = 0, uses_anonymous_args = 0
 195              	.LVL13:
 196 004c 10B5     		push	{r4, lr}	@
 197              	.LCFI2:
 198              		.cfi_def_cfa_offset 8
 199              		.cfi_offset 4, -8
 200              		.cfi_offset 14, -4
 201              	@ inc/user_libs/usb_core.c:174:   if (pdev->cfg.dma_enable == 0)
 173:inc/user_libs/usb_core.c ****   USB_OTG_STS status = USB_OTG_OK;
 174:inc/user_libs/usb_core.c ****   if (pdev->cfg.dma_enable == 0)
 202              		.loc 1 174 0
 203 004e C478     		ldrb	r4, [r0, #3]	@ zero_extendqisi2	@ pdev_4(D)->cfg.dma_enable, pdev_4(D)->cfg.dma_enable
 204 0050 44B9     		cbnz	r4, .L24	@ pdev_4(D)->cfg.dma_enable,
 205              	.LVL14:
 206              	.LBB11:
 207              	.LBB12:
 208              	.LBB13:
 209              	@ inc/user_libs/usb_core.c:180:     fifo = pdev->regs.DFIFO[ch_ep_num];
 175:inc/user_libs/usb_core.c ****   {
 176:inc/user_libs/usb_core.c ****     uint32_t count32b= 0 , i= 0;
 177:inc/user_libs/usb_core.c ****     __IO uint32_t *fifo;
 178:inc/user_libs/usb_core.c ****     
 179:inc/user_libs/usb_core.c ****     count32b =  (len + 3) / 4;
 180:inc/user_libs/usb_core.c ****     fifo = pdev->regs.DFIFO[ch_ep_num];
 210              		.loc 1 180 0
 211 0052 00EB8200 		add	r0, r0, r2, lsl #2	@ tmp158, pdev, ch_ep_num,
 212              	.LVL15:
 213              	@ inc/user_libs/usb_core.c:179:     count32b =  (len + 3) / 4;
 179:inc/user_libs/usb_core.c ****     fifo = pdev->regs.DFIFO[ch_ep_num];
 214              		.loc 1 179 0
 215 0056 0333     		adds	r3, r3, #3	@ tmp156, len,
 216              	.LVL16:
ARM GAS  /tmp/ccQkqy1T.s 			page 8


 217              	@ inc/user_libs/usb_core.c:180:     fifo = pdev->regs.DFIFO[ch_ep_num];
 218              		.loc 1 180 0
 219 0058 D0F8D000 		ldr	r0, [r0, #208]	@ fifo, pdev_4(D)->regs.DFIFO
 220              	@ inc/user_libs/usb_core.c:179:     count32b =  (len + 3) / 4;
 179:inc/user_libs/usb_core.c ****     fifo = pdev->regs.DFIFO[ch_ep_num];
 221              		.loc 1 179 0
 222 005c 9B10     		asrs	r3, r3, #2	@ count32b, tmp156,
 223              	.LVL17:
 224              	@ inc/user_libs/usb_core.c:181:     for (i = 0; i < count32b; i++, src+=4)
 181:inc/user_libs/usb_core.c ****     for (i = 0; i < count32b; i++, src+=4)
 225              		.loc 1 181 0
 226 005e 2246     		mov	r2, r4	@ i, pdev_4(D)->cfg.dma_enable
 227              	.LVL18:
 228              	.L21:
 229 0060 9342     		cmp	r3, r2	@ count32b, i
 230 0062 01D1     		bne	.L22	@,
 231              	.LVL19:
 232              	.L24:
 233              	.LBE13:
 234              	.LBE12:
 235              	.LBE11:
 236              	@ inc/user_libs/usb_core.c:187: }
 182:inc/user_libs/usb_core.c ****     {
 183:inc/user_libs/usb_core.c ****       USB_OTG_WRITE_REG32( fifo, *((__packed uint32_t *)src) );
 184:inc/user_libs/usb_core.c ****     }
 185:inc/user_libs/usb_core.c ****   }
 186:inc/user_libs/usb_core.c ****   return status;
 187:inc/user_libs/usb_core.c **** }
 237              		.loc 1 187 0
 238 0064 0020     		movs	r0, #0	@,
 239 0066 10BD     		pop	{r4, pc}	@
 240              	.LVL20:
 241              	.L22:
 242              	.LBB16:
 243              	.LBB15:
 244              	.LBB14:
 245              	@ inc/user_libs/usb_core.c:183:       USB_OTG_WRITE_REG32( fifo, *((__packed uint32_t *)src) );
 183:inc/user_libs/usb_core.c ****     }
 246              		.loc 1 183 0
 247 0068 51F82240 		ldr	r4, [r1, r2, lsl #2]	@ _16, MEM[base: src_8(D), index: i_17, step: 4, offset: 0B]
 248 006c 0460     		str	r4, [r0]	@ _16, *fifo_14
 249              	@ inc/user_libs/usb_core.c:181:     for (i = 0; i < count32b; i++, src+=4)
 181:inc/user_libs/usb_core.c ****     for (i = 0; i < count32b; i++, src+=4)
 250              		.loc 1 181 0
 251 006e 0132     		adds	r2, r2, #1	@ i, i,
 252              	.LVL21:
 253 0070 F6E7     		b	.L21	@
 254              	.LBE14:
 255              	.LBE15:
 256              	.LBE16:
 257              		.cfi_endproc
 258              	.LFE112:
 259              		.size	USB_OTG_WritePacket, .-USB_OTG_WritePacket
 260              		.align	1
 261              		.global	USB_OTG_ReadPacket
 262              		.syntax unified
 263              		.thumb
ARM GAS  /tmp/ccQkqy1T.s 			page 9


 264              		.thumb_func
 265              		.fpu softvfp
 266              		.type	USB_OTG_ReadPacket, %function
 267              	USB_OTG_ReadPacket:
 268              	.LFB113:
 188:inc/user_libs/usb_core.c **** 
 189:inc/user_libs/usb_core.c **** 
 190:inc/user_libs/usb_core.c **** /**
 191:inc/user_libs/usb_core.c **** * @brief  USB_OTG_ReadPacket : Reads a packet from the Rx FIFO
 192:inc/user_libs/usb_core.c **** * @param  pdev : Selected device
 193:inc/user_libs/usb_core.c **** * @param  dest : Destination Pointer
 194:inc/user_libs/usb_core.c **** * @param  bytes : No. of bytes
 195:inc/user_libs/usb_core.c **** * @retval None
 196:inc/user_libs/usb_core.c **** */
 197:inc/user_libs/usb_core.c **** void *USB_OTG_ReadPacket(USB_OTG_CORE_HANDLE *pdev, 
 198:inc/user_libs/usb_core.c ****                          uint8_t *dest, 
 199:inc/user_libs/usb_core.c ****                          uint16_t len)
 200:inc/user_libs/usb_core.c **** {
 269              		.loc 1 200 0
 270              		.cfi_startproc
 271              		@ args = 0, pretend = 0, frame = 0
 272              		@ frame_needed = 0, uses_anonymous_args = 0
 273              	.LVL22:
 274 0072 10B5     		push	{r4, lr}	@
 275              	.LCFI3:
 276              		.cfi_def_cfa_offset 8
 277              		.cfi_offset 4, -8
 278              		.cfi_offset 14, -4
 279              	@ inc/user_libs/usb_core.c:202:   uint32_t count32b = (len + 3) / 4;
 201:inc/user_libs/usb_core.c ****   uint32_t i=0;
 202:inc/user_libs/usb_core.c ****   uint32_t count32b = (len + 3) / 4;
 280              		.loc 1 202 0
 281 0074 0332     		adds	r2, r2, #3	@ tmp122, len,
 282              	.LVL23:
 283              	@ inc/user_libs/usb_core.c:204:   __IO uint32_t *fifo = pdev->regs.DFIFO[0];
 203:inc/user_libs/usb_core.c ****   
 204:inc/user_libs/usb_core.c ****   __IO uint32_t *fifo = pdev->regs.DFIFO[0];
 284              		.loc 1 204 0
 285 0076 D0F8D030 		ldr	r3, [r0, #208]	@ fifo, pdev_11(D)->regs.DFIFO
 286              	@ inc/user_libs/usb_core.c:202:   uint32_t count32b = (len + 3) / 4;
 202:inc/user_libs/usb_core.c ****   
 287              		.loc 1 202 0
 288 007a 9210     		asrs	r2, r2, #2	@ count32b, tmp122,
 289              	.LVL24:
 290              	@ inc/user_libs/usb_core.c:206:   for ( i = 0; i < count32b; i++, dest += 4 )
 205:inc/user_libs/usb_core.c ****   
 206:inc/user_libs/usb_core.c ****   for ( i = 0; i < count32b; i++, dest += 4 )
 291              		.loc 1 206 0
 292 007c 0020     		movs	r0, #0	@ i,
 293              	.LVL25:
 294              	.L26:
 295              	@ inc/user_libs/usb_core.c:206:   for ( i = 0; i < count32b; i++, dest += 4 )
 296              		.loc 1 206 0 is_stmt 0 discriminator 1
 297 007e 9042     		cmp	r0, r2	@ i, count32b
 298 0080 02D1     		bne	.L27	@,
 299              	@ inc/user_libs/usb_core.c:212: }
 207:inc/user_libs/usb_core.c ****   {
ARM GAS  /tmp/ccQkqy1T.s 			page 10


 208:inc/user_libs/usb_core.c ****     *(__packed uint32_t *)dest = USB_OTG_READ_REG32(fifo);
 209:inc/user_libs/usb_core.c ****     
 210:inc/user_libs/usb_core.c ****   }
 211:inc/user_libs/usb_core.c ****   return ((void *)dest);
 212:inc/user_libs/usb_core.c **** }
 300              		.loc 1 212 0 is_stmt 1
 301 0082 01EB8000 		add	r0, r1, r0, lsl #2	@, dest, i,
 302              	.LVL26:
 303 0086 10BD     		pop	{r4, pc}	@
 304              	.LVL27:
 305              	.L27:
 306              	@ inc/user_libs/usb_core.c:208:     *(__packed uint32_t *)dest = USB_OTG_READ_REG32(fifo);
 208:inc/user_libs/usb_core.c ****     
 307              		.loc 1 208 0 discriminator 3
 308 0088 1C68     		ldr	r4, [r3]	@ _4, *fifo_12
 309 008a 41F82040 		str	r4, [r1, r0, lsl #2]	@ _4, MEM[base: dest_13(D), index: i_6, step: 4, offset: 0B]
 310              	@ inc/user_libs/usb_core.c:206:   for ( i = 0; i < count32b; i++, dest += 4 )
 206:inc/user_libs/usb_core.c ****   {
 311              		.loc 1 206 0 discriminator 3
 312 008e 0130     		adds	r0, r0, #1	@ i, i,
 313              	.LVL28:
 314 0090 F5E7     		b	.L26	@
 315              		.cfi_endproc
 316              	.LFE113:
 317              		.size	USB_OTG_ReadPacket, .-USB_OTG_ReadPacket
 318              		.align	1
 319              		.global	USB_OTG_SelectCore
 320              		.syntax unified
 321              		.thumb
 322              		.thumb_func
 323              		.fpu softvfp
 324              		.type	USB_OTG_SelectCore, %function
 325              	USB_OTG_SelectCore:
 326              	.LFB114:
 213:inc/user_libs/usb_core.c **** 
 214:inc/user_libs/usb_core.c **** /**
 215:inc/user_libs/usb_core.c **** * @brief  USB_OTG_SelectCore 
 216:inc/user_libs/usb_core.c **** *         Initialize core registers address.
 217:inc/user_libs/usb_core.c **** * @param  pdev : Selected device
 218:inc/user_libs/usb_core.c **** * @param  coreID : USB OTG Core ID
 219:inc/user_libs/usb_core.c **** * @retval USB_OTG_STS : status
 220:inc/user_libs/usb_core.c **** */
 221:inc/user_libs/usb_core.c **** USB_OTG_STS USB_OTG_SelectCore(USB_OTG_CORE_HANDLE *pdev, 
 222:inc/user_libs/usb_core.c ****                                USB_OTG_CORE_ID_TypeDef coreID)
 223:inc/user_libs/usb_core.c **** {
 327              		.loc 1 223 0
 328              		.cfi_startproc
 329              		@ args = 0, pretend = 0, frame = 0
 330              		@ frame_needed = 0, uses_anonymous_args = 0
 331              	.LVL29:
 332              	@ inc/user_libs/usb_core.c:230:   pdev->cfg.speed            = USB_OTG_SPEED_FULL;
 224:inc/user_libs/usb_core.c ****   uint32_t i , baseAddress = 0;
 225:inc/user_libs/usb_core.c ****   USB_OTG_STS status = USB_OTG_OK;
 226:inc/user_libs/usb_core.c ****   
 227:inc/user_libs/usb_core.c ****   pdev->cfg.dma_enable       = 0;
 228:inc/user_libs/usb_core.c ****   
 229:inc/user_libs/usb_core.c ****   /* at startup the core is in FS mode */
ARM GAS  /tmp/ccQkqy1T.s 			page 11


 230:inc/user_libs/usb_core.c ****   pdev->cfg.speed            = USB_OTG_SPEED_FULL;
 333              		.loc 1 230 0
 334 0092 0123     		movs	r3, #1	@ tmp157,
 335              	@ inc/user_libs/usb_core.c:223: {
 223:inc/user_libs/usb_core.c ****   uint32_t i , baseAddress = 0;
 336              		.loc 1 223 0
 337 0094 30B5     		push	{r4, r5, lr}	@
 338              	.LCFI4:
 339              		.cfi_def_cfa_offset 12
 340              		.cfi_offset 4, -12
 341              		.cfi_offset 5, -8
 342              		.cfi_offset 14, -4
 343              	@ inc/user_libs/usb_core.c:234:   if (coreID == USB_OTG_FS_CORE_ID)
 231:inc/user_libs/usb_core.c ****   pdev->cfg.mps              = USB_OTG_FS_MAX_PACKET_SIZE ;    
 232:inc/user_libs/usb_core.c ****   
 233:inc/user_libs/usb_core.c ****   /* initialize device cfg following its address */
 234:inc/user_libs/usb_core.c ****   if (coreID == USB_OTG_FS_CORE_ID)
 344              		.loc 1 234 0
 345 0096 0129     		cmp	r1, #1	@ coreID,
 346              	@ inc/user_libs/usb_core.c:230:   pdev->cfg.speed            = USB_OTG_SPEED_FULL;
 230:inc/user_libs/usb_core.c ****   pdev->cfg.mps              = USB_OTG_FS_MAX_PACKET_SIZE ;    
 347              		.loc 1 230 0
 348 0098 4380     		strh	r3, [r0, #2]	@ movhi	@ tmp157, MEM[(void *)pdev_38(D) + 2B]
 349              	@ inc/user_libs/usb_core.c:227:   pdev->cfg.dma_enable       = 0;
 227:inc/user_libs/usb_core.c ****   
 350              		.loc 1 227 0
 351 009a 4FF04003 		mov	r3, #64	@ tmp159,
 352 009e 8380     		strh	r3, [r0, #4]	@ movhi	@ tmp159, MEM[(void *)pdev_38(D) + 4B]
 353              	@ inc/user_libs/usb_core.c:234:   if (coreID == USB_OTG_FS_CORE_ID)
 354              		.loc 1 234 0
 355 00a0 3BD1     		bne	.L29	@,
 356              	.LVL30:
 357              	@ inc/user_libs/usb_core.c:238:     pdev->cfg.host_channels    = 8 ;
 235:inc/user_libs/usb_core.c ****   {
 236:inc/user_libs/usb_core.c ****     baseAddress                = USB_OTG_FS_BASE_ADDR;
 237:inc/user_libs/usb_core.c ****     pdev->cfg.coreID           = USB_OTG_FS_CORE_ID;
 238:inc/user_libs/usb_core.c ****     pdev->cfg.host_channels    = 8 ;
 358              		.loc 1 238 0
 359 00a2 4FF48163 		mov	r3, #1032	@ tmp161,
 360 00a6 0380     		strh	r3, [r0]	@ movhi	@ tmp161, MEM[(unsigned char *)pdev_38(D)]
 361              	@ inc/user_libs/usb_core.c:240:     pdev->cfg.TotalFifoSize    = 320; /* in 32-bits */
 239:inc/user_libs/usb_core.c ****     pdev->cfg.dev_endpoints    = 4 ;
 240:inc/user_libs/usb_core.c ****     pdev->cfg.TotalFifoSize    = 320; /* in 32-bits */
 362              		.loc 1 240 0
 363 00a8 4FF4A073 		mov	r3, #320	@ tmp163,
 364 00ac C380     		strh	r3, [r0, #6]	@ movhi	@ tmp163, pdev_38(D)->cfg.TotalFifoSize
 365              	@ inc/user_libs/usb_core.c:241:     pdev->cfg.phy_itface       = USB_OTG_EMBEDDED_PHY;     
 241:inc/user_libs/usb_core.c ****     pdev->cfg.phy_itface       = USB_OTG_EMBEDDED_PHY;     
 366              		.loc 1 241 0
 367 00ae 0223     		movs	r3, #2	@ tmp164,
 368 00b0 0372     		strb	r3, [r0, #8]	@ tmp164, pdev_38(D)->cfg.phy_itface
 369              	@ inc/user_libs/usb_core.c:248:     pdev->cfg.low_power        = 1;    
 242:inc/user_libs/usb_core.c ****     
 243:inc/user_libs/usb_core.c **** #ifdef USB_OTG_FS_SOF_OUTPUT_ENABLED    
 244:inc/user_libs/usb_core.c ****     pdev->cfg.Sof_output       = 1;    
 245:inc/user_libs/usb_core.c **** #endif 
 246:inc/user_libs/usb_core.c ****     
ARM GAS  /tmp/ccQkqy1T.s 			page 12


 247:inc/user_libs/usb_core.c **** #ifdef USB_OTG_FS_LOW_PWR_MGMT_SUPPORT    
 248:inc/user_libs/usb_core.c ****     pdev->cfg.low_power        = 1;    
 370              		.loc 1 248 0
 371 00b2 40F20113 		movw	r3, #257	@ tmp167,
 372 00b6 4381     		strh	r3, [r0, #10]	@ movhi	@ tmp167, MEM[(unsigned char *)pdev_38(D) + 10B]
 373              	@ inc/user_libs/usb_core.c:236:     baseAddress                = USB_OTG_FS_BASE_ADDR;
 236:inc/user_libs/usb_core.c ****     pdev->cfg.coreID           = USB_OTG_FS_CORE_ID;
 374              		.loc 1 236 0
 375 00b8 4FF0A043 		mov	r3, #1342177280	@ baseAddress,
 376              	.LVL31:
 377              	.L30:
 378              	@ inc/user_libs/usb_core.c:283:   pdev->regs.DREGS =  (USB_OTG_DREGS  *)  (baseAddress + \
 249:inc/user_libs/usb_core.c **** #endif     
 250:inc/user_libs/usb_core.c ****   }
 251:inc/user_libs/usb_core.c ****   else if (coreID == USB_OTG_HS_CORE_ID)
 252:inc/user_libs/usb_core.c ****   {
 253:inc/user_libs/usb_core.c ****     baseAddress                = USB_OTG_HS_BASE_ADDR;
 254:inc/user_libs/usb_core.c ****     pdev->cfg.coreID           = USB_OTG_HS_CORE_ID;    
 255:inc/user_libs/usb_core.c ****     pdev->cfg.host_channels    = 12 ;
 256:inc/user_libs/usb_core.c ****     pdev->cfg.dev_endpoints    = 6 ;
 257:inc/user_libs/usb_core.c ****     pdev->cfg.TotalFifoSize    = 1280;/* in 32-bits */
 258:inc/user_libs/usb_core.c ****     
 259:inc/user_libs/usb_core.c **** #ifdef USB_OTG_ULPI_PHY_ENABLED
 260:inc/user_libs/usb_core.c ****     pdev->cfg.phy_itface       = USB_OTG_ULPI_PHY;
 261:inc/user_libs/usb_core.c **** #else    
 262:inc/user_libs/usb_core.c **** #ifdef USB_OTG_EMBEDDED_PHY_ENABLED
 263:inc/user_libs/usb_core.c ****     pdev->cfg.phy_itface       = USB_OTG_EMBEDDED_PHY;
 264:inc/user_libs/usb_core.c **** #endif  
 265:inc/user_libs/usb_core.c **** #endif      
 266:inc/user_libs/usb_core.c ****     
 267:inc/user_libs/usb_core.c **** #ifdef USB_OTG_HS_INTERNAL_DMA_ENABLED    
 268:inc/user_libs/usb_core.c ****     pdev->cfg.dma_enable       = 1;    
 269:inc/user_libs/usb_core.c **** #endif
 270:inc/user_libs/usb_core.c ****     
 271:inc/user_libs/usb_core.c **** #ifdef USB_OTG_HS_SOF_OUTPUT_ENABLED    
 272:inc/user_libs/usb_core.c ****     pdev->cfg.Sof_output       = 1;    
 273:inc/user_libs/usb_core.c **** #endif 
 274:inc/user_libs/usb_core.c ****     
 275:inc/user_libs/usb_core.c **** #ifdef USB_OTG_HS_LOW_PWR_MGMT_SUPPORT    
 276:inc/user_libs/usb_core.c ****     pdev->cfg.low_power        = 1;    
 277:inc/user_libs/usb_core.c **** #endif 
 278:inc/user_libs/usb_core.c ****     
 279:inc/user_libs/usb_core.c ****   }
 280:inc/user_libs/usb_core.c ****   
 281:inc/user_libs/usb_core.c ****   pdev->regs.GREGS = (USB_OTG_GREGS *)(baseAddress + \
 282:inc/user_libs/usb_core.c ****     USB_OTG_CORE_GLOBAL_REGS_OFFSET);
 283:inc/user_libs/usb_core.c ****   pdev->regs.DREGS =  (USB_OTG_DREGS  *)  (baseAddress + \
 379              		.loc 1 283 0
 380 00bc 03F50062 		add	r2, r3, #2048	@ tmp174, baseAddress,
 381 00c0 4478     		ldrb	r4, [r0, #1]	@ zero_extendqisi2	@ pdev_38(D)->cfg.dev_endpoints, pdev_38(D)->cfg.dev_endpoint
 382 00c2 0261     		str	r2, [r0, #16]	@ tmp174, pdev_38(D)->regs.DREGS
 383              	.LVL32:
 384 00c4 00F11802 		add	r2, r0, #24	@ ivtmp.130, pdev,
 385              	@ inc/user_libs/usb_core.c:281:   pdev->regs.GREGS = (USB_OTG_GREGS *)(baseAddress + \
 281:inc/user_libs/usb_core.c ****     USB_OTG_CORE_GLOBAL_REGS_OFFSET);
 386              		.loc 1 281 0
 387 00c8 C360     		str	r3, [r0, #12]	@ baseAddress, pdev_38(D)->regs.GREGS
ARM GAS  /tmp/ccQkqy1T.s 			page 13


 388 00ca 03F51061 		add	r1, r3, #2304	@ ivtmp.122, baseAddress,
 389              	.LVL33:
 390 00ce 02EB8404 		add	r4, r2, r4, lsl #2	@ _99, ivtmp.130, pdev_38(D)->cfg.dev_endpoints,
 391              	.LVL34:
 392              	.L31:
 393              	@ inc/user_libs/usb_core.c:286:   for (i = 0; i < pdev->cfg.dev_endpoints; i++)
 284:inc/user_libs/usb_core.c ****     USB_OTG_DEV_GLOBAL_REG_OFFSET);
 285:inc/user_libs/usb_core.c ****   
 286:inc/user_libs/usb_core.c ****   for (i = 0; i < pdev->cfg.dev_endpoints; i++)
 394              		.loc 1 286 0 discriminator 1
 395 00d2 A242     		cmp	r2, r4	@ ivtmp.130, _99
 396 00d4 2DD1     		bne	.L32	@,
 397              	@ inc/user_libs/usb_core.c:295:   pdev->regs.HREGS = (USB_OTG_HREGS *)(baseAddress + \
 287:inc/user_libs/usb_core.c ****   {
 288:inc/user_libs/usb_core.c ****     pdev->regs.INEP_REGS[i]  = (USB_OTG_INEPREGS *)  \
 289:inc/user_libs/usb_core.c ****       (baseAddress + USB_OTG_DEV_IN_EP_REG_OFFSET + \
 290:inc/user_libs/usb_core.c ****         (i * USB_OTG_EP_REG_OFFSET));
 291:inc/user_libs/usb_core.c ****     pdev->regs.OUTEP_REGS[i] = (USB_OTG_OUTEPREGS *) \
 292:inc/user_libs/usb_core.c ****       (baseAddress + USB_OTG_DEV_OUT_EP_REG_OFFSET + \
 293:inc/user_libs/usb_core.c ****         (i * USB_OTG_EP_REG_OFFSET));
 294:inc/user_libs/usb_core.c ****   }
 295:inc/user_libs/usb_core.c ****   pdev->regs.HREGS = (USB_OTG_HREGS *)(baseAddress + \
 398              		.loc 1 295 0
 399 00d6 03F58062 		add	r2, r3, #1024	@ tmp181, baseAddress,
 400 00da 4261     		str	r2, [r0, #20]	@ tmp181, pdev_38(D)->regs.HREGS
 401              	@ inc/user_libs/usb_core.c:299:   for (i = 0; i < pdev->cfg.host_channels; i++)
 296:inc/user_libs/usb_core.c ****     USB_OTG_HOST_GLOBAL_REG_OFFSET);
 297:inc/user_libs/usb_core.c ****   pdev->regs.HPRT0 = (uint32_t *)(baseAddress + USB_OTG_HOST_PORT_REGS_OFFSET);
 298:inc/user_libs/usb_core.c ****   
 299:inc/user_libs/usb_core.c ****   for (i = 0; i < pdev->cfg.host_channels; i++)
 402              		.loc 1 299 0
 403 00dc 0446     		mov	r4, r0	@ ivtmp.114, pdev
 404              	@ inc/user_libs/usb_core.c:297:   pdev->regs.HPRT0 = (uint32_t *)(baseAddress + USB_OTG_HOST_PORT_R
 297:inc/user_libs/usb_core.c ****   
 405              		.loc 1 297 0
 406 00de 03F58862 		add	r2, r3, #1088	@ tmp182, baseAddress,
 407 00e2 C0F8CC20 		str	r2, [r0, #204]	@ tmp182, pdev_38(D)->regs.HPRT0
 408              	.LVL35:
 409              	@ inc/user_libs/usb_core.c:299:   for (i = 0; i < pdev->cfg.host_channels; i++)
 410              		.loc 1 299 0
 411 00e6 14F8902B 		ldrb	r2, [r4], #144	@ zero_extendqisi2	@ _21, pdev_38(D)->cfg.host_channels
 412 00ea 03EB4215 		add	r5, r3, r2, lsl #5	@ tmp183, baseAddress, _21,
 413 00ee 03F5A061 		add	r1, r3, #1280	@ ivtmp.106, baseAddress,
 414 00f2 05F5A065 		add	r5, r5, #1280	@ _86, tmp183,
 415              	.LVL36:
 416              	.L33:
 417              	@ inc/user_libs/usb_core.c:299:   for (i = 0; i < pdev->cfg.host_channels; i++)
 418              		.loc 1 299 0 is_stmt 0 discriminator 1
 419 00f6 A942     		cmp	r1, r5	@ ivtmp.106, _86
 420 00f8 22D1     		bne	.L34	@,
 421 00fa 03EB0232 		add	r2, r3, r2, lsl #12	@ tmp188, baseAddress, _21,
 422 00fe 03F58051 		add	r1, r3, #4096	@ ivtmp.90, baseAddress,
 423 0102 00F1D004 		add	r4, r0, #208	@ ivtmp.98, pdev,
 424 0106 02F58052 		add	r2, r2, #4096	@ _74, tmp188,
 425              	.L35:
 426              	@ inc/user_libs/usb_core.c:305:   for (i = 0; i < pdev->cfg.host_channels; i++)
 300:inc/user_libs/usb_core.c ****   {
ARM GAS  /tmp/ccQkqy1T.s 			page 14


 301:inc/user_libs/usb_core.c ****     pdev->regs.HC_REGS[i] = (USB_OTG_HC_REGS *)(baseAddress + \
 302:inc/user_libs/usb_core.c ****       USB_OTG_HOST_CHAN_REGS_OFFSET + \
 303:inc/user_libs/usb_core.c ****         (i * USB_OTG_CHAN_REGS_OFFSET));
 304:inc/user_libs/usb_core.c ****   }
 305:inc/user_libs/usb_core.c ****   for (i = 0; i < pdev->cfg.host_channels; i++)
 427              		.loc 1 305 0 is_stmt 1 discriminator 1
 428 010a 9142     		cmp	r1, r2	@ ivtmp.90, _74
 429 010c 1CD1     		bne	.L36	@,
 430              	@ inc/user_libs/usb_core.c:310:   pdev->regs.PCGCCTL = (uint32_t *)(baseAddress + USB_OTG_PCGCCTL_O
 306:inc/user_libs/usb_core.c ****   {
 307:inc/user_libs/usb_core.c ****     pdev->regs.DFIFO[i] = (uint32_t *)(baseAddress + USB_OTG_DATA_FIFO_OFFSET +\
 308:inc/user_libs/usb_core.c ****       (i * USB_OTG_DATA_FIFO_SIZE));
 309:inc/user_libs/usb_core.c ****   }
 310:inc/user_libs/usb_core.c ****   pdev->regs.PCGCCTL = (uint32_t *)(baseAddress + USB_OTG_PCGCCTL_OFFSET);
 431              		.loc 1 310 0
 432 010e 03F56063 		add	r3, r3, #3584	@ tmp189, baseAddress,
 433              	.LVL37:
 434 0112 C0F80C31 		str	r3, [r0, #268]	@ tmp189, pdev_38(D)->regs.PCGCCTL
 435              	@ inc/user_libs/usb_core.c:313: }
 311:inc/user_libs/usb_core.c ****   
 312:inc/user_libs/usb_core.c ****   return status;
 313:inc/user_libs/usb_core.c **** }
 436              		.loc 1 313 0
 437 0116 0020     		movs	r0, #0	@,
 438              	.LVL38:
 439 0118 30BD     		pop	{r4, r5, pc}	@
 440              	.LVL39:
 441              	.L29:
 442              	@ inc/user_libs/usb_core.c:251:   else if (coreID == USB_OTG_HS_CORE_ID)
 251:inc/user_libs/usb_core.c ****   {
 443              		.loc 1 251 0
 444 011a 41B9     		cbnz	r1, .L37	@ coreID,
 445              	.LVL40:
 446              	@ inc/user_libs/usb_core.c:255:     pdev->cfg.host_channels    = 12 ;
 255:inc/user_libs/usb_core.c ****     pdev->cfg.dev_endpoints    = 6 ;
 447              		.loc 1 255 0
 448 011c 40F20C63 		movw	r3, #1548	@ tmp171,
 449 0120 0380     		strh	r3, [r0]	@ movhi	@ tmp171, MEM[(unsigned char *)pdev_38(D)]
 450              	@ inc/user_libs/usb_core.c:257:     pdev->cfg.TotalFifoSize    = 1280;/* in 32-bits */
 257:inc/user_libs/usb_core.c ****     
 451              		.loc 1 257 0
 452 0122 4FF4A063 		mov	r3, #1280	@ tmp173,
 453 0126 C380     		strh	r3, [r0, #6]	@ movhi	@ tmp173, pdev_38(D)->cfg.TotalFifoSize
 454              	@ inc/user_libs/usb_core.c:254:     pdev->cfg.coreID           = USB_OTG_HS_CORE_ID;    
 254:inc/user_libs/usb_core.c ****     pdev->cfg.host_channels    = 12 ;
 455              		.loc 1 254 0
 456 0128 C172     		strb	r1, [r0, #11]	@ coreID, pdev_38(D)->cfg.coreID
 457              	@ inc/user_libs/usb_core.c:253:     baseAddress                = USB_OTG_HS_BASE_ADDR;
 253:inc/user_libs/usb_core.c ****     pdev->cfg.coreID           = USB_OTG_HS_CORE_ID;    
 458              		.loc 1 253 0
 459 012a 0A4B     		ldr	r3, .L38	@ baseAddress,
 460 012c C6E7     		b	.L30	@
 461              	.LVL41:
 462              	.L37:
 463              	@ inc/user_libs/usb_core.c:224:   uint32_t i , baseAddress = 0;
 224:inc/user_libs/usb_core.c ****   USB_OTG_STS status = USB_OTG_OK;
 464              		.loc 1 224 0
ARM GAS  /tmp/ccQkqy1T.s 			page 15


 465 012e 0023     		movs	r3, #0	@ baseAddress,
 466 0130 C4E7     		b	.L30	@
 467              	.LVL42:
 468              	.L32:
 469              	@ inc/user_libs/usb_core.c:288:     pdev->regs.INEP_REGS[i]  = (USB_OTG_INEPREGS *)  \
 288:inc/user_libs/usb_core.c ****       (baseAddress + USB_OTG_DEV_IN_EP_REG_OFFSET + \
 470              		.loc 1 288 0 discriminator 3
 471 0132 42F8041B 		str	r1, [r2], #4	@ ivtmp.122, MEM[base: _100, offset: 0B]
 472              	@ inc/user_libs/usb_core.c:291:     pdev->regs.OUTEP_REGS[i] = (USB_OTG_OUTEPREGS *) \
 291:inc/user_libs/usb_core.c ****       (baseAddress + USB_OTG_DEV_OUT_EP_REG_OFFSET + \
 473              		.loc 1 291 0 discriminator 3
 474 0136 01F50075 		add	r5, r1, #512	@ tmp180, ivtmp.122,
 475 013a 9563     		str	r5, [r2, #56]	@ tmp180, MEM[base: _103, offset: 56B]
 476 013c 2031     		adds	r1, r1, #32	@ ivtmp.122, ivtmp.122,
 477 013e C8E7     		b	.L31	@
 478              	.L34:
 479              	@ inc/user_libs/usb_core.c:301:     pdev->regs.HC_REGS[i] = (USB_OTG_HC_REGS *)(baseAddress + \
 301:inc/user_libs/usb_core.c ****       USB_OTG_HOST_CHAN_REGS_OFFSET + \
 480              		.loc 1 301 0 discriminator 3
 481 0140 44F8041B 		str	r1, [r4], #4	@ ivtmp.106, MEM[base: _87, offset: 0B]
 482 0144 2031     		adds	r1, r1, #32	@ ivtmp.106, ivtmp.106,
 483 0146 D6E7     		b	.L33	@
 484              	.L36:
 485              	@ inc/user_libs/usb_core.c:307:     pdev->regs.DFIFO[i] = (uint32_t *)(baseAddress + USB_OTG_DATA_F
 307:inc/user_libs/usb_core.c ****       (i * USB_OTG_DATA_FIFO_SIZE));
 486              		.loc 1 307 0 discriminator 3
 487 0148 44F8041B 		str	r1, [r4], #4	@ ivtmp.90, MEM[base: _75, offset: 0B]
 488 014c 01F58051 		add	r1, r1, #4096	@ ivtmp.90, ivtmp.90,
 489 0150 DBE7     		b	.L35	@
 490              	.L39:
 491 0152 00BF     		.align	2
 492              	.L38:
 493 0154 00000440 		.word	1074003968
 494              		.cfi_endproc
 495              	.LFE114:
 496              		.size	USB_OTG_SelectCore, .-USB_OTG_SelectCore
 497              		.align	1
 498              		.global	USB_OTG_CoreInit
 499              		.syntax unified
 500              		.thumb
 501              		.thumb_func
 502              		.fpu softvfp
 503              		.type	USB_OTG_CoreInit, %function
 504              	USB_OTG_CoreInit:
 505              	.LFB115:
 314:inc/user_libs/usb_core.c **** 
 315:inc/user_libs/usb_core.c **** 
 316:inc/user_libs/usb_core.c **** /**
 317:inc/user_libs/usb_core.c **** * @brief  USB_OTG_CoreInit
 318:inc/user_libs/usb_core.c **** *         Initializes the USB_OTG controller registers and prepares the core
 319:inc/user_libs/usb_core.c **** *         device mode or host mode operation.
 320:inc/user_libs/usb_core.c **** * @param  pdev : Selected device
 321:inc/user_libs/usb_core.c **** * @retval USB_OTG_STS : status
 322:inc/user_libs/usb_core.c **** */
 323:inc/user_libs/usb_core.c **** USB_OTG_STS USB_OTG_CoreInit(USB_OTG_CORE_HANDLE *pdev)
 324:inc/user_libs/usb_core.c **** {
 506              		.loc 1 324 0
ARM GAS  /tmp/ccQkqy1T.s 			page 16


 507              		.cfi_startproc
 508              		@ args = 0, pretend = 0, frame = 0
 509              		@ frame_needed = 0, uses_anonymous_args = 0
 510              	.LVL43:
 511 0158 38B5     		push	{r3, r4, r5, lr}	@
 512              	.LCFI5:
 513              		.cfi_def_cfa_offset 16
 514              		.cfi_offset 3, -16
 515              		.cfi_offset 4, -12
 516              		.cfi_offset 5, -8
 517              		.cfi_offset 14, -4
 518              	@ inc/user_libs/usb_core.c:324: {
 519              		.loc 1 324 0
 520 015a 0546     		mov	r5, r0	@ pdev, pdev
 521              	@ inc/user_libs/usb_core.c:332:   ahbcfg.d32 = 0;
 325:inc/user_libs/usb_core.c ****   USB_OTG_STS status = USB_OTG_OK;
 326:inc/user_libs/usb_core.c ****   USB_OTG_GUSBCFG_TypeDef  usbcfg;
 327:inc/user_libs/usb_core.c ****   USB_OTG_GCCFG_TypeDef    gccfg;
 328:inc/user_libs/usb_core.c ****   USB_OTG_GAHBCFG_TypeDef  ahbcfg;
 329:inc/user_libs/usb_core.c ****   
 330:inc/user_libs/usb_core.c ****   usbcfg.d32 = 0;
 331:inc/user_libs/usb_core.c ****   gccfg.d32 = 0;
 332:inc/user_libs/usb_core.c ****   ahbcfg.d32 = 0;
 522              		.loc 1 332 0
 523 015c 0024     		movs	r4, #0	@ ahbcfg,
 524              	.LVL44:
 525              	@ inc/user_libs/usb_core.c:336:   if (pdev->cfg.phy_itface == USB_OTG_ULPI_PHY)
 333:inc/user_libs/usb_core.c ****   
 334:inc/user_libs/usb_core.c ****   
 335:inc/user_libs/usb_core.c ****   
 336:inc/user_libs/usb_core.c ****   if (pdev->cfg.phy_itface == USB_OTG_ULPI_PHY)
 526              		.loc 1 336 0
 527 015e 2B7A     		ldrb	r3, [r5, #8]	@ zero_extendqisi2	@ pdev_28(D)->cfg.phy_itface, pdev_28(D)->cfg.phy_itface
 528 0160 50F80C2F 		ldr	r2, [r0, #12]!	@ pretmp_64, pdev_28(D)->regs.GREGS
 529              	.LVL45:
 530 0164 012B     		cmp	r3, #1	@ pdev_28(D)->cfg.phy_itface,
 531 0166 2AD1     		bne	.L41	@,
 532              	@ inc/user_libs/usb_core.c:338:     gccfg.d32 = USB_OTG_READ_REG32(&pdev->regs.GREGS->GCCFG);
 337:inc/user_libs/usb_core.c ****   {
 338:inc/user_libs/usb_core.c ****     gccfg.d32 = USB_OTG_READ_REG32(&pdev->regs.GREGS->GCCFG);
 533              		.loc 1 338 0
 534 0168 936B     		ldr	r3, [r2, #56]	@ gccfg, pretmp_64->GCCFG
 535              	.LVL46:
 536              	@ inc/user_libs/usb_core.c:341:     if (pdev->cfg.Sof_output)
 339:inc/user_libs/usb_core.c ****     gccfg.b.pwdn = 0;
 340:inc/user_libs/usb_core.c ****     
 341:inc/user_libs/usb_core.c ****     if (pdev->cfg.Sof_output)
 537              		.loc 1 341 0
 538 016a 697A     		ldrb	r1, [r5, #9]	@ zero_extendqisi2	@ pdev_28(D)->cfg.Sof_output, pdev_28(D)->cfg.Sof_output
 539              	.LVL47:
 540              	@ inc/user_libs/usb_core.c:339:     gccfg.b.pwdn = 0;
 339:inc/user_libs/usb_core.c ****     gccfg.b.pwdn = 0;
 541              		.loc 1 339 0
 542 016c 64F31043 		bfi	r3, r4, #16, #1	@ gccfg, ahbcfg,,
 543              	@ inc/user_libs/usb_core.c:341:     if (pdev->cfg.Sof_output)
 544              		.loc 1 341 0
 545 0170 09B1     		cbz	r1, .L42	@ pdev_28(D)->cfg.Sof_output,
ARM GAS  /tmp/ccQkqy1T.s 			page 17


 546              	@ inc/user_libs/usb_core.c:343:       gccfg.b.sofouten = 1;   
 342:inc/user_libs/usb_core.c ****     {
 343:inc/user_libs/usb_core.c ****       gccfg.b.sofouten = 1;   
 547              		.loc 1 343 0
 548 0172 43F48013 		orr	r3, r3, #1048576	@ gccfg, gccfg,
 549              	.LVL48:
 550              	.L42:
 551              	@ inc/user_libs/usb_core.c:345:     USB_OTG_WRITE_REG32 (&pdev->regs.GREGS->GCCFG, gccfg.d32);
 344:inc/user_libs/usb_core.c ****     }
 345:inc/user_libs/usb_core.c ****     USB_OTG_WRITE_REG32 (&pdev->regs.GREGS->GCCFG, gccfg.d32);
 552              		.loc 1 345 0
 553 0176 9363     		str	r3, [r2, #56]	@ gccfg, pretmp_64->GCCFG
 554              	@ inc/user_libs/usb_core.c:349:     usbcfg.d32 = USB_OTG_READ_REG32(&pdev->regs.GREGS->GUSBCFG);
 346:inc/user_libs/usb_core.c ****     
 347:inc/user_libs/usb_core.c ****     /* Init The ULPI Interface */
 348:inc/user_libs/usb_core.c ****     usbcfg.d32 = 0;
 349:inc/user_libs/usb_core.c ****     usbcfg.d32 = USB_OTG_READ_REG32(&pdev->regs.GREGS->GUSBCFG);
 555              		.loc 1 349 0
 556 0178 D368     		ldr	r3, [r2, #12]	@ _6, pretmp_64->GUSBCFG
 557              	.LVL49:
 558              	@ inc/user_libs/usb_core.c:351:     usbcfg.b.physel            = 0; /* HS Interface */
 350:inc/user_libs/usb_core.c ****     
 351:inc/user_libs/usb_core.c ****     usbcfg.b.physel            = 0; /* HS Interface */
 559              		.loc 1 351 0
 560 017a 6FF38613 		bfc	r3, #6, #1	@ usbcfg,,
 561              	.LVL50:
 562              	@ inc/user_libs/usb_core.c:359:     usbcfg.b.term_sel_dl_pulse = 0; /* Data line pulsing using utmi
 352:inc/user_libs/usb_core.c **** #ifdef USB_OTG_INTERNAL_VBUS_ENABLED
 353:inc/user_libs/usb_core.c ****     usbcfg.b.ulpi_ext_vbus_drv = 0; /* Use internal VBUS */
 354:inc/user_libs/usb_core.c **** #else
 355:inc/user_libs/usb_core.c **** #ifdef USB_OTG_EXTERNAL_VBUS_ENABLED    
 356:inc/user_libs/usb_core.c ****     usbcfg.b.ulpi_ext_vbus_drv = 1; /* Use external VBUS */
 357:inc/user_libs/usb_core.c **** #endif
 358:inc/user_libs/usb_core.c **** #endif 
 359:inc/user_libs/usb_core.c ****     usbcfg.b.term_sel_dl_pulse = 0; /* Data line pulsing using utmi_txvalid */    
 563              		.loc 1 359 0
 564 017e 6FF39653 		bfc	r3, #22, #1	@ usbcfg,,
 565              	@ inc/user_libs/usb_core.c:361:     usbcfg.b.ulpi_fsls = 0;
 360:inc/user_libs/usb_core.c ****     
 361:inc/user_libs/usb_core.c ****     usbcfg.b.ulpi_fsls = 0;
 566              		.loc 1 361 0
 567 0182 6FF35143 		bfc	r3, #17, #1	@ usbcfg,,
 568              	@ inc/user_libs/usb_core.c:362:     usbcfg.b.ulpi_clk_sus_m = 0;
 362:inc/user_libs/usb_core.c ****     usbcfg.b.ulpi_clk_sus_m = 0;
 569              		.loc 1 362 0
 570 0186 6FF3D343 		bfc	r3, #19, #1	@ usbcfg,,
 571              	@ inc/user_libs/usb_core.c:363:     USB_OTG_WRITE_REG32 (&pdev->regs.GREGS->GUSBCFG, usbcfg.d32);
 363:inc/user_libs/usb_core.c ****     USB_OTG_WRITE_REG32 (&pdev->regs.GREGS->GUSBCFG, usbcfg.d32);
 572              		.loc 1 363 0
 573 018a D360     		str	r3, [r2, #12]	@ usbcfg, pretmp_64->GUSBCFG
 574              	@ inc/user_libs/usb_core.c:366:     USB_OTG_CoreReset(pdev);
 364:inc/user_libs/usb_core.c ****     
 365:inc/user_libs/usb_core.c ****     /* Reset after a PHY select  */
 366:inc/user_libs/usb_core.c ****     USB_OTG_CoreReset(pdev);
 575              		.loc 1 366 0
 576 018c FFF738FF 		bl	USB_OTG_CoreReset.isra.1	@
 577              	.LVL51:
ARM GAS  /tmp/ccQkqy1T.s 			page 18


 578              	@ inc/user_libs/usb_core.c:368:     if(pdev->cfg.dma_enable == 1)
 367:inc/user_libs/usb_core.c ****     
 368:inc/user_libs/usb_core.c ****     if(pdev->cfg.dma_enable == 1)
 579              		.loc 1 368 0
 580 0190 EB78     		ldrb	r3, [r5, #3]	@ zero_extendqisi2	@ pdev_28(D)->cfg.dma_enable, pdev_28(D)->cfg.dma_enable
 581 0192 012B     		cmp	r3, #1	@ pdev_28(D)->cfg.dma_enable,
 582 0194 06D1     		bne	.L43	@,
 583              	@ inc/user_libs/usb_core.c:371:       ahbcfg.b.hburstlen = 5; /* 64 x 32-bits*/
 369:inc/user_libs/usb_core.c ****     {
 370:inc/user_libs/usb_core.c ****       
 371:inc/user_libs/usb_core.c ****       ahbcfg.b.hburstlen = 5; /* 64 x 32-bits*/
 584              		.loc 1 371 0
 585 0196 0523     		movs	r3, #5	@ tmp139,
 586 0198 63F34404 		bfi	r4, r3, #1, #4	@ ahbcfg, tmp139,,
 587              	@ inc/user_libs/usb_core.c:373:       USB_OTG_WRITE_REG32(&pdev->regs.GREGS->GAHBCFG, ahbcfg.d32);
 372:inc/user_libs/usb_core.c ****       ahbcfg.b.dmaenable = 1;
 373:inc/user_libs/usb_core.c ****       USB_OTG_WRITE_REG32(&pdev->regs.GREGS->GAHBCFG, ahbcfg.d32);
 588              		.loc 1 373 0
 589 019c EB68     		ldr	r3, [r5, #12]	@ _9, pdev_28(D)->regs.GREGS
 590              	@ inc/user_libs/usb_core.c:372:       ahbcfg.b.dmaenable = 1;
 372:inc/user_libs/usb_core.c ****       ahbcfg.b.dmaenable = 1;
 591              		.loc 1 372 0
 592 019e 44F02004 		orr	r4, r4, #32	@ ahbcfg, ahbcfg,
 593              	.LVL52:
 594              	@ inc/user_libs/usb_core.c:373:       USB_OTG_WRITE_REG32(&pdev->regs.GREGS->GAHBCFG, ahbcfg.d32);
 595              		.loc 1 373 0
 596 01a2 9C60     		str	r4, [r3, #8]	@ ahbcfg, _9->GAHBCFG
 597              	.L43:
 598              	@ inc/user_libs/usb_core.c:404:   if(pdev->cfg.dma_enable == 1)
 374:inc/user_libs/usb_core.c ****       
 375:inc/user_libs/usb_core.c ****     }    
 376:inc/user_libs/usb_core.c ****   }
 377:inc/user_libs/usb_core.c ****   else /* FS interface (embedded Phy) */
 378:inc/user_libs/usb_core.c ****   {
 379:inc/user_libs/usb_core.c ****     
 380:inc/user_libs/usb_core.c ****     usbcfg.d32 = USB_OTG_READ_REG32(&pdev->regs.GREGS->GUSBCFG);;
 381:inc/user_libs/usb_core.c ****     usbcfg.b.physel  = 1; /* FS Interface */
 382:inc/user_libs/usb_core.c ****     USB_OTG_WRITE_REG32 (&pdev->regs.GREGS->GUSBCFG, usbcfg.d32);
 383:inc/user_libs/usb_core.c ****     /* Reset after a PHY select and set Host mode */
 384:inc/user_libs/usb_core.c ****     USB_OTG_CoreReset(pdev);
 385:inc/user_libs/usb_core.c ****     /* Deactivate the power down*/
 386:inc/user_libs/usb_core.c ****     gccfg.d32 = 0;
 387:inc/user_libs/usb_core.c ****     gccfg.b.pwdn = 1;
 388:inc/user_libs/usb_core.c ****     
 389:inc/user_libs/usb_core.c ****     gccfg.b.vbussensingA = 1 ;
 390:inc/user_libs/usb_core.c ****     gccfg.b.vbussensingB = 1 ;     
 391:inc/user_libs/usb_core.c **** #ifndef VBUS_SENSING_ENABLED
 392:inc/user_libs/usb_core.c ****     gccfg.b.disablevbussensing = 1; 
 393:inc/user_libs/usb_core.c **** #endif    
 394:inc/user_libs/usb_core.c ****     
 395:inc/user_libs/usb_core.c ****     if(pdev->cfg.Sof_output)
 396:inc/user_libs/usb_core.c ****     {
 397:inc/user_libs/usb_core.c ****       gccfg.b.sofouten = 1;  
 398:inc/user_libs/usb_core.c ****     }
 399:inc/user_libs/usb_core.c ****     
 400:inc/user_libs/usb_core.c ****     USB_OTG_WRITE_REG32 (&pdev->regs.GREGS->GCCFG, gccfg.d32);
 401:inc/user_libs/usb_core.c ****     USB_OTG_BSP_mDelay(20);
ARM GAS  /tmp/ccQkqy1T.s 			page 19


 402:inc/user_libs/usb_core.c ****   }
 403:inc/user_libs/usb_core.c ****   /* case the HS core is working in FS mode */
 404:inc/user_libs/usb_core.c ****   if(pdev->cfg.dma_enable == 1)
 599              		.loc 1 404 0
 600 01a4 EB78     		ldrb	r3, [r5, #3]	@ zero_extendqisi2	@ pdev_28(D)->cfg.dma_enable, pdev_28(D)->cfg.dma_enable
 601 01a6 012B     		cmp	r3, #1	@ pdev_28(D)->cfg.dma_enable,
 602 01a8 07D1     		bne	.L45	@,
 603              	@ inc/user_libs/usb_core.c:407:     ahbcfg.d32 = USB_OTG_READ_REG32(&pdev->regs.GREGS->GAHBCFG);
 405:inc/user_libs/usb_core.c ****   {
 406:inc/user_libs/usb_core.c ****     
 407:inc/user_libs/usb_core.c ****     ahbcfg.d32 = USB_OTG_READ_REG32(&pdev->regs.GREGS->GAHBCFG);
 604              		.loc 1 407 0
 605 01aa EB68     		ldr	r3, [r5, #12]	@ _18, pdev_28(D)->regs.GREGS
 606 01ac 9C68     		ldr	r4, [r3, #8]	@ _19, _18->GAHBCFG
 607              	.LVL53:
 608              	@ inc/user_libs/usb_core.c:408:     ahbcfg.b.hburstlen = 5; /* 64 x 32-bits*/
 408:inc/user_libs/usb_core.c ****     ahbcfg.b.hburstlen = 5; /* 64 x 32-bits*/
 609              		.loc 1 408 0
 610 01ae 0522     		movs	r2, #5	@ tmp148,
 611 01b0 62F34404 		bfi	r4, r2, #1, #4	@ ahbcfg, tmp148,,
 612              	.LVL54:
 613              	@ inc/user_libs/usb_core.c:409:     ahbcfg.b.dmaenable = 1;
 409:inc/user_libs/usb_core.c ****     ahbcfg.b.dmaenable = 1;
 614              		.loc 1 409 0
 615 01b4 44F02004 		orr	r4, r4, #32	@ ahbcfg, ahbcfg,
 616              	.LVL55:
 617              	@ inc/user_libs/usb_core.c:410:     USB_OTG_WRITE_REG32(&pdev->regs.GREGS->GAHBCFG, ahbcfg.d32);
 410:inc/user_libs/usb_core.c ****     USB_OTG_WRITE_REG32(&pdev->regs.GREGS->GAHBCFG, ahbcfg.d32);
 618              		.loc 1 410 0
 619 01b8 9C60     		str	r4, [r3, #8]	@ ahbcfg, _18->GAHBCFG
 620              	.L45:
 621              	@ inc/user_libs/usb_core.c:422: }
 411:inc/user_libs/usb_core.c ****     
 412:inc/user_libs/usb_core.c ****   }
 413:inc/user_libs/usb_core.c ****   /* initialize OTG features */
 414:inc/user_libs/usb_core.c **** #ifdef  USE_OTG_MODE
 415:inc/user_libs/usb_core.c ****   usbcfg.d32 = USB_OTG_READ_REG32(&pdev->regs.GREGS->GUSBCFG);
 416:inc/user_libs/usb_core.c ****   usbcfg.b.hnpcap = 1;
 417:inc/user_libs/usb_core.c ****   usbcfg.b.srpcap = 1;
 418:inc/user_libs/usb_core.c ****   USB_OTG_WRITE_REG32(&pdev->regs.GREGS->GUSBCFG, usbcfg.d32);
 419:inc/user_libs/usb_core.c ****   USB_OTG_EnableCommonInt(pdev);
 420:inc/user_libs/usb_core.c **** #endif
 421:inc/user_libs/usb_core.c ****   return status;
 422:inc/user_libs/usb_core.c **** }
 622              		.loc 1 422 0
 623 01ba 0020     		movs	r0, #0	@,
 624 01bc 38BD     		pop	{r3, r4, r5, pc}	@
 625              	.LVL56:
 626              	.L41:
 627              	@ inc/user_libs/usb_core.c:380:     usbcfg.d32 = USB_OTG_READ_REG32(&pdev->regs.GREGS->GUSBCFG);;
 380:inc/user_libs/usb_core.c ****     usbcfg.b.physel  = 1; /* FS Interface */
 628              		.loc 1 380 0
 629 01be D368     		ldr	r3, [r2, #12]	@ _12, pretmp_64->GUSBCFG
 630              	@ inc/user_libs/usb_core.c:381:     usbcfg.b.physel  = 1; /* FS Interface */
 381:inc/user_libs/usb_core.c ****     USB_OTG_WRITE_REG32 (&pdev->regs.GREGS->GUSBCFG, usbcfg.d32);
 631              		.loc 1 381 0
 632 01c0 43F04003 		orr	r3, r3, #64	@ usbcfg, _12,
ARM GAS  /tmp/ccQkqy1T.s 			page 20


 633              	.LVL57:
 634              	@ inc/user_libs/usb_core.c:382:     USB_OTG_WRITE_REG32 (&pdev->regs.GREGS->GUSBCFG, usbcfg.d32);
 382:inc/user_libs/usb_core.c ****     /* Reset after a PHY select and set Host mode */
 635              		.loc 1 382 0
 636 01c4 D360     		str	r3, [r2, #12]	@ usbcfg, pretmp_64->GUSBCFG
 637              	@ inc/user_libs/usb_core.c:384:     USB_OTG_CoreReset(pdev);
 384:inc/user_libs/usb_core.c ****     /* Deactivate the power down*/
 638              		.loc 1 384 0
 639 01c6 FFF71BFF 		bl	USB_OTG_CoreReset.isra.1	@
 640              	.LVL58:
 641              	@ inc/user_libs/usb_core.c:395:     if(pdev->cfg.Sof_output)
 395:inc/user_libs/usb_core.c ****     {
 642              		.loc 1 395 0
 643 01ca 6B7A     		ldrb	r3, [r5, #9]	@ zero_extendqisi2	@ pdev_28(D)->cfg.Sof_output, pdev_28(D)->cfg.Sof_output
 644              	@ inc/user_libs/usb_core.c:400:     USB_OTG_WRITE_REG32 (&pdev->regs.GREGS->GCCFG, gccfg.d32);
 400:inc/user_libs/usb_core.c ****     USB_OTG_BSP_mDelay(20);
 645              		.loc 1 400 0
 646 01cc EA68     		ldr	r2, [r5, #12]	@ _15, pdev_28(D)->regs.GREGS
 647              	@ inc/user_libs/usb_core.c:397:       gccfg.b.sofouten = 1;  
 397:inc/user_libs/usb_core.c ****     }
 648              		.loc 1 397 0
 649 01ce 002B     		cmp	r3, #0	@ pdev_28(D)->cfg.Sof_output,
 650 01d0 0CBF     		ite	eq
 651 01d2 4FF45023 		moveq	r3, #851968	@ gccfg,
 652 01d6 4FF4E813 		movne	r3, #1900544	@ gccfg,
 653              	.LVL59:
 654              	@ inc/user_libs/usb_core.c:400:     USB_OTG_WRITE_REG32 (&pdev->regs.GREGS->GCCFG, gccfg.d32);
 400:inc/user_libs/usb_core.c ****     USB_OTG_BSP_mDelay(20);
 655              		.loc 1 400 0
 656 01da 9363     		str	r3, [r2, #56]	@ gccfg, _15->GCCFG
 657              	@ inc/user_libs/usb_core.c:401:     USB_OTG_BSP_mDelay(20);
 401:inc/user_libs/usb_core.c ****   }
 658              		.loc 1 401 0
 659 01dc 1420     		movs	r0, #20	@,
 660 01de FFF7FEFF 		bl	USB_OTG_BSP_mDelay	@
 661              	.LVL60:
 662 01e2 DFE7     		b	.L43	@
 663              		.cfi_endproc
 664              	.LFE115:
 665              		.size	USB_OTG_CoreInit, .-USB_OTG_CoreInit
 666              		.align	1
 667              		.global	USB_OTG_EnableGlobalInt
 668              		.syntax unified
 669              		.thumb
 670              		.thumb_func
 671              		.fpu softvfp
 672              		.type	USB_OTG_EnableGlobalInt, %function
 673              	USB_OTG_EnableGlobalInt:
 674              	.LFB116:
 423:inc/user_libs/usb_core.c **** /**
 424:inc/user_libs/usb_core.c **** * @brief  USB_OTG_EnableGlobalInt
 425:inc/user_libs/usb_core.c **** *         Enables the controller's Global Int in the AHB Config reg
 426:inc/user_libs/usb_core.c **** * @param  pdev : Selected device
 427:inc/user_libs/usb_core.c **** * @retval USB_OTG_STS : status
 428:inc/user_libs/usb_core.c **** */
 429:inc/user_libs/usb_core.c **** USB_OTG_STS USB_OTG_EnableGlobalInt(USB_OTG_CORE_HANDLE *pdev)
 430:inc/user_libs/usb_core.c **** {
ARM GAS  /tmp/ccQkqy1T.s 			page 21


 675              		.loc 1 430 0
 676              		.cfi_startproc
 677              		@ args = 0, pretend = 0, frame = 0
 678              		@ frame_needed = 0, uses_anonymous_args = 0
 679              		@ link register save eliminated.
 680              	.LVL61:
 681              	@ inc/user_libs/usb_core.c:436:   USB_OTG_MODIFY_REG32(&pdev->regs.GREGS->GAHBCFG, 0, ahbcfg.d32);
 431:inc/user_libs/usb_core.c ****   USB_OTG_STS status = USB_OTG_OK;
 432:inc/user_libs/usb_core.c ****   USB_OTG_GAHBCFG_TypeDef  ahbcfg;
 433:inc/user_libs/usb_core.c ****   
 434:inc/user_libs/usb_core.c ****   ahbcfg.d32 = 0;
 435:inc/user_libs/usb_core.c ****   ahbcfg.b.glblintrmsk = 1; /* Enable interrupts */
 436:inc/user_libs/usb_core.c ****   USB_OTG_MODIFY_REG32(&pdev->regs.GREGS->GAHBCFG, 0, ahbcfg.d32);
 682              		.loc 1 436 0
 683 01e4 C268     		ldr	r2, [r0, #12]	@ _1, pdev_8(D)->regs.GREGS
 684 01e6 9368     		ldr	r3, [r2, #8]	@ _2, _1->GAHBCFG
 685 01e8 43F00103 		orr	r3, r3, #1	@ _4, _2,
 686 01ec 9360     		str	r3, [r2, #8]	@ _4, _1->GAHBCFG
 687              	@ inc/user_libs/usb_core.c:438: }
 437:inc/user_libs/usb_core.c ****   return status;
 438:inc/user_libs/usb_core.c **** }
 688              		.loc 1 438 0
 689 01ee 0020     		movs	r0, #0	@,
 690              	.LVL62:
 691 01f0 7047     		bx	lr	@
 692              		.cfi_endproc
 693              	.LFE116:
 694              		.size	USB_OTG_EnableGlobalInt, .-USB_OTG_EnableGlobalInt
 695              		.align	1
 696              		.global	USB_OTG_DisableGlobalInt
 697              		.syntax unified
 698              		.thumb
 699              		.thumb_func
 700              		.fpu softvfp
 701              		.type	USB_OTG_DisableGlobalInt, %function
 702              	USB_OTG_DisableGlobalInt:
 703              	.LFB117:
 439:inc/user_libs/usb_core.c **** 
 440:inc/user_libs/usb_core.c **** 
 441:inc/user_libs/usb_core.c **** /**
 442:inc/user_libs/usb_core.c **** * @brief  USB_OTG_DisableGlobalInt
 443:inc/user_libs/usb_core.c **** *         Enables the controller's Global Int in the AHB Config reg
 444:inc/user_libs/usb_core.c **** * @param  pdev : Selected device
 445:inc/user_libs/usb_core.c **** * @retval USB_OTG_STS : status
 446:inc/user_libs/usb_core.c **** */
 447:inc/user_libs/usb_core.c **** USB_OTG_STS USB_OTG_DisableGlobalInt(USB_OTG_CORE_HANDLE *pdev)
 448:inc/user_libs/usb_core.c **** {
 704              		.loc 1 448 0
 705              		.cfi_startproc
 706              		@ args = 0, pretend = 0, frame = 0
 707              		@ frame_needed = 0, uses_anonymous_args = 0
 708              		@ link register save eliminated.
 709              	.LVL63:
 710              	@ inc/user_libs/usb_core.c:453:   USB_OTG_MODIFY_REG32(&pdev->regs.GREGS->GAHBCFG, ahbcfg.d32, 0);
 449:inc/user_libs/usb_core.c ****   USB_OTG_STS status = USB_OTG_OK;
 450:inc/user_libs/usb_core.c ****   USB_OTG_GAHBCFG_TypeDef  ahbcfg;
 451:inc/user_libs/usb_core.c ****   ahbcfg.d32 = 0;
ARM GAS  /tmp/ccQkqy1T.s 			page 22


 452:inc/user_libs/usb_core.c ****   ahbcfg.b.glblintrmsk = 1; /* Enable interrupts */
 453:inc/user_libs/usb_core.c ****   USB_OTG_MODIFY_REG32(&pdev->regs.GREGS->GAHBCFG, ahbcfg.d32, 0);
 711              		.loc 1 453 0
 712 01f2 C268     		ldr	r2, [r0, #12]	@ _1, pdev_9(D)->regs.GREGS
 713 01f4 9368     		ldr	r3, [r2, #8]	@ _2, _1->GAHBCFG
 714 01f6 23F00103 		bic	r3, r3, #1	@ _5, _2,
 715 01fa 9360     		str	r3, [r2, #8]	@ _5, _1->GAHBCFG
 716              	@ inc/user_libs/usb_core.c:455: }
 454:inc/user_libs/usb_core.c ****   return status;
 455:inc/user_libs/usb_core.c **** }
 717              		.loc 1 455 0
 718 01fc 0020     		movs	r0, #0	@,
 719              	.LVL64:
 720 01fe 7047     		bx	lr	@
 721              		.cfi_endproc
 722              	.LFE117:
 723              		.size	USB_OTG_DisableGlobalInt, .-USB_OTG_DisableGlobalInt
 724              		.align	1
 725              		.global	USB_OTG_FlushTxFifo
 726              		.syntax unified
 727              		.thumb
 728              		.thumb_func
 729              		.fpu softvfp
 730              		.type	USB_OTG_FlushTxFifo, %function
 731              	USB_OTG_FlushTxFifo:
 732              	.LFB118:
 456:inc/user_libs/usb_core.c **** 
 457:inc/user_libs/usb_core.c **** 
 458:inc/user_libs/usb_core.c **** /**
 459:inc/user_libs/usb_core.c **** * @brief  USB_OTG_FlushTxFifo : Flush a Tx FIFO
 460:inc/user_libs/usb_core.c **** * @param  pdev : Selected device
 461:inc/user_libs/usb_core.c **** * @param  num : FO num
 462:inc/user_libs/usb_core.c **** * @retval USB_OTG_STS : status
 463:inc/user_libs/usb_core.c **** */
 464:inc/user_libs/usb_core.c **** USB_OTG_STS USB_OTG_FlushTxFifo (USB_OTG_CORE_HANDLE *pdev , uint32_t num )
 465:inc/user_libs/usb_core.c **** {
 733              		.loc 1 465 0
 734              		.cfi_startproc
 735              		@ args = 0, pretend = 0, frame = 8
 736              		@ frame_needed = 0, uses_anonymous_args = 0
 737              	.LVL65:
 738 0200 07B5     		push	{r0, r1, r2, lr}	@
 739              	.LCFI6:
 740              		.cfi_def_cfa_offset 16
 741              		.cfi_offset 14, -4
 742              	@ inc/user_libs/usb_core.c:470:   greset.d32 = 0;
 466:inc/user_libs/usb_core.c ****   USB_OTG_STS status = USB_OTG_OK;
 467:inc/user_libs/usb_core.c ****   __IO USB_OTG_GRSTCTL_TypeDef  greset;
 468:inc/user_libs/usb_core.c ****   
 469:inc/user_libs/usb_core.c ****   uint32_t count = 0;
 470:inc/user_libs/usb_core.c ****   greset.d32 = 0;
 743              		.loc 1 470 0
 744 0202 0023     		movs	r3, #0	@ tmp119,
 745 0204 0193     		str	r3, [sp, #4]	@ tmp119, greset.d32
 746              	@ inc/user_libs/usb_core.c:471:   greset.b.txfflsh = 1;
 471:inc/user_libs/usb_core.c ****   greset.b.txfflsh = 1;
 747              		.loc 1 471 0
ARM GAS  /tmp/ccQkqy1T.s 			page 23


 748 0206 019B     		ldr	r3, [sp, #4]	@ tmp120,
 749 0208 43F02003 		orr	r3, r3, #32	@ tmp120, tmp120,
 750 020c 0193     		str	r3, [sp, #4]	@ tmp120,
 751              	@ inc/user_libs/usb_core.c:472:   greset.b.txfnum  = num;
 472:inc/user_libs/usb_core.c ****   greset.b.txfnum  = num;
 752              		.loc 1 472 0
 753 020e 019B     		ldr	r3, [sp, #4]	@ _1,
 754 0210 61F38A13 		bfi	r3, r1, #6, #5	@ _1, num,,
 755 0214 0193     		str	r3, [sp, #4]	@ _1,
 756              	@ inc/user_libs/usb_core.c:473:   USB_OTG_WRITE_REG32( &pdev->regs.GREGS->GRSTCTL, greset.d32 );
 473:inc/user_libs/usb_core.c ****   USB_OTG_WRITE_REG32( &pdev->regs.GREGS->GRSTCTL, greset.d32 );
 757              		.loc 1 473 0
 758 0216 C268     		ldr	r2, [r0, #12]	@ _2, pdev_13(D)->regs.GREGS
 759 0218 019B     		ldr	r3, [sp, #4]	@ _3, greset.d32
 760 021a 1361     		str	r3, [r2, #16]	@ _3, _2->GRSTCTL
 761 021c 074B     		ldr	r3, .L62	@ ivtmp_18,
 762              	.LVL66:
 763              	.L55:
 764              	@ inc/user_libs/usb_core.c:476:     greset.d32 = USB_OTG_READ_REG32( &pdev->regs.GREGS->GRSTCTL);
 474:inc/user_libs/usb_core.c ****   do
 475:inc/user_libs/usb_core.c ****   {
 476:inc/user_libs/usb_core.c ****     greset.d32 = USB_OTG_READ_REG32( &pdev->regs.GREGS->GRSTCTL);
 765              		.loc 1 476 0
 766 021e 1169     		ldr	r1, [r2, #16]	@ _4, _2->GRSTCTL
 767 0220 0191     		str	r1, [sp, #4]	@ _4, greset.d32
 768              	.LVL67:
 769              	@ inc/user_libs/usb_core.c:477:     if (++count > 200000)
 477:inc/user_libs/usb_core.c ****     if (++count > 200000)
 770              		.loc 1 477 0
 771 0222 013B     		subs	r3, r3, #1	@ ivtmp_18, ivtmp_18,
 772              	.LVL68:
 773 0224 02D0     		beq	.L54	@,
 774              	.LVL69:
 775              	@ inc/user_libs/usb_core.c:482:   while (greset.b.txfflsh == 1);
 478:inc/user_libs/usb_core.c ****     {
 479:inc/user_libs/usb_core.c ****       break;
 480:inc/user_libs/usb_core.c ****     }
 481:inc/user_libs/usb_core.c ****   }
 482:inc/user_libs/usb_core.c ****   while (greset.b.txfflsh == 1);
 776              		.loc 1 482 0
 777 0226 0199     		ldr	r1, [sp, #4]	@ greset, greset
 778 0228 8906     		lsls	r1, r1, #26	@, greset,
 779 022a F8D4     		bmi	.L55	@,
 780              	.LVL70:
 781              	.L54:
 782              	@ inc/user_libs/usb_core.c:484:   USB_OTG_BSP_uDelay(3);
 483:inc/user_libs/usb_core.c ****   /* Wait for 3 PHY Clocks*/
 484:inc/user_libs/usb_core.c ****   USB_OTG_BSP_uDelay(3);
 783              		.loc 1 484 0
 784 022c 0320     		movs	r0, #3	@,
 785              	.LVL71:
 786 022e FFF7FEFF 		bl	USB_OTG_BSP_uDelay	@
 787              	.LVL72:
 788              	@ inc/user_libs/usb_core.c:486: }
 485:inc/user_libs/usb_core.c ****   return status;
 486:inc/user_libs/usb_core.c **** }
 789              		.loc 1 486 0
ARM GAS  /tmp/ccQkqy1T.s 			page 24


 790 0232 0020     		movs	r0, #0	@,
 791 0234 03B0     		add	sp, sp, #12	@,,
 792              	.LCFI7:
 793              		.cfi_def_cfa_offset 4
 794              		@ sp needed	@
 795 0236 5DF804FB 		ldr	pc, [sp], #4	@
 796              	.L63:
 797 023a 00BF     		.align	2
 798              	.L62:
 799 023c 410D0300 		.word	200001
 800              		.cfi_endproc
 801              	.LFE118:
 802              		.size	USB_OTG_FlushTxFifo, .-USB_OTG_FlushTxFifo
 803              		.align	1
 804              		.global	USB_OTG_FlushRxFifo
 805              		.syntax unified
 806              		.thumb
 807              		.thumb_func
 808              		.fpu softvfp
 809              		.type	USB_OTG_FlushRxFifo, %function
 810              	USB_OTG_FlushRxFifo:
 811              	.LFB119:
 487:inc/user_libs/usb_core.c **** 
 488:inc/user_libs/usb_core.c **** 
 489:inc/user_libs/usb_core.c **** /**
 490:inc/user_libs/usb_core.c **** * @brief  USB_OTG_FlushRxFifo : Flush a Rx FIFO
 491:inc/user_libs/usb_core.c **** * @param  pdev : Selected device
 492:inc/user_libs/usb_core.c **** * @retval USB_OTG_STS : status
 493:inc/user_libs/usb_core.c **** */
 494:inc/user_libs/usb_core.c **** USB_OTG_STS USB_OTG_FlushRxFifo( USB_OTG_CORE_HANDLE *pdev )
 495:inc/user_libs/usb_core.c **** {
 812              		.loc 1 495 0
 813              		.cfi_startproc
 814              		@ args = 0, pretend = 0, frame = 8
 815              		@ frame_needed = 0, uses_anonymous_args = 0
 816              	.LVL73:
 817 0240 07B5     		push	{r0, r1, r2, lr}	@
 818              	.LCFI8:
 819              		.cfi_def_cfa_offset 16
 820              		.cfi_offset 14, -4
 821              	@ inc/user_libs/usb_core.c:500:   greset.d32 = 0;
 496:inc/user_libs/usb_core.c ****   USB_OTG_STS status = USB_OTG_OK;
 497:inc/user_libs/usb_core.c ****   __IO USB_OTG_GRSTCTL_TypeDef  greset;
 498:inc/user_libs/usb_core.c ****   uint32_t count = 0;
 499:inc/user_libs/usb_core.c ****   
 500:inc/user_libs/usb_core.c ****   greset.d32 = 0;
 822              		.loc 1 500 0
 823 0242 0023     		movs	r3, #0	@ tmp117,
 824 0244 0193     		str	r3, [sp, #4]	@ tmp117, greset.d32
 825              	@ inc/user_libs/usb_core.c:501:   greset.b.rxfflsh = 1;
 501:inc/user_libs/usb_core.c ****   greset.b.rxfflsh = 1;
 826              		.loc 1 501 0
 827 0246 019B     		ldr	r3, [sp, #4]	@ tmp118,
 828 0248 43F01003 		orr	r3, r3, #16	@ tmp118, tmp118,
 829 024c 0193     		str	r3, [sp, #4]	@ tmp118,
 830              	@ inc/user_libs/usb_core.c:502:   USB_OTG_WRITE_REG32( &pdev->regs.GREGS->GRSTCTL, greset.d32 );
 502:inc/user_libs/usb_core.c ****   USB_OTG_WRITE_REG32( &pdev->regs.GREGS->GRSTCTL, greset.d32 );
ARM GAS  /tmp/ccQkqy1T.s 			page 25


 831              		.loc 1 502 0
 832 024e C268     		ldr	r2, [r0, #12]	@ _1, pdev_10(D)->regs.GREGS
 833 0250 019B     		ldr	r3, [sp, #4]	@ _2, greset.d32
 834 0252 1361     		str	r3, [r2, #16]	@ _2, _1->GRSTCTL
 835 0254 074B     		ldr	r3, .L73	@ ivtmp_15,
 836              	.LVL74:
 837              	.L66:
 838              	@ inc/user_libs/usb_core.c:505:     greset.d32 = USB_OTG_READ_REG32( &pdev->regs.GREGS->GRSTCTL);
 503:inc/user_libs/usb_core.c ****   do
 504:inc/user_libs/usb_core.c ****   {
 505:inc/user_libs/usb_core.c ****     greset.d32 = USB_OTG_READ_REG32( &pdev->regs.GREGS->GRSTCTL);
 839              		.loc 1 505 0
 840 0256 1169     		ldr	r1, [r2, #16]	@ _3, _1->GRSTCTL
 841 0258 0191     		str	r1, [sp, #4]	@ _3, greset.d32
 842              	.LVL75:
 843              	@ inc/user_libs/usb_core.c:506:     if (++count > 200000)
 506:inc/user_libs/usb_core.c ****     if (++count > 200000)
 844              		.loc 1 506 0
 845 025a 013B     		subs	r3, r3, #1	@ ivtmp_15, ivtmp_15,
 846              	.LVL76:
 847 025c 02D0     		beq	.L65	@,
 848              	.LVL77:
 849              	@ inc/user_libs/usb_core.c:511:   while (greset.b.rxfflsh == 1);
 507:inc/user_libs/usb_core.c ****     {
 508:inc/user_libs/usb_core.c ****       break;
 509:inc/user_libs/usb_core.c ****     }
 510:inc/user_libs/usb_core.c ****   }
 511:inc/user_libs/usb_core.c ****   while (greset.b.rxfflsh == 1);
 850              		.loc 1 511 0
 851 025e 0199     		ldr	r1, [sp, #4]	@ greset, greset
 852 0260 C906     		lsls	r1, r1, #27	@, greset,
 853 0262 F8D4     		bmi	.L66	@,
 854              	.LVL78:
 855              	.L65:
 856              	@ inc/user_libs/usb_core.c:513:   USB_OTG_BSP_uDelay(3);
 512:inc/user_libs/usb_core.c ****   /* Wait for 3 PHY Clocks*/
 513:inc/user_libs/usb_core.c ****   USB_OTG_BSP_uDelay(3);
 857              		.loc 1 513 0
 858 0264 0320     		movs	r0, #3	@,
 859              	.LVL79:
 860 0266 FFF7FEFF 		bl	USB_OTG_BSP_uDelay	@
 861              	.LVL80:
 862              	@ inc/user_libs/usb_core.c:515: }
 514:inc/user_libs/usb_core.c ****   return status;
 515:inc/user_libs/usb_core.c **** }
 863              		.loc 1 515 0
 864 026a 0020     		movs	r0, #0	@,
 865 026c 03B0     		add	sp, sp, #12	@,,
 866              	.LCFI9:
 867              		.cfi_def_cfa_offset 4
 868              		@ sp needed	@
 869 026e 5DF804FB 		ldr	pc, [sp], #4	@
 870              	.L74:
 871 0272 00BF     		.align	2
 872              	.L73:
 873 0274 410D0300 		.word	200001
 874              		.cfi_endproc
ARM GAS  /tmp/ccQkqy1T.s 			page 26


 875              	.LFE119:
 876              		.size	USB_OTG_FlushRxFifo, .-USB_OTG_FlushRxFifo
 877              		.align	1
 878              		.global	USB_OTG_SetCurrentMode
 879              		.syntax unified
 880              		.thumb
 881              		.thumb_func
 882              		.fpu softvfp
 883              		.type	USB_OTG_SetCurrentMode, %function
 884              	USB_OTG_SetCurrentMode:
 885              	.LFB120:
 516:inc/user_libs/usb_core.c **** 
 517:inc/user_libs/usb_core.c **** 
 518:inc/user_libs/usb_core.c **** /**
 519:inc/user_libs/usb_core.c **** * @brief  USB_OTG_SetCurrentMode : Set ID line
 520:inc/user_libs/usb_core.c **** * @param  pdev : Selected device
 521:inc/user_libs/usb_core.c **** * @param  mode :  (Host/device)
 522:inc/user_libs/usb_core.c **** * @retval USB_OTG_STS : status
 523:inc/user_libs/usb_core.c **** */
 524:inc/user_libs/usb_core.c **** USB_OTG_STS USB_OTG_SetCurrentMode(USB_OTG_CORE_HANDLE *pdev , uint8_t mode)
 525:inc/user_libs/usb_core.c **** {
 886              		.loc 1 525 0
 887              		.cfi_startproc
 888              		@ args = 0, pretend = 0, frame = 0
 889              		@ frame_needed = 0, uses_anonymous_args = 0
 890              	.LVL81:
 891              	@ inc/user_libs/usb_core.c:529:   usbcfg.d32 = USB_OTG_READ_REG32(&pdev->regs.GREGS->GUSBCFG);
 526:inc/user_libs/usb_core.c ****   USB_OTG_STS status = USB_OTG_OK;
 527:inc/user_libs/usb_core.c ****   USB_OTG_GUSBCFG_TypeDef  usbcfg;
 528:inc/user_libs/usb_core.c ****   
 529:inc/user_libs/usb_core.c ****   usbcfg.d32 = USB_OTG_READ_REG32(&pdev->regs.GREGS->GUSBCFG);
 892              		.loc 1 529 0
 893 0278 C268     		ldr	r2, [r0, #12]	@ _1, pdev_6(D)->regs.GREGS
 894              	@ inc/user_libs/usb_core.c:525: {
 525:inc/user_libs/usb_core.c ****   USB_OTG_STS status = USB_OTG_OK;
 895              		.loc 1 525 0
 896 027a 08B5     		push	{r3, lr}	@
 897              	.LCFI10:
 898              		.cfi_def_cfa_offset 8
 899              		.cfi_offset 3, -8
 900              		.cfi_offset 14, -4
 901              	@ inc/user_libs/usb_core.c:529:   usbcfg.d32 = USB_OTG_READ_REG32(&pdev->regs.GREGS->GUSBCFG);
 902              		.loc 1 529 0
 903 027c D368     		ldr	r3, [r2, #12]	@ usbcfg, _1->GUSBCFG
 904              	.LVL82:
 905              	@ inc/user_libs/usb_core.c:534:   if ( mode == HOST_MODE)
 530:inc/user_libs/usb_core.c ****   
 531:inc/user_libs/usb_core.c ****   usbcfg.b.force_host = 0;
 532:inc/user_libs/usb_core.c ****   usbcfg.b.force_dev = 0;
 533:inc/user_libs/usb_core.c ****   
 534:inc/user_libs/usb_core.c ****   if ( mode == HOST_MODE)
 906              		.loc 1 534 0
 907 027e 0129     		cmp	r1, #1	@ mode,
 908              	@ inc/user_libs/usb_core.c:531:   usbcfg.b.force_host = 0;
 531:inc/user_libs/usb_core.c ****   usbcfg.b.force_dev = 0;
 909              		.loc 1 531 0
 910 0280 6FF35D73 		bfc	r3, #29, #1	@ usbcfg,,
ARM GAS  /tmp/ccQkqy1T.s 			page 27


 911              	@ inc/user_libs/usb_core.c:532:   usbcfg.b.force_dev = 0;
 532:inc/user_libs/usb_core.c ****   
 912              		.loc 1 532 0
 913 0284 6FF39E73 		bfc	r3, #30, #1	@ usbcfg,,
 914              	@ inc/user_libs/usb_core.c:534:   if ( mode == HOST_MODE)
 915              		.loc 1 534 0
 916 0288 07D1     		bne	.L76	@,
 917              	@ inc/user_libs/usb_core.c:536:     usbcfg.b.force_host = 1;
 535:inc/user_libs/usb_core.c ****   {
 536:inc/user_libs/usb_core.c ****     usbcfg.b.force_host = 1;
 918              		.loc 1 536 0
 919 028a 43F00053 		orr	r3, r3, #536870912	@ usbcfg, usbcfg,
 920              	.LVL83:
 921              	.L77:
 922              	@ inc/user_libs/usb_core.c:543:   USB_OTG_WRITE_REG32(&pdev->regs.GREGS->GUSBCFG, usbcfg.d32);
 537:inc/user_libs/usb_core.c ****   }
 538:inc/user_libs/usb_core.c ****   else if ( mode == DEVICE_MODE)
 539:inc/user_libs/usb_core.c ****   {
 540:inc/user_libs/usb_core.c ****     usbcfg.b.force_dev = 1;
 541:inc/user_libs/usb_core.c ****   }
 542:inc/user_libs/usb_core.c ****   
 543:inc/user_libs/usb_core.c ****   USB_OTG_WRITE_REG32(&pdev->regs.GREGS->GUSBCFG, usbcfg.d32);
 923              		.loc 1 543 0
 924 028e D360     		str	r3, [r2, #12]	@ usbcfg, _1->GUSBCFG
 925              	@ inc/user_libs/usb_core.c:544:   USB_OTG_BSP_mDelay(50);
 544:inc/user_libs/usb_core.c ****   USB_OTG_BSP_mDelay(50);
 926              		.loc 1 544 0
 927 0290 3220     		movs	r0, #50	@,
 928              	.LVL84:
 929 0292 FFF7FEFF 		bl	USB_OTG_BSP_mDelay	@
 930              	.LVL85:
 931              	@ inc/user_libs/usb_core.c:546: }
 545:inc/user_libs/usb_core.c ****   return status;
 546:inc/user_libs/usb_core.c **** }
 932              		.loc 1 546 0
 933 0296 0020     		movs	r0, #0	@,
 934 0298 08BD     		pop	{r3, pc}	@
 935              	.LVL86:
 936              	.L76:
 937              	@ inc/user_libs/usb_core.c:538:   else if ( mode == DEVICE_MODE)
 538:inc/user_libs/usb_core.c ****   {
 938              		.loc 1 538 0
 939 029a 0029     		cmp	r1, #0	@ mode
 940 029c F7D1     		bne	.L77	@
 941              	@ inc/user_libs/usb_core.c:540:     usbcfg.b.force_dev = 1;
 540:inc/user_libs/usb_core.c ****   }
 942              		.loc 1 540 0
 943 029e 43F08043 		orr	r3, r3, #1073741824	@ usbcfg, usbcfg,
 944              	.LVL87:
 945 02a2 F4E7     		b	.L77	@
 946              		.cfi_endproc
 947              	.LFE120:
 948              		.size	USB_OTG_SetCurrentMode, .-USB_OTG_SetCurrentMode
 949              		.align	1
 950              		.global	USB_OTG_GetMode
 951              		.syntax unified
 952              		.thumb
ARM GAS  /tmp/ccQkqy1T.s 			page 28


 953              		.thumb_func
 954              		.fpu softvfp
 955              		.type	USB_OTG_GetMode, %function
 956              	USB_OTG_GetMode:
 957              	.LFB121:
 547:inc/user_libs/usb_core.c **** 
 548:inc/user_libs/usb_core.c **** 
 549:inc/user_libs/usb_core.c **** /**
 550:inc/user_libs/usb_core.c **** * @brief  USB_OTG_GetMode : Get current mode
 551:inc/user_libs/usb_core.c **** * @param  pdev : Selected device
 552:inc/user_libs/usb_core.c **** * @retval current mode
 553:inc/user_libs/usb_core.c **** */
 554:inc/user_libs/usb_core.c **** uint32_t USB_OTG_GetMode(USB_OTG_CORE_HANDLE *pdev)
 555:inc/user_libs/usb_core.c **** {
 958              		.loc 1 555 0
 959              		.cfi_startproc
 960              		@ args = 0, pretend = 0, frame = 0
 961              		@ frame_needed = 0, uses_anonymous_args = 0
 962              		@ link register save eliminated.
 963              	.LVL88:
 964              	@ inc/user_libs/usb_core.c:556:   return (USB_OTG_READ_REG32(&pdev->regs.GREGS->GINTSTS ) & 0x1);
 556:inc/user_libs/usb_core.c ****   return (USB_OTG_READ_REG32(&pdev->regs.GREGS->GINTSTS ) & 0x1);
 965              		.loc 1 556 0
 966 02a4 C368     		ldr	r3, [r0, #12]	@ _1, pdev_4(D)->regs.GREGS
 967 02a6 5869     		ldr	r0, [r3, #20]	@ _2, _1->GINTSTS
 968              	.LVL89:
 969              	@ inc/user_libs/usb_core.c:557: }
 557:inc/user_libs/usb_core.c **** }
 970              		.loc 1 557 0
 971 02a8 00F00100 		and	r0, r0, #1	@, _2,
 972 02ac 7047     		bx	lr	@
 973              		.cfi_endproc
 974              	.LFE121:
 975              		.size	USB_OTG_GetMode, .-USB_OTG_GetMode
 976              		.align	1
 977              		.global	USB_OTG_IsDeviceMode
 978              		.syntax unified
 979              		.thumb
 980              		.thumb_func
 981              		.fpu softvfp
 982              		.type	USB_OTG_IsDeviceMode, %function
 983              	USB_OTG_IsDeviceMode:
 984              	.LFB122:
 558:inc/user_libs/usb_core.c **** 
 559:inc/user_libs/usb_core.c **** 
 560:inc/user_libs/usb_core.c **** /**
 561:inc/user_libs/usb_core.c **** * @brief  USB_OTG_IsDeviceMode : Check if it is device mode
 562:inc/user_libs/usb_core.c **** * @param  pdev : Selected device
 563:inc/user_libs/usb_core.c **** * @retval num_in_ep
 564:inc/user_libs/usb_core.c **** */
 565:inc/user_libs/usb_core.c **** uint8_t USB_OTG_IsDeviceMode(USB_OTG_CORE_HANDLE *pdev)
 566:inc/user_libs/usb_core.c **** {
 985              		.loc 1 566 0
 986              		.cfi_startproc
 987              		@ args = 0, pretend = 0, frame = 0
 988              		@ frame_needed = 0, uses_anonymous_args = 0
 989              		@ link register save eliminated.
ARM GAS  /tmp/ccQkqy1T.s 			page 29


 990              	.LVL90:
 991              	.LBB17:
 992              	.LBB18:
 993              	@ inc/user_libs/usb_core.c:556:   return (USB_OTG_READ_REG32(&pdev->regs.GREGS->GINTSTS ) & 0x1);
 556:inc/user_libs/usb_core.c **** }
 994              		.loc 1 556 0
 995 02ae C368     		ldr	r3, [r0, #12]	@ _5, pdev_3(D)->regs.GREGS
 996 02b0 5869     		ldr	r0, [r3, #20]	@ _6, _5->GINTSTS
 997              	.LVL91:
 998              	.LBE18:
 999              	.LBE17:
 1000              	@ inc/user_libs/usb_core.c:567:   return (USB_OTG_GetMode(pdev) != HOST_MODE);
 567:inc/user_libs/usb_core.c ****   return (USB_OTG_GetMode(pdev) != HOST_MODE);
 1001              		.loc 1 567 0
 1002 02b2 C043     		mvns	r0, r0	@ tmp117, _6
 1003              	@ inc/user_libs/usb_core.c:568: }
 568:inc/user_libs/usb_core.c **** }
 1004              		.loc 1 568 0
 1005 02b4 00F00100 		and	r0, r0, #1	@, tmp117,
 1006 02b8 7047     		bx	lr	@
 1007              		.cfi_endproc
 1008              	.LFE122:
 1009              		.size	USB_OTG_IsDeviceMode, .-USB_OTG_IsDeviceMode
 1010              		.align	1
 1011              		.global	USB_OTG_IsHostMode
 1012              		.syntax unified
 1013              		.thumb
 1014              		.thumb_func
 1015              		.fpu softvfp
 1016              		.type	USB_OTG_IsHostMode, %function
 1017              	USB_OTG_IsHostMode:
 1018              	.LFB123:
 569:inc/user_libs/usb_core.c **** 
 570:inc/user_libs/usb_core.c **** 
 571:inc/user_libs/usb_core.c **** /**
 572:inc/user_libs/usb_core.c **** * @brief  USB_OTG_IsHostMode : Check if it is host mode
 573:inc/user_libs/usb_core.c **** * @param  pdev : Selected device
 574:inc/user_libs/usb_core.c **** * @retval num_in_ep
 575:inc/user_libs/usb_core.c **** */
 576:inc/user_libs/usb_core.c **** uint8_t USB_OTG_IsHostMode(USB_OTG_CORE_HANDLE *pdev)
 577:inc/user_libs/usb_core.c **** {
 1019              		.loc 1 577 0
 1020              		.cfi_startproc
 1021              		@ args = 0, pretend = 0, frame = 0
 1022              		@ frame_needed = 0, uses_anonymous_args = 0
 1023              		@ link register save eliminated.
 1024              	.LVL92:
 1025              	.LBB19:
 1026              	.LBB20:
 1027              	@ inc/user_libs/usb_core.c:556:   return (USB_OTG_READ_REG32(&pdev->regs.GREGS->GINTSTS ) & 0x1);
 556:inc/user_libs/usb_core.c **** }
 1028              		.loc 1 556 0
 1029 02ba C368     		ldr	r3, [r0, #12]	@ _5, pdev_3(D)->regs.GREGS
 1030 02bc 5869     		ldr	r0, [r3, #20]	@ _6, _5->GINTSTS
 1031              	.LVL93:
 1032              	.LBE20:
 1033              	.LBE19:
ARM GAS  /tmp/ccQkqy1T.s 			page 30


 1034              	@ inc/user_libs/usb_core.c:579: }
 578:inc/user_libs/usb_core.c ****   return (USB_OTG_GetMode(pdev) == HOST_MODE);
 579:inc/user_libs/usb_core.c **** }
 1035              		.loc 1 579 0
 1036 02be 00F00100 		and	r0, r0, #1	@, _6,
 1037 02c2 7047     		bx	lr	@
 1038              		.cfi_endproc
 1039              	.LFE123:
 1040              		.size	USB_OTG_IsHostMode, .-USB_OTG_IsHostMode
 1041              		.align	1
 1042              		.global	USB_OTG_ReadCoreItr
 1043              		.syntax unified
 1044              		.thumb
 1045              		.thumb_func
 1046              		.fpu softvfp
 1047              		.type	USB_OTG_ReadCoreItr, %function
 1048              	USB_OTG_ReadCoreItr:
 1049              	.LFB124:
 580:inc/user_libs/usb_core.c **** 
 581:inc/user_libs/usb_core.c **** 
 582:inc/user_libs/usb_core.c **** /**
 583:inc/user_libs/usb_core.c **** * @brief  USB_OTG_ReadCoreItr : returns the Core Interrupt register
 584:inc/user_libs/usb_core.c **** * @param  pdev : Selected device
 585:inc/user_libs/usb_core.c **** * @retval Status
 586:inc/user_libs/usb_core.c **** */
 587:inc/user_libs/usb_core.c **** uint32_t USB_OTG_ReadCoreItr(USB_OTG_CORE_HANDLE *pdev)
 588:inc/user_libs/usb_core.c **** {
 1050              		.loc 1 588 0
 1051              		.cfi_startproc
 1052              		@ args = 0, pretend = 0, frame = 0
 1053              		@ frame_needed = 0, uses_anonymous_args = 0
 1054              		@ link register save eliminated.
 1055              	.LVL94:
 1056              	@ inc/user_libs/usb_core.c:590:   v = USB_OTG_READ_REG32(&pdev->regs.GREGS->GINTSTS);
 589:inc/user_libs/usb_core.c ****   uint32_t v = 0;
 590:inc/user_libs/usb_core.c ****   v = USB_OTG_READ_REG32(&pdev->regs.GREGS->GINTSTS);
 1057              		.loc 1 590 0
 1058 02c4 C368     		ldr	r3, [r0, #12]	@ _1, pdev_3(D)->regs.GREGS
 1059 02c6 5869     		ldr	r0, [r3, #20]	@ v, _1->GINTSTS
 1060              	.LVL95:
 1061              	@ inc/user_libs/usb_core.c:591:   v &= USB_OTG_READ_REG32(&pdev->regs.GREGS->GINTMSK);
 591:inc/user_libs/usb_core.c ****   v &= USB_OTG_READ_REG32(&pdev->regs.GREGS->GINTMSK);
 1062              		.loc 1 591 0
 1063 02c8 9B69     		ldr	r3, [r3, #24]	@ _5, _1->GINTMSK
 1064              	.LVL96:
 1065              	@ inc/user_libs/usb_core.c:593: }
 592:inc/user_libs/usb_core.c ****   return v;
 593:inc/user_libs/usb_core.c **** }
 1066              		.loc 1 593 0
 1067 02ca 1840     		ands	r0, r0, r3	@,, v, _5
 1068              	.LVL97:
 1069 02cc 7047     		bx	lr	@
 1070              		.cfi_endproc
 1071              	.LFE124:
 1072              		.size	USB_OTG_ReadCoreItr, .-USB_OTG_ReadCoreItr
 1073              		.align	1
 1074              		.global	USB_OTG_ReadOtgItr
ARM GAS  /tmp/ccQkqy1T.s 			page 31


 1075              		.syntax unified
 1076              		.thumb
 1077              		.thumb_func
 1078              		.fpu softvfp
 1079              		.type	USB_OTG_ReadOtgItr, %function
 1080              	USB_OTG_ReadOtgItr:
 1081              	.LFB125:
 594:inc/user_libs/usb_core.c **** 
 595:inc/user_libs/usb_core.c **** 
 596:inc/user_libs/usb_core.c **** /**
 597:inc/user_libs/usb_core.c **** * @brief  USB_OTG_ReadOtgItr : returns the USB_OTG Interrupt register
 598:inc/user_libs/usb_core.c **** * @param  pdev : Selected device
 599:inc/user_libs/usb_core.c **** * @retval Status
 600:inc/user_libs/usb_core.c **** */
 601:inc/user_libs/usb_core.c **** uint32_t USB_OTG_ReadOtgItr (USB_OTG_CORE_HANDLE *pdev)
 602:inc/user_libs/usb_core.c **** {
 1082              		.loc 1 602 0
 1083              		.cfi_startproc
 1084              		@ args = 0, pretend = 0, frame = 0
 1085              		@ frame_needed = 0, uses_anonymous_args = 0
 1086              		@ link register save eliminated.
 1087              	.LVL98:
 1088              	@ inc/user_libs/usb_core.c:603:   return (USB_OTG_READ_REG32 (&pdev->regs.GREGS->GOTGINT));
 603:inc/user_libs/usb_core.c ****   return (USB_OTG_READ_REG32 (&pdev->regs.GREGS->GOTGINT));
 1089              		.loc 1 603 0
 1090 02ce C368     		ldr	r3, [r0, #12]	@ _1, pdev_3(D)->regs.GREGS
 1091 02d0 5868     		ldr	r0, [r3, #4]	@ <retval>, _1->GOTGINT
 1092              	.LVL99:
 1093              	@ inc/user_libs/usb_core.c:604: }
 604:inc/user_libs/usb_core.c **** }
 1094              		.loc 1 604 0
 1095 02d2 7047     		bx	lr	@
 1096              		.cfi_endproc
 1097              	.LFE125:
 1098              		.size	USB_OTG_ReadOtgItr, .-USB_OTG_ReadOtgItr
 1099              		.align	1
 1100              		.global	USB_OTG_InitDevSpeed
 1101              		.syntax unified
 1102              		.thumb
 1103              		.thumb_func
 1104              		.fpu softvfp
 1105              		.type	USB_OTG_InitDevSpeed, %function
 1106              	USB_OTG_InitDevSpeed:
 1107              	.LFB126:
 605:inc/user_libs/usb_core.c **** 
 606:inc/user_libs/usb_core.c **** #ifdef USE_HOST_MODE
 607:inc/user_libs/usb_core.c **** /**
 608:inc/user_libs/usb_core.c **** * @brief  USB_OTG_CoreInitHost : Initializes USB_OTG controller for host mode
 609:inc/user_libs/usb_core.c **** * @param  pdev : Selected device
 610:inc/user_libs/usb_core.c **** * @retval status
 611:inc/user_libs/usb_core.c **** */
 612:inc/user_libs/usb_core.c **** USB_OTG_STS USB_OTG_CoreInitHost(USB_OTG_CORE_HANDLE *pdev)
 613:inc/user_libs/usb_core.c **** {
 614:inc/user_libs/usb_core.c ****   USB_OTG_STS                     status = USB_OTG_OK;
 615:inc/user_libs/usb_core.c ****   USB_OTG_FSIZ_TypeDef            nptxfifosize;
 616:inc/user_libs/usb_core.c ****   USB_OTG_FSIZ_TypeDef            ptxfifosize;  
 617:inc/user_libs/usb_core.c ****   USB_OTG_HCFG_TypeDef            hcfg;
ARM GAS  /tmp/ccQkqy1T.s 			page 32


 618:inc/user_libs/usb_core.c ****   
 619:inc/user_libs/usb_core.c **** #ifdef USE_OTG_MODE
 620:inc/user_libs/usb_core.c ****   USB_OTG_OTGCTL_TypeDef          gotgctl;
 621:inc/user_libs/usb_core.c **** #endif
 622:inc/user_libs/usb_core.c ****   
 623:inc/user_libs/usb_core.c ****   uint32_t                        i = 0;
 624:inc/user_libs/usb_core.c ****   
 625:inc/user_libs/usb_core.c ****   nptxfifosize.d32 = 0;  
 626:inc/user_libs/usb_core.c ****   ptxfifosize.d32 = 0;
 627:inc/user_libs/usb_core.c **** #ifdef USE_OTG_MODE
 628:inc/user_libs/usb_core.c ****   gotgctl.d32 = 0;
 629:inc/user_libs/usb_core.c **** #endif
 630:inc/user_libs/usb_core.c ****   hcfg.d32 = 0;
 631:inc/user_libs/usb_core.c ****   
 632:inc/user_libs/usb_core.c ****   
 633:inc/user_libs/usb_core.c ****   /* configure charge pump IO */
 634:inc/user_libs/usb_core.c ****   USB_OTG_BSP_ConfigVBUS(pdev);
 635:inc/user_libs/usb_core.c ****   
 636:inc/user_libs/usb_core.c ****   /* Restart the Phy Clock */
 637:inc/user_libs/usb_core.c ****   USB_OTG_WRITE_REG32(pdev->regs.PCGCCTL, 0);
 638:inc/user_libs/usb_core.c ****   
 639:inc/user_libs/usb_core.c ****   /* Initialize Host Configuration Register */
 640:inc/user_libs/usb_core.c ****   if (pdev->cfg.phy_itface == USB_OTG_ULPI_PHY)
 641:inc/user_libs/usb_core.c ****   {
 642:inc/user_libs/usb_core.c ****     USB_OTG_InitFSLSPClkSel(pdev , HCFG_30_60_MHZ); 
 643:inc/user_libs/usb_core.c ****   }
 644:inc/user_libs/usb_core.c ****   else
 645:inc/user_libs/usb_core.c ****   {
 646:inc/user_libs/usb_core.c ****     USB_OTG_InitFSLSPClkSel(pdev , HCFG_48_MHZ); 
 647:inc/user_libs/usb_core.c ****   }
 648:inc/user_libs/usb_core.c ****   USB_OTG_ResetPort(pdev);
 649:inc/user_libs/usb_core.c ****   
 650:inc/user_libs/usb_core.c ****   hcfg.d32 = USB_OTG_READ_REG32(&pdev->regs.HREGS->HCFG);
 651:inc/user_libs/usb_core.c ****   hcfg.b.fslssupp = 0;
 652:inc/user_libs/usb_core.c ****   USB_OTG_WRITE_REG32(&pdev->regs.HREGS->HCFG, hcfg.d32);
 653:inc/user_libs/usb_core.c ****   
 654:inc/user_libs/usb_core.c ****   /* Configure data FIFO sizes */
 655:inc/user_libs/usb_core.c ****   /* Rx FIFO */
 656:inc/user_libs/usb_core.c **** #ifdef USB_OTG_FS_CORE
 657:inc/user_libs/usb_core.c ****   if(pdev->cfg.coreID == USB_OTG_FS_CORE_ID)
 658:inc/user_libs/usb_core.c ****   {
 659:inc/user_libs/usb_core.c ****     /* set Rx FIFO size */
 660:inc/user_libs/usb_core.c ****     USB_OTG_WRITE_REG32(&pdev->regs.GREGS->GRXFSIZ, RX_FIFO_FS_SIZE);
 661:inc/user_libs/usb_core.c ****     nptxfifosize.b.startaddr = RX_FIFO_FS_SIZE;   
 662:inc/user_libs/usb_core.c ****     nptxfifosize.b.depth = TXH_NP_FS_FIFOSIZ;  
 663:inc/user_libs/usb_core.c ****     USB_OTG_WRITE_REG32(&pdev->regs.GREGS->DIEPTXF0_HNPTXFSIZ, nptxfifosize.d32);
 664:inc/user_libs/usb_core.c ****     
 665:inc/user_libs/usb_core.c ****     ptxfifosize.b.startaddr = RX_FIFO_FS_SIZE + TXH_NP_FS_FIFOSIZ;
 666:inc/user_libs/usb_core.c ****     ptxfifosize.b.depth     = TXH_P_FS_FIFOSIZ;
 667:inc/user_libs/usb_core.c ****     USB_OTG_WRITE_REG32(&pdev->regs.GREGS->HPTXFSIZ, ptxfifosize.d32);      
 668:inc/user_libs/usb_core.c ****   }
 669:inc/user_libs/usb_core.c **** #endif
 670:inc/user_libs/usb_core.c **** #ifdef USB_OTG_HS_CORE  
 671:inc/user_libs/usb_core.c ****   if (pdev->cfg.coreID == USB_OTG_HS_CORE_ID)
 672:inc/user_libs/usb_core.c ****   {
 673:inc/user_libs/usb_core.c ****     /* set Rx FIFO size */
 674:inc/user_libs/usb_core.c ****     USB_OTG_WRITE_REG32(&pdev->regs.GREGS->GRXFSIZ, RX_FIFO_HS_SIZE);
ARM GAS  /tmp/ccQkqy1T.s 			page 33


 675:inc/user_libs/usb_core.c ****     nptxfifosize.b.startaddr = RX_FIFO_HS_SIZE;   
 676:inc/user_libs/usb_core.c ****     nptxfifosize.b.depth = TXH_NP_HS_FIFOSIZ;  
 677:inc/user_libs/usb_core.c ****     USB_OTG_WRITE_REG32(&pdev->regs.GREGS->DIEPTXF0_HNPTXFSIZ, nptxfifosize.d32);
 678:inc/user_libs/usb_core.c ****     
 679:inc/user_libs/usb_core.c ****     ptxfifosize.b.startaddr = RX_FIFO_HS_SIZE + TXH_NP_HS_FIFOSIZ;
 680:inc/user_libs/usb_core.c ****     ptxfifosize.b.depth     = TXH_P_HS_FIFOSIZ;
 681:inc/user_libs/usb_core.c ****     USB_OTG_WRITE_REG32(&pdev->regs.GREGS->HPTXFSIZ, ptxfifosize.d32);      
 682:inc/user_libs/usb_core.c ****   }
 683:inc/user_libs/usb_core.c **** #endif  
 684:inc/user_libs/usb_core.c ****   
 685:inc/user_libs/usb_core.c **** #ifdef USE_OTG_MODE
 686:inc/user_libs/usb_core.c ****   /* Clear Host Set HNP Enable in the USB_OTG Control Register */
 687:inc/user_libs/usb_core.c ****   gotgctl.b.hstsethnpen = 1;
 688:inc/user_libs/usb_core.c ****   USB_OTG_MODIFY_REG32( &pdev->regs.GREGS->GOTGCTL, gotgctl.d32, 0);
 689:inc/user_libs/usb_core.c **** #endif
 690:inc/user_libs/usb_core.c ****   
 691:inc/user_libs/usb_core.c ****   /* Make sure the FIFOs are flushed. */
 692:inc/user_libs/usb_core.c ****   USB_OTG_FlushTxFifo(pdev, 0x10 );         /* all Tx FIFOs */
 693:inc/user_libs/usb_core.c ****   USB_OTG_FlushRxFifo(pdev);
 694:inc/user_libs/usb_core.c ****   
 695:inc/user_libs/usb_core.c ****   
 696:inc/user_libs/usb_core.c ****   /* Clear all pending HC Interrupts */
 697:inc/user_libs/usb_core.c ****   for (i = 0; i < pdev->cfg.host_channels; i++)
 698:inc/user_libs/usb_core.c ****   {
 699:inc/user_libs/usb_core.c ****     USB_OTG_WRITE_REG32( &pdev->regs.HC_REGS[i]->HCINT, 0xFFFFFFFF );
 700:inc/user_libs/usb_core.c ****     USB_OTG_WRITE_REG32( &pdev->regs.HC_REGS[i]->HCINTMSK, 0 );
 701:inc/user_libs/usb_core.c ****   }
 702:inc/user_libs/usb_core.c **** #ifndef USE_OTG_MODE
 703:inc/user_libs/usb_core.c ****   USB_OTG_DriveVbus(pdev, 1);
 704:inc/user_libs/usb_core.c **** #endif
 705:inc/user_libs/usb_core.c ****   
 706:inc/user_libs/usb_core.c ****   USB_OTG_EnableHostInt(pdev);
 707:inc/user_libs/usb_core.c ****   return status;
 708:inc/user_libs/usb_core.c **** }
 709:inc/user_libs/usb_core.c **** 
 710:inc/user_libs/usb_core.c **** /**
 711:inc/user_libs/usb_core.c **** * @brief  USB_OTG_IsEvenFrame 
 712:inc/user_libs/usb_core.c **** *         This function returns the frame number for sof packet
 713:inc/user_libs/usb_core.c **** * @param  pdev : Selected device
 714:inc/user_libs/usb_core.c **** * @retval Frame number
 715:inc/user_libs/usb_core.c **** */
 716:inc/user_libs/usb_core.c **** uint8_t USB_OTG_IsEvenFrame (USB_OTG_CORE_HANDLE *pdev) 
 717:inc/user_libs/usb_core.c **** {
 718:inc/user_libs/usb_core.c ****   return !(USB_OTG_READ_REG32(&pdev->regs.HREGS->HFNUM) & 0x1);
 719:inc/user_libs/usb_core.c **** }
 720:inc/user_libs/usb_core.c **** 
 721:inc/user_libs/usb_core.c **** /**
 722:inc/user_libs/usb_core.c **** * @brief  USB_OTG_DriveVbus : set/reset vbus
 723:inc/user_libs/usb_core.c **** * @param  pdev : Selected device
 724:inc/user_libs/usb_core.c **** * @param  state : VBUS state
 725:inc/user_libs/usb_core.c **** * @retval None
 726:inc/user_libs/usb_core.c **** */
 727:inc/user_libs/usb_core.c **** void USB_OTG_DriveVbus (USB_OTG_CORE_HANDLE *pdev, uint8_t state)
 728:inc/user_libs/usb_core.c **** {
 729:inc/user_libs/usb_core.c ****   USB_OTG_HPRT0_TypeDef     hprt0;
 730:inc/user_libs/usb_core.c ****   
 731:inc/user_libs/usb_core.c ****   hprt0.d32 = 0;
ARM GAS  /tmp/ccQkqy1T.s 			page 34


 732:inc/user_libs/usb_core.c ****   
 733:inc/user_libs/usb_core.c ****   /* enable disable the external charge pump */
 734:inc/user_libs/usb_core.c ****   USB_OTG_BSP_DriveVBUS(pdev, state);
 735:inc/user_libs/usb_core.c ****   
 736:inc/user_libs/usb_core.c ****   /* Turn on the Host port power. */
 737:inc/user_libs/usb_core.c ****   hprt0.d32 = USB_OTG_ReadHPRT0(pdev);
 738:inc/user_libs/usb_core.c ****   if ((hprt0.b.prtpwr == 0 ) && (state == 1 ))
 739:inc/user_libs/usb_core.c ****   {
 740:inc/user_libs/usb_core.c ****     hprt0.b.prtpwr = 1;
 741:inc/user_libs/usb_core.c ****     USB_OTG_WRITE_REG32(pdev->regs.HPRT0, hprt0.d32);
 742:inc/user_libs/usb_core.c ****   }
 743:inc/user_libs/usb_core.c ****   if ((hprt0.b.prtpwr == 1 ) && (state == 0 ))
 744:inc/user_libs/usb_core.c ****   {
 745:inc/user_libs/usb_core.c ****     hprt0.b.prtpwr = 0;
 746:inc/user_libs/usb_core.c ****     USB_OTG_WRITE_REG32(pdev->regs.HPRT0, hprt0.d32);
 747:inc/user_libs/usb_core.c ****   }
 748:inc/user_libs/usb_core.c ****   
 749:inc/user_libs/usb_core.c ****   USB_OTG_BSP_mDelay(200);
 750:inc/user_libs/usb_core.c **** }
 751:inc/user_libs/usb_core.c **** /**
 752:inc/user_libs/usb_core.c **** * @brief  USB_OTG_EnableHostInt: Enables the Host mode interrupts
 753:inc/user_libs/usb_core.c **** * @param  pdev : Selected device
 754:inc/user_libs/usb_core.c **** * @retval USB_OTG_STS : status
 755:inc/user_libs/usb_core.c **** */
 756:inc/user_libs/usb_core.c **** USB_OTG_STS USB_OTG_EnableHostInt(USB_OTG_CORE_HANDLE *pdev)
 757:inc/user_libs/usb_core.c **** {
 758:inc/user_libs/usb_core.c ****   USB_OTG_STS       status = USB_OTG_OK;
 759:inc/user_libs/usb_core.c ****   USB_OTG_GINTMSK_TypeDef  intmsk;
 760:inc/user_libs/usb_core.c ****   intmsk.d32 = 0;
 761:inc/user_libs/usb_core.c ****   /* Disable all interrupts. */
 762:inc/user_libs/usb_core.c ****   USB_OTG_WRITE_REG32(&pdev->regs.GREGS->GINTMSK, 0);
 763:inc/user_libs/usb_core.c ****   
 764:inc/user_libs/usb_core.c ****   /* Clear any pending interrupts. */
 765:inc/user_libs/usb_core.c ****   USB_OTG_WRITE_REG32(&pdev->regs.GREGS->GINTSTS, 0xFFFFFFFF);
 766:inc/user_libs/usb_core.c ****   
 767:inc/user_libs/usb_core.c ****   /* Enable the common interrupts */
 768:inc/user_libs/usb_core.c ****   USB_OTG_EnableCommonInt(pdev);
 769:inc/user_libs/usb_core.c ****   
 770:inc/user_libs/usb_core.c ****   if (pdev->cfg.dma_enable == 0)
 771:inc/user_libs/usb_core.c ****   {  
 772:inc/user_libs/usb_core.c ****     intmsk.b.rxstsqlvl  = 1;
 773:inc/user_libs/usb_core.c ****   }  
 774:inc/user_libs/usb_core.c ****   intmsk.b.portintr   = 1;
 775:inc/user_libs/usb_core.c ****   intmsk.b.hcintr     = 1;
 776:inc/user_libs/usb_core.c ****   intmsk.b.disconnect = 1;  
 777:inc/user_libs/usb_core.c ****   intmsk.b.sofintr    = 1;  
 778:inc/user_libs/usb_core.c ****   intmsk.b.incomplisoout  = 1; 
 779:inc/user_libs/usb_core.c ****   USB_OTG_MODIFY_REG32(&pdev->regs.GREGS->GINTMSK, intmsk.d32, intmsk.d32);
 780:inc/user_libs/usb_core.c ****   return status;
 781:inc/user_libs/usb_core.c **** }
 782:inc/user_libs/usb_core.c **** 
 783:inc/user_libs/usb_core.c **** /**
 784:inc/user_libs/usb_core.c **** * @brief  USB_OTG_InitFSLSPClkSel : Initializes the FSLSPClkSel field of the 
 785:inc/user_libs/usb_core.c **** *         HCFG register on the PHY type
 786:inc/user_libs/usb_core.c **** * @param  pdev : Selected device
 787:inc/user_libs/usb_core.c **** * @param  freq : clock frequency
 788:inc/user_libs/usb_core.c **** * @retval None
ARM GAS  /tmp/ccQkqy1T.s 			page 35


 789:inc/user_libs/usb_core.c **** */
 790:inc/user_libs/usb_core.c **** void USB_OTG_InitFSLSPClkSel(USB_OTG_CORE_HANDLE *pdev , uint8_t freq)
 791:inc/user_libs/usb_core.c **** {
 792:inc/user_libs/usb_core.c ****   USB_OTG_HCFG_TypeDef   hcfg;
 793:inc/user_libs/usb_core.c ****   
 794:inc/user_libs/usb_core.c ****   hcfg.d32 = USB_OTG_READ_REG32(&pdev->regs.HREGS->HCFG);
 795:inc/user_libs/usb_core.c ****   hcfg.b.fslspclksel = freq;
 796:inc/user_libs/usb_core.c ****   USB_OTG_WRITE_REG32(&pdev->regs.HREGS->HCFG, hcfg.d32);
 797:inc/user_libs/usb_core.c **** }
 798:inc/user_libs/usb_core.c **** 
 799:inc/user_libs/usb_core.c **** 
 800:inc/user_libs/usb_core.c **** /**
 801:inc/user_libs/usb_core.c **** * @brief  USB_OTG_ReadHPRT0 : Reads HPRT0 to modify later
 802:inc/user_libs/usb_core.c **** * @param  pdev : Selected device
 803:inc/user_libs/usb_core.c **** * @retval HPRT0 value
 804:inc/user_libs/usb_core.c **** */
 805:inc/user_libs/usb_core.c **** uint32_t USB_OTG_ReadHPRT0(USB_OTG_CORE_HANDLE *pdev)
 806:inc/user_libs/usb_core.c **** {
 807:inc/user_libs/usb_core.c ****   USB_OTG_HPRT0_TypeDef  hprt0;
 808:inc/user_libs/usb_core.c ****   
 809:inc/user_libs/usb_core.c ****   hprt0.d32 = USB_OTG_READ_REG32(pdev->regs.HPRT0);
 810:inc/user_libs/usb_core.c ****   hprt0.b.prtena = 0;
 811:inc/user_libs/usb_core.c ****   hprt0.b.prtconndet = 0;
 812:inc/user_libs/usb_core.c ****   hprt0.b.prtenchng = 0;
 813:inc/user_libs/usb_core.c ****   hprt0.b.prtovrcurrchng = 0;
 814:inc/user_libs/usb_core.c ****   return hprt0.d32;
 815:inc/user_libs/usb_core.c **** }
 816:inc/user_libs/usb_core.c **** 
 817:inc/user_libs/usb_core.c **** 
 818:inc/user_libs/usb_core.c **** /**
 819:inc/user_libs/usb_core.c **** * @brief  USB_OTG_ReadHostAllChannels_intr : Register PCD Callbacks
 820:inc/user_libs/usb_core.c **** * @param  pdev : Selected device
 821:inc/user_libs/usb_core.c **** * @retval Status
 822:inc/user_libs/usb_core.c **** */
 823:inc/user_libs/usb_core.c **** uint32_t USB_OTG_ReadHostAllChannels_intr (USB_OTG_CORE_HANDLE *pdev)
 824:inc/user_libs/usb_core.c **** {
 825:inc/user_libs/usb_core.c ****   return (USB_OTG_READ_REG32 (&pdev->regs.HREGS->HAINT));
 826:inc/user_libs/usb_core.c **** }
 827:inc/user_libs/usb_core.c **** 
 828:inc/user_libs/usb_core.c **** 
 829:inc/user_libs/usb_core.c **** /**
 830:inc/user_libs/usb_core.c **** * @brief  USB_OTG_ResetPort : Reset Host Port
 831:inc/user_libs/usb_core.c **** * @param  pdev : Selected device
 832:inc/user_libs/usb_core.c **** * @retval status
 833:inc/user_libs/usb_core.c **** * @note : (1)The application must wait at least 10 ms (+ 10 ms security)
 834:inc/user_libs/usb_core.c **** *   before clearing the reset bit.
 835:inc/user_libs/usb_core.c **** */
 836:inc/user_libs/usb_core.c **** uint32_t USB_OTG_ResetPort(USB_OTG_CORE_HANDLE *pdev)
 837:inc/user_libs/usb_core.c **** {
 838:inc/user_libs/usb_core.c ****   USB_OTG_HPRT0_TypeDef  hprt0;
 839:inc/user_libs/usb_core.c ****   
 840:inc/user_libs/usb_core.c ****   hprt0.d32 = USB_OTG_ReadHPRT0(pdev);
 841:inc/user_libs/usb_core.c ****   hprt0.b.prtrst = 1;
 842:inc/user_libs/usb_core.c ****   USB_OTG_WRITE_REG32(pdev->regs.HPRT0, hprt0.d32);
 843:inc/user_libs/usb_core.c ****   USB_OTG_BSP_mDelay (10);                                /* See Note #1 */
 844:inc/user_libs/usb_core.c ****   hprt0.b.prtrst = 0;
 845:inc/user_libs/usb_core.c ****   USB_OTG_WRITE_REG32(pdev->regs.HPRT0, hprt0.d32);
ARM GAS  /tmp/ccQkqy1T.s 			page 36


 846:inc/user_libs/usb_core.c ****   USB_OTG_BSP_mDelay (20);   
 847:inc/user_libs/usb_core.c ****   return 1;
 848:inc/user_libs/usb_core.c **** }
 849:inc/user_libs/usb_core.c **** 
 850:inc/user_libs/usb_core.c **** 
 851:inc/user_libs/usb_core.c **** /**
 852:inc/user_libs/usb_core.c **** * @brief  USB_OTG_HC_Init : Prepares a host channel for transferring packets
 853:inc/user_libs/usb_core.c **** * @param  pdev : Selected device
 854:inc/user_libs/usb_core.c **** * @param  hc_num : channel number
 855:inc/user_libs/usb_core.c **** * @retval USB_OTG_STS : status
 856:inc/user_libs/usb_core.c **** */
 857:inc/user_libs/usb_core.c **** USB_OTG_STS USB_OTG_HC_Init(USB_OTG_CORE_HANDLE *pdev , uint8_t hc_num)
 858:inc/user_libs/usb_core.c **** {
 859:inc/user_libs/usb_core.c ****   USB_OTG_STS status = USB_OTG_OK;
 860:inc/user_libs/usb_core.c ****   uint32_t intr_enable = 0;
 861:inc/user_libs/usb_core.c ****   USB_OTG_HCINTMSK_TypeDef  hcintmsk;
 862:inc/user_libs/usb_core.c ****   USB_OTG_GINTMSK_TypeDef    gintmsk;
 863:inc/user_libs/usb_core.c ****   USB_OTG_HCCHAR_TypeDef     hcchar;
 864:inc/user_libs/usb_core.c ****   USB_OTG_HCINTn_TypeDef     hcint;
 865:inc/user_libs/usb_core.c ****   
 866:inc/user_libs/usb_core.c ****   
 867:inc/user_libs/usb_core.c ****   gintmsk.d32 = 0;
 868:inc/user_libs/usb_core.c ****   hcintmsk.d32 = 0;
 869:inc/user_libs/usb_core.c ****   hcchar.d32 = 0;
 870:inc/user_libs/usb_core.c ****   
 871:inc/user_libs/usb_core.c ****   /* Clear old interrupt conditions for this host channel. */
 872:inc/user_libs/usb_core.c ****   hcint.d32 = 0xFFFFFFFF;
 873:inc/user_libs/usb_core.c ****   USB_OTG_WRITE_REG32(&pdev->regs.HC_REGS[hc_num]->HCINT, hcint.d32);
 874:inc/user_libs/usb_core.c ****   
 875:inc/user_libs/usb_core.c ****   /* Enable channel interrupts required for this transfer. */
 876:inc/user_libs/usb_core.c ****   hcintmsk.d32 = 0;
 877:inc/user_libs/usb_core.c ****   
 878:inc/user_libs/usb_core.c ****   if (pdev->cfg.dma_enable == 1)
 879:inc/user_libs/usb_core.c ****   {
 880:inc/user_libs/usb_core.c ****     hcintmsk.b.ahberr = 1;
 881:inc/user_libs/usb_core.c ****   }
 882:inc/user_libs/usb_core.c ****   
 883:inc/user_libs/usb_core.c ****   switch (pdev->host.hc[hc_num].ep_type) 
 884:inc/user_libs/usb_core.c ****   {
 885:inc/user_libs/usb_core.c ****   case EP_TYPE_CTRL:
 886:inc/user_libs/usb_core.c ****   case EP_TYPE_BULK:
 887:inc/user_libs/usb_core.c ****     hcintmsk.b.xfercompl = 1;
 888:inc/user_libs/usb_core.c ****     hcintmsk.b.stall = 1;
 889:inc/user_libs/usb_core.c ****     hcintmsk.b.xacterr = 1;
 890:inc/user_libs/usb_core.c ****     hcintmsk.b.datatglerr = 1;
 891:inc/user_libs/usb_core.c ****     hcintmsk.b.nak = 1;  
 892:inc/user_libs/usb_core.c ****     if (pdev->host.hc[hc_num].ep_is_in) 
 893:inc/user_libs/usb_core.c ****     {
 894:inc/user_libs/usb_core.c ****       hcintmsk.b.bblerr = 1;
 895:inc/user_libs/usb_core.c ****     } 
 896:inc/user_libs/usb_core.c ****     else 
 897:inc/user_libs/usb_core.c ****     {
 898:inc/user_libs/usb_core.c ****       hcintmsk.b.nyet = 1;
 899:inc/user_libs/usb_core.c ****       if (pdev->host.hc[hc_num].do_ping) 
 900:inc/user_libs/usb_core.c ****       {
 901:inc/user_libs/usb_core.c ****         hcintmsk.b.ack = 1;
 902:inc/user_libs/usb_core.c ****       }
ARM GAS  /tmp/ccQkqy1T.s 			page 37


 903:inc/user_libs/usb_core.c ****     }
 904:inc/user_libs/usb_core.c ****     break;
 905:inc/user_libs/usb_core.c ****   case EP_TYPE_INTR:
 906:inc/user_libs/usb_core.c ****     hcintmsk.b.xfercompl = 1;
 907:inc/user_libs/usb_core.c ****     hcintmsk.b.nak = 1;
 908:inc/user_libs/usb_core.c ****     hcintmsk.b.stall = 1;
 909:inc/user_libs/usb_core.c ****     hcintmsk.b.xacterr = 1;
 910:inc/user_libs/usb_core.c ****     hcintmsk.b.datatglerr = 1;
 911:inc/user_libs/usb_core.c ****     hcintmsk.b.frmovrun = 1;
 912:inc/user_libs/usb_core.c ****     
 913:inc/user_libs/usb_core.c ****     if (pdev->host.hc[hc_num].ep_is_in) 
 914:inc/user_libs/usb_core.c ****     {
 915:inc/user_libs/usb_core.c ****       hcintmsk.b.bblerr = 1;
 916:inc/user_libs/usb_core.c ****     }
 917:inc/user_libs/usb_core.c ****     
 918:inc/user_libs/usb_core.c ****     break;
 919:inc/user_libs/usb_core.c ****   case EP_TYPE_ISOC:
 920:inc/user_libs/usb_core.c ****     hcintmsk.b.xfercompl = 1;
 921:inc/user_libs/usb_core.c ****     hcintmsk.b.frmovrun = 1;
 922:inc/user_libs/usb_core.c ****     hcintmsk.b.ack = 1;
 923:inc/user_libs/usb_core.c ****     
 924:inc/user_libs/usb_core.c ****     if (pdev->host.hc[hc_num].ep_is_in) 
 925:inc/user_libs/usb_core.c ****     {
 926:inc/user_libs/usb_core.c ****       hcintmsk.b.xacterr = 1;
 927:inc/user_libs/usb_core.c ****       hcintmsk.b.bblerr = 1;
 928:inc/user_libs/usb_core.c ****     }
 929:inc/user_libs/usb_core.c ****     break;
 930:inc/user_libs/usb_core.c ****   }
 931:inc/user_libs/usb_core.c ****   
 932:inc/user_libs/usb_core.c ****   
 933:inc/user_libs/usb_core.c ****   USB_OTG_WRITE_REG32(&pdev->regs.HC_REGS[hc_num]->HCINTMSK, hcintmsk.d32);
 934:inc/user_libs/usb_core.c ****   
 935:inc/user_libs/usb_core.c ****   
 936:inc/user_libs/usb_core.c ****   /* Enable the top level host channel interrupt. */
 937:inc/user_libs/usb_core.c ****   intr_enable = (1 << hc_num);
 938:inc/user_libs/usb_core.c ****   USB_OTG_MODIFY_REG32(&pdev->regs.HREGS->HAINTMSK, 0, intr_enable);
 939:inc/user_libs/usb_core.c ****   
 940:inc/user_libs/usb_core.c ****   /* Make sure host channel interrupts are enabled. */
 941:inc/user_libs/usb_core.c ****   gintmsk.b.hcintr = 1;
 942:inc/user_libs/usb_core.c ****   USB_OTG_MODIFY_REG32(&pdev->regs.GREGS->GINTMSK, 0, gintmsk.d32);
 943:inc/user_libs/usb_core.c ****   
 944:inc/user_libs/usb_core.c ****   /* Program the HCCHAR register */
 945:inc/user_libs/usb_core.c ****   hcchar.d32 = 0;
 946:inc/user_libs/usb_core.c ****   hcchar.b.devaddr = pdev->host.hc[hc_num].dev_addr;
 947:inc/user_libs/usb_core.c ****   hcchar.b.epnum   = pdev->host.hc[hc_num].ep_num;
 948:inc/user_libs/usb_core.c ****   hcchar.b.epdir   = pdev->host.hc[hc_num].ep_is_in;
 949:inc/user_libs/usb_core.c ****   hcchar.b.lspddev = (pdev->host.hc[hc_num].speed == HPRT0_PRTSPD_LOW_SPEED);
 950:inc/user_libs/usb_core.c ****   hcchar.b.eptype  = pdev->host.hc[hc_num].ep_type;
 951:inc/user_libs/usb_core.c ****   hcchar.b.mps     = pdev->host.hc[hc_num].max_packet;
 952:inc/user_libs/usb_core.c ****   if (pdev->host.hc[hc_num].ep_type == HCCHAR_INTR)
 953:inc/user_libs/usb_core.c ****   {
 954:inc/user_libs/usb_core.c ****     hcchar.b.oddfrm  = 1;
 955:inc/user_libs/usb_core.c ****   }
 956:inc/user_libs/usb_core.c ****   USB_OTG_WRITE_REG32(&pdev->regs.HC_REGS[hc_num]->HCCHAR, hcchar.d32);
 957:inc/user_libs/usb_core.c ****   return status;
 958:inc/user_libs/usb_core.c **** }
 959:inc/user_libs/usb_core.c **** 
ARM GAS  /tmp/ccQkqy1T.s 			page 38


 960:inc/user_libs/usb_core.c **** 
 961:inc/user_libs/usb_core.c **** /**
 962:inc/user_libs/usb_core.c **** * @brief  USB_OTG_HC_StartXfer : Start transfer
 963:inc/user_libs/usb_core.c **** * @param  pdev : Selected device
 964:inc/user_libs/usb_core.c **** * @param  hc_num : channel number
 965:inc/user_libs/usb_core.c **** * @retval USB_OTG_STS : status
 966:inc/user_libs/usb_core.c **** */
 967:inc/user_libs/usb_core.c **** USB_OTG_STS USB_OTG_HC_StartXfer(USB_OTG_CORE_HANDLE *pdev , uint8_t hc_num)
 968:inc/user_libs/usb_core.c **** {
 969:inc/user_libs/usb_core.c ****   USB_OTG_STS status = USB_OTG_OK;
 970:inc/user_libs/usb_core.c ****   USB_OTG_HCCHAR_TypeDef   hcchar;
 971:inc/user_libs/usb_core.c ****   USB_OTG_HCTSIZn_TypeDef  hctsiz;
 972:inc/user_libs/usb_core.c ****   USB_OTG_HNPTXSTS_TypeDef hnptxsts; 
 973:inc/user_libs/usb_core.c ****   USB_OTG_HPTXSTS_TypeDef  hptxsts; 
 974:inc/user_libs/usb_core.c ****   USB_OTG_GINTMSK_TypeDef  intmsk;
 975:inc/user_libs/usb_core.c ****   uint16_t                 len_words = 0;   
 976:inc/user_libs/usb_core.c ****   
 977:inc/user_libs/usb_core.c ****   uint16_t num_packets;
 978:inc/user_libs/usb_core.c ****   uint16_t max_hc_pkt_count;
 979:inc/user_libs/usb_core.c ****   
 980:inc/user_libs/usb_core.c ****   max_hc_pkt_count = 256;
 981:inc/user_libs/usb_core.c ****   hctsiz.d32 = 0;
 982:inc/user_libs/usb_core.c ****   hcchar.d32 = 0;
 983:inc/user_libs/usb_core.c ****   intmsk.d32 = 0;
 984:inc/user_libs/usb_core.c ****   
 985:inc/user_libs/usb_core.c ****   /* Compute the expected number of packets associated to the transfer */
 986:inc/user_libs/usb_core.c ****   if (pdev->host.hc[hc_num].xfer_len > 0)
 987:inc/user_libs/usb_core.c ****   {
 988:inc/user_libs/usb_core.c ****     num_packets = (pdev->host.hc[hc_num].xfer_len + \
 989:inc/user_libs/usb_core.c ****       pdev->host.hc[hc_num].max_packet - 1) / pdev->host.hc[hc_num].max_packet;
 990:inc/user_libs/usb_core.c ****     
 991:inc/user_libs/usb_core.c ****     if (num_packets > max_hc_pkt_count)
 992:inc/user_libs/usb_core.c ****     {
 993:inc/user_libs/usb_core.c ****       num_packets = max_hc_pkt_count;
 994:inc/user_libs/usb_core.c ****       pdev->host.hc[hc_num].xfer_len = num_packets * \
 995:inc/user_libs/usb_core.c ****         pdev->host.hc[hc_num].max_packet;
 996:inc/user_libs/usb_core.c ****     }
 997:inc/user_libs/usb_core.c ****   }
 998:inc/user_libs/usb_core.c ****   else
 999:inc/user_libs/usb_core.c ****   {
1000:inc/user_libs/usb_core.c ****     num_packets = 1;
1001:inc/user_libs/usb_core.c ****   }
1002:inc/user_libs/usb_core.c ****   if (pdev->host.hc[hc_num].ep_is_in)
1003:inc/user_libs/usb_core.c ****   {
1004:inc/user_libs/usb_core.c ****     pdev->host.hc[hc_num].xfer_len = num_packets * \
1005:inc/user_libs/usb_core.c ****       pdev->host.hc[hc_num].max_packet;
1006:inc/user_libs/usb_core.c ****   }
1007:inc/user_libs/usb_core.c ****   /* Initialize the HCTSIZn register */
1008:inc/user_libs/usb_core.c ****   hctsiz.b.xfersize = pdev->host.hc[hc_num].xfer_len;
1009:inc/user_libs/usb_core.c ****   hctsiz.b.pktcnt = num_packets;
1010:inc/user_libs/usb_core.c ****   hctsiz.b.pid = pdev->host.hc[hc_num].data_pid;
1011:inc/user_libs/usb_core.c ****   USB_OTG_WRITE_REG32(&pdev->regs.HC_REGS[hc_num]->HCTSIZ, hctsiz.d32);
1012:inc/user_libs/usb_core.c ****   
1013:inc/user_libs/usb_core.c ****   if (pdev->cfg.dma_enable == 1)
1014:inc/user_libs/usb_core.c ****   {
1015:inc/user_libs/usb_core.c ****     USB_OTG_WRITE_REG32(&pdev->regs.HC_REGS[hc_num]->HCDMA, (unsigned int)pdev->host.hc[hc_num].xfe
1016:inc/user_libs/usb_core.c ****   }
ARM GAS  /tmp/ccQkqy1T.s 			page 39


1017:inc/user_libs/usb_core.c ****   
1018:inc/user_libs/usb_core.c ****   
1019:inc/user_libs/usb_core.c ****   hcchar.d32 = USB_OTG_READ_REG32(&pdev->regs.HC_REGS[hc_num]->HCCHAR);
1020:inc/user_libs/usb_core.c ****   hcchar.b.oddfrm = USB_OTG_IsEvenFrame(pdev);
1021:inc/user_libs/usb_core.c ****   
1022:inc/user_libs/usb_core.c ****   /* Set host channel enable */
1023:inc/user_libs/usb_core.c ****   hcchar.b.chen = 1;
1024:inc/user_libs/usb_core.c ****   hcchar.b.chdis = 0;
1025:inc/user_libs/usb_core.c ****   USB_OTG_WRITE_REG32(&pdev->regs.HC_REGS[hc_num]->HCCHAR, hcchar.d32);
1026:inc/user_libs/usb_core.c ****   
1027:inc/user_libs/usb_core.c ****   if (pdev->cfg.dma_enable == 0) /* Slave mode */
1028:inc/user_libs/usb_core.c ****   {  
1029:inc/user_libs/usb_core.c ****     if((pdev->host.hc[hc_num].ep_is_in == 0) && 
1030:inc/user_libs/usb_core.c ****        (pdev->host.hc[hc_num].xfer_len > 0))
1031:inc/user_libs/usb_core.c ****     {
1032:inc/user_libs/usb_core.c ****       switch(pdev->host.hc[hc_num].ep_type) 
1033:inc/user_libs/usb_core.c ****       {
1034:inc/user_libs/usb_core.c ****         /* Non periodic transfer */
1035:inc/user_libs/usb_core.c ****       case EP_TYPE_CTRL:
1036:inc/user_libs/usb_core.c ****       case EP_TYPE_BULK:
1037:inc/user_libs/usb_core.c ****         
1038:inc/user_libs/usb_core.c ****         hnptxsts.d32 = USB_OTG_READ_REG32(&pdev->regs.GREGS->HNPTXSTS);
1039:inc/user_libs/usb_core.c ****         len_words = (pdev->host.hc[hc_num].xfer_len + 3) / 4;
1040:inc/user_libs/usb_core.c ****         
1041:inc/user_libs/usb_core.c ****         /* check if there is enough space in FIFO space */
1042:inc/user_libs/usb_core.c ****         if(len_words > hnptxsts.b.nptxfspcavail)
1043:inc/user_libs/usb_core.c ****         {
1044:inc/user_libs/usb_core.c ****           /* need to process data in nptxfempty interrupt */
1045:inc/user_libs/usb_core.c ****           intmsk.b.nptxfempty = 1;
1046:inc/user_libs/usb_core.c ****           USB_OTG_MODIFY_REG32( &pdev->regs.GREGS->GINTMSK, 0, intmsk.d32);  
1047:inc/user_libs/usb_core.c ****         }
1048:inc/user_libs/usb_core.c ****         
1049:inc/user_libs/usb_core.c ****         break;
1050:inc/user_libs/usb_core.c ****         /* Periodic transfer */
1051:inc/user_libs/usb_core.c ****       case EP_TYPE_INTR:
1052:inc/user_libs/usb_core.c ****       case EP_TYPE_ISOC:
1053:inc/user_libs/usb_core.c ****         hptxsts.d32 = USB_OTG_READ_REG32(&pdev->regs.HREGS->HPTXSTS);
1054:inc/user_libs/usb_core.c ****         len_words = (pdev->host.hc[hc_num].xfer_len + 3) / 4;
1055:inc/user_libs/usb_core.c ****         /* check if there is enough space in FIFO space */
1056:inc/user_libs/usb_core.c ****         if(len_words > hptxsts.b.ptxfspcavail) /* split the transfer */
1057:inc/user_libs/usb_core.c ****         {
1058:inc/user_libs/usb_core.c ****           /* need to process data in ptxfempty interrupt */
1059:inc/user_libs/usb_core.c ****           intmsk.b.ptxfempty = 1;
1060:inc/user_libs/usb_core.c ****           USB_OTG_MODIFY_REG32( &pdev->regs.GREGS->GINTMSK, 0, intmsk.d32);  
1061:inc/user_libs/usb_core.c ****         }
1062:inc/user_libs/usb_core.c ****         break;
1063:inc/user_libs/usb_core.c ****         
1064:inc/user_libs/usb_core.c ****       default:
1065:inc/user_libs/usb_core.c ****         break;
1066:inc/user_libs/usb_core.c ****       }
1067:inc/user_libs/usb_core.c ****       
1068:inc/user_libs/usb_core.c ****       /* Write packet into the Tx FIFO. */
1069:inc/user_libs/usb_core.c ****       USB_OTG_WritePacket(pdev, 
1070:inc/user_libs/usb_core.c ****                           pdev->host.hc[hc_num].xfer_buff , 
1071:inc/user_libs/usb_core.c ****                           hc_num, pdev->host.hc[hc_num].xfer_len);
1072:inc/user_libs/usb_core.c ****     }
1073:inc/user_libs/usb_core.c ****   }
ARM GAS  /tmp/ccQkqy1T.s 			page 40


1074:inc/user_libs/usb_core.c ****   return status;
1075:inc/user_libs/usb_core.c **** }
1076:inc/user_libs/usb_core.c **** 
1077:inc/user_libs/usb_core.c **** 
1078:inc/user_libs/usb_core.c **** /**
1079:inc/user_libs/usb_core.c **** * @brief  USB_OTG_HC_Halt : Halt channel
1080:inc/user_libs/usb_core.c **** * @param  pdev : Selected device
1081:inc/user_libs/usb_core.c **** * @param  hc_num : channel number
1082:inc/user_libs/usb_core.c **** * @retval USB_OTG_STS : status
1083:inc/user_libs/usb_core.c **** */
1084:inc/user_libs/usb_core.c **** USB_OTG_STS USB_OTG_HC_Halt(USB_OTG_CORE_HANDLE *pdev , uint8_t hc_num)
1085:inc/user_libs/usb_core.c **** {
1086:inc/user_libs/usb_core.c ****   USB_OTG_STS status = USB_OTG_OK;
1087:inc/user_libs/usb_core.c ****   USB_OTG_HNPTXSTS_TypeDef            nptxsts;
1088:inc/user_libs/usb_core.c ****   USB_OTG_HPTXSTS_TypeDef             hptxsts;
1089:inc/user_libs/usb_core.c ****   USB_OTG_HCCHAR_TypeDef              hcchar;
1090:inc/user_libs/usb_core.c ****   
1091:inc/user_libs/usb_core.c ****   nptxsts.d32 = 0;
1092:inc/user_libs/usb_core.c ****   hptxsts.d32 = 0;
1093:inc/user_libs/usb_core.c ****   hcchar.d32 = USB_OTG_READ_REG32(&pdev->regs.HC_REGS[hc_num]->HCCHAR);
1094:inc/user_libs/usb_core.c ****   hcchar.b.chen = 1;
1095:inc/user_libs/usb_core.c ****   hcchar.b.chdis = 1;
1096:inc/user_libs/usb_core.c ****   
1097:inc/user_libs/usb_core.c ****   /* Check for space in the request queue to issue the halt. */
1098:inc/user_libs/usb_core.c ****   if (hcchar.b.eptype == HCCHAR_CTRL || hcchar.b.eptype == HCCHAR_BULK)
1099:inc/user_libs/usb_core.c ****   {
1100:inc/user_libs/usb_core.c ****     nptxsts.d32 = USB_OTG_READ_REG32(&pdev->regs.GREGS->HNPTXSTS);
1101:inc/user_libs/usb_core.c ****     if (nptxsts.b.nptxqspcavail == 0)
1102:inc/user_libs/usb_core.c ****     {
1103:inc/user_libs/usb_core.c ****       hcchar.b.chen = 0;
1104:inc/user_libs/usb_core.c ****     }
1105:inc/user_libs/usb_core.c ****   }
1106:inc/user_libs/usb_core.c ****   else
1107:inc/user_libs/usb_core.c ****   {
1108:inc/user_libs/usb_core.c ****     hptxsts.d32 = USB_OTG_READ_REG32(&pdev->regs.HREGS->HPTXSTS);
1109:inc/user_libs/usb_core.c ****     if (hptxsts.b.ptxqspcavail == 0)
1110:inc/user_libs/usb_core.c ****     {
1111:inc/user_libs/usb_core.c ****       hcchar.b.chen = 0;
1112:inc/user_libs/usb_core.c ****     }
1113:inc/user_libs/usb_core.c ****   }
1114:inc/user_libs/usb_core.c ****   USB_OTG_WRITE_REG32(&pdev->regs.HC_REGS[hc_num]->HCCHAR, hcchar.d32);
1115:inc/user_libs/usb_core.c ****   return status;
1116:inc/user_libs/usb_core.c **** }
1117:inc/user_libs/usb_core.c **** 
1118:inc/user_libs/usb_core.c **** /**
1119:inc/user_libs/usb_core.c **** * @brief  Issue a ping token
1120:inc/user_libs/usb_core.c **** * @param  None
1121:inc/user_libs/usb_core.c **** * @retval : None
1122:inc/user_libs/usb_core.c **** */
1123:inc/user_libs/usb_core.c **** USB_OTG_STS USB_OTG_HC_DoPing(USB_OTG_CORE_HANDLE *pdev , uint8_t hc_num)
1124:inc/user_libs/usb_core.c **** {
1125:inc/user_libs/usb_core.c ****   USB_OTG_STS               status = USB_OTG_OK;
1126:inc/user_libs/usb_core.c ****   USB_OTG_HCCHAR_TypeDef    hcchar;
1127:inc/user_libs/usb_core.c ****   USB_OTG_HCTSIZn_TypeDef   hctsiz;  
1128:inc/user_libs/usb_core.c ****   
1129:inc/user_libs/usb_core.c ****   hctsiz.d32 = 0;
1130:inc/user_libs/usb_core.c ****   hctsiz.b.dopng = 1;
ARM GAS  /tmp/ccQkqy1T.s 			page 41


1131:inc/user_libs/usb_core.c ****   hctsiz.b.pktcnt = 1;
1132:inc/user_libs/usb_core.c ****   USB_OTG_WRITE_REG32(&pdev->regs.HC_REGS[hc_num]->HCTSIZ, hctsiz.d32);
1133:inc/user_libs/usb_core.c ****   
1134:inc/user_libs/usb_core.c ****   hcchar.d32 = USB_OTG_READ_REG32(&pdev->regs.HC_REGS[hc_num]->HCCHAR);
1135:inc/user_libs/usb_core.c ****   hcchar.b.chen = 1;
1136:inc/user_libs/usb_core.c ****   hcchar.b.chdis = 0;
1137:inc/user_libs/usb_core.c ****   USB_OTG_WRITE_REG32(&pdev->regs.HC_REGS[hc_num]->HCCHAR, hcchar.d32);
1138:inc/user_libs/usb_core.c ****   return status;  
1139:inc/user_libs/usb_core.c **** }
1140:inc/user_libs/usb_core.c **** 
1141:inc/user_libs/usb_core.c **** /**
1142:inc/user_libs/usb_core.c **** * @brief  Stop the device and clean up fifo's
1143:inc/user_libs/usb_core.c **** * @param  None
1144:inc/user_libs/usb_core.c **** * @retval : None
1145:inc/user_libs/usb_core.c **** */
1146:inc/user_libs/usb_core.c **** void USB_OTG_StopHost(USB_OTG_CORE_HANDLE *pdev)
1147:inc/user_libs/usb_core.c **** {
1148:inc/user_libs/usb_core.c ****   USB_OTG_HCCHAR_TypeDef  hcchar;
1149:inc/user_libs/usb_core.c ****   uint32_t                i;
1150:inc/user_libs/usb_core.c ****   
1151:inc/user_libs/usb_core.c ****   USB_OTG_WRITE_REG32(&pdev->regs.HREGS->HAINTMSK , 0);
1152:inc/user_libs/usb_core.c ****   USB_OTG_WRITE_REG32(&pdev->regs.HREGS->HAINT,      0xFFFFFFFF);
1153:inc/user_libs/usb_core.c ****   /* Flush out any leftover queued requests. */
1154:inc/user_libs/usb_core.c ****   
1155:inc/user_libs/usb_core.c ****   for (i = 0; i < pdev->cfg.host_channels; i++)
1156:inc/user_libs/usb_core.c ****   {
1157:inc/user_libs/usb_core.c ****     hcchar.d32 = USB_OTG_READ_REG32(&pdev->regs.HC_REGS[i]->HCCHAR);
1158:inc/user_libs/usb_core.c ****     hcchar.b.chen = 0;
1159:inc/user_libs/usb_core.c ****     hcchar.b.chdis = 1;
1160:inc/user_libs/usb_core.c ****     hcchar.b.epdir = 0;
1161:inc/user_libs/usb_core.c ****     USB_OTG_WRITE_REG32(&pdev->regs.HC_REGS[i]->HCCHAR, hcchar.d32);
1162:inc/user_libs/usb_core.c ****   }
1163:inc/user_libs/usb_core.c ****   
1164:inc/user_libs/usb_core.c ****   /* Flush the FIFO */
1165:inc/user_libs/usb_core.c ****   USB_OTG_FlushRxFifo(pdev);
1166:inc/user_libs/usb_core.c ****   USB_OTG_FlushTxFifo(pdev ,  0x10 );  
1167:inc/user_libs/usb_core.c **** }
1168:inc/user_libs/usb_core.c **** #endif
1169:inc/user_libs/usb_core.c **** #ifdef USE_DEVICE_MODE
1170:inc/user_libs/usb_core.c **** /*         PCD Core Layer       */
1171:inc/user_libs/usb_core.c **** 
1172:inc/user_libs/usb_core.c **** /**
1173:inc/user_libs/usb_core.c **** * @brief  USB_OTG_InitDevSpeed :Initializes the DevSpd field of DCFG register 
1174:inc/user_libs/usb_core.c **** *         depending the PHY type and the enumeration speed of the device.
1175:inc/user_libs/usb_core.c **** * @param  pdev : Selected device
1176:inc/user_libs/usb_core.c **** * @retval : None
1177:inc/user_libs/usb_core.c **** */
1178:inc/user_libs/usb_core.c **** void USB_OTG_InitDevSpeed(USB_OTG_CORE_HANDLE *pdev , uint8_t speed)
1179:inc/user_libs/usb_core.c **** {
 1108              		.loc 1 1179 0
 1109              		.cfi_startproc
 1110              		@ args = 0, pretend = 0, frame = 0
 1111              		@ frame_needed = 0, uses_anonymous_args = 0
 1112              		@ link register save eliminated.
 1113              	.LVL100:
 1114              	@ inc/user_libs/usb_core.c:1182:   dcfg.d32 = USB_OTG_READ_REG32(&pdev->regs.DREGS->DCFG);
1180:inc/user_libs/usb_core.c ****   USB_OTG_DCFG_TypeDef   dcfg;
ARM GAS  /tmp/ccQkqy1T.s 			page 42


1181:inc/user_libs/usb_core.c ****   
1182:inc/user_libs/usb_core.c ****   dcfg.d32 = USB_OTG_READ_REG32(&pdev->regs.DREGS->DCFG);
 1115              		.loc 1 1182 0
 1116 02d4 0269     		ldr	r2, [r0, #16]	@ _1, pdev_6(D)->regs.DREGS
 1117 02d6 1368     		ldr	r3, [r2]	@ _2, _1->DCFG
 1118              	@ inc/user_libs/usb_core.c:1183:   dcfg.b.devspd = speed;
1183:inc/user_libs/usb_core.c ****   dcfg.b.devspd = speed;
 1119              		.loc 1 1183 0
 1120 02d8 61F30103 		bfi	r3, r1, #0, #2	@ dcfg, speed,,
 1121              	.LVL101:
 1122              	@ inc/user_libs/usb_core.c:1184:   USB_OTG_WRITE_REG32(&pdev->regs.DREGS->DCFG, dcfg.d32);
1184:inc/user_libs/usb_core.c ****   USB_OTG_WRITE_REG32(&pdev->regs.DREGS->DCFG, dcfg.d32);
 1123              		.loc 1 1184 0
 1124 02dc 1360     		str	r3, [r2]	@ dcfg, _1->DCFG
 1125              	@ inc/user_libs/usb_core.c:1185: }
1185:inc/user_libs/usb_core.c **** }
 1126              		.loc 1 1185 0
 1127 02de 7047     		bx	lr	@
 1128              		.cfi_endproc
 1129              	.LFE126:
 1130              		.size	USB_OTG_InitDevSpeed, .-USB_OTG_InitDevSpeed
 1131              		.align	1
 1132              		.global	USB_OTG_EnableDevInt
 1133              		.syntax unified
 1134              		.thumb
 1135              		.thumb_func
 1136              		.fpu softvfp
 1137              		.type	USB_OTG_EnableDevInt, %function
 1138              	USB_OTG_EnableDevInt:
 1139              	.LFB128:
1186:inc/user_libs/usb_core.c **** 
1187:inc/user_libs/usb_core.c **** 
1188:inc/user_libs/usb_core.c **** /**
1189:inc/user_libs/usb_core.c **** * @brief  USB_OTG_CoreInitDev : Initializes the USB_OTG controller registers 
1190:inc/user_libs/usb_core.c **** *         for device mode
1191:inc/user_libs/usb_core.c **** * @param  pdev : Selected device
1192:inc/user_libs/usb_core.c **** * @retval USB_OTG_STS : status
1193:inc/user_libs/usb_core.c **** */
1194:inc/user_libs/usb_core.c **** USB_OTG_STS USB_OTG_CoreInitDev (USB_OTG_CORE_HANDLE *pdev)
1195:inc/user_libs/usb_core.c **** {
1196:inc/user_libs/usb_core.c ****   USB_OTG_STS             status       = USB_OTG_OK;
1197:inc/user_libs/usb_core.c ****   USB_OTG_DEPCTL_TypeDef  depctl;
1198:inc/user_libs/usb_core.c ****   uint32_t i;
1199:inc/user_libs/usb_core.c ****   USB_OTG_DCFG_TypeDef    dcfg;
1200:inc/user_libs/usb_core.c ****   USB_OTG_FSIZ_TypeDef    nptxfifosize;
1201:inc/user_libs/usb_core.c ****   USB_OTG_FSIZ_TypeDef    txfifosize;
1202:inc/user_libs/usb_core.c ****   USB_OTG_DIEPMSK_TypeDef msk;
1203:inc/user_libs/usb_core.c ****   USB_OTG_DTHRCTL_TypeDef dthrctl;  
1204:inc/user_libs/usb_core.c ****   
1205:inc/user_libs/usb_core.c ****   depctl.d32 = 0;
1206:inc/user_libs/usb_core.c ****   dcfg.d32 = 0;
1207:inc/user_libs/usb_core.c ****   nptxfifosize.d32 = 0;
1208:inc/user_libs/usb_core.c ****   txfifosize.d32 = 0;
1209:inc/user_libs/usb_core.c ****   msk.d32 = 0;
1210:inc/user_libs/usb_core.c ****   
1211:inc/user_libs/usb_core.c ****   /* Restart the Phy Clock */
1212:inc/user_libs/usb_core.c ****   USB_OTG_WRITE_REG32(pdev->regs.PCGCCTL, 0);
ARM GAS  /tmp/ccQkqy1T.s 			page 43


1213:inc/user_libs/usb_core.c ****   /* Device configuration register */
1214:inc/user_libs/usb_core.c ****   dcfg.d32 = USB_OTG_READ_REG32( &pdev->regs.DREGS->DCFG);
1215:inc/user_libs/usb_core.c ****   dcfg.b.perfrint = DCFG_FRAME_INTERVAL_80;
1216:inc/user_libs/usb_core.c ****   USB_OTG_WRITE_REG32( &pdev->regs.DREGS->DCFG, dcfg.d32 );
1217:inc/user_libs/usb_core.c ****   
1218:inc/user_libs/usb_core.c **** #ifdef USB_OTG_FS_CORE
1219:inc/user_libs/usb_core.c ****   if(pdev->cfg.coreID == USB_OTG_FS_CORE_ID  )
1220:inc/user_libs/usb_core.c ****   {  
1221:inc/user_libs/usb_core.c ****     
1222:inc/user_libs/usb_core.c ****     /* Set Full speed phy */
1223:inc/user_libs/usb_core.c ****     USB_OTG_InitDevSpeed (pdev , USB_OTG_SPEED_PARAM_FULL);
1224:inc/user_libs/usb_core.c ****     
1225:inc/user_libs/usb_core.c ****     /* set Rx FIFO size */
1226:inc/user_libs/usb_core.c ****     USB_OTG_WRITE_REG32(&pdev->regs.GREGS->GRXFSIZ, RX_FIFO_FS_SIZE);
1227:inc/user_libs/usb_core.c ****     
1228:inc/user_libs/usb_core.c ****     /* EP0 TX*/
1229:inc/user_libs/usb_core.c ****     nptxfifosize.b.depth     = TX0_FIFO_FS_SIZE;
1230:inc/user_libs/usb_core.c ****     nptxfifosize.b.startaddr = RX_FIFO_FS_SIZE;
1231:inc/user_libs/usb_core.c ****     USB_OTG_WRITE_REG32( &pdev->regs.GREGS->DIEPTXF0_HNPTXFSIZ, nptxfifosize.d32 );
1232:inc/user_libs/usb_core.c ****     
1233:inc/user_libs/usb_core.c ****     
1234:inc/user_libs/usb_core.c ****     /* EP1 TX*/
1235:inc/user_libs/usb_core.c ****     txfifosize.b.startaddr = nptxfifosize.b.startaddr + nptxfifosize.b.depth;
1236:inc/user_libs/usb_core.c ****     txfifosize.b.depth = TX1_FIFO_FS_SIZE;
1237:inc/user_libs/usb_core.c ****     USB_OTG_WRITE_REG32( &pdev->regs.GREGS->DIEPTXF[0], txfifosize.d32 );
1238:inc/user_libs/usb_core.c ****     
1239:inc/user_libs/usb_core.c ****     
1240:inc/user_libs/usb_core.c ****     /* EP2 TX*/
1241:inc/user_libs/usb_core.c ****     txfifosize.b.startaddr += txfifosize.b.depth;
1242:inc/user_libs/usb_core.c ****     txfifosize.b.depth = TX2_FIFO_FS_SIZE;
1243:inc/user_libs/usb_core.c ****     USB_OTG_WRITE_REG32( &pdev->regs.GREGS->DIEPTXF[1], txfifosize.d32 );
1244:inc/user_libs/usb_core.c ****     
1245:inc/user_libs/usb_core.c ****     
1246:inc/user_libs/usb_core.c ****     /* EP3 TX*/  
1247:inc/user_libs/usb_core.c ****     txfifosize.b.startaddr += txfifosize.b.depth;
1248:inc/user_libs/usb_core.c ****     txfifosize.b.depth = TX3_FIFO_FS_SIZE;
1249:inc/user_libs/usb_core.c ****     USB_OTG_WRITE_REG32( &pdev->regs.GREGS->DIEPTXF[2], txfifosize.d32 );
1250:inc/user_libs/usb_core.c ****   }
1251:inc/user_libs/usb_core.c **** #endif
1252:inc/user_libs/usb_core.c **** #ifdef USB_OTG_HS_CORE
1253:inc/user_libs/usb_core.c ****   if(pdev->cfg.coreID == USB_OTG_HS_CORE_ID  )
1254:inc/user_libs/usb_core.c ****   {
1255:inc/user_libs/usb_core.c ****     
1256:inc/user_libs/usb_core.c ****     /* Set High speed phy */
1257:inc/user_libs/usb_core.c ****     
1258:inc/user_libs/usb_core.c ****     if(pdev->cfg.phy_itface  == USB_OTG_ULPI_PHY)
1259:inc/user_libs/usb_core.c ****     {
1260:inc/user_libs/usb_core.c ****       USB_OTG_InitDevSpeed (pdev , USB_OTG_SPEED_PARAM_HIGH);
1261:inc/user_libs/usb_core.c ****     }
1262:inc/user_libs/usb_core.c ****     else /* set High speed phy in Full speed mode */
1263:inc/user_libs/usb_core.c ****     {
1264:inc/user_libs/usb_core.c ****       USB_OTG_InitDevSpeed (pdev , USB_OTG_SPEED_PARAM_HIGH_IN_FULL);
1265:inc/user_libs/usb_core.c ****     }
1266:inc/user_libs/usb_core.c ****     
1267:inc/user_libs/usb_core.c ****     /* set Rx FIFO size */
1268:inc/user_libs/usb_core.c ****     USB_OTG_WRITE_REG32(&pdev->regs.GREGS->GRXFSIZ, RX_FIFO_HS_SIZE);
1269:inc/user_libs/usb_core.c ****     
ARM GAS  /tmp/ccQkqy1T.s 			page 44


1270:inc/user_libs/usb_core.c ****     /* EP0 TX*/
1271:inc/user_libs/usb_core.c ****     nptxfifosize.b.depth     = TX0_FIFO_HS_SIZE;
1272:inc/user_libs/usb_core.c ****     nptxfifosize.b.startaddr = RX_FIFO_HS_SIZE;
1273:inc/user_libs/usb_core.c ****     USB_OTG_WRITE_REG32( &pdev->regs.GREGS->DIEPTXF0_HNPTXFSIZ, nptxfifosize.d32 );
1274:inc/user_libs/usb_core.c ****     
1275:inc/user_libs/usb_core.c ****     
1276:inc/user_libs/usb_core.c ****     /* EP1 TX*/
1277:inc/user_libs/usb_core.c ****     txfifosize.b.startaddr = nptxfifosize.b.startaddr + nptxfifosize.b.depth;
1278:inc/user_libs/usb_core.c ****     txfifosize.b.depth = TX1_FIFO_HS_SIZE;
1279:inc/user_libs/usb_core.c ****     USB_OTG_WRITE_REG32( &pdev->regs.GREGS->DIEPTXF[0], txfifosize.d32 );
1280:inc/user_libs/usb_core.c ****     
1281:inc/user_libs/usb_core.c ****     
1282:inc/user_libs/usb_core.c ****     /* EP2 TX*/
1283:inc/user_libs/usb_core.c ****     txfifosize.b.startaddr += txfifosize.b.depth;
1284:inc/user_libs/usb_core.c ****     txfifosize.b.depth = TX2_FIFO_HS_SIZE;
1285:inc/user_libs/usb_core.c ****     USB_OTG_WRITE_REG32( &pdev->regs.GREGS->DIEPTXF[1], txfifosize.d32 );
1286:inc/user_libs/usb_core.c ****     
1287:inc/user_libs/usb_core.c ****     
1288:inc/user_libs/usb_core.c ****     /* EP3 TX*/  
1289:inc/user_libs/usb_core.c ****     txfifosize.b.startaddr += txfifosize.b.depth;
1290:inc/user_libs/usb_core.c ****     txfifosize.b.depth = TX3_FIFO_HS_SIZE;
1291:inc/user_libs/usb_core.c ****     USB_OTG_WRITE_REG32( &pdev->regs.GREGS->DIEPTXF[2], txfifosize.d32 );
1292:inc/user_libs/usb_core.c ****     
1293:inc/user_libs/usb_core.c ****     /* EP4 TX*/
1294:inc/user_libs/usb_core.c ****     txfifosize.b.startaddr += txfifosize.b.depth;
1295:inc/user_libs/usb_core.c ****     txfifosize.b.depth = TX4_FIFO_HS_SIZE;
1296:inc/user_libs/usb_core.c ****     USB_OTG_WRITE_REG32( &pdev->regs.GREGS->DIEPTXF[3], txfifosize.d32 );
1297:inc/user_libs/usb_core.c ****     
1298:inc/user_libs/usb_core.c ****     
1299:inc/user_libs/usb_core.c ****     /* EP5 TX*/  
1300:inc/user_libs/usb_core.c ****     txfifosize.b.startaddr += txfifosize.b.depth;
1301:inc/user_libs/usb_core.c ****     txfifosize.b.depth = TX5_FIFO_HS_SIZE;
1302:inc/user_libs/usb_core.c ****     USB_OTG_WRITE_REG32( &pdev->regs.GREGS->DIEPTXF[4], txfifosize.d32 );
1303:inc/user_libs/usb_core.c ****   }
1304:inc/user_libs/usb_core.c **** #endif  
1305:inc/user_libs/usb_core.c ****   /* Flush the FIFOs */
1306:inc/user_libs/usb_core.c ****   USB_OTG_FlushTxFifo(pdev , 0x10); /* all Tx FIFOs */
1307:inc/user_libs/usb_core.c ****   USB_OTG_FlushRxFifo(pdev);
1308:inc/user_libs/usb_core.c ****   /* Clear all pending Device Interrupts */
1309:inc/user_libs/usb_core.c ****   USB_OTG_WRITE_REG32( &pdev->regs.DREGS->DIEPMSK, 0 );
1310:inc/user_libs/usb_core.c ****   USB_OTG_WRITE_REG32( &pdev->regs.DREGS->DOEPMSK, 0 );
1311:inc/user_libs/usb_core.c ****   USB_OTG_WRITE_REG32( &pdev->regs.DREGS->DAINT, 0xFFFFFFFF );
1312:inc/user_libs/usb_core.c ****   USB_OTG_WRITE_REG32( &pdev->regs.DREGS->DAINTMSK, 0 );
1313:inc/user_libs/usb_core.c ****   
1314:inc/user_libs/usb_core.c ****   for (i = 0; i < pdev->cfg.dev_endpoints; i++)
1315:inc/user_libs/usb_core.c ****   {
1316:inc/user_libs/usb_core.c ****     depctl.d32 = USB_OTG_READ_REG32(&pdev->regs.INEP_REGS[i]->DIEPCTL);
1317:inc/user_libs/usb_core.c ****     if (depctl.b.epena)
1318:inc/user_libs/usb_core.c ****     {
1319:inc/user_libs/usb_core.c ****       depctl.d32 = 0;
1320:inc/user_libs/usb_core.c ****       depctl.b.epdis = 1;
1321:inc/user_libs/usb_core.c ****       depctl.b.snak = 1;
1322:inc/user_libs/usb_core.c ****     }
1323:inc/user_libs/usb_core.c ****     else
1324:inc/user_libs/usb_core.c ****     {
1325:inc/user_libs/usb_core.c ****       depctl.d32 = 0;
1326:inc/user_libs/usb_core.c ****     }
ARM GAS  /tmp/ccQkqy1T.s 			page 45


1327:inc/user_libs/usb_core.c ****     USB_OTG_WRITE_REG32( &pdev->regs.INEP_REGS[i]->DIEPCTL, depctl.d32);
1328:inc/user_libs/usb_core.c ****     USB_OTG_WRITE_REG32( &pdev->regs.INEP_REGS[i]->DIEPTSIZ, 0);
1329:inc/user_libs/usb_core.c ****     USB_OTG_WRITE_REG32( &pdev->regs.INEP_REGS[i]->DIEPINT, 0xFF);
1330:inc/user_libs/usb_core.c ****   }
1331:inc/user_libs/usb_core.c ****   for (i = 0; i <  pdev->cfg.dev_endpoints; i++)
1332:inc/user_libs/usb_core.c ****   {
1333:inc/user_libs/usb_core.c ****     USB_OTG_DEPCTL_TypeDef  depctl;
1334:inc/user_libs/usb_core.c ****     depctl.d32 = USB_OTG_READ_REG32(&pdev->regs.OUTEP_REGS[i]->DOEPCTL);
1335:inc/user_libs/usb_core.c ****     if (depctl.b.epena)
1336:inc/user_libs/usb_core.c ****     {
1337:inc/user_libs/usb_core.c ****       depctl.d32 = 0;
1338:inc/user_libs/usb_core.c ****       depctl.b.epdis = 1;
1339:inc/user_libs/usb_core.c ****       depctl.b.snak = 1;
1340:inc/user_libs/usb_core.c ****     }
1341:inc/user_libs/usb_core.c ****     else
1342:inc/user_libs/usb_core.c ****     {
1343:inc/user_libs/usb_core.c ****       depctl.d32 = 0;
1344:inc/user_libs/usb_core.c ****     }
1345:inc/user_libs/usb_core.c ****     USB_OTG_WRITE_REG32( &pdev->regs.OUTEP_REGS[i]->DOEPCTL, depctl.d32);
1346:inc/user_libs/usb_core.c ****     USB_OTG_WRITE_REG32( &pdev->regs.OUTEP_REGS[i]->DOEPTSIZ, 0);
1347:inc/user_libs/usb_core.c ****     USB_OTG_WRITE_REG32( &pdev->regs.OUTEP_REGS[i]->DOEPINT, 0xFF);
1348:inc/user_libs/usb_core.c ****   }
1349:inc/user_libs/usb_core.c ****   msk.d32 = 0;
1350:inc/user_libs/usb_core.c ****   msk.b.txfifoundrn = 1;
1351:inc/user_libs/usb_core.c ****   USB_OTG_MODIFY_REG32(&pdev->regs.DREGS->DIEPMSK, msk.d32, msk.d32);
1352:inc/user_libs/usb_core.c ****   
1353:inc/user_libs/usb_core.c ****   if (pdev->cfg.dma_enable == 1)
1354:inc/user_libs/usb_core.c ****   {
1355:inc/user_libs/usb_core.c ****     dthrctl.d32 = 0;
1356:inc/user_libs/usb_core.c ****     dthrctl.b.non_iso_thr_en = 1;
1357:inc/user_libs/usb_core.c ****     dthrctl.b.iso_thr_en = 1;
1358:inc/user_libs/usb_core.c ****     dthrctl.b.tx_thr_len = 64;
1359:inc/user_libs/usb_core.c ****     dthrctl.b.rx_thr_en = 1;
1360:inc/user_libs/usb_core.c ****     dthrctl.b.rx_thr_len = 64;
1361:inc/user_libs/usb_core.c ****     USB_OTG_WRITE_REG32(&pdev->regs.DREGS->DTHRCTL, dthrctl.d32);  
1362:inc/user_libs/usb_core.c ****   }
1363:inc/user_libs/usb_core.c ****   USB_OTG_EnableDevInt(pdev);
1364:inc/user_libs/usb_core.c ****   return status;
1365:inc/user_libs/usb_core.c **** }
1366:inc/user_libs/usb_core.c **** 
1367:inc/user_libs/usb_core.c **** 
1368:inc/user_libs/usb_core.c **** /**
1369:inc/user_libs/usb_core.c **** * @brief  USB_OTG_EnableDevInt : Enables the Device mode interrupts
1370:inc/user_libs/usb_core.c **** * @param  pdev : Selected device
1371:inc/user_libs/usb_core.c **** * @retval USB_OTG_STS : status
1372:inc/user_libs/usb_core.c **** */
1373:inc/user_libs/usb_core.c **** USB_OTG_STS USB_OTG_EnableDevInt(USB_OTG_CORE_HANDLE *pdev)
1374:inc/user_libs/usb_core.c **** {
 1140              		.loc 1 1374 0
 1141              		.cfi_startproc
 1142              		@ args = 0, pretend = 0, frame = 0
 1143              		@ frame_needed = 0, uses_anonymous_args = 0
 1144              	.LVL102:
 1145 02e0 10B5     		push	{r4, lr}	@
 1146              	.LCFI11:
 1147              		.cfi_def_cfa_offset 8
 1148              		.cfi_offset 4, -8
ARM GAS  /tmp/ccQkqy1T.s 			page 46


 1149              		.cfi_offset 14, -4
 1150              	@ inc/user_libs/usb_core.c:1381:   USB_OTG_WRITE_REG32( &pdev->regs.GREGS->GINTMSK, 0);
1375:inc/user_libs/usb_core.c ****   USB_OTG_STS status = USB_OTG_OK;
1376:inc/user_libs/usb_core.c ****   USB_OTG_GINTMSK_TypeDef  intmsk;
1377:inc/user_libs/usb_core.c ****   
1378:inc/user_libs/usb_core.c ****   intmsk.d32 = 0;
1379:inc/user_libs/usb_core.c ****   
1380:inc/user_libs/usb_core.c ****   /* Disable all interrupts. */
1381:inc/user_libs/usb_core.c ****   USB_OTG_WRITE_REG32( &pdev->regs.GREGS->GINTMSK, 0);
 1151              		.loc 1 1381 0
 1152 02e2 C268     		ldr	r2, [r0, #12]	@ _1, pdev_12(D)->regs.GREGS
 1153              	@ inc/user_libs/usb_core.c:1378:   intmsk.d32 = 0;
1378:inc/user_libs/usb_core.c ****   
 1154              		.loc 1 1378 0
 1155 02e4 0023     		movs	r3, #0	@ intmsk,
 1156              	.LVL103:
 1157              	@ inc/user_libs/usb_core.c:1383:   USB_OTG_WRITE_REG32( &pdev->regs.GREGS->GINTSTS, 0xBFFFFFFF);
1382:inc/user_libs/usb_core.c ****   /* Clear any pending interrupts */
1383:inc/user_libs/usb_core.c ****   USB_OTG_WRITE_REG32( &pdev->regs.GREGS->GINTSTS, 0xBFFFFFFF);
 1158              		.loc 1 1383 0
 1159 02e6 6FF08041 		mvn	r1, #1073741824	@ tmp121,
 1160              	.LBB23:
 1161              	.LBB24:
 1162              	@ inc/user_libs/usb_core.c:102:   USB_OTG_WRITE_REG32( &pdev->regs.GREGS->GOTGINT, 0xFFFFFFFF);
 102:inc/user_libs/usb_core.c **** #endif
 1163              		.loc 1 102 0
 1164 02ea 4FF0FF34 		mov	r4, #-1	@ tmp122,
 1165              	.LVL104:
 1166              	.LBE24:
 1167              	.LBE23:
 1168              	@ inc/user_libs/usb_core.c:1381:   USB_OTG_WRITE_REG32( &pdev->regs.GREGS->GINTMSK, 0);
1381:inc/user_libs/usb_core.c ****   /* Clear any pending interrupts */
 1169              		.loc 1 1381 0
 1170 02ee 9361     		str	r3, [r2, #24]	@ intmsk, _1->GINTMSK
 1171              	@ inc/user_libs/usb_core.c:1383:   USB_OTG_WRITE_REG32( &pdev->regs.GREGS->GINTSTS, 0xBFFFFFFF);
 1172              		.loc 1 1383 0
 1173 02f0 5161     		str	r1, [r2, #20]	@ tmp121, _1->GINTSTS
 1174              	.LVL105:
 1175              	.LBB26:
 1176              	.LBB25:
 1177              	@ inc/user_libs/usb_core.c:102:   USB_OTG_WRITE_REG32( &pdev->regs.GREGS->GOTGINT, 0xFFFFFFFF);
 102:inc/user_libs/usb_core.c **** #endif
 1178              		.loc 1 102 0
 1179 02f2 5460     		str	r4, [r2, #4]	@ tmp122, _1->GOTGINT
 1180              	@ inc/user_libs/usb_core.c:105:   USB_OTG_WRITE_REG32( &pdev->regs.GREGS->GINTSTS, 0xBFFFFFFF);
 105:inc/user_libs/usb_core.c ****   /* Enable the interrupts in the INTMSK */
 1181              		.loc 1 105 0
 1182 02f4 5161     		str	r1, [r2, #20]	@ tmp121, _1->GINTSTS
 1183              	@ inc/user_libs/usb_core.c:108:   int_mask.b.usbsuspend = 1; 
 108:inc/user_libs/usb_core.c ****   
 1184              		.loc 1 108 0
 1185 02f6 0949     		ldr	r1, .L86	@ int_mask,
 1186              	.LVL106:
 1187              	@ inc/user_libs/usb_core.c:115:   USB_OTG_WRITE_REG32( &pdev->regs.GREGS->GINTMSK, int_mask.d32);
 115:inc/user_libs/usb_core.c **** }
 1188              		.loc 1 115 0
 1189 02f8 9161     		str	r1, [r2, #24]	@ int_mask, _1->GINTMSK
ARM GAS  /tmp/ccQkqy1T.s 			page 47


 1190              	.LBE25:
 1191              	.LBE26:
 1192              	@ inc/user_libs/usb_core.c:1387:   if (pdev->cfg.dma_enable == 0)
1384:inc/user_libs/usb_core.c ****   /* Enable the common interrupts */
1385:inc/user_libs/usb_core.c ****   USB_OTG_EnableCommonInt(pdev);
1386:inc/user_libs/usb_core.c ****   
1387:inc/user_libs/usb_core.c ****   if (pdev->cfg.dma_enable == 0)
 1193              		.loc 1 1387 0
 1194 02fa C178     		ldrb	r1, [r0, #3]	@ zero_extendqisi2	@ pdev_12(D)->cfg.dma_enable, pdev_12(D)->cfg.dma_enable
 1195              	.LVL107:
 1196 02fc 9942     		cmp	r1, r3	@ pdev_12(D)->cfg.dma_enable,
 1197              	.LVL108:
 1198              	@ inc/user_libs/usb_core.c:1389:     intmsk.b.rxstsqlvl = 1;
1388:inc/user_libs/usb_core.c ****   {
1389:inc/user_libs/usb_core.c ****     intmsk.b.rxstsqlvl = 1;
 1199              		.loc 1 1389 0
 1200 02fe 08BF     		it	eq
 1201 0300 1023     		moveq	r3, #16	@ intmsk,
 1202              	.LVL109:
 1203              	@ inc/user_libs/usb_core.c:1404:   intmsk.b.otgintr    = 1;    
1390:inc/user_libs/usb_core.c ****   }
1391:inc/user_libs/usb_core.c ****   
1392:inc/user_libs/usb_core.c ****   /* Enable interrupts matching to the Device mode ONLY */
1393:inc/user_libs/usb_core.c ****   intmsk.b.usbsuspend = 1;
1394:inc/user_libs/usb_core.c ****   intmsk.b.usbreset   = 1;
1395:inc/user_libs/usb_core.c ****   intmsk.b.enumdone   = 1;
1396:inc/user_libs/usb_core.c ****   intmsk.b.inepintr   = 1;
1397:inc/user_libs/usb_core.c ****   intmsk.b.outepintr  = 1;
1398:inc/user_libs/usb_core.c ****   intmsk.b.sofintr    = 1; 
1399:inc/user_libs/usb_core.c ****   
1400:inc/user_libs/usb_core.c ****   intmsk.b.incomplisoin    = 1; 
1401:inc/user_libs/usb_core.c ****   intmsk.b.incomplisoout    = 1;   
1402:inc/user_libs/usb_core.c **** #ifdef VBUS_SENSING_ENABLED
1403:inc/user_libs/usb_core.c ****   intmsk.b.sessreqintr    = 1; 
1404:inc/user_libs/usb_core.c ****   intmsk.b.otgintr    = 1;    
 1204              		.loc 1 1404 0
 1205 0302 43F08043 		orr	r3, r3, #1073741824	@ intmsk, intmsk,
 1206              	.LVL110:
 1207 0306 43F47013 		orr	r3, r3, #3932160	@ intmsk, intmsk,
 1208              	.LVL111:
 1209              	@ inc/user_libs/usb_core.c:1406:   USB_OTG_MODIFY_REG32( &pdev->regs.GREGS->GINTMSK, intmsk.d32, in
1405:inc/user_libs/usb_core.c **** #endif  
1406:inc/user_libs/usb_core.c ****   USB_OTG_MODIFY_REG32( &pdev->regs.GREGS->GINTMSK, intmsk.d32, intmsk.d32);
 1210              		.loc 1 1406 0
 1211 030a 9169     		ldr	r1, [r2, #24]	@ _4, _1->GINTMSK
 1212              	.LVL112:
 1213              	@ inc/user_libs/usb_core.c:1404:   intmsk.b.otgintr    = 1;    
1404:inc/user_libs/usb_core.c **** #endif  
 1214              		.loc 1 1404 0
 1215 030c 43F46053 		orr	r3, r3, #14336	@ intmsk, intmsk,
 1216              	.LVL113:
 1217 0310 43F00C03 		orr	r3, r3, #12	@ intmsk, intmsk,
 1218              	.LVL114:
 1219              	@ inc/user_libs/usb_core.c:1406:   USB_OTG_MODIFY_REG32( &pdev->regs.GREGS->GINTMSK, intmsk.d32, in
 1220              		.loc 1 1406 0
 1221 0314 0B43     		orrs	r3, r3, r1	@, _8, intmsk, _4
 1222              	.LVL115:
ARM GAS  /tmp/ccQkqy1T.s 			page 48


 1223 0316 9361     		str	r3, [r2, #24]	@ _8, _1->GINTMSK
 1224              	@ inc/user_libs/usb_core.c:1408: }
1407:inc/user_libs/usb_core.c ****   return status;
1408:inc/user_libs/usb_core.c **** }
 1225              		.loc 1 1408 0
 1226 0318 0020     		movs	r0, #0	@,
 1227              	.LVL116:
 1228 031a 10BD     		pop	{r4, pc}	@
 1229              	.L87:
 1230              		.align	2
 1231              	.L86:
 1232 031c 00080080 		.word	-2147481600
 1233              		.cfi_endproc
 1234              	.LFE128:
 1235              		.size	USB_OTG_EnableDevInt, .-USB_OTG_EnableDevInt
 1236              		.align	1
 1237              		.global	USB_OTG_CoreInitDev
 1238              		.syntax unified
 1239              		.thumb
 1240              		.thumb_func
 1241              		.fpu softvfp
 1242              		.type	USB_OTG_CoreInitDev, %function
 1243              	USB_OTG_CoreInitDev:
 1244              	.LFB127:
1195:inc/user_libs/usb_core.c ****   USB_OTG_STS             status       = USB_OTG_OK;
 1245              		.loc 1 1195 0
 1246              		.cfi_startproc
 1247              		@ args = 0, pretend = 0, frame = 0
 1248              		@ frame_needed = 0, uses_anonymous_args = 0
 1249              	.LVL117:
 1250 0320 F8B5     		push	{r3, r4, r5, r6, r7, lr}	@
 1251              	.LCFI12:
 1252              		.cfi_def_cfa_offset 24
 1253              		.cfi_offset 3, -24
 1254              		.cfi_offset 4, -20
 1255              		.cfi_offset 5, -16
 1256              		.cfi_offset 6, -12
 1257              		.cfi_offset 7, -8
 1258              		.cfi_offset 14, -4
 1259              	@ inc/user_libs/usb_core.c:1212:   USB_OTG_WRITE_REG32(pdev->regs.PCGCCTL, 0);
1212:inc/user_libs/usb_core.c ****   /* Device configuration register */
 1260              		.loc 1 1212 0
 1261 0322 D0F80C31 		ldr	r3, [r0, #268]	@ _1, pdev_44(D)->regs.PCGCCTL
 1262              	@ inc/user_libs/usb_core.c:1214:   dcfg.d32 = USB_OTG_READ_REG32( &pdev->regs.DREGS->DCFG);
1214:inc/user_libs/usb_core.c ****   dcfg.b.perfrint = DCFG_FRAME_INTERVAL_80;
 1263              		.loc 1 1214 0
 1264 0326 0269     		ldr	r2, [r0, #16]	@ _2, pdev_44(D)->regs.DREGS
 1265              	@ inc/user_libs/usb_core.c:1212:   USB_OTG_WRITE_REG32(pdev->regs.PCGCCTL, 0);
1212:inc/user_libs/usb_core.c ****   /* Device configuration register */
 1266              		.loc 1 1212 0
 1267 0328 0021     		movs	r1, #0	@ tmp160,
 1268 032a 1960     		str	r1, [r3]	@ tmp160, *_1
 1269              	@ inc/user_libs/usb_core.c:1214:   dcfg.d32 = USB_OTG_READ_REG32( &pdev->regs.DREGS->DCFG);
1214:inc/user_libs/usb_core.c ****   dcfg.b.perfrint = DCFG_FRAME_INTERVAL_80;
 1270              		.loc 1 1214 0
 1271 032c 1368     		ldr	r3, [r2]	@ _3, _2->DCFG
 1272              	@ inc/user_libs/usb_core.c:1215:   dcfg.b.perfrint = DCFG_FRAME_INTERVAL_80;
ARM GAS  /tmp/ccQkqy1T.s 			page 49


1215:inc/user_libs/usb_core.c ****   USB_OTG_WRITE_REG32( &pdev->regs.DREGS->DCFG, dcfg.d32 );
 1273              		.loc 1 1215 0
 1274 032e 61F3CC23 		bfi	r3, r1, #11, #2	@ dcfg, tmp160,,
 1275              	.LVL118:
 1276              	@ inc/user_libs/usb_core.c:1216:   USB_OTG_WRITE_REG32( &pdev->regs.DREGS->DCFG, dcfg.d32 );
1216:inc/user_libs/usb_core.c ****   
 1277              		.loc 1 1216 0
 1278 0332 1360     		str	r3, [r2]	@ dcfg, _2->DCFG
 1279              	@ inc/user_libs/usb_core.c:1219:   if(pdev->cfg.coreID == USB_OTG_FS_CORE_ID  )
1219:inc/user_libs/usb_core.c ****   {  
 1280              		.loc 1 1219 0
 1281 0334 C37A     		ldrb	r3, [r0, #11]	@ zero_extendqisi2	@ pdev_44(D)->cfg.coreID, pdev_44(D)->cfg.coreID
 1282              	.LVL119:
 1283 0336 012B     		cmp	r3, #1	@ pdev_44(D)->cfg.coreID,
 1284              	@ inc/user_libs/usb_core.c:1195: {
1195:inc/user_libs/usb_core.c ****   USB_OTG_STS             status       = USB_OTG_OK;
 1285              		.loc 1 1195 0
 1286 0338 0446     		mov	r4, r0	@ pdev, pdev
 1287              	@ inc/user_libs/usb_core.c:1219:   if(pdev->cfg.coreID == USB_OTG_FS_CORE_ID  )
1219:inc/user_libs/usb_core.c ****   {  
 1288              		.loc 1 1219 0
 1289 033a 12D1     		bne	.L89	@,
 1290              	@ inc/user_libs/usb_core.c:1223:     USB_OTG_InitDevSpeed (pdev , USB_OTG_SPEED_PARAM_FULL);
1223:inc/user_libs/usb_core.c ****     
 1291              		.loc 1 1223 0
 1292 033c 0321     		movs	r1, #3	@,
 1293 033e FFF7FEFF 		bl	USB_OTG_InitDevSpeed	@
 1294              	.LVL120:
 1295              	@ inc/user_libs/usb_core.c:1226:     USB_OTG_WRITE_REG32(&pdev->regs.GREGS->GRXFSIZ, RX_FIFO_FS_SIZ
1226:inc/user_libs/usb_core.c ****     
 1296              		.loc 1 1226 0
 1297 0342 C368     		ldr	r3, [r0, #12]	@ _6, pdev_44(D)->regs.GREGS
 1298 0344 8022     		movs	r2, #128	@ tmp162,
 1299 0346 5A62     		str	r2, [r3, #36]	@ tmp162, _6->GRXFSIZ
 1300              	.LVL121:
 1301              	@ inc/user_libs/usb_core.c:1230:     nptxfifosize.b.startaddr = RX_FIFO_FS_SIZE;
1230:inc/user_libs/usb_core.c ****     USB_OTG_WRITE_REG32( &pdev->regs.GREGS->DIEPTXF0_HNPTXFSIZ, nptxfifosize.d32 );
 1302              		.loc 1 1230 0
 1303 0348 02F58002 		add	r2, r2, #4194304	@ nptxfifosize, nptxfifosize,
 1304              	.LVL122:
 1305              	@ inc/user_libs/usb_core.c:1231:     USB_OTG_WRITE_REG32( &pdev->regs.GREGS->DIEPTXF0_HNPTXFSIZ, np
1231:inc/user_libs/usb_core.c ****     
 1306              		.loc 1 1231 0
 1307 034c 9A62     		str	r2, [r3, #40]	@ nptxfifosize, _6->DIEPTXF0_HNPTXFSIZ
 1308              	.LVL123:
 1309              	@ inc/user_libs/usb_core.c:1235:     txfifosize.b.startaddr = nptxfifosize.b.startaddr + nptxfifosi
1235:inc/user_libs/usb_core.c ****     txfifosize.b.depth = TX1_FIFO_FS_SIZE;
 1310              		.loc 1 1235 0
 1311 034e 02F14012 		add	r2, r2, #4194368	@ txfifosize, txfifosize,
 1312              	.LVL124:
 1313              	@ inc/user_libs/usb_core.c:1237:     USB_OTG_WRITE_REG32( &pdev->regs.GREGS->DIEPTXF[0], txfifosize
1237:inc/user_libs/usb_core.c ****     
 1314              		.loc 1 1237 0
 1315 0352 C3F80421 		str	r2, [r3, #260]	@ txfifosize, _6->DIEPTXF
 1316              	@ inc/user_libs/usb_core.c:1241:     txfifosize.b.startaddr += txfifosize.b.depth;
1241:inc/user_libs/usb_core.c ****     txfifosize.b.depth = TX2_FIFO_FS_SIZE;
 1317              		.loc 1 1241 0
ARM GAS  /tmp/ccQkqy1T.s 			page 50


 1318 0356 4FF4A072 		mov	r2, #320	@ txfifosize,
 1319              	.LVL125:
 1320              	@ inc/user_libs/usb_core.c:1243:     USB_OTG_WRITE_REG32( &pdev->regs.GREGS->DIEPTXF[1], txfifosize
1243:inc/user_libs/usb_core.c ****     
 1321              		.loc 1 1243 0
 1322 035a C3F80821 		str	r2, [r3, #264]	@ txfifosize, _6->DIEPTXF
 1323              	@ inc/user_libs/usb_core.c:1249:     USB_OTG_WRITE_REG32( &pdev->regs.GREGS->DIEPTXF[2], txfifosize
1249:inc/user_libs/usb_core.c ****   }
 1324              		.loc 1 1249 0
 1325 035e C3F80C21 		str	r2, [r3, #268]	@ txfifosize, _6->DIEPTXF
 1326              	.L89:
 1327              	@ inc/user_libs/usb_core.c:1306:   USB_OTG_FlushTxFifo(pdev , 0x10); /* all Tx FIFOs */
1306:inc/user_libs/usb_core.c ****   USB_OTG_FlushRxFifo(pdev);
 1328              		.loc 1 1306 0
 1329 0362 1021     		movs	r1, #16	@,
 1330 0364 2046     		mov	r0, r4	@, pdev
 1331              	.LVL126:
 1332 0366 FFF7FEFF 		bl	USB_OTG_FlushTxFifo	@
 1333              	.LVL127:
 1334              	@ inc/user_libs/usb_core.c:1307:   USB_OTG_FlushRxFifo(pdev);
1307:inc/user_libs/usb_core.c ****   /* Clear all pending Device Interrupts */
 1335              		.loc 1 1307 0
 1336 036a 2046     		mov	r0, r4	@, pdev
 1337 036c FFF7FEFF 		bl	USB_OTG_FlushRxFifo	@
 1338              	.LVL128:
 1339              	@ inc/user_libs/usb_core.c:1309:   USB_OTG_WRITE_REG32( &pdev->regs.DREGS->DIEPMSK, 0 );
1309:inc/user_libs/usb_core.c ****   USB_OTG_WRITE_REG32( &pdev->regs.DREGS->DOEPMSK, 0 );
 1340              		.loc 1 1309 0
 1341 0370 2269     		ldr	r2, [r4, #16]	@ _11, pdev_44(D)->regs.DREGS
 1342 0372 2069     		ldr	r0, [r4, #16]	@ _24, pdev_44(D)->regs.DREGS
 1343 0374 0023     		movs	r3, #0	@ tmp163,
 1344              	@ inc/user_libs/usb_core.c:1311:   USB_OTG_WRITE_REG32( &pdev->regs.DREGS->DAINT, 0xFFFFFFFF );
1311:inc/user_libs/usb_core.c ****   USB_OTG_WRITE_REG32( &pdev->regs.DREGS->DAINTMSK, 0 );
 1345              		.loc 1 1311 0
 1346 0376 4FF0FF31 		mov	r1, #-1	@ tmp165,
 1347              	@ inc/user_libs/usb_core.c:1309:   USB_OTG_WRITE_REG32( &pdev->regs.DREGS->DIEPMSK, 0 );
1309:inc/user_libs/usb_core.c ****   USB_OTG_WRITE_REG32( &pdev->regs.DREGS->DOEPMSK, 0 );
 1348              		.loc 1 1309 0
 1349 037a 1361     		str	r3, [r2, #16]	@ tmp163, _11->DIEPMSK
 1350              	@ inc/user_libs/usb_core.c:1310:   USB_OTG_WRITE_REG32( &pdev->regs.DREGS->DOEPMSK, 0 );
1310:inc/user_libs/usb_core.c ****   USB_OTG_WRITE_REG32( &pdev->regs.DREGS->DAINT, 0xFFFFFFFF );
 1351              		.loc 1 1310 0
 1352 037c 5361     		str	r3, [r2, #20]	@ tmp163, _11->DOEPMSK
 1353              	@ inc/user_libs/usb_core.c:1311:   USB_OTG_WRITE_REG32( &pdev->regs.DREGS->DAINT, 0xFFFFFFFF );
1311:inc/user_libs/usb_core.c ****   USB_OTG_WRITE_REG32( &pdev->regs.DREGS->DAINTMSK, 0 );
 1354              		.loc 1 1311 0
 1355 037e 9161     		str	r1, [r2, #24]	@ tmp165, _11->DAINT
 1356              	@ inc/user_libs/usb_core.c:1312:   USB_OTG_WRITE_REG32( &pdev->regs.DREGS->DAINTMSK, 0 );
1312:inc/user_libs/usb_core.c ****   
 1357              		.loc 1 1312 0
 1358 0380 D361     		str	r3, [r2, #28]	@ tmp163, _11->DAINTMSK
 1359              	.LVL129:
 1360 0382 6578     		ldrb	r5, [r4, #1]	@ zero_extendqisi2	@ pdev_44(D)->cfg.dev_endpoints, pdev_44(D)->cfg.dev_endpoint
 1361 0384 04F11802 		add	r2, r4, #24	@ ivtmp.191, pdev,
 1362 0388 02EB8505 		add	r5, r2, r5, lsl #2	@ _112, ivtmp.191, pdev_44(D)->cfg.dev_endpoints,
 1363              	@ inc/user_libs/usb_core.c:1329:     USB_OTG_WRITE_REG32( &pdev->regs.INEP_REGS[i]->DIEPINT, 0xFF);
1329:inc/user_libs/usb_core.c ****   }
ARM GAS  /tmp/ccQkqy1T.s 			page 51


 1364              		.loc 1 1329 0
 1365 038c FF26     		movs	r6, #255	@ tmp189,
 1366              	.LVL130:
 1367              	.L90:
 1368              	@ inc/user_libs/usb_core.c:1314:   for (i = 0; i < pdev->cfg.dev_endpoints; i++)
1314:inc/user_libs/usb_core.c ****   {
 1369              		.loc 1 1314 0 discriminator 1
 1370 038e 9542     		cmp	r5, r2	@ _112, ivtmp.191
 1371 0390 15D1     		bne	.L93	@,
 1372              	@ inc/user_libs/usb_core.c:1331:   for (i = 0; i <  pdev->cfg.dev_endpoints; i++)
1331:inc/user_libs/usb_core.c ****   {
 1373              		.loc 1 1331 0
 1374 0392 0023     		movs	r3, #0	@ i,
 1375 0394 04F15401 		add	r1, r4, #84	@ ivtmp.184, pdev,
 1376 0398 1D46     		mov	r5, r3	@ tmp186, i
 1377              	.LBB27:
 1378              	@ inc/user_libs/usb_core.c:1347:     USB_OTG_WRITE_REG32( &pdev->regs.OUTEP_REGS[i]->DOEPINT, 0xFF)
1347:inc/user_libs/usb_core.c ****   }
 1379              		.loc 1 1347 0
 1380 039a FF26     		movs	r6, #255	@ tmp187,
 1381              	.LVL131:
 1382              	.L94:
 1383              	.LBE27:
 1384              	@ inc/user_libs/usb_core.c:1331:   for (i = 0; i <  pdev->cfg.dev_endpoints; i++)
1331:inc/user_libs/usb_core.c ****   {
 1385              		.loc 1 1331 0 discriminator 1
 1386 039c 6278     		ldrb	r2, [r4, #1]	@ zero_extendqisi2	@ pdev_44(D)->cfg.dev_endpoints, pdev_44(D)->cfg.dev_endpoint
 1387 039e 9A42     		cmp	r2, r3	@ pdev_44(D)->cfg.dev_endpoints, i
 1388 03a0 19D8     		bhi	.L97	@,
 1389              	@ inc/user_libs/usb_core.c:1351:   USB_OTG_MODIFY_REG32(&pdev->regs.DREGS->DIEPMSK, msk.d32, msk.d3
1351:inc/user_libs/usb_core.c ****   
 1390              		.loc 1 1351 0
 1391 03a2 0369     		ldr	r3, [r0, #16]	@ _25, _24->DIEPMSK
 1392              	.LVL132:
 1393 03a4 43F48073 		orr	r3, r3, #256	@ _29, _25,
 1394 03a8 0361     		str	r3, [r0, #16]	@ _29, _24->DIEPMSK
 1395              	@ inc/user_libs/usb_core.c:1353:   if (pdev->cfg.dma_enable == 1)
1353:inc/user_libs/usb_core.c ****   {
 1396              		.loc 1 1353 0
 1397 03aa E378     		ldrb	r3, [r4, #3]	@ zero_extendqisi2	@ pdev_44(D)->cfg.dma_enable, pdev_44(D)->cfg.dma_enable
 1398 03ac 012B     		cmp	r3, #1	@ pdev_44(D)->cfg.dma_enable,
 1399              	@ inc/user_libs/usb_core.c:1355:     dthrctl.d32 = 0;
1355:inc/user_libs/usb_core.c ****     dthrctl.b.non_iso_thr_en = 1;
 1400              		.loc 1 1355 0
 1401 03ae 04BF     		itt	eq
 1402 03b0 0F4B     		ldreq	r3, .L99	@ dthrctl,
 1403              	.LVL133:
 1404              	@ inc/user_libs/usb_core.c:1361:     USB_OTG_WRITE_REG32(&pdev->regs.DREGS->DTHRCTL, dthrctl.d32); 
1361:inc/user_libs/usb_core.c ****   }
 1405              		.loc 1 1361 0
 1406 03b2 0363     		streq	r3, [r0, #48]	@ dthrctl, _24->DTHRCTL
 1407              	@ inc/user_libs/usb_core.c:1363:   USB_OTG_EnableDevInt(pdev);
1363:inc/user_libs/usb_core.c ****   return status;
 1408              		.loc 1 1363 0
 1409 03b4 2046     		mov	r0, r4	@, pdev
 1410 03b6 FFF7FEFF 		bl	USB_OTG_EnableDevInt	@
 1411              	.LVL134:
ARM GAS  /tmp/ccQkqy1T.s 			page 52


 1412              	@ inc/user_libs/usb_core.c:1365: }
1365:inc/user_libs/usb_core.c **** 
 1413              		.loc 1 1365 0
 1414 03ba 0020     		movs	r0, #0	@,
 1415 03bc F8BD     		pop	{r3, r4, r5, r6, r7, pc}	@
 1416              	.LVL135:
 1417              	.L93:
 1418              	@ inc/user_libs/usb_core.c:1316:     depctl.d32 = USB_OTG_READ_REG32(&pdev->regs.INEP_REGS[i]->DIEP
1316:inc/user_libs/usb_core.c ****     if (depctl.b.epena)
 1419              		.loc 1 1316 0
 1420 03be 52F8041B 		ldr	r1, [r2], #4	@ _12, MEM[base: _10, offset: 0B]
 1421 03c2 0F68     		ldr	r7, [r1]	@ _13, _12->DIEPCTL
 1422              	.LVL136:
 1423              	@ inc/user_libs/usb_core.c:1319:       depctl.d32 = 0;
1319:inc/user_libs/usb_core.c ****       depctl.b.epdis = 1;
 1424              		.loc 1 1319 0
 1425 03c4 002F     		cmp	r7, #0	@ _13,
 1426 03c6 ACBF     		ite	ge
 1427 03c8 0027     		movge	r7, #0	@ depctl,
 1428 03ca 4FF09047 		movlt	r7, #1207959552	@ depctl,
 1429              	.LVL137:
 1430              	@ inc/user_libs/usb_core.c:1327:     USB_OTG_WRITE_REG32( &pdev->regs.INEP_REGS[i]->DIEPCTL, depctl
1327:inc/user_libs/usb_core.c ****     USB_OTG_WRITE_REG32( &pdev->regs.INEP_REGS[i]->DIEPTSIZ, 0);
 1431              		.loc 1 1327 0
 1432 03ce 0F60     		str	r7, [r1]	@ depctl, _12->DIEPCTL
 1433              	@ inc/user_libs/usb_core.c:1328:     USB_OTG_WRITE_REG32( &pdev->regs.INEP_REGS[i]->DIEPTSIZ, 0);
1328:inc/user_libs/usb_core.c ****     USB_OTG_WRITE_REG32( &pdev->regs.INEP_REGS[i]->DIEPINT, 0xFF);
 1434              		.loc 1 1328 0
 1435 03d0 0B61     		str	r3, [r1, #16]	@ tmp188, _12->DIEPTSIZ
 1436              	@ inc/user_libs/usb_core.c:1329:     USB_OTG_WRITE_REG32( &pdev->regs.INEP_REGS[i]->DIEPINT, 0xFF);
1329:inc/user_libs/usb_core.c ****   }
 1437              		.loc 1 1329 0
 1438 03d2 8E60     		str	r6, [r1, #8]	@ tmp189, _12->DIEPINT
 1439 03d4 DBE7     		b	.L90	@
 1440              	.LVL138:
 1441              	.L97:
 1442              	.LBB28:
 1443              	@ inc/user_libs/usb_core.c:1334:     depctl.d32 = USB_OTG_READ_REG32(&pdev->regs.OUTEP_REGS[i]->DOE
1334:inc/user_libs/usb_core.c ****     if (depctl.b.epena)
 1444              		.loc 1 1334 0
 1445 03d6 51F8042B 		ldr	r2, [r1], #4	@ _18, MEM[base: _27, offset: 0B]
 1446 03da 1768     		ldr	r7, [r2]	@ _19, _18->DOEPCTL
 1447              	.LVL139:
 1448              	@ inc/user_libs/usb_core.c:1337:       depctl.d32 = 0;
1337:inc/user_libs/usb_core.c ****       depctl.b.epdis = 1;
 1449              		.loc 1 1337 0
 1450 03dc 002F     		cmp	r7, #0	@ _19,
 1451 03de ACBF     		ite	ge
 1452 03e0 0027     		movge	r7, #0	@ depctl,
 1453 03e2 4FF09047 		movlt	r7, #1207959552	@ depctl,
 1454              	.LVL140:
 1455              	@ inc/user_libs/usb_core.c:1345:     USB_OTG_WRITE_REG32( &pdev->regs.OUTEP_REGS[i]->DOEPCTL, depct
1345:inc/user_libs/usb_core.c ****     USB_OTG_WRITE_REG32( &pdev->regs.OUTEP_REGS[i]->DOEPTSIZ, 0);
 1456              		.loc 1 1345 0
 1457 03e6 1760     		str	r7, [r2]	@ depctl, _18->DOEPCTL
 1458              	.LBE28:
 1459              	@ inc/user_libs/usb_core.c:1331:   for (i = 0; i <  pdev->cfg.dev_endpoints; i++)
ARM GAS  /tmp/ccQkqy1T.s 			page 53


1331:inc/user_libs/usb_core.c ****   {
 1460              		.loc 1 1331 0
 1461 03e8 0133     		adds	r3, r3, #1	@ i, i,
 1462              	.LVL141:
 1463              	.LBB29:
 1464              	@ inc/user_libs/usb_core.c:1346:     USB_OTG_WRITE_REG32( &pdev->regs.OUTEP_REGS[i]->DOEPTSIZ, 0);
1346:inc/user_libs/usb_core.c ****     USB_OTG_WRITE_REG32( &pdev->regs.OUTEP_REGS[i]->DOEPINT, 0xFF);
 1465              		.loc 1 1346 0
 1466 03ea 1561     		str	r5, [r2, #16]	@ tmp186, _18->DOEPTSIZ
 1467              	@ inc/user_libs/usb_core.c:1347:     USB_OTG_WRITE_REG32( &pdev->regs.OUTEP_REGS[i]->DOEPINT, 0xFF)
1347:inc/user_libs/usb_core.c ****   }
 1468              		.loc 1 1347 0
 1469 03ec 9660     		str	r6, [r2, #8]	@ tmp187, _18->DOEPINT
 1470 03ee D5E7     		b	.L94	@
 1471              	.L100:
 1472              		.align	2
 1473              	.L99:
 1474 03f0 03018100 		.word	8454403
 1475              	.LBE29:
 1476              		.cfi_endproc
 1477              	.LFE127:
 1478              		.size	USB_OTG_CoreInitDev, .-USB_OTG_CoreInitDev
 1479              		.align	1
 1480              		.global	USB_OTG_GetDeviceSpeed
 1481              		.syntax unified
 1482              		.thumb
 1483              		.thumb_func
 1484              		.fpu softvfp
 1485              		.type	USB_OTG_GetDeviceSpeed, %function
 1486              	USB_OTG_GetDeviceSpeed:
 1487              	.LFB129:
1409:inc/user_libs/usb_core.c **** 
1410:inc/user_libs/usb_core.c **** 
1411:inc/user_libs/usb_core.c **** /**
1412:inc/user_libs/usb_core.c **** * @brief  USB_OTG_GetDeviceSpeed
1413:inc/user_libs/usb_core.c **** *         Get the device speed from the device status register
1414:inc/user_libs/usb_core.c **** * @param  None
1415:inc/user_libs/usb_core.c **** * @retval status
1416:inc/user_libs/usb_core.c **** */
1417:inc/user_libs/usb_core.c **** enum USB_OTG_SPEED USB_OTG_GetDeviceSpeed (USB_OTG_CORE_HANDLE *pdev)
1418:inc/user_libs/usb_core.c **** {
 1488              		.loc 1 1418 0
 1489              		.cfi_startproc
 1490              		@ args = 0, pretend = 0, frame = 0
 1491              		@ frame_needed = 0, uses_anonymous_args = 0
 1492              		@ link register save eliminated.
 1493              	.LVL142:
 1494              	@ inc/user_libs/usb_core.c:1423:   dsts.d32 = USB_OTG_READ_REG32(&pdev->regs.DREGS->DSTS);
1419:inc/user_libs/usb_core.c ****   USB_OTG_DSTS_TypeDef  dsts;
1420:inc/user_libs/usb_core.c ****   enum USB_OTG_SPEED speed = USB_SPEED_UNKNOWN;
1421:inc/user_libs/usb_core.c ****   
1422:inc/user_libs/usb_core.c ****   
1423:inc/user_libs/usb_core.c ****   dsts.d32 = USB_OTG_READ_REG32(&pdev->regs.DREGS->DSTS);
 1495              		.loc 1 1423 0
 1496 03f4 0369     		ldr	r3, [r0, #16]	@ _1, pdev_6(D)->regs.DREGS
 1497 03f6 9B68     		ldr	r3, [r3, #8]	@ _2, _1->DSTS
 1498              	@ inc/user_libs/usb_core.c:1425:   switch (dsts.b.enumspd)
ARM GAS  /tmp/ccQkqy1T.s 			page 54


1424:inc/user_libs/usb_core.c ****   
1425:inc/user_libs/usb_core.c ****   switch (dsts.b.enumspd)
 1499              		.loc 1 1425 0
 1500 03f8 C3F34103 		ubfx	r3, r3, #1, #2	@ tmp117, _2,,
 1501 03fc 022B     		cmp	r3, #2	@ tmp117,
 1502 03fe 04D0     		beq	.L103	@,
 1503 0400 01D8     		bhi	.L104	@,
 1504 0402 012B     		cmp	r3, #1	@ tmp117,
 1505 0404 03D1     		bne	.L109	@,
 1506              	.L104:
 1507              	@ inc/user_libs/usb_core.c:1432:     speed = USB_SPEED_FULL;
1426:inc/user_libs/usb_core.c ****   {
1427:inc/user_libs/usb_core.c ****   case DSTS_ENUMSPD_HS_PHY_30MHZ_OR_60MHZ:
1428:inc/user_libs/usb_core.c ****     speed = USB_SPEED_HIGH;
1429:inc/user_libs/usb_core.c ****     break;
1430:inc/user_libs/usb_core.c ****   case DSTS_ENUMSPD_FS_PHY_30MHZ_OR_60MHZ:
1431:inc/user_libs/usb_core.c ****   case DSTS_ENUMSPD_FS_PHY_48MHZ:
1432:inc/user_libs/usb_core.c ****     speed = USB_SPEED_FULL;
 1508              		.loc 1 1432 0
 1509 0406 0220     		movs	r0, #2	@ <retval>,
 1510              	.LVL143:
 1511 0408 7047     		bx	lr	@
 1512              	.LVL144:
 1513              	.L103:
 1514              	@ inc/user_libs/usb_core.c:1436:     speed = USB_SPEED_LOW;
1433:inc/user_libs/usb_core.c ****     break;
1434:inc/user_libs/usb_core.c ****     
1435:inc/user_libs/usb_core.c ****   case DSTS_ENUMSPD_LS_PHY_6MHZ:
1436:inc/user_libs/usb_core.c ****     speed = USB_SPEED_LOW;
 1515              		.loc 1 1436 0
 1516 040a 0120     		movs	r0, #1	@ <retval>,
 1517              	.LVL145:
 1518              	@ inc/user_libs/usb_core.c:1437:     break;
1437:inc/user_libs/usb_core.c ****     break;
 1519              		.loc 1 1437 0
 1520 040c 7047     		bx	lr	@
 1521              	.LVL146:
 1522              	.L109:
 1523              	@ inc/user_libs/usb_core.c:1428:     speed = USB_SPEED_HIGH;
1428:inc/user_libs/usb_core.c ****     break;
 1524              		.loc 1 1428 0
 1525 040e 0320     		movs	r0, #3	@ <retval>,
 1526              	.LVL147:
 1527              	@ inc/user_libs/usb_core.c:1441: }
1438:inc/user_libs/usb_core.c ****   }
1439:inc/user_libs/usb_core.c ****   
1440:inc/user_libs/usb_core.c ****   return speed;
1441:inc/user_libs/usb_core.c **** }
 1528              		.loc 1 1441 0
 1529 0410 7047     		bx	lr	@
 1530              		.cfi_endproc
 1531              	.LFE129:
 1532              		.size	USB_OTG_GetDeviceSpeed, .-USB_OTG_GetDeviceSpeed
 1533              		.align	1
 1534              		.global	USB_OTG_EP0Activate
 1535              		.syntax unified
 1536              		.thumb
ARM GAS  /tmp/ccQkqy1T.s 			page 55


 1537              		.thumb_func
 1538              		.fpu softvfp
 1539              		.type	USB_OTG_EP0Activate, %function
 1540              	USB_OTG_EP0Activate:
 1541              	.LFB130:
1442:inc/user_libs/usb_core.c **** /**
1443:inc/user_libs/usb_core.c **** * @brief  enables EP0 OUT to receive SETUP packets and configures EP0
1444:inc/user_libs/usb_core.c **** *   for transmitting packets
1445:inc/user_libs/usb_core.c **** * @param  None
1446:inc/user_libs/usb_core.c **** * @retval USB_OTG_STS : status
1447:inc/user_libs/usb_core.c **** */
1448:inc/user_libs/usb_core.c **** USB_OTG_STS  USB_OTG_EP0Activate(USB_OTG_CORE_HANDLE *pdev)
1449:inc/user_libs/usb_core.c **** {
 1542              		.loc 1 1449 0
 1543              		.cfi_startproc
 1544              		@ args = 0, pretend = 0, frame = 0
 1545              		@ frame_needed = 0, uses_anonymous_args = 0
 1546              		@ link register save eliminated.
 1547              	.LVL148:
 1548              	@ inc/user_libs/usb_core.c:1457:   dsts.d32 = USB_OTG_READ_REG32(&pdev->regs.DREGS->DSTS);
1450:inc/user_libs/usb_core.c ****   USB_OTG_STS             status = USB_OTG_OK;
1451:inc/user_libs/usb_core.c ****   USB_OTG_DSTS_TypeDef    dsts;
1452:inc/user_libs/usb_core.c ****   USB_OTG_DEPCTL_TypeDef  diepctl;
1453:inc/user_libs/usb_core.c ****   USB_OTG_DCTL_TypeDef    dctl;
1454:inc/user_libs/usb_core.c ****   
1455:inc/user_libs/usb_core.c ****   dctl.d32 = 0;
1456:inc/user_libs/usb_core.c ****   /* Read the Device Status and Endpoint 0 Control registers */
1457:inc/user_libs/usb_core.c ****   dsts.d32 = USB_OTG_READ_REG32(&pdev->regs.DREGS->DSTS);
 1549              		.loc 1 1457 0
 1550 0412 0369     		ldr	r3, [r0, #16]	@ _1, pdev_15(D)->regs.DREGS
 1551              	@ inc/user_libs/usb_core.c:1458:   diepctl.d32 = USB_OTG_READ_REG32(&pdev->regs.INEP_REGS[0]->DIEPC
1458:inc/user_libs/usb_core.c ****   diepctl.d32 = USB_OTG_READ_REG32(&pdev->regs.INEP_REGS[0]->DIEPCTL);
 1552              		.loc 1 1458 0
 1553 0414 8069     		ldr	r0, [r0, #24]	@ _3, pdev_15(D)->regs.INEP_REGS
 1554              	.LVL149:
 1555              	@ inc/user_libs/usb_core.c:1457:   dsts.d32 = USB_OTG_READ_REG32(&pdev->regs.DREGS->DSTS);
1457:inc/user_libs/usb_core.c ****   diepctl.d32 = USB_OTG_READ_REG32(&pdev->regs.INEP_REGS[0]->DIEPCTL);
 1556              		.loc 1 1457 0
 1557 0416 9968     		ldr	r1, [r3, #8]	@ _2, _1->DSTS
 1558              	@ inc/user_libs/usb_core.c:1458:   diepctl.d32 = USB_OTG_READ_REG32(&pdev->regs.INEP_REGS[0]->DIEPC
 1559              		.loc 1 1458 0
 1560 0418 0268     		ldr	r2, [r0]	@ diepctl, _3->DIEPCTL
 1561              	.LVL150:
 1562              	@ inc/user_libs/usb_core.c:1460:   switch (dsts.b.enumspd)
1459:inc/user_libs/usb_core.c ****   /* Set the MPS of the IN EP based on the enumeration speed */
1460:inc/user_libs/usb_core.c ****   switch (dsts.b.enumspd)
 1563              		.loc 1 1460 0
 1564 041a C1F34101 		ubfx	r1, r1, #1, #2	@ tmp125, _2,,
 1565 041e 0229     		cmp	r1, #2	@ tmp125,
 1566              	@ inc/user_libs/usb_core.c:1468:     diepctl.b.mps = DEP0CTL_MPS_8;
1461:inc/user_libs/usb_core.c ****   {
1462:inc/user_libs/usb_core.c ****   case DSTS_ENUMSPD_HS_PHY_30MHZ_OR_60MHZ:
1463:inc/user_libs/usb_core.c ****   case DSTS_ENUMSPD_FS_PHY_30MHZ_OR_60MHZ:
1464:inc/user_libs/usb_core.c ****   case DSTS_ENUMSPD_FS_PHY_48MHZ:
1465:inc/user_libs/usb_core.c ****     diepctl.b.mps = DEP0CTL_MPS_64;
1466:inc/user_libs/usb_core.c ****     break;
1467:inc/user_libs/usb_core.c ****   case DSTS_ENUMSPD_LS_PHY_6MHZ:
ARM GAS  /tmp/ccQkqy1T.s 			page 56


1468:inc/user_libs/usb_core.c ****     diepctl.b.mps = DEP0CTL_MPS_8;
 1567              		.loc 1 1468 0
 1568 0420 0ABF     		itet	eq
 1569 0422 0321     		moveq	r1, #3	@ tmp126,
 1570              	@ inc/user_libs/usb_core.c:1465:     diepctl.b.mps = DEP0CTL_MPS_64;
1465:inc/user_libs/usb_core.c ****     break;
 1571              		.loc 1 1465 0
 1572 0424 6FF30A02 		bfcne	r2, #0, #11	@ diepctl,,
 1573              	@ inc/user_libs/usb_core.c:1468:     diepctl.b.mps = DEP0CTL_MPS_8;
 1574              		.loc 1 1468 0
 1575 0428 61F30A02 		bfieq	r2, r1, #0, #11	@ diepctl, tmp126,,
 1576              	@ inc/user_libs/usb_core.c:1471:   USB_OTG_WRITE_REG32(&pdev->regs.INEP_REGS[0]->DIEPCTL, diepctl.d
1469:inc/user_libs/usb_core.c ****     break;
1470:inc/user_libs/usb_core.c ****   }
1471:inc/user_libs/usb_core.c ****   USB_OTG_WRITE_REG32(&pdev->regs.INEP_REGS[0]->DIEPCTL, diepctl.d32);
 1577              		.loc 1 1471 0
 1578 042c 0260     		str	r2, [r0]	@ diepctl, _3->DIEPCTL
 1579              	@ inc/user_libs/usb_core.c:1473:   USB_OTG_MODIFY_REG32(&pdev->regs.DREGS->DCTL, dctl.d32, dctl.d32
1472:inc/user_libs/usb_core.c ****   dctl.b.cgnpinnak = 1;
1473:inc/user_libs/usb_core.c ****   USB_OTG_MODIFY_REG32(&pdev->regs.DREGS->DCTL, dctl.d32, dctl.d32);
 1580              		.loc 1 1473 0
 1581 042e 5A68     		ldr	r2, [r3, #4]	@ _7, _1->DCTL
 1582              	.LVL151:
 1583 0430 42F48072 		orr	r2, r2, #256	@ _11, _7,
 1584 0434 5A60     		str	r2, [r3, #4]	@ _11, _1->DCTL
 1585              	@ inc/user_libs/usb_core.c:1475: }
1474:inc/user_libs/usb_core.c ****   return status;
1475:inc/user_libs/usb_core.c **** }
 1586              		.loc 1 1475 0
 1587 0436 0020     		movs	r0, #0	@,
 1588 0438 7047     		bx	lr	@
 1589              		.cfi_endproc
 1590              	.LFE130:
 1591              		.size	USB_OTG_EP0Activate, .-USB_OTG_EP0Activate
 1592              		.align	1
 1593              		.global	USB_OTG_EPActivate
 1594              		.syntax unified
 1595              		.thumb
 1596              		.thumb_func
 1597              		.fpu softvfp
 1598              		.type	USB_OTG_EPActivate, %function
 1599              	USB_OTG_EPActivate:
 1600              	.LFB131:
1476:inc/user_libs/usb_core.c **** 
1477:inc/user_libs/usb_core.c **** 
1478:inc/user_libs/usb_core.c **** /**
1479:inc/user_libs/usb_core.c **** * @brief  USB_OTG_EPActivate : Activates an EP
1480:inc/user_libs/usb_core.c **** * @param  pdev : Selected device
1481:inc/user_libs/usb_core.c **** * @retval USB_OTG_STS : status
1482:inc/user_libs/usb_core.c **** */
1483:inc/user_libs/usb_core.c **** USB_OTG_STS USB_OTG_EPActivate(USB_OTG_CORE_HANDLE *pdev , USB_OTG_EP *ep)
1484:inc/user_libs/usb_core.c **** {
 1601              		.loc 1 1484 0
 1602              		.cfi_startproc
 1603              		@ args = 0, pretend = 0, frame = 0
 1604              		@ frame_needed = 0, uses_anonymous_args = 0
 1605              	.LVL152:
ARM GAS  /tmp/ccQkqy1T.s 			page 57


 1606 043a 0B78     		ldrb	r3, [r1]	@ zero_extendqisi2	@ _48, ep_30(D)->num
 1607 043c 30B5     		push	{r4, r5, lr}	@
 1608              	.LCFI13:
 1609              		.cfi_def_cfa_offset 12
 1610              		.cfi_offset 4, -12
 1611              		.cfi_offset 5, -8
 1612              		.cfi_offset 14, -4
 1613 043e 0122     		movs	r2, #1	@ tmp138,
 1614              	@ inc/user_libs/usb_core.c:1494:   if (ep->is_in == 1)
1485:inc/user_libs/usb_core.c ****   USB_OTG_STS status = USB_OTG_OK;
1486:inc/user_libs/usb_core.c ****   USB_OTG_DEPCTL_TypeDef  depctl;
1487:inc/user_libs/usb_core.c ****   USB_OTG_DAINT_TypeDef  daintmsk;
1488:inc/user_libs/usb_core.c ****   __IO uint32_t *addr;
1489:inc/user_libs/usb_core.c ****   
1490:inc/user_libs/usb_core.c ****   
1491:inc/user_libs/usb_core.c ****   depctl.d32 = 0;
1492:inc/user_libs/usb_core.c ****   daintmsk.d32 = 0;
1493:inc/user_libs/usb_core.c ****   /* Read DEPCTLn register */
1494:inc/user_libs/usb_core.c ****   if (ep->is_in == 1)
 1615              		.loc 1 1494 0
 1616 0440 4D78     		ldrb	r5, [r1, #1]	@ zero_extendqisi2	@ ep_30(D)->is_in, ep_30(D)->is_in
 1617 0442 9A40     		lsls	r2, r2, r3	@ tmp137, tmp138, _48
 1618              	@ inc/user_libs/usb_core.c:1496:     addr = &pdev->regs.INEP_REGS[ep->num]->DIEPCTL;
1495:inc/user_libs/usb_core.c ****   {
1496:inc/user_libs/usb_core.c ****     addr = &pdev->regs.INEP_REGS[ep->num]->DIEPCTL;
 1619              		.loc 1 1496 0
 1620 0444 00EB8303 		add	r3, r0, r3, lsl #2	@ tmp141, pdev, _48,
 1621              	@ inc/user_libs/usb_core.c:1494:   if (ep->is_in == 1)
1494:inc/user_libs/usb_core.c ****   {
 1622              		.loc 1 1494 0
 1623 0448 012D     		cmp	r5, #1	@ ep_30(D)->is_in,
 1624              	@ inc/user_libs/usb_core.c:1496:     addr = &pdev->regs.INEP_REGS[ep->num]->DIEPCTL;
 1625              		.loc 1 1496 0
 1626 044a 0CBF     		ite	eq
 1627 044c 9D69     		ldreq	r5, [r3, #24]	@ addr, pdev_31(D)->regs.INEP_REGS
 1628              	.LVL153:
 1629              	@ inc/user_libs/usb_core.c:1501:     addr = &pdev->regs.OUTEP_REGS[ep->num]->DOEPCTL;
1497:inc/user_libs/usb_core.c ****     daintmsk.ep.in = 1 << ep->num;
1498:inc/user_libs/usb_core.c ****   }
1499:inc/user_libs/usb_core.c ****   else
1500:inc/user_libs/usb_core.c ****   {
1501:inc/user_libs/usb_core.c ****     addr = &pdev->regs.OUTEP_REGS[ep->num]->DOEPCTL;
 1630              		.loc 1 1501 0
 1631 044e 5D6D     		ldrne	r5, [r3, #84]	@ addr, pdev_31(D)->regs.OUTEP_REGS
 1632              	.LVL154:
 1633              	@ inc/user_libs/usb_core.c:1506:   depctl.d32 = USB_OTG_READ_REG32(addr);
1502:inc/user_libs/usb_core.c ****     daintmsk.ep.out = 1 << ep->num;
1503:inc/user_libs/usb_core.c ****   }
1504:inc/user_libs/usb_core.c ****   /* If the EP is already active don't change the EP Control
1505:inc/user_libs/usb_core.c ****   * register. */
1506:inc/user_libs/usb_core.c ****   depctl.d32 = USB_OTG_READ_REG32(addr);
 1634              		.loc 1 1506 0
 1635 0450 2B68     		ldr	r3, [r5]	@ depctl, *addr_24
 1636              	.LVL155:
 1637 0452 92B2     		uxth	r2, r2	@ _51, tmp137
 1638              	@ inc/user_libs/usb_core.c:1492:   daintmsk.d32 = 0;
1492:inc/user_libs/usb_core.c ****   /* Read DEPCTLn register */
ARM GAS  /tmp/ccQkqy1T.s 			page 58


 1639              		.loc 1 1492 0
 1640 0454 4FF00004 		mov	r4, #0	@ daintmsk,
 1641              	.LVL156:
 1642              	@ inc/user_libs/usb_core.c:1497:     daintmsk.ep.in = 1 << ep->num;
1497:inc/user_libs/usb_core.c ****     daintmsk.ep.in = 1 << ep->num;
 1643              		.loc 1 1497 0
 1644 0458 0CBF     		ite	eq
 1645 045a 62F30F04 		bfieq	r4, r2, #0, #16	@ daintmsk, _51,,
 1646              	.LVL157:
 1647              	@ inc/user_libs/usb_core.c:1502:     daintmsk.ep.out = 1 << ep->num;
1502:inc/user_libs/usb_core.c ****     daintmsk.ep.out = 1 << ep->num;
 1648              		.loc 1 1502 0
 1649 045e 62F31F44 		bfine	r4, r2, #16, #16	@ daintmsk, _51,,
 1650              	@ inc/user_libs/usb_core.c:1507:   if (!depctl.b.usbactep)
1507:inc/user_libs/usb_core.c ****   if (!depctl.b.usbactep)
 1651              		.loc 1 1507 0
 1652 0462 1A04     		lsls	r2, r3, #16	@, depctl,
 1653 0464 0DD4     		bmi	.L117	@,
 1654              	@ inc/user_libs/usb_core.c:1509:     depctl.b.mps    = ep->maxpacket;
1508:inc/user_libs/usb_core.c ****   {
1509:inc/user_libs/usb_core.c ****     depctl.b.mps    = ep->maxpacket;
 1655              		.loc 1 1509 0
 1656 0466 8A68     		ldr	r2, [r1, #8]	@ ep_30(D)->maxpacket, ep_30(D)->maxpacket
 1657 0468 62F30A03 		bfi	r3, r2, #0, #11	@ depctl, ep_30(D)->maxpacket,,
 1658              	@ inc/user_libs/usb_core.c:1510:     depctl.b.eptype = ep->type;
1510:inc/user_libs/usb_core.c ****     depctl.b.eptype = ep->type;
 1659              		.loc 1 1510 0
 1660 046c CA78     		ldrb	r2, [r1, #3]	@ zero_extendqisi2	@ ep_30(D)->type, ep_30(D)->type
 1661 046e 62F39343 		bfi	r3, r2, #18, #2	@ depctl, ep_30(D)->type,,
 1662              	@ inc/user_libs/usb_core.c:1511:     depctl.b.txfnum = ep->tx_fifo_num;
1511:inc/user_libs/usb_core.c ****     depctl.b.txfnum = ep->tx_fifo_num;
 1663              		.loc 1 1511 0
 1664 0472 CA88     		ldrh	r2, [r1, #6]	@ ep_30(D)->tx_fifo_num, ep_30(D)->tx_fifo_num
 1665 0474 62F39953 		bfi	r3, r2, #22, #4	@ depctl, ep_30(D)->tx_fifo_num,,
 1666              	@ inc/user_libs/usb_core.c:1513:     depctl.b.usbactep = 1;
1512:inc/user_libs/usb_core.c ****     depctl.b.setd0pid = 1;
1513:inc/user_libs/usb_core.c ****     depctl.b.usbactep = 1;
 1667              		.loc 1 1513 0
 1668 0478 43F08053 		orr	r3, r3, #268435456	@ depctl, depctl,
 1669              	.LVL158:
 1670 047c 43F40043 		orr	r3, r3, #32768	@ depctl, depctl,
 1671              	.LVL159:
 1672              	@ inc/user_libs/usb_core.c:1514:     USB_OTG_WRITE_REG32(addr, depctl.d32);
1514:inc/user_libs/usb_core.c ****     USB_OTG_WRITE_REG32(addr, depctl.d32);
 1673              		.loc 1 1514 0
 1674 0480 2B60     		str	r3, [r5]	@ depctl, *addr_24
 1675              	.L117:
 1676              	@ inc/user_libs/usb_core.c:1524:     USB_OTG_MODIFY_REG32(&pdev->regs.DREGS->DAINTMSK, 0, daintmsk.
1515:inc/user_libs/usb_core.c ****   }
1516:inc/user_libs/usb_core.c ****   /* Enable the Interrupt for this EP */
1517:inc/user_libs/usb_core.c **** #ifdef USB_OTG_HS_DEDICATED_EP1_ENABLED
1518:inc/user_libs/usb_core.c ****   if((ep->num == 1)&&(pdev->cfg.coreID == USB_OTG_HS_CORE_ID))
1519:inc/user_libs/usb_core.c ****   {
1520:inc/user_libs/usb_core.c ****     USB_OTG_MODIFY_REG32(&pdev->regs.DREGS->DEACHMSK, 0, daintmsk.d32);
1521:inc/user_libs/usb_core.c ****   }
1522:inc/user_libs/usb_core.c ****   else
1523:inc/user_libs/usb_core.c **** #endif   
ARM GAS  /tmp/ccQkqy1T.s 			page 59


1524:inc/user_libs/usb_core.c ****     USB_OTG_MODIFY_REG32(&pdev->regs.DREGS->DAINTMSK, 0, daintmsk.d32);
 1677              		.loc 1 1524 0
 1678 0482 0369     		ldr	r3, [r0, #16]	@ _20, pdev_31(D)->regs.DREGS
 1679              	.LVL160:
 1680 0484 DA69     		ldr	r2, [r3, #28]	@ _21, _20->DAINTMSK
 1681 0486 1443     		orrs	r4, r4, r2	@, _23, daintmsk, _21
 1682              	.LVL161:
 1683 0488 DC61     		str	r4, [r3, #28]	@ _23, _20->DAINTMSK
 1684              	@ inc/user_libs/usb_core.c:1526: }
1525:inc/user_libs/usb_core.c ****   return status;
1526:inc/user_libs/usb_core.c **** }
 1685              		.loc 1 1526 0
 1686 048a 0020     		movs	r0, #0	@,
 1687              	.LVL162:
 1688 048c 30BD     		pop	{r4, r5, pc}	@
 1689              		.cfi_endproc
 1690              	.LFE131:
 1691              		.size	USB_OTG_EPActivate, .-USB_OTG_EPActivate
 1692              		.align	1
 1693              		.global	USB_OTG_EPDeactivate
 1694              		.syntax unified
 1695              		.thumb
 1696              		.thumb_func
 1697              		.fpu softvfp
 1698              		.type	USB_OTG_EPDeactivate, %function
 1699              	USB_OTG_EPDeactivate:
 1700              	.LFB132:
1527:inc/user_libs/usb_core.c **** 
1528:inc/user_libs/usb_core.c **** 
1529:inc/user_libs/usb_core.c **** /**
1530:inc/user_libs/usb_core.c **** * @brief  USB_OTG_EPDeactivate : Deactivates an EP
1531:inc/user_libs/usb_core.c **** * @param  pdev : Selected device
1532:inc/user_libs/usb_core.c **** * @retval USB_OTG_STS : status
1533:inc/user_libs/usb_core.c **** */
1534:inc/user_libs/usb_core.c **** USB_OTG_STS USB_OTG_EPDeactivate(USB_OTG_CORE_HANDLE *pdev , USB_OTG_EP *ep)
1535:inc/user_libs/usb_core.c **** {
 1701              		.loc 1 1535 0
 1702              		.cfi_startproc
 1703              		@ args = 0, pretend = 0, frame = 0
 1704              		@ frame_needed = 0, uses_anonymous_args = 0
 1705              	.LVL163:
 1706 048e 30B5     		push	{r4, r5, lr}	@
 1707              	.LCFI14:
 1708              		.cfi_def_cfa_offset 12
 1709              		.cfi_offset 4, -12
 1710              		.cfi_offset 5, -8
 1711              		.cfi_offset 14, -4
 1712 0490 0B78     		ldrb	r3, [r1]	@ zero_extendqisi2	@ _35, ep_23(D)->num
 1713              	@ inc/user_libs/usb_core.c:1544:   if (ep->is_in == 1)
1536:inc/user_libs/usb_core.c ****   USB_OTG_STS status = USB_OTG_OK;
1537:inc/user_libs/usb_core.c ****   USB_OTG_DEPCTL_TypeDef  depctl;
1538:inc/user_libs/usb_core.c ****   USB_OTG_DAINT_TypeDef  daintmsk;
1539:inc/user_libs/usb_core.c ****   __IO uint32_t *addr;
1540:inc/user_libs/usb_core.c ****   
1541:inc/user_libs/usb_core.c ****   depctl.d32 = 0;
1542:inc/user_libs/usb_core.c ****   daintmsk.d32 = 0;  
1543:inc/user_libs/usb_core.c ****   /* Read DEPCTLn register */
ARM GAS  /tmp/ccQkqy1T.s 			page 60


1544:inc/user_libs/usb_core.c ****   if (ep->is_in == 1)
 1714              		.loc 1 1544 0
 1715 0492 4978     		ldrb	r1, [r1, #1]	@ zero_extendqisi2	@ ep_23(D)->is_in, ep_23(D)->is_in
 1716              	.LVL164:
 1717 0494 0122     		movs	r2, #1	@ tmp130,
 1718 0496 9A40     		lsls	r2, r2, r3	@ tmp129, tmp130, _35
 1719              	@ inc/user_libs/usb_core.c:1546:     addr = &pdev->regs.INEP_REGS[ep->num]->DIEPCTL;
1545:inc/user_libs/usb_core.c ****   {
1546:inc/user_libs/usb_core.c ****     addr = &pdev->regs.INEP_REGS[ep->num]->DIEPCTL;
 1720              		.loc 1 1546 0
 1721 0498 00EB8303 		add	r3, r0, r3, lsl #2	@ tmp133, pdev, _35,
 1722              	@ inc/user_libs/usb_core.c:1544:   if (ep->is_in == 1)
1544:inc/user_libs/usb_core.c ****   {
 1723              		.loc 1 1544 0
 1724 049c 0129     		cmp	r1, #1	@ ep_23(D)->is_in,
 1725              	@ inc/user_libs/usb_core.c:1541:   depctl.d32 = 0;
1541:inc/user_libs/usb_core.c ****   daintmsk.d32 = 0;  
 1726              		.loc 1 1541 0
 1727 049e 4FF00005 		mov	r5, #0	@ depctl,
 1728              	.LVL165:
 1729              	@ inc/user_libs/usb_core.c:1542:   daintmsk.d32 = 0;  
1542:inc/user_libs/usb_core.c ****   /* Read DEPCTLn register */
 1730              		.loc 1 1542 0
 1731 04a2 2C46     		mov	r4, r5	@ daintmsk, depctl
 1732              	.LVL166:
 1733              	@ inc/user_libs/usb_core.c:1546:     addr = &pdev->regs.INEP_REGS[ep->num]->DIEPCTL;
 1734              		.loc 1 1546 0
 1735 04a4 0CBF     		ite	eq
 1736 04a6 9B69     		ldreq	r3, [r3, #24]	@ addr, pdev_24(D)->regs.INEP_REGS
 1737              	.LVL167:
 1738              	@ inc/user_libs/usb_core.c:1551:     addr = &pdev->regs.OUTEP_REGS[ep->num]->DOEPCTL;
1547:inc/user_libs/usb_core.c ****     daintmsk.ep.in = 1 << ep->num;
1548:inc/user_libs/usb_core.c ****   }
1549:inc/user_libs/usb_core.c ****   else
1550:inc/user_libs/usb_core.c ****   {
1551:inc/user_libs/usb_core.c ****     addr = &pdev->regs.OUTEP_REGS[ep->num]->DOEPCTL;
 1739              		.loc 1 1551 0
 1740 04a8 5B6D     		ldrne	r3, [r3, #84]	@ addr, pdev_24(D)->regs.OUTEP_REGS
 1741              	.LVL168:
 1742 04aa 92B2     		uxth	r2, r2	@ _39, tmp129
 1743              	@ inc/user_libs/usb_core.c:1547:     daintmsk.ep.in = 1 << ep->num;
1547:inc/user_libs/usb_core.c ****     daintmsk.ep.in = 1 << ep->num;
 1744              		.loc 1 1547 0
 1745 04ac 0CBF     		ite	eq
 1746 04ae 62F30F04 		bfieq	r4, r2, #0, #16	@ daintmsk, _39,,
 1747              	.LVL169:
 1748              	@ inc/user_libs/usb_core.c:1552:     daintmsk.ep.out = 1 << ep->num;
1552:inc/user_libs/usb_core.c ****     daintmsk.ep.out = 1 << ep->num;
 1749              		.loc 1 1552 0
 1750 04b2 62F31F44 		bfine	r4, r2, #16, #16	@ daintmsk, _39,,
 1751              	@ inc/user_libs/usb_core.c:1554:   depctl.b.usbactep = 0;
1553:inc/user_libs/usb_core.c ****   }
1554:inc/user_libs/usb_core.c ****   depctl.b.usbactep = 0;
 1752              		.loc 1 1554 0
 1753 04b6 6FF3CF35 		bfc	r5, #15, #1	@ depctl,,
 1754              	@ inc/user_libs/usb_core.c:1565:     USB_OTG_MODIFY_REG32(&pdev->regs.DREGS->DAINTMSK, daintmsk.d32
1555:inc/user_libs/usb_core.c ****   USB_OTG_WRITE_REG32(addr, depctl.d32);
ARM GAS  /tmp/ccQkqy1T.s 			page 61


1556:inc/user_libs/usb_core.c ****   /* Disable the Interrupt for this EP */
1557:inc/user_libs/usb_core.c ****   
1558:inc/user_libs/usb_core.c **** #ifdef USB_OTG_HS_DEDICATED_EP1_ENABLED
1559:inc/user_libs/usb_core.c ****   if((ep->num == 1)&&(pdev->cfg.coreID == USB_OTG_HS_CORE_ID))
1560:inc/user_libs/usb_core.c ****   {
1561:inc/user_libs/usb_core.c ****     USB_OTG_MODIFY_REG32(&pdev->regs.DREGS->DEACHMSK, daintmsk.d32, 0);
1562:inc/user_libs/usb_core.c ****   }
1563:inc/user_libs/usb_core.c ****   else
1564:inc/user_libs/usb_core.c **** #endif    
1565:inc/user_libs/usb_core.c ****     USB_OTG_MODIFY_REG32(&pdev->regs.DREGS->DAINTMSK, daintmsk.d32, 0);
 1755              		.loc 1 1565 0
 1756 04ba 0269     		ldr	r2, [r0, #16]	@ _13, pdev_24(D)->regs.DREGS
 1757              	@ inc/user_libs/usb_core.c:1555:   USB_OTG_WRITE_REG32(addr, depctl.d32);
1555:inc/user_libs/usb_core.c ****   USB_OTG_WRITE_REG32(addr, depctl.d32);
 1758              		.loc 1 1555 0
 1759 04bc 1D60     		str	r5, [r3]	@ depctl, *addr_18
 1760              	@ inc/user_libs/usb_core.c:1565:     USB_OTG_MODIFY_REG32(&pdev->regs.DREGS->DAINTMSK, daintmsk.d32
 1761              		.loc 1 1565 0
 1762 04be D369     		ldr	r3, [r2, #28]	@ _14, _13->DAINTMSK
 1763              	.LVL170:
 1764 04c0 23EA0403 		bic	r3, r3, r4	@ _17, _14, daintmsk
 1765 04c4 D361     		str	r3, [r2, #28]	@ _17, _13->DAINTMSK
 1766              	@ inc/user_libs/usb_core.c:1567: }
1566:inc/user_libs/usb_core.c ****   return status;
1567:inc/user_libs/usb_core.c **** }
 1767              		.loc 1 1567 0
 1768 04c6 0020     		movs	r0, #0	@,
 1769              	.LVL171:
 1770 04c8 30BD     		pop	{r4, r5, pc}	@
 1771              		.cfi_endproc
 1772              	.LFE132:
 1773              		.size	USB_OTG_EPDeactivate, .-USB_OTG_EPDeactivate
 1774              		.align	1
 1775              		.global	USB_OTG_EPStartXfer
 1776              		.syntax unified
 1777              		.thumb
 1778              		.thumb_func
 1779              		.fpu softvfp
 1780              		.type	USB_OTG_EPStartXfer, %function
 1781              	USB_OTG_EPStartXfer:
 1782              	.LFB133:
1568:inc/user_libs/usb_core.c **** 
1569:inc/user_libs/usb_core.c **** 
1570:inc/user_libs/usb_core.c **** /**
1571:inc/user_libs/usb_core.c **** * @brief  USB_OTG_EPStartXfer : Handle the setup for data xfer for an EP and 
1572:inc/user_libs/usb_core.c **** *         starts the xfer
1573:inc/user_libs/usb_core.c **** * @param  pdev : Selected device
1574:inc/user_libs/usb_core.c **** * @retval USB_OTG_STS : status
1575:inc/user_libs/usb_core.c **** */
1576:inc/user_libs/usb_core.c **** USB_OTG_STS USB_OTG_EPStartXfer(USB_OTG_CORE_HANDLE *pdev , USB_OTG_EP *ep)
1577:inc/user_libs/usb_core.c **** {
 1783              		.loc 1 1577 0
 1784              		.cfi_startproc
 1785              		@ args = 0, pretend = 0, frame = 0
 1786              		@ frame_needed = 0, uses_anonymous_args = 0
 1787              	.LVL172:
 1788 04ca F8B5     		push	{r3, r4, r5, r6, r7, lr}	@
ARM GAS  /tmp/ccQkqy1T.s 			page 62


 1789              	.LCFI15:
 1790              		.cfi_def_cfa_offset 24
 1791              		.cfi_offset 3, -24
 1792              		.cfi_offset 4, -20
 1793              		.cfi_offset 5, -16
 1794              		.cfi_offset 6, -12
 1795              		.cfi_offset 7, -8
 1796              		.cfi_offset 14, -4
 1797              	@ inc/user_libs/usb_core.c:1587:   if (ep->is_in == 1)
1578:inc/user_libs/usb_core.c ****   USB_OTG_STS status = USB_OTG_OK;
1579:inc/user_libs/usb_core.c ****   USB_OTG_DEPCTL_TypeDef     depctl;
1580:inc/user_libs/usb_core.c ****   USB_OTG_DEPXFRSIZ_TypeDef  deptsiz;
1581:inc/user_libs/usb_core.c ****   USB_OTG_DSTS_TypeDef       dsts;    
1582:inc/user_libs/usb_core.c ****   uint32_t fifoemptymsk = 0;  
1583:inc/user_libs/usb_core.c ****   
1584:inc/user_libs/usb_core.c ****   depctl.d32 = 0;
1585:inc/user_libs/usb_core.c ****   deptsiz.d32 = 0;
1586:inc/user_libs/usb_core.c ****   /* IN endpoint */
1587:inc/user_libs/usb_core.c ****   if (ep->is_in == 1)
 1798              		.loc 1 1587 0
 1799 04cc 91F801C0 		ldrb	ip, [r1, #1]	@ zero_extendqisi2	@ ep_69(D)->is_in, ep_69(D)->is_in
 1800 04d0 0A78     		ldrb	r2, [r1]	@ zero_extendqisi2	@ pretmp_121, ep_69(D)->num
 1801 04d2 4B69     		ldr	r3, [r1, #20]	@ pretmp_120, ep_69(D)->xfer_len
 1802 04d4 CE78     		ldrb	r6, [r1, #3]	@ zero_extendqisi2	@ pretmp_116, ep_69(D)->type
 1803 04d6 BCF1010F 		cmp	ip, #1	@ ep_69(D)->is_in,
 1804 04da 41D1     		bne	.L122	@,
 1805              	@ inc/user_libs/usb_core.c:1589:     depctl.d32  = USB_OTG_READ_REG32(&(pdev->regs.INEP_REGS[ep->nu
1588:inc/user_libs/usb_core.c ****   {
1589:inc/user_libs/usb_core.c ****     depctl.d32  = USB_OTG_READ_REG32(&(pdev->regs.INEP_REGS[ep->num]->DIEPCTL));
 1806              		.loc 1 1589 0
 1807 04dc 00EB8204 		add	r4, r0, r2, lsl #2	@ tmp165, pdev, pretmp_121,
 1808 04e0 A769     		ldr	r7, [r4, #24]	@ _4, pdev_70(D)->regs.INEP_REGS
 1809 04e2 3C68     		ldr	r4, [r7]	@ depctl, _4->DIEPCTL
 1810              	.LVL173:
 1811              	@ inc/user_libs/usb_core.c:1590:     deptsiz.d32 = USB_OTG_READ_REG32(&(pdev->regs.INEP_REGS[ep->nu
1590:inc/user_libs/usb_core.c ****     deptsiz.d32 = USB_OTG_READ_REG32(&(pdev->regs.INEP_REGS[ep->num]->DIEPTSIZ));
 1812              		.loc 1 1590 0
 1813 04e4 3D69     		ldr	r5, [r7, #16]	@ deptsiz, _4->DIEPTSIZ
 1814              	.LVL174:
 1815              	@ inc/user_libs/usb_core.c:1594:       deptsiz.b.xfersize = 0;
1591:inc/user_libs/usb_core.c ****     /* Zero Length Packet? */
1592:inc/user_libs/usb_core.c ****     if (ep->xfer_len == 0)
1593:inc/user_libs/usb_core.c ****     {
1594:inc/user_libs/usb_core.c ****       deptsiz.b.xfersize = 0;
 1816              		.loc 1 1594 0
 1817 04e6 63F31205 		bfi	r5, r3, #0, #19	@ deptsiz, pretmp_120,,
 1818              	@ inc/user_libs/usb_core.c:1592:     if (ep->xfer_len == 0)
1592:inc/user_libs/usb_core.c ****     {
 1819              		.loc 1 1592 0
 1820 04ea 93B9     		cbnz	r3, .L123	@ pretmp_120,
 1821              	@ inc/user_libs/usb_core.c:1595:       deptsiz.b.pktcnt = 1;
1595:inc/user_libs/usb_core.c ****       deptsiz.b.pktcnt = 1;
 1822              		.loc 1 1595 0
 1823 04ec 6CF3DC45 		bfi	r5, ip, #19, #10	@ deptsiz, ep_69(D)->is_in,,
 1824              	.L124:
 1825              	@ inc/user_libs/usb_core.c:1612:     USB_OTG_WRITE_REG32(&pdev->regs.INEP_REGS[ep->num]->DIEPTSIZ, 
1596:inc/user_libs/usb_core.c ****     }
ARM GAS  /tmp/ccQkqy1T.s 			page 63


1597:inc/user_libs/usb_core.c ****     else
1598:inc/user_libs/usb_core.c ****     {
1599:inc/user_libs/usb_core.c ****       /* Program the transfer size and packet count
1600:inc/user_libs/usb_core.c ****       * as follows: xfersize = N * maxpacket +
1601:inc/user_libs/usb_core.c ****       * short_packet pktcnt = N + (short_packet
1602:inc/user_libs/usb_core.c ****       * exist ? 1 : 0)
1603:inc/user_libs/usb_core.c ****       */
1604:inc/user_libs/usb_core.c ****       deptsiz.b.xfersize = ep->xfer_len;
1605:inc/user_libs/usb_core.c ****       deptsiz.b.pktcnt = (ep->xfer_len - 1 + ep->maxpacket) / ep->maxpacket;
1606:inc/user_libs/usb_core.c ****       
1607:inc/user_libs/usb_core.c ****       if (ep->type == EP_TYPE_ISOC)
1608:inc/user_libs/usb_core.c ****       {
1609:inc/user_libs/usb_core.c ****         deptsiz.b.mc = 1;
1610:inc/user_libs/usb_core.c ****       }       
1611:inc/user_libs/usb_core.c ****     }
1612:inc/user_libs/usb_core.c ****     USB_OTG_WRITE_REG32(&pdev->regs.INEP_REGS[ep->num]->DIEPTSIZ, deptsiz.d32);
 1826              		.loc 1 1612 0
 1827 04f0 3D61     		str	r5, [r7, #16]	@ deptsiz, _4->DIEPTSIZ
 1828              	@ inc/user_libs/usb_core.c:1614:     if (pdev->cfg.dma_enable == 1)
1613:inc/user_libs/usb_core.c ****     
1614:inc/user_libs/usb_core.c ****     if (pdev->cfg.dma_enable == 1)
 1829              		.loc 1 1614 0
 1830 04f2 C578     		ldrb	r5, [r0, #3]	@ zero_extendqisi2	@ pdev_70(D)->cfg.dma_enable, pdev_70(D)->cfg.dma_enable
 1831              	.LVL175:
 1832 04f4 012D     		cmp	r5, #1	@ pdev_70(D)->cfg.dma_enable,
 1833 04f6 1BD1     		bne	.L125	@,
 1834              	@ inc/user_libs/usb_core.c:1616:       USB_OTG_WRITE_REG32(&pdev->regs.INEP_REGS[ep->num]->DIEPDMA,
1615:inc/user_libs/usb_core.c ****     {
1616:inc/user_libs/usb_core.c ****       USB_OTG_WRITE_REG32(&pdev->regs.INEP_REGS[ep->num]->DIEPDMA, ep->dma_addr);
 1835              		.loc 1 1616 0
 1836 04f8 0D69     		ldr	r5, [r1, #16]	@ _20, ep_69(D)->dma_addr
 1837 04fa 7D61     		str	r5, [r7, #20]	@ _20, _4->DIEPDMA
 1838              	@ inc/user_libs/usb_core.c:1632:     if (ep->type == EP_TYPE_ISOC)
1617:inc/user_libs/usb_core.c ****     }
1618:inc/user_libs/usb_core.c ****     else
1619:inc/user_libs/usb_core.c ****     {
1620:inc/user_libs/usb_core.c ****       if (ep->type != EP_TYPE_ISOC)
1621:inc/user_libs/usb_core.c ****       {
1622:inc/user_libs/usb_core.c ****         /* Enable the Tx FIFO Empty Interrupt for this EP */
1623:inc/user_libs/usb_core.c ****         if (ep->xfer_len > 0)
1624:inc/user_libs/usb_core.c ****         {
1625:inc/user_libs/usb_core.c ****           fifoemptymsk = 1 << ep->num;
1626:inc/user_libs/usb_core.c ****           USB_OTG_MODIFY_REG32(&pdev->regs.DREGS->DIEPEMPMSK, 0, fifoemptymsk);
1627:inc/user_libs/usb_core.c ****         }
1628:inc/user_libs/usb_core.c ****       }
1629:inc/user_libs/usb_core.c ****     }
1630:inc/user_libs/usb_core.c ****     
1631:inc/user_libs/usb_core.c ****     
1632:inc/user_libs/usb_core.c ****     if (ep->type == EP_TYPE_ISOC)
 1839              		.loc 1 1632 0
 1840 04fc 012E     		cmp	r6, #1	@ pretmp_116,
 1841 04fe 24D1     		bne	.L127	@,
 1842              	.L126:
 1843              	@ inc/user_libs/usb_core.c:1634:       dsts.d32 = USB_OTG_READ_REG32(&pdev->regs.DREGS->DSTS);
1633:inc/user_libs/usb_core.c ****     {
1634:inc/user_libs/usb_core.c ****       dsts.d32 = USB_OTG_READ_REG32(&pdev->regs.DREGS->DSTS);
 1844              		.loc 1 1634 0
ARM GAS  /tmp/ccQkqy1T.s 			page 64


 1845 0500 0569     		ldr	r5, [r0, #16]	@ _28, pdev_70(D)->regs.DREGS
 1846 0502 AD68     		ldr	r5, [r5, #8]	@ _29, _28->DSTS
 1847              	@ inc/user_libs/usb_core.c:1636:       if (((dsts.b.soffn)&0x1) == 0)
1635:inc/user_libs/usb_core.c ****       
1636:inc/user_libs/usb_core.c ****       if (((dsts.b.soffn)&0x1) == 0)
 1848              		.loc 1 1636 0
 1849 0504 ED05     		lsls	r5, r5, #23	@, _29,
 1850              	@ inc/user_libs/usb_core.c:1638:         depctl.b.setd1pid = 1;
1637:inc/user_libs/usb_core.c ****       {
1638:inc/user_libs/usb_core.c ****         depctl.b.setd1pid = 1;
 1851              		.loc 1 1638 0
 1852 0506 54BF     		ite	pl
 1853 0508 44F00054 		orrpl	r4, r4, #536870912	@ depctl, depctl,
 1854              	.LVL176:
 1855              	@ inc/user_libs/usb_core.c:1642:         depctl.b.setd0pid = 1;
1639:inc/user_libs/usb_core.c ****       }
1640:inc/user_libs/usb_core.c ****       else
1641:inc/user_libs/usb_core.c ****       {
1642:inc/user_libs/usb_core.c ****         depctl.b.setd0pid = 1;
 1856              		.loc 1 1642 0
 1857 050c 44F08054 		orrmi	r4, r4, #268435456	@ depctl, depctl,
 1858              	.LVL177:
 1859 0510 1BE0     		b	.L127	@
 1860              	.LVL178:
 1861              	.L123:
 1862              	@ inc/user_libs/usb_core.c:1605:       deptsiz.b.pktcnt = (ep->xfer_len - 1 + ep->maxpacket) / ep->
1605:inc/user_libs/usb_core.c ****       
 1863              		.loc 1 1605 0
 1864 0512 D1F808E0 		ldr	lr, [r1, #8]	@ _9, ep_69(D)->maxpacket
 1865 0516 0EEB030C 		add	ip, lr, r3	@ tmp168, _9, pretmp_120
 1866 051a 0CF1FF3C 		add	ip, ip, #-1	@ tmp169, tmp168,
 1867              	@ inc/user_libs/usb_core.c:1607:       if (ep->type == EP_TYPE_ISOC)
1607:inc/user_libs/usb_core.c ****       {
 1868              		.loc 1 1607 0
 1869 051e 012E     		cmp	r6, #1	@ pretmp_116,
 1870              	@ inc/user_libs/usb_core.c:1605:       deptsiz.b.pktcnt = (ep->xfer_len - 1 + ep->maxpacket) / ep->
1605:inc/user_libs/usb_core.c ****       
 1871              		.loc 1 1605 0
 1872 0520 BCFBFEFC 		udiv	ip, ip, lr	@ tmp171, tmp169, _9
 1873 0524 6CF3DC45 		bfi	r5, ip, #19, #10	@ deptsiz, tmp171,,
 1874              	@ inc/user_libs/usb_core.c:1609:         deptsiz.b.mc = 1;
1609:inc/user_libs/usb_core.c ****       }       
 1875              		.loc 1 1609 0
 1876 0528 08BF     		it	eq
 1877 052a 66F35E75 		bfieq	r5, r6, #29, #2	@ deptsiz, pretmp_116,,
 1878 052e DFE7     		b	.L124	@
 1879              	.LVL179:
 1880              	.L125:
 1881              	@ inc/user_libs/usb_core.c:1620:       if (ep->type != EP_TYPE_ISOC)
1620:inc/user_libs/usb_core.c ****       {
 1882              		.loc 1 1620 0
 1883 0530 012E     		cmp	r6, #1	@ pretmp_116,
 1884 0532 E5D0     		beq	.L126	@,
 1885              	@ inc/user_libs/usb_core.c:1623:         if (ep->xfer_len > 0)
1623:inc/user_libs/usb_core.c ****         {
 1886              		.loc 1 1623 0
 1887 0534 4BB1     		cbz	r3, .L127	@ pretmp_120,
ARM GAS  /tmp/ccQkqy1T.s 			page 65


 1888              	.LVL180:
 1889              	@ inc/user_libs/usb_core.c:1626:           USB_OTG_MODIFY_REG32(&pdev->regs.DREGS->DIEPEMPMSK, 0, f
1626:inc/user_libs/usb_core.c ****         }
 1890              		.loc 1 1626 0
 1891 0536 D0F810C0 		ldr	ip, [r0, #16]	@ _24, pdev_70(D)->regs.DREGS
 1892              	@ inc/user_libs/usb_core.c:1625:           fifoemptymsk = 1 << ep->num;
1625:inc/user_libs/usb_core.c ****           USB_OTG_MODIFY_REG32(&pdev->regs.DREGS->DIEPEMPMSK, 0, fifoemptymsk);
 1893              		.loc 1 1625 0
 1894 053a 0125     		movs	r5, #1	@ tmp176,
 1895              	@ inc/user_libs/usb_core.c:1626:           USB_OTG_MODIFY_REG32(&pdev->regs.DREGS->DIEPEMPMSK, 0, f
1626:inc/user_libs/usb_core.c ****         }
 1896              		.loc 1 1626 0
 1897 053c DCF834E0 		ldr	lr, [ip, #52]	@ _25, _24->DIEPEMPMSK
 1898              	@ inc/user_libs/usb_core.c:1625:           fifoemptymsk = 1 << ep->num;
1625:inc/user_libs/usb_core.c ****           USB_OTG_MODIFY_REG32(&pdev->regs.DREGS->DIEPEMPMSK, 0, fifoemptymsk);
 1899              		.loc 1 1625 0
 1900 0540 9540     		lsls	r5, r5, r2	@ fifoemptymsk, tmp176, pretmp_121
 1901              	.LVL181:
 1902              	@ inc/user_libs/usb_core.c:1626:           USB_OTG_MODIFY_REG32(&pdev->regs.DREGS->DIEPEMPMSK, 0, f
1626:inc/user_libs/usb_core.c ****         }
 1903              		.loc 1 1626 0
 1904 0542 45EA0E05 		orr	r5, r5, lr	@ _26, fifoemptymsk, _25
 1905              	.LVL182:
 1906 0546 CCF83450 		str	r5, [ip, #52]	@ _26, _24->DIEPEMPMSK
 1907              	.LVL183:
 1908              	.L127:
 1909              	@ inc/user_libs/usb_core.c:1648:     depctl.b.epena = 1;
1643:inc/user_libs/usb_core.c ****       }
1644:inc/user_libs/usb_core.c ****     } 
1645:inc/user_libs/usb_core.c ****     
1646:inc/user_libs/usb_core.c ****     /* EP enable, IN data in FIFO */
1647:inc/user_libs/usb_core.c ****     depctl.b.cnak = 1;
1648:inc/user_libs/usb_core.c ****     depctl.b.epena = 1;
 1910              		.loc 1 1648 0
 1911 054a 44F00444 		orr	r4, r4, #-2080374784	@ depctl, depctl,
 1912              	.LVL184:
 1913              	@ inc/user_libs/usb_core.c:1651:     if (ep->type == EP_TYPE_ISOC)
1649:inc/user_libs/usb_core.c ****     USB_OTG_WRITE_REG32(&pdev->regs.INEP_REGS[ep->num]->DIEPCTL, depctl.d32);
1650:inc/user_libs/usb_core.c ****     
1651:inc/user_libs/usb_core.c ****     if (ep->type == EP_TYPE_ISOC)
 1914              		.loc 1 1651 0
 1915 054e 012E     		cmp	r6, #1	@ pretmp_116,
 1916              	.LVL185:
 1917              	@ inc/user_libs/usb_core.c:1649:     USB_OTG_WRITE_REG32(&pdev->regs.INEP_REGS[ep->num]->DIEPCTL, d
1649:inc/user_libs/usb_core.c ****     USB_OTG_WRITE_REG32(&pdev->regs.INEP_REGS[ep->num]->DIEPCTL, depctl.d32);
 1918              		.loc 1 1649 0
 1919 0550 3C60     		str	r4, [r7]	@ depctl, _4->DIEPCTL
 1920              	@ inc/user_libs/usb_core.c:1651:     if (ep->type == EP_TYPE_ISOC)
 1921              		.loc 1 1651 0
 1922 0552 03D1     		bne	.L130	@,
 1923              	@ inc/user_libs/usb_core.c:1653:       USB_OTG_WritePacket(pdev, ep->xfer_buff, ep->num, ep->xfer_l
1652:inc/user_libs/usb_core.c ****     {
1653:inc/user_libs/usb_core.c ****       USB_OTG_WritePacket(pdev, ep->xfer_buff, ep->num, ep->xfer_len);   
 1924              		.loc 1 1653 0
 1925 0554 9BB2     		uxth	r3, r3	@, pretmp_120
 1926 0556 C968     		ldr	r1, [r1, #12]	@, ep_69(D)->xfer_buff
 1927              	.LVL186:
ARM GAS  /tmp/ccQkqy1T.s 			page 66


 1928 0558 FFF7FEFF 		bl	USB_OTG_WritePacket	@
 1929              	.LVL187:
 1930              	.L130:
 1931              	@ inc/user_libs/usb_core.c:1699: }
1654:inc/user_libs/usb_core.c ****     }    
1655:inc/user_libs/usb_core.c ****   }
1656:inc/user_libs/usb_core.c ****   else
1657:inc/user_libs/usb_core.c ****   {
1658:inc/user_libs/usb_core.c ****     /* OUT endpoint */
1659:inc/user_libs/usb_core.c ****     depctl.d32  = USB_OTG_READ_REG32(&(pdev->regs.OUTEP_REGS[ep->num]->DOEPCTL));
1660:inc/user_libs/usb_core.c ****     deptsiz.d32 = USB_OTG_READ_REG32(&(pdev->regs.OUTEP_REGS[ep->num]->DOEPTSIZ));
1661:inc/user_libs/usb_core.c ****     /* Program the transfer size and packet count as follows:
1662:inc/user_libs/usb_core.c ****     * pktcnt = N
1663:inc/user_libs/usb_core.c ****     * xfersize = N * maxpacket
1664:inc/user_libs/usb_core.c ****     */
1665:inc/user_libs/usb_core.c ****     if (ep->xfer_len == 0)
1666:inc/user_libs/usb_core.c ****     {
1667:inc/user_libs/usb_core.c ****       deptsiz.b.xfersize = ep->maxpacket;
1668:inc/user_libs/usb_core.c ****       deptsiz.b.pktcnt = 1;
1669:inc/user_libs/usb_core.c ****     }
1670:inc/user_libs/usb_core.c ****     else
1671:inc/user_libs/usb_core.c ****     {
1672:inc/user_libs/usb_core.c ****       deptsiz.b.pktcnt = (ep->xfer_len + (ep->maxpacket - 1)) / ep->maxpacket;
1673:inc/user_libs/usb_core.c ****       deptsiz.b.xfersize = deptsiz.b.pktcnt * ep->maxpacket;
1674:inc/user_libs/usb_core.c ****     }
1675:inc/user_libs/usb_core.c ****     USB_OTG_WRITE_REG32(&pdev->regs.OUTEP_REGS[ep->num]->DOEPTSIZ, deptsiz.d32);
1676:inc/user_libs/usb_core.c ****     
1677:inc/user_libs/usb_core.c ****     if (pdev->cfg.dma_enable == 1)
1678:inc/user_libs/usb_core.c ****     {
1679:inc/user_libs/usb_core.c ****       USB_OTG_WRITE_REG32(&pdev->regs.OUTEP_REGS[ep->num]->DOEPDMA, ep->dma_addr);
1680:inc/user_libs/usb_core.c ****     }
1681:inc/user_libs/usb_core.c ****     
1682:inc/user_libs/usb_core.c ****     if (ep->type == EP_TYPE_ISOC)
1683:inc/user_libs/usb_core.c ****     {
1684:inc/user_libs/usb_core.c ****       if (ep->even_odd_frame)
1685:inc/user_libs/usb_core.c ****       {
1686:inc/user_libs/usb_core.c ****         depctl.b.setd1pid = 1;
1687:inc/user_libs/usb_core.c ****       }
1688:inc/user_libs/usb_core.c ****       else
1689:inc/user_libs/usb_core.c ****       {
1690:inc/user_libs/usb_core.c ****         depctl.b.setd0pid = 1;
1691:inc/user_libs/usb_core.c ****       }
1692:inc/user_libs/usb_core.c ****     }
1693:inc/user_libs/usb_core.c ****     /* EP enable */
1694:inc/user_libs/usb_core.c ****     depctl.b.cnak = 1;
1695:inc/user_libs/usb_core.c ****     depctl.b.epena = 1;
1696:inc/user_libs/usb_core.c ****     USB_OTG_WRITE_REG32(&pdev->regs.OUTEP_REGS[ep->num]->DOEPCTL, depctl.d32);
1697:inc/user_libs/usb_core.c ****   }
1698:inc/user_libs/usb_core.c ****   return status;
1699:inc/user_libs/usb_core.c **** }
 1932              		.loc 1 1699 0
 1933 055c 0020     		movs	r0, #0	@,
 1934 055e F8BD     		pop	{r3, r4, r5, r6, r7, pc}	@
 1935              	.LVL188:
 1936              	.L122:
 1937              	@ inc/user_libs/usb_core.c:1659:     depctl.d32  = USB_OTG_READ_REG32(&(pdev->regs.OUTEP_REGS[ep->n
1659:inc/user_libs/usb_core.c ****     deptsiz.d32 = USB_OTG_READ_REG32(&(pdev->regs.OUTEP_REGS[ep->num]->DOEPTSIZ));
ARM GAS  /tmp/ccQkqy1T.s 			page 67


 1938              		.loc 1 1659 0
 1939 0560 00EB8202 		add	r2, r0, r2, lsl #2	@ tmp188, pdev, pretmp_121,
 1940 0564 D1F808C0 		ldr	ip, [r1, #8]	@ pretmp_112, ep_69(D)->maxpacket
 1941 0568 526D     		ldr	r2, [r2, #84]	@ _37, pdev_70(D)->regs.OUTEP_REGS
 1942 056a CCF31207 		ubfx	r7, ip, #0, #19	@ _119, pretmp_112,,
 1943 056e 1468     		ldr	r4, [r2]	@ depctl, _37->DOEPCTL
 1944              	.LVL189:
 1945              	@ inc/user_libs/usb_core.c:1660:     deptsiz.d32 = USB_OTG_READ_REG32(&(pdev->regs.OUTEP_REGS[ep->n
1660:inc/user_libs/usb_core.c ****     /* Program the transfer size and packet count as follows:
 1946              		.loc 1 1660 0
 1947 0570 1569     		ldr	r5, [r2, #16]	@ deptsiz, _37->DOEPTSIZ
 1948              	.LVL190:
 1949              	@ inc/user_libs/usb_core.c:1665:     if (ep->xfer_len == 0)
1665:inc/user_libs/usb_core.c ****     {
 1950              		.loc 1 1665 0
 1951 0572 A3B9     		cbnz	r3, .L131	@ pretmp_120,
 1952              	@ inc/user_libs/usb_core.c:1667:       deptsiz.b.xfersize = ep->maxpacket;
1667:inc/user_libs/usb_core.c ****       deptsiz.b.pktcnt = 1;
 1953              		.loc 1 1667 0
 1954 0574 67F31205 		bfi	r5, r7, #0, #19	@ deptsiz, _119,,
 1955              	@ inc/user_libs/usb_core.c:1668:       deptsiz.b.pktcnt = 1;
1668:inc/user_libs/usb_core.c ****     }
 1956              		.loc 1 1668 0
 1957 0578 0123     		movs	r3, #1	@ tmp191,
 1958 057a 63F3DC45 		bfi	r5, r3, #19, #10	@ deptsiz, tmp191,,
 1959              	.L132:
 1960              	@ inc/user_libs/usb_core.c:1675:     USB_OTG_WRITE_REG32(&pdev->regs.OUTEP_REGS[ep->num]->DOEPTSIZ,
1675:inc/user_libs/usb_core.c ****     
 1961              		.loc 1 1675 0
 1962 057e 1561     		str	r5, [r2, #16]	@ deptsiz, _37->DOEPTSIZ
 1963              	@ inc/user_libs/usb_core.c:1677:     if (pdev->cfg.dma_enable == 1)
1677:inc/user_libs/usb_core.c ****     {
 1964              		.loc 1 1677 0
 1965 0580 C378     		ldrb	r3, [r0, #3]	@ zero_extendqisi2	@ pdev_70(D)->cfg.dma_enable, pdev_70(D)->cfg.dma_enable
 1966 0582 012B     		cmp	r3, #1	@ pdev_70(D)->cfg.dma_enable,
 1967              	@ inc/user_libs/usb_core.c:1679:       USB_OTG_WRITE_REG32(&pdev->regs.OUTEP_REGS[ep->num]->DOEPDMA
1679:inc/user_libs/usb_core.c ****     }
 1968              		.loc 1 1679 0
 1969 0584 04BF     		itt	eq
 1970 0586 0B69     		ldreq	r3, [r1, #16]	@ _56, ep_69(D)->dma_addr
 1971 0588 5361     		streq	r3, [r2, #20]	@ _56, _37->DOEPDMA
 1972              	@ inc/user_libs/usb_core.c:1682:     if (ep->type == EP_TYPE_ISOC)
1682:inc/user_libs/usb_core.c ****     {
 1973              		.loc 1 1682 0
 1974 058a 012E     		cmp	r6, #1	@ pretmp_116,
 1975 058c 03D1     		bne	.L134	@,
 1976              	@ inc/user_libs/usb_core.c:1684:       if (ep->even_odd_frame)
1684:inc/user_libs/usb_core.c ****       {
 1977              		.loc 1 1684 0
 1978 058e 4B79     		ldrb	r3, [r1, #5]	@ zero_extendqisi2	@ ep_69(D)->even_odd_frame, ep_69(D)->even_odd_frame
 1979 0590 8BB1     		cbz	r3, .L135	@ ep_69(D)->even_odd_frame,
 1980              	@ inc/user_libs/usb_core.c:1686:         depctl.b.setd1pid = 1;
1686:inc/user_libs/usb_core.c ****       }
 1981              		.loc 1 1686 0
 1982 0592 44F00054 		orr	r4, r4, #536870912	@ depctl, depctl,
 1983              	.LVL191:
 1984              	.L134:
ARM GAS  /tmp/ccQkqy1T.s 			page 68


 1985              	@ inc/user_libs/usb_core.c:1695:     depctl.b.epena = 1;
1695:inc/user_libs/usb_core.c ****     USB_OTG_WRITE_REG32(&pdev->regs.OUTEP_REGS[ep->num]->DOEPCTL, depctl.d32);
 1986              		.loc 1 1695 0
 1987 0596 44F00444 		orr	r4, r4, #-2080374784	@ depctl, depctl,
 1988              	.LVL192:
 1989              	@ inc/user_libs/usb_core.c:1696:     USB_OTG_WRITE_REG32(&pdev->regs.OUTEP_REGS[ep->num]->DOEPCTL, 
1696:inc/user_libs/usb_core.c ****   }
 1990              		.loc 1 1696 0
 1991 059a 1460     		str	r4, [r2]	@ depctl, _37->DOEPCTL
 1992 059c DEE7     		b	.L130	@
 1993              	.L131:
 1994              	@ inc/user_libs/usb_core.c:1672:       deptsiz.b.pktcnt = (ep->xfer_len + (ep->maxpacket - 1)) / ep
1672:inc/user_libs/usb_core.c ****       deptsiz.b.xfersize = deptsiz.b.pktcnt * ep->maxpacket;
 1995              		.loc 1 1672 0
 1996 059e 6344     		add	r3, r3, ip	@ tmp192, pretmp_112
 1997 05a0 013B     		subs	r3, r3, #1	@ tmp193, tmp192,
 1998 05a2 B3FBFCF3 		udiv	r3, r3, ip	@ tmp195, tmp193, pretmp_112
 1999 05a6 C3F30903 		ubfx	r3, r3, #0, #10	@ _47, tmp195,,
 2000 05aa 63F3DC45 		bfi	r5, r3, #19, #10	@ deptsiz, _47,,
 2001              	@ inc/user_libs/usb_core.c:1673:       deptsiz.b.xfersize = deptsiz.b.pktcnt * ep->maxpacket;
1673:inc/user_libs/usb_core.c ****     }
 2002              		.loc 1 1673 0
 2003 05ae 7B43     		muls	r3, r7, r3	@ tmp201, _119
 2004 05b0 63F31205 		bfi	r5, r3, #0, #19	@ deptsiz, tmp201,,
 2005 05b4 E3E7     		b	.L132	@
 2006              	.L135:
 2007              	@ inc/user_libs/usb_core.c:1690:         depctl.b.setd0pid = 1;
1690:inc/user_libs/usb_core.c ****       }
 2008              		.loc 1 1690 0
 2009 05b6 44F08054 		orr	r4, r4, #268435456	@ depctl, depctl,
 2010              	.LVL193:
 2011 05ba ECE7     		b	.L134	@
 2012              		.cfi_endproc
 2013              	.LFE133:
 2014              		.size	USB_OTG_EPStartXfer, .-USB_OTG_EPStartXfer
 2015              		.align	1
 2016              		.global	USB_OTG_EP0StartXfer
 2017              		.syntax unified
 2018              		.thumb
 2019              		.thumb_func
 2020              		.fpu softvfp
 2021              		.type	USB_OTG_EP0StartXfer, %function
 2022              	USB_OTG_EP0StartXfer:
 2023              	.LFB134:
1700:inc/user_libs/usb_core.c **** 
1701:inc/user_libs/usb_core.c **** 
1702:inc/user_libs/usb_core.c **** /**
1703:inc/user_libs/usb_core.c **** * @brief  USB_OTG_EP0StartXfer : Handle the setup for a data xfer for EP0 and 
1704:inc/user_libs/usb_core.c **** *         starts the xfer
1705:inc/user_libs/usb_core.c **** * @param  pdev : Selected device
1706:inc/user_libs/usb_core.c **** * @retval USB_OTG_STS : status
1707:inc/user_libs/usb_core.c **** */
1708:inc/user_libs/usb_core.c **** USB_OTG_STS USB_OTG_EP0StartXfer(USB_OTG_CORE_HANDLE *pdev , USB_OTG_EP *ep)
1709:inc/user_libs/usb_core.c **** {
 2024              		.loc 1 1709 0
 2025              		.cfi_startproc
 2026              		@ args = 0, pretend = 0, frame = 8
ARM GAS  /tmp/ccQkqy1T.s 			page 69


 2027              		@ frame_needed = 0, uses_anonymous_args = 0
 2028              	.LVL194:
 2029 05bc F7B5     		push	{r0, r1, r2, r4, r5, r6, r7, lr}	@
 2030              	.LCFI16:
 2031              		.cfi_def_cfa_offset 32
 2032              		.cfi_offset 4, -20
 2033              		.cfi_offset 5, -16
 2034              		.cfi_offset 6, -12
 2035              		.cfi_offset 7, -8
 2036              		.cfi_offset 14, -4
 2037              	@ inc/user_libs/usb_core.c:1719:   if (ep->is_in == 1)
1710:inc/user_libs/usb_core.c ****   USB_OTG_STS                 status = USB_OTG_OK;
1711:inc/user_libs/usb_core.c ****   USB_OTG_DEPCTL_TypeDef      depctl;
1712:inc/user_libs/usb_core.c ****   USB_OTG_DEP0XFRSIZ_TypeDef  deptsiz;
1713:inc/user_libs/usb_core.c ****   USB_OTG_INEPREGS          *in_regs;
1714:inc/user_libs/usb_core.c ****   uint32_t fifoemptymsk = 0;
1715:inc/user_libs/usb_core.c ****   
1716:inc/user_libs/usb_core.c ****   depctl.d32   = 0;
1717:inc/user_libs/usb_core.c ****   deptsiz.d32  = 0;
1718:inc/user_libs/usb_core.c ****   /* IN endpoint */
1719:inc/user_libs/usb_core.c ****   if (ep->is_in == 1)
 2038              		.loc 1 1719 0
 2039 05be 4F78     		ldrb	r7, [r1, #1]	@ zero_extendqisi2	@ ep_47(D)->is_in, ep_47(D)->is_in
 2040 05c0 4E69     		ldr	r6, [r1, #20]	@ pretmp_85, ep_47(D)->xfer_len
 2041 05c2 012F     		cmp	r7, #1	@ ep_47(D)->is_in,
 2042 05c4 3AD1     		bne	.L146	@,
 2043              	@ inc/user_libs/usb_core.c:1721:     in_regs = pdev->regs.INEP_REGS[0];
1720:inc/user_libs/usb_core.c ****   {
1721:inc/user_libs/usb_core.c ****     in_regs = pdev->regs.INEP_REGS[0];
 2044              		.loc 1 1721 0
 2045 05c6 8569     		ldr	r5, [r0, #24]	@ in_regs, pdev_48(D)->regs.INEP_REGS
 2046              	.LVL195:
 2047              	@ inc/user_libs/usb_core.c:1722:     depctl.d32  = USB_OTG_READ_REG32(&in_regs->DIEPCTL);
1722:inc/user_libs/usb_core.c ****     depctl.d32  = USB_OTG_READ_REG32(&in_regs->DIEPCTL);
 2048              		.loc 1 1722 0
 2049 05c8 2C68     		ldr	r4, [r5]	@ depctl, in_regs_61->DIEPCTL
 2050              	.LVL196:
 2051              	@ inc/user_libs/usb_core.c:1723:     deptsiz.d32 = USB_OTG_READ_REG32(&in_regs->DIEPTSIZ);
1723:inc/user_libs/usb_core.c ****     deptsiz.d32 = USB_OTG_READ_REG32(&in_regs->DIEPTSIZ);
 2052              		.loc 1 1723 0
 2053 05ca 2B69     		ldr	r3, [r5, #16]	@ _3, in_regs_61->DIEPTSIZ
 2054 05cc 0093     		str	r3, [sp]	@ _3, deptsiz.d32
 2055 05ce DAB2     		uxtb	r2, r3	@ deptsiz.b.xfersize, _3
 2056 05d0 C3F30743 		ubfx	r3, r3, #16, #8	@ deptsiz.b.pktcnt, _3,,
 2057              	@ inc/user_libs/usb_core.c:1725:     if (ep->xfer_len == 0)
1724:inc/user_libs/usb_core.c ****     /* Zero Length Packet? */
1725:inc/user_libs/usb_core.c ****     if (ep->xfer_len == 0)
 2058              		.loc 1 1725 0
 2059 05d4 16BB     		cbnz	r6, .L147	@ pretmp_85,
 2060              	@ inc/user_libs/usb_core.c:1727:       deptsiz.b.xfersize = 0;
1726:inc/user_libs/usb_core.c ****     {
1727:inc/user_libs/usb_core.c ****       deptsiz.b.xfersize = 0;
 2061              		.loc 1 1727 0
 2062 05d6 66F30602 		bfi	r2, r6, #0, #7	@ deptsiz.b.xfersize, pretmp_85,,
 2063 05da 8DF80020 		strb	r2, [sp]	@ deptsiz.b.xfersize, deptsiz.b.xfersize
 2064              	@ inc/user_libs/usb_core.c:1728:       deptsiz.b.pktcnt = 1;
1728:inc/user_libs/usb_core.c ****       deptsiz.b.pktcnt = 1;
ARM GAS  /tmp/ccQkqy1T.s 			page 70


 2065              		.loc 1 1728 0
 2066 05de 67F3C403 		bfi	r3, r7, #3, #2	@ deptsiz.b.pktcnt, ep_47(D)->is_in,,
 2067              	.L160:
 2068              	@ inc/user_libs/usb_core.c:1742:       deptsiz.b.pktcnt = 1;
1729:inc/user_libs/usb_core.c ****       
1730:inc/user_libs/usb_core.c ****     }
1731:inc/user_libs/usb_core.c ****     else
1732:inc/user_libs/usb_core.c ****     {
1733:inc/user_libs/usb_core.c ****       if (ep->xfer_len > ep->maxpacket)
1734:inc/user_libs/usb_core.c ****       {
1735:inc/user_libs/usb_core.c ****         ep->xfer_len = ep->maxpacket;
1736:inc/user_libs/usb_core.c ****         deptsiz.b.xfersize = ep->maxpacket;
1737:inc/user_libs/usb_core.c ****       }
1738:inc/user_libs/usb_core.c ****       else
1739:inc/user_libs/usb_core.c ****       {
1740:inc/user_libs/usb_core.c ****         deptsiz.b.xfersize = ep->xfer_len;
1741:inc/user_libs/usb_core.c ****       }
1742:inc/user_libs/usb_core.c ****       deptsiz.b.pktcnt = 1;
 2069              		.loc 1 1742 0
 2070 05e2 8DF80230 		strb	r3, [sp, #2]	@ deptsiz.b.pktcnt, deptsiz.b.pktcnt
 2071              	@ inc/user_libs/usb_core.c:1744:     USB_OTG_WRITE_REG32(&in_regs->DIEPTSIZ, deptsiz.d32);
1743:inc/user_libs/usb_core.c ****     }
1744:inc/user_libs/usb_core.c ****     USB_OTG_WRITE_REG32(&in_regs->DIEPTSIZ, deptsiz.d32);
 2072              		.loc 1 1744 0
 2073 05e6 009B     		ldr	r3, [sp]	@ _8, deptsiz.d32
 2074 05e8 2B61     		str	r3, [r5, #16]	@ _8, in_regs_61->DIEPTSIZ
 2075              	@ inc/user_libs/usb_core.c:1746:     if (pdev->cfg.dma_enable == 1)
1745:inc/user_libs/usb_core.c ****     
1746:inc/user_libs/usb_core.c ****     if (pdev->cfg.dma_enable == 1)
 2076              		.loc 1 1746 0
 2077 05ea C278     		ldrb	r2, [r0, #3]	@ zero_extendqisi2	@ _9, pdev_48(D)->cfg.dma_enable
 2078 05ec 012A     		cmp	r2, #1	@ _9,
 2079 05ee 05D1     		bne	.L151	@,
 2080              	@ inc/user_libs/usb_core.c:1748:       USB_OTG_WRITE_REG32(&pdev->regs.INEP_REGS[ep->num]->DIEPDMA,
1747:inc/user_libs/usb_core.c ****     {
1748:inc/user_libs/usb_core.c ****       USB_OTG_WRITE_REG32(&pdev->regs.INEP_REGS[ep->num]->DIEPDMA, ep->dma_addr);  
 2081              		.loc 1 1748 0
 2082 05f0 0B78     		ldrb	r3, [r1]	@ zero_extendqisi2	@ ep_47(D)->num, ep_47(D)->num
 2083 05f2 0E69     		ldr	r6, [r1, #16]	@ _13, ep_47(D)->dma_addr
 2084 05f4 00EB8303 		add	r3, r0, r3, lsl #2	@ tmp163, pdev, ep_47(D)->num,
 2085 05f8 9B69     		ldr	r3, [r3, #24]	@ _12, pdev_48(D)->regs.INEP_REGS
 2086 05fa 5E61     		str	r6, [r3, #20]	@ _13, _12->DIEPDMA
 2087              	.L151:
 2088              	@ inc/user_libs/usb_core.c:1753:     depctl.b.epena = 1;
1749:inc/user_libs/usb_core.c ****     }
1750:inc/user_libs/usb_core.c ****     
1751:inc/user_libs/usb_core.c ****     /* EP enable, IN data in FIFO */
1752:inc/user_libs/usb_core.c ****     depctl.b.cnak = 1;
1753:inc/user_libs/usb_core.c ****     depctl.b.epena = 1;
 2089              		.loc 1 1753 0
 2090 05fc 44F00444 		orr	r4, r4, #-2080374784	@ depctl, depctl,
 2091              	.LVL197:
 2092              	@ inc/user_libs/usb_core.c:1754:     USB_OTG_WRITE_REG32(&in_regs->DIEPCTL, depctl.d32);
1754:inc/user_libs/usb_core.c ****     USB_OTG_WRITE_REG32(&in_regs->DIEPCTL, depctl.d32);
 2093              		.loc 1 1754 0
 2094 0600 2C60     		str	r4, [r5]	@ depctl, in_regs_61->DIEPCTL
 2095              	@ inc/user_libs/usb_core.c:1758:     if (pdev->cfg.dma_enable == 0)
ARM GAS  /tmp/ccQkqy1T.s 			page 71


1755:inc/user_libs/usb_core.c ****     
1756:inc/user_libs/usb_core.c ****     
1757:inc/user_libs/usb_core.c ****     
1758:inc/user_libs/usb_core.c ****     if (pdev->cfg.dma_enable == 0)
 2096              		.loc 1 1758 0
 2097 0602 42B9     		cbnz	r2, .L152	@ _9,
 2098              	@ inc/user_libs/usb_core.c:1761:       if (ep->xfer_len > 0)
1759:inc/user_libs/usb_core.c ****     {
1760:inc/user_libs/usb_core.c ****       /* Enable the Tx FIFO Empty Interrupt for this EP */
1761:inc/user_libs/usb_core.c ****       if (ep->xfer_len > 0)
 2099              		.loc 1 1761 0
 2100 0604 4B69     		ldr	r3, [r1, #20]	@ ep_47(D)->xfer_len, ep_47(D)->xfer_len
 2101 0606 33B1     		cbz	r3, .L152	@ ep_47(D)->xfer_len,
 2102              	.LVL198:
 2103              	@ inc/user_libs/usb_core.c:1765:           USB_OTG_MODIFY_REG32(&pdev->regs.DREGS->DIEPEMPMSK, 0, f
1762:inc/user_libs/usb_core.c ****       {
1763:inc/user_libs/usb_core.c ****         {
1764:inc/user_libs/usb_core.c ****           fifoemptymsk |= 1 << ep->num;
1765:inc/user_libs/usb_core.c ****           USB_OTG_MODIFY_REG32(&pdev->regs.DREGS->DIEPEMPMSK, 0, fifoemptymsk);
 2104              		.loc 1 1765 0
 2105 0608 0269     		ldr	r2, [r0, #16]	@ _20, pdev_48(D)->regs.DREGS
 2106              	@ inc/user_libs/usb_core.c:1764:           fifoemptymsk |= 1 << ep->num;
1764:inc/user_libs/usb_core.c ****           USB_OTG_MODIFY_REG32(&pdev->regs.DREGS->DIEPEMPMSK, 0, fifoemptymsk);
 2107              		.loc 1 1764 0
 2108 060a 0978     		ldrb	r1, [r1]	@ zero_extendqisi2	@ ep_47(D)->num, ep_47(D)->num
 2109              	.LVL199:
 2110              	@ inc/user_libs/usb_core.c:1765:           USB_OTG_MODIFY_REG32(&pdev->regs.DREGS->DIEPEMPMSK, 0, f
 2111              		.loc 1 1765 0
 2112 060c 506B     		ldr	r0, [r2, #52]	@ _21, _20->DIEPEMPMSK
 2113              	.LVL200:
 2114              	@ inc/user_libs/usb_core.c:1764:           fifoemptymsk |= 1 << ep->num;
1764:inc/user_libs/usb_core.c ****           USB_OTG_MODIFY_REG32(&pdev->regs.DREGS->DIEPEMPMSK, 0, fifoemptymsk);
 2115              		.loc 1 1764 0
 2116 060e 0123     		movs	r3, #1	@ tmp170,
 2117 0610 8B40     		lsls	r3, r3, r1	@ tmp169, tmp170, ep_47(D)->num
 2118              	.LVL201:
 2119              	@ inc/user_libs/usb_core.c:1765:           USB_OTG_MODIFY_REG32(&pdev->regs.DREGS->DIEPEMPMSK, 0, f
 2120              		.loc 1 1765 0
 2121 0612 0343     		orrs	r3, r3, r0	@, _22, tmp169, _21
 2122              	.LVL202:
 2123 0614 5363     		str	r3, [r2, #52]	@ _22, _20->DIEPEMPMSK
 2124              	.LVL203:
 2125              	.L152:
 2126              	@ inc/user_libs/usb_core.c:1801: }
1766:inc/user_libs/usb_core.c ****         }
1767:inc/user_libs/usb_core.c ****       }
1768:inc/user_libs/usb_core.c ****     }
1769:inc/user_libs/usb_core.c ****   }
1770:inc/user_libs/usb_core.c ****   else
1771:inc/user_libs/usb_core.c ****   {
1772:inc/user_libs/usb_core.c ****     /* OUT endpoint */
1773:inc/user_libs/usb_core.c ****     depctl.d32  = USB_OTG_READ_REG32(&pdev->regs.OUTEP_REGS[ep->num]->DOEPCTL);
1774:inc/user_libs/usb_core.c ****     deptsiz.d32 = USB_OTG_READ_REG32(&pdev->regs.OUTEP_REGS[ep->num]->DOEPTSIZ);
1775:inc/user_libs/usb_core.c ****     /* Program the transfer size and packet count as follows:
1776:inc/user_libs/usb_core.c ****     * xfersize = N * (maxpacket + 4 - (maxpacket % 4))
1777:inc/user_libs/usb_core.c ****     * pktcnt = N           */
1778:inc/user_libs/usb_core.c ****     if (ep->xfer_len == 0)
ARM GAS  /tmp/ccQkqy1T.s 			page 72


1779:inc/user_libs/usb_core.c ****     {
1780:inc/user_libs/usb_core.c ****       deptsiz.b.xfersize = ep->maxpacket;
1781:inc/user_libs/usb_core.c ****       deptsiz.b.pktcnt = 1;
1782:inc/user_libs/usb_core.c ****     }
1783:inc/user_libs/usb_core.c ****     else
1784:inc/user_libs/usb_core.c ****     {
1785:inc/user_libs/usb_core.c ****       ep->xfer_len = ep->maxpacket;
1786:inc/user_libs/usb_core.c ****       deptsiz.b.xfersize = ep->maxpacket;
1787:inc/user_libs/usb_core.c ****       deptsiz.b.pktcnt = 1;
1788:inc/user_libs/usb_core.c ****     }
1789:inc/user_libs/usb_core.c ****     USB_OTG_WRITE_REG32(&pdev->regs.OUTEP_REGS[ep->num]->DOEPTSIZ, deptsiz.d32);
1790:inc/user_libs/usb_core.c ****     if (pdev->cfg.dma_enable == 1)
1791:inc/user_libs/usb_core.c ****     {
1792:inc/user_libs/usb_core.c ****       USB_OTG_WRITE_REG32(&pdev->regs.OUTEP_REGS[ep->num]->DOEPDMA, ep->dma_addr);
1793:inc/user_libs/usb_core.c ****     }
1794:inc/user_libs/usb_core.c ****     /* EP enable */
1795:inc/user_libs/usb_core.c ****     depctl.b.cnak = 1;
1796:inc/user_libs/usb_core.c ****     depctl.b.epena = 1;
1797:inc/user_libs/usb_core.c ****     USB_OTG_WRITE_REG32 (&(pdev->regs.OUTEP_REGS[ep->num]->DOEPCTL), depctl.d32);
1798:inc/user_libs/usb_core.c ****     
1799:inc/user_libs/usb_core.c ****   }
1800:inc/user_libs/usb_core.c ****   return status;
1801:inc/user_libs/usb_core.c **** }
 2127              		.loc 1 1801 0
 2128 0616 0020     		movs	r0, #0	@,
 2129 0618 03B0     		add	sp, sp, #12	@,,
 2130              	.LCFI17:
 2131              		.cfi_remember_state
 2132              		.cfi_def_cfa_offset 20
 2133              		@ sp needed	@
 2134 061a F0BD     		pop	{r4, r5, r6, r7, pc}	@
 2135              	.LVL204:
 2136              	.L147:
 2137              	.LCFI18:
 2138              		.cfi_restore_state
 2139              	@ inc/user_libs/usb_core.c:1733:       if (ep->xfer_len > ep->maxpacket)
1733:inc/user_libs/usb_core.c ****       {
 2140              		.loc 1 1733 0
 2141 061c 8F68     		ldr	r7, [r1, #8]	@ _5, ep_47(D)->maxpacket
 2142 061e B742     		cmp	r7, r6	@ _5, pretmp_85
 2143              	@ inc/user_libs/usb_core.c:1736:         deptsiz.b.xfersize = ep->maxpacket;
1736:inc/user_libs/usb_core.c ****       }
 2144              		.loc 1 1736 0
 2145 0620 34BF     		ite	cc
 2146 0622 67F30602 		bficc	r2, r7, #0, #7	@ deptsiz.b.xfersize, _5,,
 2147              	@ inc/user_libs/usb_core.c:1740:         deptsiz.b.xfersize = ep->xfer_len;
1740:inc/user_libs/usb_core.c ****       }
 2148              		.loc 1 1740 0
 2149 0626 66F30602 		bfics	r2, r6, #0, #7	@ deptsiz.b.xfersize, pretmp_85,,
 2150 062a 8DF80020 		strb	r2, [sp]	@ deptsiz.b.xfersize, deptsiz.b.xfersize
 2151              	@ inc/user_libs/usb_core.c:1742:       deptsiz.b.pktcnt = 1;
1742:inc/user_libs/usb_core.c ****     }
 2152              		.loc 1 1742 0
 2153 062e 4FF00102 		mov	r2, #1	@ tmp160,
 2154              	@ inc/user_libs/usb_core.c:1735:         ep->xfer_len = ep->maxpacket;
1735:inc/user_libs/usb_core.c ****         deptsiz.b.xfersize = ep->maxpacket;
 2155              		.loc 1 1735 0
ARM GAS  /tmp/ccQkqy1T.s 			page 73


 2156 0632 38BF     		it	cc
 2157 0634 4F61     		strcc	r7, [r1, #20]	@ _5, ep_47(D)->xfer_len
 2158              	@ inc/user_libs/usb_core.c:1742:       deptsiz.b.pktcnt = 1;
1742:inc/user_libs/usb_core.c ****     }
 2159              		.loc 1 1742 0
 2160 0636 62F3C403 		bfi	r3, r2, #3, #2	@ deptsiz.b.pktcnt, tmp160,,
 2161 063a D2E7     		b	.L160	@
 2162              	.LVL205:
 2163              	.L146:
 2164              	@ inc/user_libs/usb_core.c:1773:     depctl.d32  = USB_OTG_READ_REG32(&pdev->regs.OUTEP_REGS[ep->nu
1773:inc/user_libs/usb_core.c ****     deptsiz.d32 = USB_OTG_READ_REG32(&pdev->regs.OUTEP_REGS[ep->num]->DOEPTSIZ);
 2165              		.loc 1 1773 0
 2166 063c 0B78     		ldrb	r3, [r1]	@ zero_extendqisi2	@ ep_47(D)->num, ep_47(D)->num
 2167 063e D1F808C0 		ldr	ip, [r1, #8]	@ pretmp_91, ep_47(D)->maxpacket
 2168 0642 00EB8303 		add	r3, r0, r3, lsl #2	@ tmp173, pdev, ep_47(D)->num,
 2169 0646 0CF07F07 		and	r7, ip, #127	@ _90, pretmp_91,
 2170 064a 5D6D     		ldr	r5, [r3, #84]	@ _25, pdev_48(D)->regs.OUTEP_REGS
 2171 064c 2C68     		ldr	r4, [r5]	@ depctl, _25->DOEPCTL
 2172              	.LVL206:
 2173              	@ inc/user_libs/usb_core.c:1774:     deptsiz.d32 = USB_OTG_READ_REG32(&pdev->regs.OUTEP_REGS[ep->nu
1774:inc/user_libs/usb_core.c ****     /* Program the transfer size and packet count as follows:
 2174              		.loc 1 1774 0
 2175 064e 2B69     		ldr	r3, [r5, #16]	@ _27, _25->DOEPTSIZ
 2176 0650 0093     		str	r3, [sp]	@ _27, deptsiz.d32
 2177 0652 DAB2     		uxtb	r2, r3	@ deptsiz.b.xfersize, _27
 2178 0654 C3F30743 		ubfx	r3, r3, #16, #8	@ deptsiz.b.pktcnt, _27,,
 2179              	@ inc/user_libs/usb_core.c:1778:     if (ep->xfer_len == 0)
1778:inc/user_libs/usb_core.c ****     {
 2180              		.loc 1 1778 0
 2181 0658 9EB9     		cbnz	r6, .L153	@ pretmp_85,
 2182              	.L161:
 2183              	@ inc/user_libs/usb_core.c:1786:       deptsiz.b.xfersize = ep->maxpacket;
1786:inc/user_libs/usb_core.c ****       deptsiz.b.pktcnt = 1;
 2184              		.loc 1 1786 0
 2185 065a 67F30602 		bfi	r2, r7, #0, #7	@ deptsiz.b.xfersize, _90,,
 2186 065e 8DF80020 		strb	r2, [sp]	@ deptsiz.b.xfersize, deptsiz.b.xfersize
 2187              	@ inc/user_libs/usb_core.c:1787:       deptsiz.b.pktcnt = 1;
1787:inc/user_libs/usb_core.c ****     }
 2188              		.loc 1 1787 0
 2189 0662 0122     		movs	r2, #1	@ tmp186,
 2190 0664 62F3C403 		bfi	r3, r2, #3, #2	@ deptsiz.b.pktcnt, tmp186,,
 2191 0668 8DF80230 		strb	r3, [sp, #2]	@ deptsiz.b.pktcnt, deptsiz.b.pktcnt
 2192              	@ inc/user_libs/usb_core.c:1789:     USB_OTG_WRITE_REG32(&pdev->regs.OUTEP_REGS[ep->num]->DOEPTSIZ,
1789:inc/user_libs/usb_core.c ****     if (pdev->cfg.dma_enable == 1)
 2193              		.loc 1 1789 0
 2194 066c 009B     		ldr	r3, [sp]	@ _36, deptsiz.d32
 2195 066e 2B61     		str	r3, [r5, #16]	@ _36, _25->DOEPTSIZ
 2196              	@ inc/user_libs/usb_core.c:1790:     if (pdev->cfg.dma_enable == 1)
1790:inc/user_libs/usb_core.c ****     {
 2197              		.loc 1 1790 0
 2198 0670 C378     		ldrb	r3, [r0, #3]	@ zero_extendqisi2	@ pdev_48(D)->cfg.dma_enable, pdev_48(D)->cfg.dma_enable
 2199 0672 012B     		cmp	r3, #1	@ pdev_48(D)->cfg.dma_enable,
 2200              	@ inc/user_libs/usb_core.c:1792:       USB_OTG_WRITE_REG32(&pdev->regs.OUTEP_REGS[ep->num]->DOEPDMA
1792:inc/user_libs/usb_core.c ****     }
 2201              		.loc 1 1792 0
 2202 0674 04BF     		itt	eq
 2203 0676 0B69     		ldreq	r3, [r1, #16]	@ _38, ep_47(D)->dma_addr
ARM GAS  /tmp/ccQkqy1T.s 			page 74


 2204 0678 6B61     		streq	r3, [r5, #20]	@ _38, _25->DOEPDMA
 2205              	@ inc/user_libs/usb_core.c:1796:     depctl.b.epena = 1;
1796:inc/user_libs/usb_core.c ****     USB_OTG_WRITE_REG32 (&(pdev->regs.OUTEP_REGS[ep->num]->DOEPCTL), depctl.d32);
 2206              		.loc 1 1796 0
 2207 067a 44F00444 		orr	r4, r4, #-2080374784	@ depctl, depctl,
 2208              	.LVL207:
 2209              	@ inc/user_libs/usb_core.c:1797:     USB_OTG_WRITE_REG32 (&(pdev->regs.OUTEP_REGS[ep->num]->DOEPCTL
1797:inc/user_libs/usb_core.c ****     
 2210              		.loc 1 1797 0
 2211 067e 2C60     		str	r4, [r5]	@ depctl, _25->DOEPCTL
 2212 0680 C9E7     		b	.L152	@
 2213              	.L153:
 2214              	@ inc/user_libs/usb_core.c:1785:       ep->xfer_len = ep->maxpacket;
1785:inc/user_libs/usb_core.c ****       deptsiz.b.xfersize = ep->maxpacket;
 2215              		.loc 1 1785 0
 2216 0682 C1F814C0 		str	ip, [r1, #20]	@ pretmp_91, ep_47(D)->xfer_len
 2217 0686 E8E7     		b	.L161	@
 2218              		.cfi_endproc
 2219              	.LFE134:
 2220              		.size	USB_OTG_EP0StartXfer, .-USB_OTG_EP0StartXfer
 2221              		.align	1
 2222              		.global	USB_OTG_EPSetStall
 2223              		.syntax unified
 2224              		.thumb
 2225              		.thumb_func
 2226              		.fpu softvfp
 2227              		.type	USB_OTG_EPSetStall, %function
 2228              	USB_OTG_EPSetStall:
 2229              	.LFB135:
1802:inc/user_libs/usb_core.c **** 
1803:inc/user_libs/usb_core.c **** 
1804:inc/user_libs/usb_core.c **** /**
1805:inc/user_libs/usb_core.c **** * @brief  USB_OTG_EPSetStall : Set the EP STALL
1806:inc/user_libs/usb_core.c **** * @param  pdev : Selected device
1807:inc/user_libs/usb_core.c **** * @retval USB_OTG_STS : status
1808:inc/user_libs/usb_core.c **** */
1809:inc/user_libs/usb_core.c **** USB_OTG_STS USB_OTG_EPSetStall(USB_OTG_CORE_HANDLE *pdev , USB_OTG_EP *ep)
1810:inc/user_libs/usb_core.c **** {
 2230              		.loc 1 1810 0
 2231              		.cfi_startproc
 2232              		@ args = 0, pretend = 0, frame = 0
 2233              		@ frame_needed = 0, uses_anonymous_args = 0
 2234              		@ link register save eliminated.
 2235              	.LVL208:
 2236              	@ inc/user_libs/usb_core.c:1816:   if (ep->is_in == 1)
1811:inc/user_libs/usb_core.c ****   USB_OTG_STS status = USB_OTG_OK;
1812:inc/user_libs/usb_core.c ****   USB_OTG_DEPCTL_TypeDef  depctl;
1813:inc/user_libs/usb_core.c ****   __IO uint32_t *depctl_addr;
1814:inc/user_libs/usb_core.c ****   
1815:inc/user_libs/usb_core.c ****   depctl.d32 = 0;
1816:inc/user_libs/usb_core.c ****   if (ep->is_in == 1)
 2237              		.loc 1 1816 0
 2238 0688 4A78     		ldrb	r2, [r1, #1]	@ zero_extendqisi2	@ ep_9(D)->is_in, ep_9(D)->is_in
 2239 068a 0B78     		ldrb	r3, [r1]	@ zero_extendqisi2	@ _29, ep_9(D)->num
 2240 068c 012A     		cmp	r2, #1	@ ep_9(D)->is_in,
 2241              	.LBB32:
 2242              	.LBB33:
ARM GAS  /tmp/ccQkqy1T.s 			page 75


 2243              	@ inc/user_libs/usb_core.c:1818:     depctl_addr = &(pdev->regs.INEP_REGS[ep->num]->DIEPCTL);
1817:inc/user_libs/usb_core.c ****   {
1818:inc/user_libs/usb_core.c ****     depctl_addr = &(pdev->regs.INEP_REGS[ep->num]->DIEPCTL);
 2244              		.loc 1 1818 0
 2245 068e 00EB8300 		add	r0, r0, r3, lsl #2	@ tmp128, pdev, _29,
 2246              	.LVL209:
 2247              	.LBE33:
 2248              	.LBE32:
 2249              	@ inc/user_libs/usb_core.c:1816:   if (ep->is_in == 1)
1816:inc/user_libs/usb_core.c ****   {
 2250              		.loc 1 1816 0
 2251 0692 0AD1     		bne	.L163	@,
 2252              	.LVL210:
 2253              	.LBB35:
 2254              	.LBB34:
 2255              	@ inc/user_libs/usb_core.c:1818:     depctl_addr = &(pdev->regs.INEP_REGS[ep->num]->DIEPCTL);
 2256              		.loc 1 1818 0
 2257 0694 8269     		ldr	r2, [r0, #24]	@ _18, pdev_10(D)->regs.INEP_REGS
 2258              	.LVL211:
 2259              	@ inc/user_libs/usb_core.c:1819:     depctl.d32 = USB_OTG_READ_REG32(depctl_addr);
1819:inc/user_libs/usb_core.c ****     depctl.d32 = USB_OTG_READ_REG32(depctl_addr);
 2260              		.loc 1 1819 0
 2261 0696 1368     		ldr	r3, [r2]	@ depctl, MEM[(volatile uint32_t *)_18]
 2262              	.LVL212:
 2263              	@ inc/user_libs/usb_core.c:1821:     if (depctl.b.epena)
1820:inc/user_libs/usb_core.c ****     /* set the disable and stall bits */
1821:inc/user_libs/usb_core.c ****     if (depctl.b.epena)
 2264              		.loc 1 1821 0
 2265 0698 002B     		cmp	r3, #0	@ depctl,
 2266 069a 01DA     		bge	.L166	@,
 2267              	@ inc/user_libs/usb_core.c:1823:       depctl.b.epdis = 1;
1822:inc/user_libs/usb_core.c ****     {
1823:inc/user_libs/usb_core.c ****       depctl.b.epdis = 1;
 2268              		.loc 1 1823 0
 2269 069c 43F08043 		orr	r3, r3, #1073741824	@ depctl, depctl,
 2270              	.LVL213:
 2271              	.L166:
 2272              	.LBE34:
 2273              	.LBE35:
 2274              	@ inc/user_libs/usb_core.c:1833:     depctl.b.stall = 1;
1824:inc/user_libs/usb_core.c ****     }
1825:inc/user_libs/usb_core.c ****     depctl.b.stall = 1;
1826:inc/user_libs/usb_core.c ****     USB_OTG_WRITE_REG32(depctl_addr, depctl.d32);
1827:inc/user_libs/usb_core.c ****   }
1828:inc/user_libs/usb_core.c ****   else
1829:inc/user_libs/usb_core.c ****   {
1830:inc/user_libs/usb_core.c ****     depctl_addr = &(pdev->regs.OUTEP_REGS[ep->num]->DOEPCTL);
1831:inc/user_libs/usb_core.c ****     depctl.d32 = USB_OTG_READ_REG32(depctl_addr);
1832:inc/user_libs/usb_core.c ****     /* set the stall bit */
1833:inc/user_libs/usb_core.c ****     depctl.b.stall = 1;
 2275              		.loc 1 1833 0
 2276 06a0 43F40013 		orr	r3, r3, #2097152	@ depctl, _5,
 2277              	.LVL214:
 2278              	@ inc/user_libs/usb_core.c:1834:     USB_OTG_WRITE_REG32(depctl_addr, depctl.d32);
1834:inc/user_libs/usb_core.c ****     USB_OTG_WRITE_REG32(depctl_addr, depctl.d32);
 2279              		.loc 1 1834 0
 2280 06a4 1360     		str	r3, [r2]	@ depctl,* _4
ARM GAS  /tmp/ccQkqy1T.s 			page 76


 2281              	@ inc/user_libs/usb_core.c:1837: }
1835:inc/user_libs/usb_core.c ****   }
1836:inc/user_libs/usb_core.c ****   return status;
1837:inc/user_libs/usb_core.c **** }
 2282              		.loc 1 1837 0
 2283 06a6 0020     		movs	r0, #0	@,
 2284 06a8 7047     		bx	lr	@
 2285              	.LVL215:
 2286              	.L163:
 2287              	@ inc/user_libs/usb_core.c:1830:     depctl_addr = &(pdev->regs.OUTEP_REGS[ep->num]->DOEPCTL);
1830:inc/user_libs/usb_core.c ****     depctl.d32 = USB_OTG_READ_REG32(depctl_addr);
 2288              		.loc 1 1830 0
 2289 06aa 426D     		ldr	r2, [r0, #84]	@ _4, pdev_10(D)->regs.OUTEP_REGS
 2290              	.LVL216:
 2291              	@ inc/user_libs/usb_core.c:1831:     depctl.d32 = USB_OTG_READ_REG32(depctl_addr);
1831:inc/user_libs/usb_core.c ****     /* set the stall bit */
 2292              		.loc 1 1831 0
 2293 06ac 1368     		ldr	r3, [r2]	@ _5, MEM[(volatile uint32_t *)_4]
 2294 06ae F7E7     		b	.L166	@
 2295              		.cfi_endproc
 2296              	.LFE135:
 2297              		.size	USB_OTG_EPSetStall, .-USB_OTG_EPSetStall
 2298              		.align	1
 2299              		.global	USB_OTG_EPClearStall
 2300              		.syntax unified
 2301              		.thumb
 2302              		.thumb_func
 2303              		.fpu softvfp
 2304              		.type	USB_OTG_EPClearStall, %function
 2305              	USB_OTG_EPClearStall:
 2306              	.LFB136:
1838:inc/user_libs/usb_core.c **** 
1839:inc/user_libs/usb_core.c **** 
1840:inc/user_libs/usb_core.c **** /**
1841:inc/user_libs/usb_core.c **** * @brief  Clear the EP STALL
1842:inc/user_libs/usb_core.c **** * @param  pdev : Selected device
1843:inc/user_libs/usb_core.c **** * @retval USB_OTG_STS : status
1844:inc/user_libs/usb_core.c **** */
1845:inc/user_libs/usb_core.c **** USB_OTG_STS USB_OTG_EPClearStall(USB_OTG_CORE_HANDLE *pdev , USB_OTG_EP *ep)
1846:inc/user_libs/usb_core.c **** {
 2307              		.loc 1 1846 0
 2308              		.cfi_startproc
 2309              		@ args = 0, pretend = 0, frame = 0
 2310              		@ frame_needed = 0, uses_anonymous_args = 0
 2311              		@ link register save eliminated.
 2312              	.LVL217:
 2313 06b0 0B78     		ldrb	r3, [r1]	@ zero_extendqisi2	@ _26, ep_15(D)->num
 2314              	@ inc/user_libs/usb_core.c:1853:   if (ep->is_in == 1)
1847:inc/user_libs/usb_core.c ****   USB_OTG_STS status = USB_OTG_OK;
1848:inc/user_libs/usb_core.c ****   USB_OTG_DEPCTL_TypeDef  depctl;
1849:inc/user_libs/usb_core.c ****   __IO uint32_t *depctl_addr;
1850:inc/user_libs/usb_core.c ****   
1851:inc/user_libs/usb_core.c ****   depctl.d32 = 0;
1852:inc/user_libs/usb_core.c ****   
1853:inc/user_libs/usb_core.c ****   if (ep->is_in == 1)
 2315              		.loc 1 1853 0
 2316 06b2 4A78     		ldrb	r2, [r1, #1]	@ zero_extendqisi2	@ ep_15(D)->is_in, ep_15(D)->is_in
ARM GAS  /tmp/ccQkqy1T.s 			page 77


 2317              	@ inc/user_libs/usb_core.c:1864:   if (ep->type == EP_TYPE_INTR || ep->type == EP_TYPE_BULK)
1854:inc/user_libs/usb_core.c ****   {
1855:inc/user_libs/usb_core.c ****     depctl_addr = &(pdev->regs.INEP_REGS[ep->num]->DIEPCTL);
1856:inc/user_libs/usb_core.c ****   }
1857:inc/user_libs/usb_core.c ****   else
1858:inc/user_libs/usb_core.c ****   {
1859:inc/user_libs/usb_core.c ****     depctl_addr = &(pdev->regs.OUTEP_REGS[ep->num]->DOEPCTL);
1860:inc/user_libs/usb_core.c ****   }
1861:inc/user_libs/usb_core.c ****   depctl.d32 = USB_OTG_READ_REG32(depctl_addr);
1862:inc/user_libs/usb_core.c ****   /* clear the stall bits */
1863:inc/user_libs/usb_core.c ****   depctl.b.stall = 0;
1864:inc/user_libs/usb_core.c ****   if (ep->type == EP_TYPE_INTR || ep->type == EP_TYPE_BULK)
 2318              		.loc 1 1864 0
 2319 06b4 C978     		ldrb	r1, [r1, #3]	@ zero_extendqisi2	@ ep_15(D)->type, ep_15(D)->type
 2320              	.LVL218:
 2321              	@ inc/user_libs/usb_core.c:1855:     depctl_addr = &(pdev->regs.INEP_REGS[ep->num]->DIEPCTL);
1855:inc/user_libs/usb_core.c ****   }
 2322              		.loc 1 1855 0
 2323 06b6 00EB8300 		add	r0, r0, r3, lsl #2	@ tmp126, pdev, _26,
 2324              	.LVL219:
 2325              	@ inc/user_libs/usb_core.c:1853:   if (ep->is_in == 1)
1853:inc/user_libs/usb_core.c ****   {
 2326              		.loc 1 1853 0
 2327 06ba 012A     		cmp	r2, #1	@ ep_15(D)->is_in,
 2328              	@ inc/user_libs/usb_core.c:1855:     depctl_addr = &(pdev->regs.INEP_REGS[ep->num]->DIEPCTL);
1855:inc/user_libs/usb_core.c ****   }
 2329              		.loc 1 1855 0
 2330 06bc 0CBF     		ite	eq
 2331 06be 8269     		ldreq	r2, [r0, #24]	@ depctl_addr, pdev_16(D)->regs.INEP_REGS
 2332              	.LVL220:
 2333              	@ inc/user_libs/usb_core.c:1859:     depctl_addr = &(pdev->regs.OUTEP_REGS[ep->num]->DOEPCTL);
1859:inc/user_libs/usb_core.c ****   }
 2334              		.loc 1 1859 0
 2335 06c0 426D     		ldrne	r2, [r0, #84]	@ depctl_addr, pdev_16(D)->regs.OUTEP_REGS
 2336              	.LVL221:
 2337 06c2 1368     		ldr	r3, [r2]	@ _8,* depctl_addr
 2338              	@ inc/user_libs/usb_core.c:1864:   if (ep->type == EP_TYPE_INTR || ep->type == EP_TYPE_BULK)
 2339              		.loc 1 1864 0
 2340 06c4 0239     		subs	r1, r1, #2	@ tmp134, ep_15(D)->type,
 2341              	@ inc/user_libs/usb_core.c:1863:   depctl.b.stall = 0;
1863:inc/user_libs/usb_core.c ****   if (ep->type == EP_TYPE_INTR || ep->type == EP_TYPE_BULK)
 2342              		.loc 1 1863 0
 2343 06c6 6FF35553 		bfc	r3, #21, #1	@ depctl,,
 2344              	.LVL222:
