ARM GAS  /tmp/cckT8TwQ.s 			page 1


   1              		.cpu cortex-m4
   2              		.eabi_attribute 20, 1	@ Tag_ABI_FP_denormal
   3              		.eabi_attribute 21, 1	@ Tag_ABI_FP_exceptions
   4              		.eabi_attribute 23, 3	@ Tag_ABI_FP_number_model
   5              		.eabi_attribute 24, 1	@ Tag_ABI_align8_needed
   6              		.eabi_attribute 25, 1	@ Tag_ABI_align8_preserved
   7              		.eabi_attribute 26, 1	@ Tag_ABI_enum_size
   8              		.eabi_attribute 30, 4	@ Tag_ABI_optimization_goals
   9              		.eabi_attribute 34, 1	@ Tag_CPU_unaligned_access
  10              		.eabi_attribute 18, 4	@ Tag_ABI_PCS_wchar_t
  11              		.file	"usb_bsp.c"
  12              	@ GNU C11 (GNU Tools for Arm Embedded Processors 7-2017-q4-major) version 7.2.1 20170904 (release) 
  13              	@	compiled by GNU C version 4.8.4, GMP version 6.1.0, MPFR version 3.1.4, MPC version 1.0.3, isl ve
  14              	
  15              	@ GGC heuristics: --param ggc-min-expand=100 --param ggc-min-heapsize=131072
  16              	@ options passed:  -I . -I ./inc -I ./inc/CMSIS
  17              	@ -I STM32F4xx_StdPeriph_Driver/inc -I ./inc/user_libs
  18              	@ -imultilib thumb/v7e-m
  19              	@ -iprefix /home/sticky/opt/gcc-arm-none-eabi-7-2017-q4-major/bin/../lib/gcc/arm-none-eabi/7.2.1/
  20              	@ -isysroot /home/sticky/opt/gcc-arm-none-eabi-7-2017-q4-major/bin/../arm-none-eabi
  21              	@ -D__USES_INITFINI__ -D STM32F40XX -D USE_STDPERIPH_DRIVER
  22              	@ -D RUN_FROM_FLASH=1 inc/user_libs/usb_bsp.c -mcpu=cortex-m4 -mthumb
  23              	@ -auxbase-strip inc/user_libs/usb_bsp.o -g -gdwarf-2 -Os -Wall
  24              	@ -Wstrict-prototypes -fomit-frame-pointer -fverbose-asm
  25              	@ options enabled:  -faggressive-loop-optimizations -falign-jumps
  26              	@ -falign-labels -falign-loops -fauto-inc-dec -fbranch-count-reg
  27              	@ -fcaller-saves -fchkp-check-incomplete-type -fchkp-check-read
  28              	@ -fchkp-check-write -fchkp-instrument-calls -fchkp-narrow-bounds
  29              	@ -fchkp-optimize -fchkp-store-bounds -fchkp-use-static-bounds
  30              	@ -fchkp-use-static-const-bounds -fchkp-use-wrappers -fcode-hoisting
  31              	@ -fcombine-stack-adjustments -fcommon -fcompare-elim -fcprop-registers
  32              	@ -fcrossjumping -fcse-follow-jumps -fdefer-pop
  33              	@ -fdelete-null-pointer-checks -fdevirtualize -fdevirtualize-speculatively
  34              	@ -fdwarf2-cfi-asm -fearly-inlining -feliminate-unused-debug-types
  35              	@ -fexpensive-optimizations -fforward-propagate -ffp-int-builtin-inexact
  36              	@ -ffunction-cse -fgcse -fgcse-lm -fgnu-runtime -fgnu-unique
  37              	@ -fguess-branch-probability -fhoist-adjacent-loads -fident -fif-conversion
  38              	@ -fif-conversion2 -findirect-inlining -finline -finline-atomics
  39              	@ -finline-functions -finline-functions-called-once
  40              	@ -finline-small-functions -fipa-bit-cp -fipa-cp -fipa-icf
  41              	@ -fipa-icf-functions -fipa-icf-variables -fipa-profile -fipa-pure-const
  42              	@ -fipa-ra -fipa-reference -fipa-sra -fipa-vrp -fira-hoist-pressure
  43              	@ -fira-share-save-slots -fira-share-spill-slots
  44              	@ -fisolate-erroneous-paths-dereference -fivopts -fkeep-static-consts
  45              	@ -fleading-underscore -flifetime-dse -flra-remat -flto-odr-type-merging
  46              	@ -fmath-errno -fmerge-constants -fmerge-debug-strings
  47              	@ -fmove-loop-invariants -fomit-frame-pointer -foptimize-sibling-calls
  48              	@ -fpartial-inlining -fpeephole -fpeephole2 -fplt -fprefetch-loop-arrays
  49              	@ -freg-struct-return -freorder-blocks -freorder-functions
  50              	@ -frerun-cse-after-loop -fsched-critical-path-heuristic
  51              	@ -fsched-dep-count-heuristic -fsched-group-heuristic -fsched-interblock
  52              	@ -fsched-last-insn-heuristic -fsched-pressure -fsched-rank-heuristic
  53              	@ -fsched-spec -fsched-spec-insn-heuristic -fsched-stalled-insns-dep
  54              	@ -fschedule-insns2 -fsection-anchors -fsemantic-interposition
  55              	@ -fshow-column -fshrink-wrap-separate -fsigned-zeros
  56              	@ -fsplit-ivs-in-unroller -fsplit-wide-types -fssa-backprop -fssa-phiopt
  57              	@ -fstdarg-opt -fstore-merging -fstrict-aliasing -fstrict-overflow
ARM GAS  /tmp/cckT8TwQ.s 			page 2


  58              	@ -fstrict-volatile-bitfields -fsync-libcalls -fthread-jumps
  59              	@ -ftoplevel-reorder -ftrapping-math -ftree-bit-ccp -ftree-builtin-call-dce
  60              	@ -ftree-ccp -ftree-ch -ftree-coalesce-vars -ftree-copy-prop -ftree-cselim
  61              	@ -ftree-dce -ftree-dominator-opts -ftree-dse -ftree-forwprop -ftree-fre
  62              	@ -ftree-loop-if-convert -ftree-loop-im -ftree-loop-ivcanon
  63              	@ -ftree-loop-optimize -ftree-parallelize-loops= -ftree-phiprop -ftree-pre
  64              	@ -ftree-pta -ftree-reassoc -ftree-scev-cprop -ftree-sink -ftree-slsr
  65              	@ -ftree-sra -ftree-switch-conversion -ftree-tail-merge -ftree-ter
  66              	@ -ftree-vrp -funit-at-a-time -fvar-tracking -fvar-tracking-assignments
  67              	@ -fverbose-asm -fzero-initialized-in-bss -masm-syntax-unified
  68              	@ -mlittle-endian -mpic-data-is-text-relative -msched-prolog -mthumb
  69              	@ -munaligned-access -mvectorize-with-neon-quad
  70              	
  71              		.text
  72              	.Ltext0:
  73              		.cfi_sections	.debug_frame
  74              		.align	1
  75              		.global	USB_OTG_BSP_Init
  76              		.syntax unified
  77              		.thumb
  78              		.thumb_func
  79              		.fpu softvfp
  80              		.type	USB_OTG_BSP_Init, %function
  81              	USB_OTG_BSP_Init:
  82              	.LFB110:
  83              		.file 1 "inc/user_libs/usb_bsp.c"
   1:inc/user_libs/usb_bsp.c **** /**
   2:inc/user_libs/usb_bsp.c ****   ******************************************************************************
   3:inc/user_libs/usb_bsp.c ****   * @file    usb_bsp.c
   4:inc/user_libs/usb_bsp.c ****   * @author  MCD Application Team
   5:inc/user_libs/usb_bsp.c ****   * @version V1.1.0
   6:inc/user_libs/usb_bsp.c ****   * @date    19-March-2012
   7:inc/user_libs/usb_bsp.c ****   * @brief   This file is responsible to offer board support package and is 
   8:inc/user_libs/usb_bsp.c ****   *          configurable by user.
   9:inc/user_libs/usb_bsp.c ****   ******************************************************************************
  10:inc/user_libs/usb_bsp.c ****   * @attention
  11:inc/user_libs/usb_bsp.c ****   *
  12:inc/user_libs/usb_bsp.c ****   * <h2><center>&copy; COPYRIGHT 2012 STMicroelectronics</center></h2>
  13:inc/user_libs/usb_bsp.c ****   *
  14:inc/user_libs/usb_bsp.c ****   * Licensed under MCD-ST Liberty SW License Agreement V2, (the "License");
  15:inc/user_libs/usb_bsp.c ****   * You may not use this file except in compliance with the License.
  16:inc/user_libs/usb_bsp.c ****   * You may obtain a copy of the License at:
  17:inc/user_libs/usb_bsp.c ****   *
  18:inc/user_libs/usb_bsp.c ****   *        http://www.st.com/software_license_agreement_liberty_v2
  19:inc/user_libs/usb_bsp.c ****   *
  20:inc/user_libs/usb_bsp.c ****   * Unless required by applicable law or agreed to in writing, software 
  21:inc/user_libs/usb_bsp.c ****   * distributed under the License is distributed on an "AS IS" BASIS, 
  22:inc/user_libs/usb_bsp.c ****   * WITHOUT WARRANTIES OR CONDITIONS OF ANY KIND, either express or implied.
  23:inc/user_libs/usb_bsp.c ****   * See the License for the specific language governing permissions and
  24:inc/user_libs/usb_bsp.c ****   * limitations under the License.
  25:inc/user_libs/usb_bsp.c ****   *
  26:inc/user_libs/usb_bsp.c ****   ******************************************************************************
  27:inc/user_libs/usb_bsp.c ****   */ 
  28:inc/user_libs/usb_bsp.c **** 
  29:inc/user_libs/usb_bsp.c **** /* Includes ------------------------------------------------------------------*/
  30:inc/user_libs/usb_bsp.c **** #include "usb_bsp.h"
  31:inc/user_libs/usb_bsp.c **** #include "usbd_conf.h"
ARM GAS  /tmp/cckT8TwQ.s 			page 3


  32:inc/user_libs/usb_bsp.c **** #include "defines.h"
  33:inc/user_libs/usb_bsp.c **** 
  34:inc/user_libs/usb_bsp.c **** #include "usb_core.h"
  35:inc/user_libs/usb_bsp.c **** #include "usbd_core.h"
  36:inc/user_libs/usb_bsp.c **** #include "usbd_hid_core.h"
  37:inc/user_libs/usb_bsp.c **** 
  38:inc/user_libs/usb_bsp.c **** #include "usb_dcd_int.h"
  39:inc/user_libs/usb_bsp.c **** 
  40:inc/user_libs/usb_bsp.c **** #ifndef USB_HIDDEVICE_NVIC_PRIORITY
  41:inc/user_libs/usb_bsp.c **** #define USB_HIDDEVICE_NVIC_PRIORITY			0x01
  42:inc/user_libs/usb_bsp.c **** #endif
  43:inc/user_libs/usb_bsp.c **** 
  44:inc/user_libs/usb_bsp.c **** #ifndef USB_HIDDEVICE_NVIC_SUBPRIORITY
  45:inc/user_libs/usb_bsp.c **** #define USB_HIDDEVICE_NVIC_SUBPRIORITY		0x01
  46:inc/user_libs/usb_bsp.c **** #endif
  47:inc/user_libs/usb_bsp.c **** 
  48:inc/user_libs/usb_bsp.c **** extern USB_OTG_CORE_HANDLE USB_OTG_dev;
  49:inc/user_libs/usb_bsp.c **** 
  50:inc/user_libs/usb_bsp.c **** /**
  51:inc/user_libs/usb_bsp.c **** * @brief  USB_OTG_BSP_Init
  52:inc/user_libs/usb_bsp.c **** *         Initilizes BSP configurations
  53:inc/user_libs/usb_bsp.c **** * @param  None
  54:inc/user_libs/usb_bsp.c **** * @retval None
  55:inc/user_libs/usb_bsp.c **** */
  56:inc/user_libs/usb_bsp.c **** 
  57:inc/user_libs/usb_bsp.c **** void USB_OTG_BSP_Init(USB_OTG_CORE_HANDLE *pdev) {
  84              		.loc 1 57 0
  85              		.cfi_startproc
  86              		@ args = 0, pretend = 0, frame = 24
  87              		@ frame_needed = 0, uses_anonymous_args = 0
  88              	.LVL0:
  89 0000 F0B5     		push	{r4, r5, r6, r7, lr}	@
  90              	.LCFI0:
  91              		.cfi_def_cfa_offset 20
  92              		.cfi_offset 4, -20
  93              		.cfi_offset 5, -16
  94              		.cfi_offset 6, -12
  95              		.cfi_offset 7, -8
  96              		.cfi_offset 14, -4
  97              	@ inc/user_libs/usb_bsp.c:64: 	RCC_AHB1PeriphClockCmd( RCC_AHB1Periph_GPIOA , ENABLE);  
  58:inc/user_libs/usb_bsp.c ****   GPIO_InitTypeDef GPIO_InitStructure;    
  59:inc/user_libs/usb_bsp.c ****   EXTI_InitTypeDef EXTI_InitStructure;
  60:inc/user_libs/usb_bsp.c ****   NVIC_InitTypeDef NVIC_InitStructure;  
  61:inc/user_libs/usb_bsp.c ****   
  62:inc/user_libs/usb_bsp.c **** 
  63:inc/user_libs/usb_bsp.c **** #ifdef USE_USB_OTG_FS
  64:inc/user_libs/usb_bsp.c **** 	RCC_AHB1PeriphClockCmd( RCC_AHB1Periph_GPIOA , ENABLE);  
  98              		.loc 1 64 0
  99 0002 0121     		movs	r1, #1	@,
 100              	@ inc/user_libs/usb_bsp.c:57: void USB_OTG_BSP_Init(USB_OTG_CORE_HANDLE *pdev) {
  57:inc/user_libs/usb_bsp.c ****   GPIO_InitTypeDef GPIO_InitStructure;    
 101              		.loc 1 57 0
 102 0004 87B0     		sub	sp, sp, #28	@,,
 103              	.LCFI1:
 104              		.cfi_def_cfa_offset 48
 105              	@ inc/user_libs/usb_bsp.c:74: 	GPIO_Init(GPIOA, &GPIO_InitStructure);  
  65:inc/user_libs/usb_bsp.c **** 
ARM GAS  /tmp/cckT8TwQ.s 			page 4


  66:inc/user_libs/usb_bsp.c **** 	/* Configure SOF ID DM DP Pins */
  67:inc/user_libs/usb_bsp.c **** 	GPIO_InitStructure.GPIO_Pin = 	GPIO_Pin_11 | 
  68:inc/user_libs/usb_bsp.c **** 									GPIO_Pin_12;
  69:inc/user_libs/usb_bsp.c **** 
  70:inc/user_libs/usb_bsp.c **** 	GPIO_InitStructure.GPIO_Speed = GPIO_Speed_100MHz;
  71:inc/user_libs/usb_bsp.c **** 	GPIO_InitStructure.GPIO_Mode = GPIO_Mode_AF;
  72:inc/user_libs/usb_bsp.c **** 	GPIO_InitStructure.GPIO_OType = GPIO_OType_PP;
  73:inc/user_libs/usb_bsp.c **** 	GPIO_InitStructure.GPIO_PuPd = GPIO_PuPd_NOPULL ;
  74:inc/user_libs/usb_bsp.c **** 	GPIO_Init(GPIOA, &GPIO_InitStructure);  
 106              		.loc 1 74 0
 107 0006 3B4D     		ldr	r5, .L2	@ tmp121,
 108              	@ inc/user_libs/usb_bsp.c:64: 	RCC_AHB1PeriphClockCmd( RCC_AHB1Periph_GPIOA , ENABLE);  
  64:inc/user_libs/usb_bsp.c **** 
 109              		.loc 1 64 0
 110 0008 0846     		mov	r0, r1	@,
 111              	.LVL1:
 112 000a FFF7FEFF 		bl	RCC_AHB1PeriphClockCmd	@
 113              	.LVL2:
 114              	@ inc/user_libs/usb_bsp.c:67: 	GPIO_InitStructure.GPIO_Pin = 	GPIO_Pin_11 | 
  67:inc/user_libs/usb_bsp.c **** 									GPIO_Pin_12;
 115              		.loc 1 67 0
 116 000e 4FF4C053 		mov	r3, #6144	@ tmp111,
 117              	@ inc/user_libs/usb_bsp.c:72: 	GPIO_InitStructure.GPIO_OType = GPIO_OType_PP;
  72:inc/user_libs/usb_bsp.c **** 	GPIO_InitStructure.GPIO_PuPd = GPIO_PuPd_NOPULL ;
 118              		.loc 1 72 0
 119 0012 0026     		movs	r6, #0	@ tmp116,
 120              	@ inc/user_libs/usb_bsp.c:70: 	GPIO_InitStructure.GPIO_Speed = GPIO_Speed_100MHz;
  70:inc/user_libs/usb_bsp.c **** 	GPIO_InitStructure.GPIO_Mode = GPIO_Mode_AF;
 121              		.loc 1 70 0
 122 0014 0327     		movs	r7, #3	@ tmp112,
 123              	@ inc/user_libs/usb_bsp.c:67: 	GPIO_InitStructure.GPIO_Pin = 	GPIO_Pin_11 | 
  67:inc/user_libs/usb_bsp.c **** 									GPIO_Pin_12;
 124              		.loc 1 67 0
 125 0016 0293     		str	r3, [sp, #8]	@ tmp111, GPIO_InitStructure.GPIO_Pin
 126              	@ inc/user_libs/usb_bsp.c:74: 	GPIO_Init(GPIOA, &GPIO_InitStructure);  
 127              		.loc 1 74 0
 128 0018 02A9     		add	r1, sp, #8	@ tmp160,,
 129              	@ inc/user_libs/usb_bsp.c:71: 	GPIO_InitStructure.GPIO_Mode = GPIO_Mode_AF;
  71:inc/user_libs/usb_bsp.c **** 	GPIO_InitStructure.GPIO_OType = GPIO_OType_PP;
 130              		.loc 1 71 0
 131 001a 0223     		movs	r3, #2	@ tmp114,
 132              	@ inc/user_libs/usb_bsp.c:74: 	GPIO_Init(GPIOA, &GPIO_InitStructure);  
 133              		.loc 1 74 0
 134 001c 2846     		mov	r0, r5	@, tmp121
 135              	@ inc/user_libs/usb_bsp.c:71: 	GPIO_InitStructure.GPIO_Mode = GPIO_Mode_AF;
  71:inc/user_libs/usb_bsp.c **** 	GPIO_InitStructure.GPIO_OType = GPIO_OType_PP;
 136              		.loc 1 71 0
 137 001e 8DF80C30 		strb	r3, [sp, #12]	@ tmp114, GPIO_InitStructure.GPIO_Mode
 138              	@ inc/user_libs/usb_bsp.c:70: 	GPIO_InitStructure.GPIO_Speed = GPIO_Speed_100MHz;
  70:inc/user_libs/usb_bsp.c **** 	GPIO_InitStructure.GPIO_Mode = GPIO_Mode_AF;
 139              		.loc 1 70 0
 140 0022 8DF80D70 		strb	r7, [sp, #13]	@ tmp112, GPIO_InitStructure.GPIO_Speed
 141              	@ inc/user_libs/usb_bsp.c:72: 	GPIO_InitStructure.GPIO_OType = GPIO_OType_PP;
  72:inc/user_libs/usb_bsp.c **** 	GPIO_InitStructure.GPIO_PuPd = GPIO_PuPd_NOPULL ;
 142              		.loc 1 72 0
 143 0026 8DF80E60 		strb	r6, [sp, #14]	@ tmp116, GPIO_InitStructure.GPIO_OType
 144              	@ inc/user_libs/usb_bsp.c:73: 	GPIO_InitStructure.GPIO_PuPd = GPIO_PuPd_NOPULL ;
ARM GAS  /tmp/cckT8TwQ.s 			page 5


  73:inc/user_libs/usb_bsp.c **** 	GPIO_Init(GPIOA, &GPIO_InitStructure);  
 145              		.loc 1 73 0
 146 002a 8DF80F60 		strb	r6, [sp, #15]	@ tmp116, GPIO_InitStructure.GPIO_PuPd
 147              	@ inc/user_libs/usb_bsp.c:74: 	GPIO_Init(GPIOA, &GPIO_InitStructure);  
 148              		.loc 1 74 0
 149 002e FFF7FEFF 		bl	GPIO_Init	@
 150              	.LVL3:
 151              	@ inc/user_libs/usb_bsp.c:76: 	GPIO_PinAFConfig(GPIOA,GPIO_PinSource11,GPIO_AF_OTG1_FS); 
  75:inc/user_libs/usb_bsp.c **** 
  76:inc/user_libs/usb_bsp.c **** 	GPIO_PinAFConfig(GPIOA,GPIO_PinSource11,GPIO_AF_OTG1_FS); 
 152              		.loc 1 76 0
 153 0032 2846     		mov	r0, r5	@, tmp121
 154 0034 0A22     		movs	r2, #10	@,
 155 0036 0B21     		movs	r1, #11	@,
 156 0038 FFF7FEFF 		bl	GPIO_PinAFConfig	@
 157              	.LVL4:
 158              	@ inc/user_libs/usb_bsp.c:77: 	GPIO_PinAFConfig(GPIOA,GPIO_PinSource12,GPIO_AF_OTG1_FS);
  77:inc/user_libs/usb_bsp.c **** 	GPIO_PinAFConfig(GPIOA,GPIO_PinSource12,GPIO_AF_OTG1_FS);
 159              		.loc 1 77 0
 160 003c 0A22     		movs	r2, #10	@,
 161 003e 2846     		mov	r0, r5	@, tmp121
 162 0040 0C21     		movs	r1, #12	@,
 163 0042 FFF7FEFF 		bl	GPIO_PinAFConfig	@
 164              	.LVL5:
 165              	@ inc/user_libs/usb_bsp.c:84: 	GPIO_InitStructure.GPIO_OType = GPIO_OType_OD;
  78:inc/user_libs/usb_bsp.c **** 
  79:inc/user_libs/usb_bsp.c **** #ifndef USB_HIDDEVICE_DISABLE_VBUS
  80:inc/user_libs/usb_bsp.c **** 	/* Configure  VBUS Pin */
  81:inc/user_libs/usb_bsp.c **** 	GPIO_InitStructure.GPIO_Pin = GPIO_Pin_9;
  82:inc/user_libs/usb_bsp.c **** 	GPIO_InitStructure.GPIO_Speed = GPIO_Speed_100MHz;
  83:inc/user_libs/usb_bsp.c **** 	GPIO_InitStructure.GPIO_Mode = GPIO_Mode_IN;
  84:inc/user_libs/usb_bsp.c **** 	GPIO_InitStructure.GPIO_OType = GPIO_OType_OD;
 166              		.loc 1 84 0
 167 0046 0124     		movs	r4, #1	@ tmp129,
 168              	@ inc/user_libs/usb_bsp.c:81: 	GPIO_InitStructure.GPIO_Pin = GPIO_Pin_9;
  81:inc/user_libs/usb_bsp.c **** 	GPIO_InitStructure.GPIO_Speed = GPIO_Speed_100MHz;
 169              		.loc 1 81 0
 170 0048 4FF40073 		mov	r3, #512	@ tmp124,
 171              	@ inc/user_libs/usb_bsp.c:86: 	GPIO_Init(GPIOA, &GPIO_InitStructure);    
  85:inc/user_libs/usb_bsp.c **** 	GPIO_InitStructure.GPIO_PuPd = GPIO_PuPd_NOPULL;
  86:inc/user_libs/usb_bsp.c **** 	GPIO_Init(GPIOA, &GPIO_InitStructure);    
 172              		.loc 1 86 0
 173 004c 02A9     		add	r1, sp, #8	@ tmp161,,
 174 004e 2846     		mov	r0, r5	@, tmp121
 175              	@ inc/user_libs/usb_bsp.c:81: 	GPIO_InitStructure.GPIO_Pin = GPIO_Pin_9;
  81:inc/user_libs/usb_bsp.c **** 	GPIO_InitStructure.GPIO_Speed = GPIO_Speed_100MHz;
 176              		.loc 1 81 0
 177 0050 0293     		str	r3, [sp, #8]	@ tmp124, GPIO_InitStructure.GPIO_Pin
 178              	@ inc/user_libs/usb_bsp.c:82: 	GPIO_InitStructure.GPIO_Speed = GPIO_Speed_100MHz;
  82:inc/user_libs/usb_bsp.c **** 	GPIO_InitStructure.GPIO_Mode = GPIO_Mode_IN;
 179              		.loc 1 82 0
 180 0052 8DF80D70 		strb	r7, [sp, #13]	@ tmp112, GPIO_InitStructure.GPIO_Speed
 181              	@ inc/user_libs/usb_bsp.c:83: 	GPIO_InitStructure.GPIO_Mode = GPIO_Mode_IN;
  83:inc/user_libs/usb_bsp.c **** 	GPIO_InitStructure.GPIO_OType = GPIO_OType_OD;
 182              		.loc 1 83 0
 183 0056 8DF80C60 		strb	r6, [sp, #12]	@ tmp116, GPIO_InitStructure.GPIO_Mode
 184              	@ inc/user_libs/usb_bsp.c:84: 	GPIO_InitStructure.GPIO_OType = GPIO_OType_OD;
ARM GAS  /tmp/cckT8TwQ.s 			page 6


  84:inc/user_libs/usb_bsp.c **** 	GPIO_InitStructure.GPIO_PuPd = GPIO_PuPd_NOPULL;
 185              		.loc 1 84 0
 186 005a 8DF80E40 		strb	r4, [sp, #14]	@ tmp129, GPIO_InitStructure.GPIO_OType
 187              	@ inc/user_libs/usb_bsp.c:85: 	GPIO_InitStructure.GPIO_PuPd = GPIO_PuPd_NOPULL;
  85:inc/user_libs/usb_bsp.c **** 	GPIO_Init(GPIOA, &GPIO_InitStructure);    
 188              		.loc 1 85 0
 189 005e 8DF80F60 		strb	r6, [sp, #15]	@ tmp116, GPIO_InitStructure.GPIO_PuPd
 190              	@ inc/user_libs/usb_bsp.c:86: 	GPIO_Init(GPIOA, &GPIO_InitStructure);    
 191              		.loc 1 86 0
 192 0062 FFF7FEFF 		bl	GPIO_Init	@
 193              	.LVL6:
 194              	@ inc/user_libs/usb_bsp.c:91: 	GPIO_InitStructure.GPIO_Pin =  GPIO_Pin_10;
  87:inc/user_libs/usb_bsp.c **** #endif
  88:inc/user_libs/usb_bsp.c **** 
  89:inc/user_libs/usb_bsp.c **** #ifndef USB_HIDDEVICE_DISABLE_ID
  90:inc/user_libs/usb_bsp.c **** 	/* Configure ID pin */
  91:inc/user_libs/usb_bsp.c **** 	GPIO_InitStructure.GPIO_Pin =  GPIO_Pin_10;
 195              		.loc 1 91 0
 196 0066 4FF48063 		mov	r3, #1024	@ tmp135,
 197              	@ inc/user_libs/usb_bsp.c:95: 	GPIO_Init(GPIOA, &GPIO_InitStructure);  
  92:inc/user_libs/usb_bsp.c **** 	GPIO_InitStructure.GPIO_OType = GPIO_OType_OD;
  93:inc/user_libs/usb_bsp.c **** 	GPIO_InitStructure.GPIO_PuPd = GPIO_PuPd_UP ;  
  94:inc/user_libs/usb_bsp.c **** 	GPIO_InitStructure.GPIO_Speed = GPIO_Speed_100MHz;
  95:inc/user_libs/usb_bsp.c **** 	GPIO_Init(GPIOA, &GPIO_InitStructure);  
 198              		.loc 1 95 0
 199 006a 02A9     		add	r1, sp, #8	@ tmp162,,
 200 006c 2846     		mov	r0, r5	@, tmp121
 201              	@ inc/user_libs/usb_bsp.c:91: 	GPIO_InitStructure.GPIO_Pin =  GPIO_Pin_10;
  91:inc/user_libs/usb_bsp.c **** 	GPIO_InitStructure.GPIO_OType = GPIO_OType_OD;
 202              		.loc 1 91 0
 203 006e 0293     		str	r3, [sp, #8]	@ tmp135, GPIO_InitStructure.GPIO_Pin
 204              	@ inc/user_libs/usb_bsp.c:92: 	GPIO_InitStructure.GPIO_OType = GPIO_OType_OD;
  92:inc/user_libs/usb_bsp.c **** 	GPIO_InitStructure.GPIO_OType = GPIO_OType_OD;
 205              		.loc 1 92 0
 206 0070 8DF80E40 		strb	r4, [sp, #14]	@ tmp129, GPIO_InitStructure.GPIO_OType
 207              	@ inc/user_libs/usb_bsp.c:93: 	GPIO_InitStructure.GPIO_PuPd = GPIO_PuPd_UP ;  
  93:inc/user_libs/usb_bsp.c **** 	GPIO_InitStructure.GPIO_Speed = GPIO_Speed_100MHz;
 208              		.loc 1 93 0
 209 0074 8DF80F40 		strb	r4, [sp, #15]	@ tmp129, GPIO_InitStructure.GPIO_PuPd
 210              	@ inc/user_libs/usb_bsp.c:94: 	GPIO_InitStructure.GPIO_Speed = GPIO_Speed_100MHz;
  94:inc/user_libs/usb_bsp.c **** 	GPIO_Init(GPIOA, &GPIO_InitStructure);  
 211              		.loc 1 94 0
 212 0078 8DF80D70 		strb	r7, [sp, #13]	@ tmp112, GPIO_InitStructure.GPIO_Speed
 213              	@ inc/user_libs/usb_bsp.c:95: 	GPIO_Init(GPIOA, &GPIO_InitStructure);  
 214              		.loc 1 95 0
 215 007c FFF7FEFF 		bl	GPIO_Init	@
 216              	.LVL7:
 217              	@ inc/user_libs/usb_bsp.c:96: 	GPIO_PinAFConfig(GPIOA,GPIO_PinSource10,GPIO_AF_OTG1_FS);   
  96:inc/user_libs/usb_bsp.c **** 	GPIO_PinAFConfig(GPIOA,GPIO_PinSource10,GPIO_AF_OTG1_FS);   
 218              		.loc 1 96 0
 219 0080 0A22     		movs	r2, #10	@,
 220 0082 1146     		mov	r1, r2	@,
 221 0084 2846     		mov	r0, r5	@, tmp121
 222 0086 FFF7FEFF 		bl	GPIO_PinAFConfig	@
 223              	.LVL8:
 224              	@ inc/user_libs/usb_bsp.c:99: 	RCC_APB2PeriphClockCmd(RCC_APB2Periph_SYSCFG, ENABLE);
  97:inc/user_libs/usb_bsp.c **** #endif
ARM GAS  /tmp/cckT8TwQ.s 			page 7


  98:inc/user_libs/usb_bsp.c **** 
  99:inc/user_libs/usb_bsp.c **** 	RCC_APB2PeriphClockCmd(RCC_APB2Periph_SYSCFG, ENABLE);
 225              		.loc 1 99 0
 226 008a 2146     		mov	r1, r4	@, tmp129
 227 008c 4FF48040 		mov	r0, #16384	@,
 228 0090 FFF7FEFF 		bl	RCC_APB2PeriphClockCmd	@
 229              	.LVL9:
 230              	@ inc/user_libs/usb_bsp.c:100: 	RCC_AHB2PeriphClockCmd(RCC_AHB2Periph_OTG_FS, ENABLE); 
 100:inc/user_libs/usb_bsp.c **** 	RCC_AHB2PeriphClockCmd(RCC_AHB2Periph_OTG_FS, ENABLE); 
 231              		.loc 1 100 0
 232 0094 2146     		mov	r1, r4	@, tmp129
 233 0096 8020     		movs	r0, #128	@,
 234 0098 FFF7FEFF 		bl	RCC_AHB2PeriphClockCmd	@
 235              	.LVL10:
 236              	@ inc/user_libs/usb_bsp.c:140:   RCC_APB1PeriphResetCmd(RCC_APB1Periph_PWR, ENABLE);  
 101:inc/user_libs/usb_bsp.c **** 	
 102:inc/user_libs/usb_bsp.c **** #else // USE_USB_OTG_HS 
 103:inc/user_libs/usb_bsp.c **** 	RCC_AHB1PeriphClockCmd(RCC_AHB1Periph_GPIOB , ENABLE);
 104:inc/user_libs/usb_bsp.c **** 
 105:inc/user_libs/usb_bsp.c **** 	GPIO_InitStructure.GPIO_Pin = 	GPIO_Pin_14 | 
 106:inc/user_libs/usb_bsp.c **** 									GPIO_Pin_15;
 107:inc/user_libs/usb_bsp.c **** 
 108:inc/user_libs/usb_bsp.c **** 	GPIO_InitStructure.GPIO_Speed = GPIO_Speed_100MHz;
 109:inc/user_libs/usb_bsp.c **** 	GPIO_InitStructure.GPIO_Mode = GPIO_Mode_AF;
 110:inc/user_libs/usb_bsp.c **** 	GPIO_Init(GPIOB, &GPIO_InitStructure);  
 111:inc/user_libs/usb_bsp.c **** 
 112:inc/user_libs/usb_bsp.c **** 	GPIO_PinAFConfig(GPIOB, GPIO_PinSource14, GPIO_AF_OTG2_FS); 
 113:inc/user_libs/usb_bsp.c **** 	GPIO_PinAFConfig(GPIOB, GPIO_PinSource15, GPIO_AF_OTG2_FS);
 114:inc/user_libs/usb_bsp.c **** 
 115:inc/user_libs/usb_bsp.c **** #ifndef USB_HID_DEVICE_DISABLE_VBUS
 116:inc/user_libs/usb_bsp.c **** 	/* Configure  VBUS Pin */
 117:inc/user_libs/usb_bsp.c **** 	GPIO_InitStructure.GPIO_Pin = GPIO_Pin_13;
 118:inc/user_libs/usb_bsp.c **** 	GPIO_InitStructure.GPIO_Speed = GPIO_Speed_100MHz;
 119:inc/user_libs/usb_bsp.c **** 	GPIO_InitStructure.GPIO_Mode = GPIO_Mode_IN;
 120:inc/user_libs/usb_bsp.c **** 	GPIO_InitStructure.GPIO_OType = GPIO_OType_OD;
 121:inc/user_libs/usb_bsp.c **** 	GPIO_InitStructure.GPIO_PuPd = GPIO_PuPd_NOPULL;
 122:inc/user_libs/usb_bsp.c **** 	GPIO_Init(GPIOB, &GPIO_InitStructure);    
 123:inc/user_libs/usb_bsp.c **** #endif
 124:inc/user_libs/usb_bsp.c **** 
 125:inc/user_libs/usb_bsp.c **** #ifndef USB_HID_DEVICE_DISABLE_ID
 126:inc/user_libs/usb_bsp.c **** 	/* Configure ID pin */
 127:inc/user_libs/usb_bsp.c **** 	GPIO_InitStructure.GPIO_Pin =  GPIO_Pin_12;
 128:inc/user_libs/usb_bsp.c **** 	GPIO_InitStructure.GPIO_OType = GPIO_OType_OD;
 129:inc/user_libs/usb_bsp.c **** 	GPIO_InitStructure.GPIO_PuPd = GPIO_PuPd_UP ;  
 130:inc/user_libs/usb_bsp.c **** 	GPIO_InitStructure.GPIO_Speed = GPIO_Speed_100MHz;
 131:inc/user_libs/usb_bsp.c **** 	GPIO_Init(GPIOA, &GPIO_InitStructure);  
 132:inc/user_libs/usb_bsp.c **** 	GPIO_PinAFConfig(GPIOB, GPIO_PinSource12, GPIO_AF_OTG2_FS);   
 133:inc/user_libs/usb_bsp.c **** #endif
 134:inc/user_libs/usb_bsp.c **** 
 135:inc/user_libs/usb_bsp.c **** 
 136:inc/user_libs/usb_bsp.c **** 	RCC_AHB1PeriphClockCmd( RCC_AHB1Periph_OTG_HS, ENABLE) ;   
 137:inc/user_libs/usb_bsp.c **** #endif //USB_OTG_HS
 138:inc/user_libs/usb_bsp.c **** 
 139:inc/user_libs/usb_bsp.c ****   /* enable the PWR clock */
 140:inc/user_libs/usb_bsp.c ****   RCC_APB1PeriphResetCmd(RCC_APB1Periph_PWR, ENABLE);  
 237              		.loc 1 140 0
 238 009c 2146     		mov	r1, r4	@, tmp129
ARM GAS  /tmp/cckT8TwQ.s 			page 8


 239 009e 4FF08050 		mov	r0, #268435456	@,
 240 00a2 FFF7FEFF 		bl	RCC_APB1PeriphResetCmd	@
 241              	.LVL11:
 242              	@ inc/user_libs/usb_bsp.c:143: 	EXTI_ClearITPendingBit(EXTI_Line18);
 141:inc/user_libs/usb_bsp.c **** 	
 142:inc/user_libs/usb_bsp.c **** #ifdef USB_OTG_FS_LOW_PWR_MGMT_SUPPORT
 143:inc/user_libs/usb_bsp.c **** 	EXTI_ClearITPendingBit(EXTI_Line18);
 243              		.loc 1 143 0
 244 00a6 4FF48020 		mov	r0, #262144	@,
 245 00aa FFF7FEFF 		bl	EXTI_ClearITPendingBit	@
 246              	.LVL12:
 247              	@ inc/user_libs/usb_bsp.c:145: 	EXTI_InitStructure.EXTI_Line = EXTI_Line18; 
 144:inc/user_libs/usb_bsp.c **** 
 145:inc/user_libs/usb_bsp.c **** 	EXTI_InitStructure.EXTI_Line = EXTI_Line18; 
 248              		.loc 1 145 0
 249 00ae 4FF48025 		mov	r5, #262144	@ tmp145,
 250              	@ inc/user_libs/usb_bsp.c:147: 	EXTI_InitStructure.EXTI_Trigger = EXTI_Trigger_Rising;
 146:inc/user_libs/usb_bsp.c **** 	EXTI_InitStructure.EXTI_Mode = EXTI_Mode_Interrupt;
 147:inc/user_libs/usb_bsp.c **** 	EXTI_InitStructure.EXTI_Trigger = EXTI_Trigger_Rising;
 251              		.loc 1 147 0
 252 00b2 0823     		movs	r3, #8	@ tmp148,
 253              	@ inc/user_libs/usb_bsp.c:149: 	EXTI_Init(&EXTI_InitStructure);
 148:inc/user_libs/usb_bsp.c **** 	EXTI_InitStructure.EXTI_LineCmd = ENABLE;
 149:inc/user_libs/usb_bsp.c **** 	EXTI_Init(&EXTI_InitStructure);
 254              		.loc 1 149 0
 255 00b4 04A8     		add	r0, sp, #16	@,,
 256              	@ inc/user_libs/usb_bsp.c:147: 	EXTI_InitStructure.EXTI_Trigger = EXTI_Trigger_Rising;
 147:inc/user_libs/usb_bsp.c **** 	EXTI_InitStructure.EXTI_LineCmd = ENABLE;
 257              		.loc 1 147 0
 258 00b6 8DF81530 		strb	r3, [sp, #21]	@ tmp148, EXTI_InitStructure.EXTI_Trigger
 259              	@ inc/user_libs/usb_bsp.c:145: 	EXTI_InitStructure.EXTI_Line = EXTI_Line18; 
 145:inc/user_libs/usb_bsp.c **** 	EXTI_InitStructure.EXTI_Mode = EXTI_Mode_Interrupt;
 260              		.loc 1 145 0
 261 00ba 0495     		str	r5, [sp, #16]	@ tmp145, EXTI_InitStructure.EXTI_Line
 262              	@ inc/user_libs/usb_bsp.c:146: 	EXTI_InitStructure.EXTI_Mode = EXTI_Mode_Interrupt;
 146:inc/user_libs/usb_bsp.c **** 	EXTI_InitStructure.EXTI_Trigger = EXTI_Trigger_Rising;
 263              		.loc 1 146 0
 264 00bc 8DF81460 		strb	r6, [sp, #20]	@ tmp116, EXTI_InitStructure.EXTI_Mode
 265              	@ inc/user_libs/usb_bsp.c:148: 	EXTI_InitStructure.EXTI_LineCmd = ENABLE;
 148:inc/user_libs/usb_bsp.c **** 	EXTI_Init(&EXTI_InitStructure);
 266              		.loc 1 148 0
 267 00c0 8DF81640 		strb	r4, [sp, #22]	@ tmp129, EXTI_InitStructure.EXTI_LineCmd
 268              	@ inc/user_libs/usb_bsp.c:149: 	EXTI_Init(&EXTI_InitStructure);
 269              		.loc 1 149 0
 270 00c4 FFF7FEFF 		bl	EXTI_Init	@
 271              	.LVL13:
 272              	@ inc/user_libs/usb_bsp.c:151: 	EXTI_ClearITPendingBit(EXTI_Line18);   
 150:inc/user_libs/usb_bsp.c **** 
 151:inc/user_libs/usb_bsp.c **** 	EXTI_ClearITPendingBit(EXTI_Line18);   
 273              		.loc 1 151 0
 274 00c8 2846     		mov	r0, r5	@, tmp145
 275 00ca FFF7FEFF 		bl	EXTI_ClearITPendingBit	@
 276              	.LVL14:
 277              	@ inc/user_libs/usb_bsp.c:153: 	NVIC_InitStructure.NVIC_IRQChannel = OTG_FS_WKUP_IRQn;
 152:inc/user_libs/usb_bsp.c **** 
 153:inc/user_libs/usb_bsp.c **** 	NVIC_InitStructure.NVIC_IRQChannel = OTG_FS_WKUP_IRQn;
 278              		.loc 1 153 0
ARM GAS  /tmp/cckT8TwQ.s 			page 9


 279 00ce 4FF49573 		mov	r3, #298	@ tmp154,
 280 00d2 ADF80430 		strh	r3, [sp, #4]	@ movhi	@ tmp154, MEM[(unsigned char *)&NVIC_InitStructure]
 281              	@ inc/user_libs/usb_bsp.c:154: 	NVIC_InitStructure.NVIC_IRQChannelPreemptionPriority = USB_HIDDEVIC
 154:inc/user_libs/usb_bsp.c **** 	NVIC_InitStructure.NVIC_IRQChannelPreemptionPriority = USB_HIDDEVICE_NVIC_PRIORITY;
 282              		.loc 1 154 0
 283 00d6 0423     		movs	r3, #4	@ tmp155,
 284              	@ inc/user_libs/usb_bsp.c:157: 	NVIC_Init(&NVIC_InitStructure);
 155:inc/user_libs/usb_bsp.c **** 	NVIC_InitStructure.NVIC_IRQChannelSubPriority = USB_HIDDEVICE_NVIC_SUBPRIORITY + 3;
 156:inc/user_libs/usb_bsp.c **** 	NVIC_InitStructure.NVIC_IRQChannelCmd = ENABLE;
 157:inc/user_libs/usb_bsp.c **** 	NVIC_Init(&NVIC_InitStructure);
 285              		.loc 1 157 0
 286 00d8 0DEB0300 		add	r0, sp, r3	@,,
 287              	@ inc/user_libs/usb_bsp.c:154: 	NVIC_InitStructure.NVIC_IRQChannelPreemptionPriority = USB_HIDDEVIC
 154:inc/user_libs/usb_bsp.c **** 	NVIC_InitStructure.NVIC_IRQChannelPreemptionPriority = USB_HIDDEVICE_NVIC_PRIORITY;
 288              		.loc 1 154 0
 289 00dc 8DF80630 		strb	r3, [sp, #6]	@ tmp155, MEM[(unsigned char *)&NVIC_InitStructure + 2B]
 290              	@ inc/user_libs/usb_bsp.c:156: 	NVIC_InitStructure.NVIC_IRQChannelCmd = ENABLE;
 156:inc/user_libs/usb_bsp.c **** 	NVIC_Init(&NVIC_InitStructure);
 291              		.loc 1 156 0
 292 00e0 8DF80740 		strb	r4, [sp, #7]	@ tmp129, NVIC_InitStructure.NVIC_IRQChannelCmd
 293              	@ inc/user_libs/usb_bsp.c:157: 	NVIC_Init(&NVIC_InitStructure);
 294              		.loc 1 157 0
 295 00e4 FFF7FEFF 		bl	NVIC_Init	@
 296              	.LVL15:
 297              	@ inc/user_libs/usb_bsp.c:159: 	EXTI_ClearITPendingBit(EXTI_Line18); 
 158:inc/user_libs/usb_bsp.c **** 
 159:inc/user_libs/usb_bsp.c **** 	EXTI_ClearITPendingBit(EXTI_Line18); 
 298              		.loc 1 159 0
 299 00e8 2846     		mov	r0, r5	@, tmp145
 300 00ea FFF7FEFF 		bl	EXTI_ClearITPendingBit	@
 301              	.LVL16:
 302              	@ inc/user_libs/usb_bsp.c:182: }
 160:inc/user_libs/usb_bsp.c **** 	   
 161:inc/user_libs/usb_bsp.c **** #endif 
 162:inc/user_libs/usb_bsp.c ****   
 163:inc/user_libs/usb_bsp.c **** #ifdef USB_OTG_HS_LOW_PWR_MGMT_SUPPORT
 164:inc/user_libs/usb_bsp.c **** 	EXTI_ClearITPendingBit(EXTI_Line20);
 165:inc/user_libs/usb_bsp.c **** 
 166:inc/user_libs/usb_bsp.c **** 	EXTI_InitStructure.EXTI_Line = EXTI_Line20; 
 167:inc/user_libs/usb_bsp.c **** 	EXTI_InitStructure.EXTI_Mode = EXTI_Mode_Interrupt;
 168:inc/user_libs/usb_bsp.c **** 	EXTI_InitStructure.EXTI_Trigger = EXTI_Trigger_Rising;
 169:inc/user_libs/usb_bsp.c **** 	EXTI_InitStructure.EXTI_LineCmd = ENABLE;
 170:inc/user_libs/usb_bsp.c **** 	EXTI_Init(&EXTI_InitStructure);
 171:inc/user_libs/usb_bsp.c **** 
 172:inc/user_libs/usb_bsp.c **** 	EXTI_ClearITPendingBit(EXTI_Line20);   
 173:inc/user_libs/usb_bsp.c **** 
 174:inc/user_libs/usb_bsp.c **** 	NVIC_InitStructure.NVIC_IRQChannel = OTG_HS_WKUP_IRQn;
 175:inc/user_libs/usb_bsp.c **** 	NVIC_InitStructure.NVIC_IRQChannelPreemptionPriority = USB_HIDDEVICE_NVIC_PRIORITY;
 176:inc/user_libs/usb_bsp.c **** 	NVIC_InitStructure.NVIC_IRQChannelSubPriority = USB_HIDDEVICE_NVIC_SUBPRIORITY + 3;
 177:inc/user_libs/usb_bsp.c **** 	NVIC_InitStructure.NVIC_IRQChannelCmd = ENABLE;
 178:inc/user_libs/usb_bsp.c **** 	NVIC_Init(&NVIC_InitStructure);
 179:inc/user_libs/usb_bsp.c **** 
 180:inc/user_libs/usb_bsp.c **** 	EXTI_ClearITPendingBit(EXTI_Line20);    
 181:inc/user_libs/usb_bsp.c **** #endif
 182:inc/user_libs/usb_bsp.c **** }
 303              		.loc 1 182 0
 304 00ee 07B0     		add	sp, sp, #28	@,,
ARM GAS  /tmp/cckT8TwQ.s 			page 10


 305              	.LCFI2:
 306              		.cfi_def_cfa_offset 20
 307              		@ sp needed	@
 308 00f0 F0BD     		pop	{r4, r5, r6, r7, pc}	@
 309              	.L3:
 310 00f2 00BF     		.align	2
 311              	.L2:
 312 00f4 00000240 		.word	1073872896
 313              		.cfi_endproc
 314              	.LFE110:
 315              		.size	USB_OTG_BSP_Init, .-USB_OTG_BSP_Init
 316              		.align	1
 317              		.global	USB_OTG_BSP_EnableInterrupt
 318              		.syntax unified
 319              		.thumb
 320              		.thumb_func
 321              		.fpu softvfp
 322              		.type	USB_OTG_BSP_EnableInterrupt, %function
 323              	USB_OTG_BSP_EnableInterrupt:
 324              	.LFB111:
 183:inc/user_libs/usb_bsp.c **** /**
 184:inc/user_libs/usb_bsp.c **** * @brief  USB_OTG_BSP_EnableInterrupt
 185:inc/user_libs/usb_bsp.c **** *         Enabele USB Global interrupt
 186:inc/user_libs/usb_bsp.c **** * @param  None
 187:inc/user_libs/usb_bsp.c **** * @retval None
 188:inc/user_libs/usb_bsp.c **** */
 189:inc/user_libs/usb_bsp.c **** void USB_OTG_BSP_EnableInterrupt(USB_OTG_CORE_HANDLE *pdev)
 190:inc/user_libs/usb_bsp.c **** {
 325              		.loc 1 190 0
 326              		.cfi_startproc
 327              		@ args = 0, pretend = 0, frame = 8
 328              		@ frame_needed = 0, uses_anonymous_args = 0
 329              	.LVL17:
 330 00f8 07B5     		push	{r0, r1, r2, lr}	@
 331              	.LCFI3:
 332              		.cfi_def_cfa_offset 16
 333              		.cfi_offset 14, -4
 334              	@ inc/user_libs/usb_bsp.c:193:   NVIC_PriorityGroupConfig(NVIC_PriorityGroup_1);
 191:inc/user_libs/usb_bsp.c ****   NVIC_InitTypeDef NVIC_InitStructure; 
 192:inc/user_libs/usb_bsp.c ****   
 193:inc/user_libs/usb_bsp.c ****   NVIC_PriorityGroupConfig(NVIC_PriorityGroup_1);
 335              		.loc 1 193 0
 336 00fa 4FF4C060 		mov	r0, #1536	@,
 337              	.LVL18:
 338 00fe FFF7FEFF 		bl	NVIC_PriorityGroupConfig	@
 339              	.LVL19:
 340              	@ inc/user_libs/usb_bsp.c:197:   NVIC_InitStructure.NVIC_IRQChannel = OTG_FS_IRQn;  
 194:inc/user_libs/usb_bsp.c **** #ifdef USE_USB_OTG_HS   
 195:inc/user_libs/usb_bsp.c ****   NVIC_InitStructure.NVIC_IRQChannel = OTG_HS_IRQn;
 196:inc/user_libs/usb_bsp.c **** #else
 197:inc/user_libs/usb_bsp.c ****   NVIC_InitStructure.NVIC_IRQChannel = OTG_FS_IRQn;  
 341              		.loc 1 197 0
 342 0102 40F24313 		movw	r3, #323	@ tmp112,
 343 0106 ADF80430 		strh	r3, [sp, #4]	@ movhi	@ tmp112, MEM[(unsigned char *)&NVIC_InitStructure]
 344              	@ inc/user_libs/usb_bsp.c:199:   NVIC_InitStructure.NVIC_IRQChannelPreemptionPriority = USB_HIDDEVI
 198:inc/user_libs/usb_bsp.c **** #endif
 199:inc/user_libs/usb_bsp.c ****   NVIC_InitStructure.NVIC_IRQChannelPreemptionPriority = USB_HIDDEVICE_NVIC_PRIORITY;
ARM GAS  /tmp/cckT8TwQ.s 			page 11


 345              		.loc 1 199 0
 346 010a 0323     		movs	r3, #3	@ tmp113,
 347 010c 8DF80630 		strb	r3, [sp, #6]	@ tmp113, MEM[(unsigned char *)&NVIC_InitStructure + 2B]
 348              	@ inc/user_libs/usb_bsp.c:202:   NVIC_Init(&NVIC_InitStructure);  
 200:inc/user_libs/usb_bsp.c ****   NVIC_InitStructure.NVIC_IRQChannelSubPriority = USB_HIDDEVICE_NVIC_SUBPRIORITY + 2;
 201:inc/user_libs/usb_bsp.c ****   NVIC_InitStructure.NVIC_IRQChannelCmd = ENABLE;
 202:inc/user_libs/usb_bsp.c ****   NVIC_Init(&NVIC_InitStructure);  
 349              		.loc 1 202 0
 350 0110 01A8     		add	r0, sp, #4	@,,
 351              	@ inc/user_libs/usb_bsp.c:201:   NVIC_InitStructure.NVIC_IRQChannelCmd = ENABLE;
 201:inc/user_libs/usb_bsp.c ****   NVIC_Init(&NVIC_InitStructure);  
 352              		.loc 1 201 0
 353 0112 0123     		movs	r3, #1	@ tmp115,
 354 0114 8DF80730 		strb	r3, [sp, #7]	@ tmp115, NVIC_InitStructure.NVIC_IRQChannelCmd
 355              	@ inc/user_libs/usb_bsp.c:202:   NVIC_Init(&NVIC_InitStructure);  
 356              		.loc 1 202 0
 357 0118 FFF7FEFF 		bl	NVIC_Init	@
 358              	.LVL20:
 359              	@ inc/user_libs/usb_bsp.c:218: }
 203:inc/user_libs/usb_bsp.c **** #ifdef USB_OTG_HS_DEDICATED_EP1_ENABLED
 204:inc/user_libs/usb_bsp.c ****   NVIC_PriorityGroupConfig(NVIC_PriorityGroup_1);
 205:inc/user_libs/usb_bsp.c ****   NVIC_InitStructure.NVIC_IRQChannel = OTG_HS_EP1_OUT_IRQn;
 206:inc/user_libs/usb_bsp.c ****   NVIC_InitStructure.NVIC_IRQChannelPreemptionPriority = USB_HIDDEVICE_NVIC_PRIORITY;
 207:inc/user_libs/usb_bsp.c ****   NVIC_InitStructure.NVIC_IRQChannelSubPriority = USB_HIDDEVICE_NVIC_SUBPRIORITY + 1;
 208:inc/user_libs/usb_bsp.c ****   NVIC_InitStructure.NVIC_IRQChannelCmd = ENABLE;
 209:inc/user_libs/usb_bsp.c ****   NVIC_Init(&NVIC_InitStructure);  
 210:inc/user_libs/usb_bsp.c ****   
 211:inc/user_libs/usb_bsp.c ****   NVIC_PriorityGroupConfig(NVIC_PriorityGroup_1);
 212:inc/user_libs/usb_bsp.c ****   NVIC_InitStructure.NVIC_IRQChannel = OTG_HS_EP1_IN_IRQn;
 213:inc/user_libs/usb_bsp.c ****   NVIC_InitStructure.NVIC_IRQChannelPreemptionPriority = USB_HIDDEVICE_NVIC_PRIORITY;
 214:inc/user_libs/usb_bsp.c ****   NVIC_InitStructure.NVIC_IRQChannelSubPriority = USB_HIDDEVICE_NVIC_SUBPRIORITY;
 215:inc/user_libs/usb_bsp.c ****   NVIC_InitStructure.NVIC_IRQChannelCmd = ENABLE;
 216:inc/user_libs/usb_bsp.c ****   NVIC_Init(&NVIC_InitStructure);   
 217:inc/user_libs/usb_bsp.c **** #endif
 218:inc/user_libs/usb_bsp.c **** }
 360              		.loc 1 218 0
 361 011c 03B0     		add	sp, sp, #12	@,,
 362              	.LCFI4:
 363              		.cfi_def_cfa_offset 4
 364              		@ sp needed	@
 365 011e 5DF804FB 		ldr	pc, [sp], #4	@
 366              		.cfi_endproc
 367              	.LFE111:
 368              		.size	USB_OTG_BSP_EnableInterrupt, .-USB_OTG_BSP_EnableInterrupt
 369              		.align	1
 370              		.global	USB_OTG_BSP_uDelay
 371              		.syntax unified
 372              		.thumb
 373              		.thumb_func
 374              		.fpu softvfp
 375              		.type	USB_OTG_BSP_uDelay, %function
 376              	USB_OTG_BSP_uDelay:
 377              	.LFB112:
 219:inc/user_libs/usb_bsp.c **** /**
 220:inc/user_libs/usb_bsp.c **** * @brief  USB_OTG_BSP_uDelay
 221:inc/user_libs/usb_bsp.c **** *         This function provides delay time in micro sec
 222:inc/user_libs/usb_bsp.c **** * @param  usec : Value of delay required in micro sec
ARM GAS  /tmp/cckT8TwQ.s 			page 12


 223:inc/user_libs/usb_bsp.c **** * @retval None
 224:inc/user_libs/usb_bsp.c **** */
 225:inc/user_libs/usb_bsp.c **** void USB_OTG_BSP_uDelay (const uint32_t usec)
 226:inc/user_libs/usb_bsp.c **** {
 378              		.loc 1 226 0
 379              		.cfi_startproc
 380              		@ args = 0, pretend = 0, frame = 0
 381              		@ frame_needed = 0, uses_anonymous_args = 0
 382              		@ link register save eliminated.
 383              	.LVL21:
 384              	@ inc/user_libs/usb_bsp.c:228:   const uint32_t utime = (120 * usec / 7);
 227:inc/user_libs/usb_bsp.c ****   uint32_t count = 0;
 228:inc/user_libs/usb_bsp.c ****   const uint32_t utime = (120 * usec / 7);
 385              		.loc 1 228 0
 386 0122 7823     		movs	r3, #120	@ tmp115,
 387 0124 5843     		muls	r0, r3, r0	@ tmp114, tmp115
 388              	.LVL22:
 389 0126 0723     		movs	r3, #7	@ tmp116,
 390 0128 B0FBF3F0 		udiv	r0, r0, r3	@ utime, tmp114, tmp116
 391              	.LVL23:
 392              	@ inc/user_libs/usb_bsp.c:227:   uint32_t count = 0;
 227:inc/user_libs/usb_bsp.c ****   uint32_t count = 0;
 393              		.loc 1 227 0
 394 012c 0023     		movs	r3, #0	@ count,
 395              	.LVL24:
 396              	.L6:
 397              	@ inc/user_libs/usb_bsp.c:231:     if ( ++count > utime )
 229:inc/user_libs/usb_bsp.c ****   do
 230:inc/user_libs/usb_bsp.c ****   {
 231:inc/user_libs/usb_bsp.c ****     if ( ++count > utime )
 398              		.loc 1 231 0
 399 012e 0133     		adds	r3, r3, #1	@ count, count,
 400              	.LVL25:
 401 0130 9842     		cmp	r0, r3	@ utime, count
 402 0132 FCD2     		bcs	.L6	@,
 403              	@ inc/user_libs/usb_bsp.c:237: }
 232:inc/user_libs/usb_bsp.c ****     {
 233:inc/user_libs/usb_bsp.c ****       return ;
 234:inc/user_libs/usb_bsp.c ****     }
 235:inc/user_libs/usb_bsp.c ****   }
 236:inc/user_libs/usb_bsp.c ****   while (1);
 237:inc/user_libs/usb_bsp.c **** }
 404              		.loc 1 237 0
 405 0134 7047     		bx	lr	@
 406              		.cfi_endproc
 407              	.LFE112:
 408              		.size	USB_OTG_BSP_uDelay, .-USB_OTG_BSP_uDelay
 409              		.align	1
 410              		.global	USB_OTG_BSP_mDelay
 411              		.syntax unified
 412              		.thumb
 413              		.thumb_func
 414              		.fpu softvfp
 415              		.type	USB_OTG_BSP_mDelay, %function
 416              	USB_OTG_BSP_mDelay:
 417              	.LFB113:
 238:inc/user_libs/usb_bsp.c **** 
ARM GAS  /tmp/cckT8TwQ.s 			page 13


 239:inc/user_libs/usb_bsp.c **** 
 240:inc/user_libs/usb_bsp.c **** /**
 241:inc/user_libs/usb_bsp.c **** * @brief  USB_OTG_BSP_mDelay
 242:inc/user_libs/usb_bsp.c **** *          This function provides delay time in milli sec
 243:inc/user_libs/usb_bsp.c **** * @param  msec : Value of delay required in milli sec
 244:inc/user_libs/usb_bsp.c **** * @retval None
 245:inc/user_libs/usb_bsp.c **** */
 246:inc/user_libs/usb_bsp.c **** void USB_OTG_BSP_mDelay (const uint32_t msec) {
 418              		.loc 1 246 0
 419              		.cfi_startproc
 420              		@ args = 0, pretend = 0, frame = 0
 421              		@ frame_needed = 0, uses_anonymous_args = 0
 422              		@ link register save eliminated.
 423              	.LVL26:
 424              	@ inc/user_libs/usb_bsp.c:247: 	USB_OTG_BSP_uDelay(msec * 1000);   
 247:inc/user_libs/usb_bsp.c **** 	USB_OTG_BSP_uDelay(msec * 1000);   
 425              		.loc 1 247 0
 426 0136 4FF47A73 		mov	r3, #1000	@ tmp113,
 427 013a 5843     		muls	r0, r3, r0	@, tmp113
 428              	.LVL27:
 429 013c FFF7FEBF 		b	USB_OTG_BSP_uDelay	@
 430              	.LVL28:
 431              		.cfi_endproc
 432              	.LFE113:
 433              		.size	USB_OTG_BSP_mDelay, .-USB_OTG_BSP_mDelay
 434              		.align	1
 435              		.global	OTG_FS_WKUP_IRQHandler
 436              		.syntax unified
 437              		.thumb
 438              		.thumb_func
 439              		.fpu softvfp
 440              		.type	OTG_FS_WKUP_IRQHandler, %function
 441              	OTG_FS_WKUP_IRQHandler:
 442              	.LFB114:
 248:inc/user_libs/usb_bsp.c **** }
 249:inc/user_libs/usb_bsp.c **** 
 250:inc/user_libs/usb_bsp.c **** 
 251:inc/user_libs/usb_bsp.c **** /**
 252:inc/user_libs/usb_bsp.c **** * @brief  This function handles EXTI15_10_IRQ Handler.
 253:inc/user_libs/usb_bsp.c **** * @param  None
 254:inc/user_libs/usb_bsp.c **** * @retval None
 255:inc/user_libs/usb_bsp.c **** */
 256:inc/user_libs/usb_bsp.c **** #ifdef USE_USB_OTG_FS  
 257:inc/user_libs/usb_bsp.c **** void OTG_FS_WKUP_IRQHandler(void) {
 443              		.loc 1 257 0
 444              		.cfi_startproc
 445              		@ args = 0, pretend = 0, frame = 0
 446              		@ frame_needed = 0, uses_anonymous_args = 0
 447 0140 08B5     		push	{r3, lr}	@
 448              	.LCFI5:
 449              		.cfi_def_cfa_offset 8
 450              		.cfi_offset 3, -8
 451              		.cfi_offset 14, -4
 452              	@ inc/user_libs/usb_bsp.c:258: 	if(USB_OTG_dev.cfg.low_power) {
 258:inc/user_libs/usb_bsp.c **** 	if(USB_OTG_dev.cfg.low_power) {
 453              		.loc 1 258 0
 454 0142 144B     		ldr	r3, .L22	@ tmp116,
ARM GAS  /tmp/cckT8TwQ.s 			page 14


 455 0144 9B7A     		ldrb	r3, [r3, #10]	@ zero_extendqisi2	@ USB_OTG_dev.cfg.low_power, USB_OTG_dev.cfg.low_power
 456 0146 F3B1     		cbz	r3, .L10	@ USB_OTG_dev.cfg.low_power,
 457              	@ inc/user_libs/usb_bsp.c:260: 		SCB->SCR &= (uint32_t)~((uint32_t)(SCB_SCR_SLEEPDEEP_Msk | SCB_SCR
 259:inc/user_libs/usb_bsp.c **** 		/* Reset SLEEPDEEP and SLEEPONEXIT bits */
 260:inc/user_libs/usb_bsp.c **** 		SCB->SCR &= (uint32_t)~((uint32_t)(SCB_SCR_SLEEPDEEP_Msk | SCB_SCR_SLEEPONEXIT_Msk));
 458              		.loc 1 260 0
 459 0148 134A     		ldr	r2, .L22+4	@ tmp118,
 460 014a 1369     		ldr	r3, [r2, #16]	@ _2, MEM[(struct SCB_Type *)3758157056B].SCR
 461 014c 23F00603 		bic	r3, r3, #6	@ _3, _2,
 462 0150 1361     		str	r3, [r2, #16]	@ _3, MEM[(struct SCB_Type *)3758157056B].SCR
 463              	@ inc/user_libs/usb_bsp.c:263: 		RCC_HSEConfig(RCC_HSE_ON);
 261:inc/user_libs/usb_bsp.c ****  
 262:inc/user_libs/usb_bsp.c **** 		/* After wake-up from sleep mode, reconfigure the system clock */
 263:inc/user_libs/usb_bsp.c **** 		RCC_HSEConfig(RCC_HSE_ON);
 464              		.loc 1 263 0
 465 0152 0120     		movs	r0, #1	@,
 466 0154 FFF7FEFF 		bl	RCC_HSEConfig	@
 467              	.LVL29:
 468              	.L11:
 469              	@ inc/user_libs/usb_bsp.c:266: 		while (RCC_GetFlagStatus(RCC_FLAG_HSERDY) == RESET)
 264:inc/user_libs/usb_bsp.c **** 
 265:inc/user_libs/usb_bsp.c **** 		/* Wait till HSE is ready */
 266:inc/user_libs/usb_bsp.c **** 		while (RCC_GetFlagStatus(RCC_FLAG_HSERDY) == RESET)
 470              		.loc 1 266 0 discriminator 1
 471 0158 3120     		movs	r0, #49	@,
 472 015a FFF7FEFF 		bl	RCC_GetFlagStatus	@
 473              	.LVL30:
 474 015e 0028     		cmp	r0, #0	@
 475 0160 FAD0     		beq	.L11	@
 476              	@ inc/user_libs/usb_bsp.c:270: 		RCC_PLLCmd(ENABLE);
 267:inc/user_libs/usb_bsp.c **** 		{}
 268:inc/user_libs/usb_bsp.c **** 
 269:inc/user_libs/usb_bsp.c **** 		/* Enable PLL */
 270:inc/user_libs/usb_bsp.c **** 		RCC_PLLCmd(ENABLE);
 477              		.loc 1 270 0
 478 0162 0120     		movs	r0, #1	@,
 479 0164 FFF7FEFF 		bl	RCC_PLLCmd	@
 480              	.LVL31:
 481              	.L12:
 482              	@ inc/user_libs/usb_bsp.c:273: 		while (RCC_GetFlagStatus(RCC_FLAG_PLLRDY) == RESET);
 271:inc/user_libs/usb_bsp.c **** 
 272:inc/user_libs/usb_bsp.c **** 		/* Wait till PLL is ready */
 273:inc/user_libs/usb_bsp.c **** 		while (RCC_GetFlagStatus(RCC_FLAG_PLLRDY) == RESET);
 483              		.loc 1 273 0 discriminator 1
 484 0168 3920     		movs	r0, #57	@,
 485 016a FFF7FEFF 		bl	RCC_GetFlagStatus	@
 486              	.LVL32:
 487 016e 0028     		cmp	r0, #0	@
 488 0170 FAD0     		beq	.L12	@
 489              	@ inc/user_libs/usb_bsp.c:276: 		RCC_SYSCLKConfig(RCC_SYSCLKSource_PLLCLK);
 274:inc/user_libs/usb_bsp.c **** 
 275:inc/user_libs/usb_bsp.c **** 		/* Select PLL as system clock source */
 276:inc/user_libs/usb_bsp.c **** 		RCC_SYSCLKConfig(RCC_SYSCLKSource_PLLCLK);
 490              		.loc 1 276 0
 491 0172 0220     		movs	r0, #2	@,
 492 0174 FFF7FEFF 		bl	RCC_SYSCLKConfig	@
 493              	.LVL33:
ARM GAS  /tmp/cckT8TwQ.s 			page 15


 494              	.L13:
 495              	@ inc/user_libs/usb_bsp.c:279: 		while (RCC_GetSYSCLKSource() != 0x08);
 277:inc/user_libs/usb_bsp.c **** 
 278:inc/user_libs/usb_bsp.c **** 		/* Wait till PLL is used as system clock source */
 279:inc/user_libs/usb_bsp.c **** 		while (RCC_GetSYSCLKSource() != 0x08);
 496              		.loc 1 279 0 discriminator 1
 497 0178 FFF7FEFF 		bl	RCC_GetSYSCLKSource	@
 498              	.LVL34:
 499 017c 0828     		cmp	r0, #8	@,
 500 017e FBD1     		bne	.L13	@,
 501              	@ inc/user_libs/usb_bsp.c:281: 		USB_OTG_UngateClock(&USB_OTG_dev);
 280:inc/user_libs/usb_bsp.c **** 		
 281:inc/user_libs/usb_bsp.c **** 		USB_OTG_UngateClock(&USB_OTG_dev);
 502              		.loc 1 281 0
 503 0180 0448     		ldr	r0, .L22	@,
 504 0182 FFF7FEFF 		bl	USB_OTG_UngateClock	@
 505              	.LVL35:
 506              	.L10:
 507              	@ inc/user_libs/usb_bsp.c:283: 	EXTI_ClearITPendingBit(EXTI_Line18);
 282:inc/user_libs/usb_bsp.c **** 	}
 283:inc/user_libs/usb_bsp.c **** 	EXTI_ClearITPendingBit(EXTI_Line18);
 508              		.loc 1 283 0
 509 0186 4FF48020 		mov	r0, #262144	@,
 510              	@ inc/user_libs/usb_bsp.c:284: }
 284:inc/user_libs/usb_bsp.c **** }
 511              		.loc 1 284 0
 512 018a BDE80840 		pop	{r3, lr}	@
 513              	.LCFI6:
 514              		.cfi_restore 14
 515              		.cfi_restore 3
 516              		.cfi_def_cfa_offset 0
 517              	@ inc/user_libs/usb_bsp.c:283: 	EXTI_ClearITPendingBit(EXTI_Line18);
 283:inc/user_libs/usb_bsp.c **** }
 518              		.loc 1 283 0
 519 018e FFF7FEBF 		b	EXTI_ClearITPendingBit	@
 520              	.LVL36:
 521              	.L23:
 522 0192 00BF     		.align	2
 523              	.L22:
 524 0194 00000000 		.word	USB_OTG_dev
 525 0198 00ED00E0 		.word	-536810240
 526              		.cfi_endproc
 527              	.LFE114:
 528              		.size	OTG_FS_WKUP_IRQHandler, .-OTG_FS_WKUP_IRQHandler
 529              		.align	1
 530              		.global	OTG_FS_IRQHandler
 531              		.syntax unified
 532              		.thumb
 533              		.thumb_func
 534              		.fpu softvfp
 535              		.type	OTG_FS_IRQHandler, %function
 536              	OTG_FS_IRQHandler:
 537              	.LFB115:
 285:inc/user_libs/usb_bsp.c **** #endif
 286:inc/user_libs/usb_bsp.c **** 
 287:inc/user_libs/usb_bsp.c **** /**
 288:inc/user_libs/usb_bsp.c **** * @brief  This function handles EXTI15_10_IRQ Handler.
ARM GAS  /tmp/cckT8TwQ.s 			page 16


 289:inc/user_libs/usb_bsp.c **** * @param  None
 290:inc/user_libs/usb_bsp.c **** * @retval None
 291:inc/user_libs/usb_bsp.c **** */
 292:inc/user_libs/usb_bsp.c **** #ifdef USE_USB_OTG_HS  
 293:inc/user_libs/usb_bsp.c **** void OTG_HS_WKUP_IRQHandler(void) {
 294:inc/user_libs/usb_bsp.c **** 	if (USB_OTG_dev.cfg.low_power) {
 295:inc/user_libs/usb_bsp.c **** 		/* Reset SLEEPDEEP and SLEEPONEXIT bits */
 296:inc/user_libs/usb_bsp.c **** 		SCB->SCR &= (uint32_t)~((uint32_t)(SCB_SCR_SLEEPDEEP_Msk | SCB_SCR_SLEEPONEXIT_Msk));
 297:inc/user_libs/usb_bsp.c **** 
 298:inc/user_libs/usb_bsp.c **** 		/* After wake-up from sleep mode, reconfigure the system clock */
 299:inc/user_libs/usb_bsp.c **** 		RCC_HSEConfig(RCC_HSE_ON);
 300:inc/user_libs/usb_bsp.c **** 
 301:inc/user_libs/usb_bsp.c **** 		/* Wait till HSE is ready */
 302:inc/user_libs/usb_bsp.c **** 		while (RCC_GetFlagStatus(RCC_FLAG_HSERDY) == RESET);
 303:inc/user_libs/usb_bsp.c **** 
 304:inc/user_libs/usb_bsp.c **** 		/* Enable PLL */
 305:inc/user_libs/usb_bsp.c **** 		RCC_PLLCmd(ENABLE);
 306:inc/user_libs/usb_bsp.c **** 
 307:inc/user_libs/usb_bsp.c **** 		/* Wait till PLL is ready */
 308:inc/user_libs/usb_bsp.c **** 		while (RCC_GetFlagStatus(RCC_FLAG_PLLRDY) == RESET);
 309:inc/user_libs/usb_bsp.c **** 
 310:inc/user_libs/usb_bsp.c **** 		/* Select PLL as system clock source */
 311:inc/user_libs/usb_bsp.c **** 		RCC_SYSCLKConfig(RCC_SYSCLKSource_PLLCLK);
 312:inc/user_libs/usb_bsp.c **** 
 313:inc/user_libs/usb_bsp.c **** 		/* Wait till PLL is used as system clock source */
 314:inc/user_libs/usb_bsp.c **** 		while (RCC_GetSYSCLKSource() != 0x08);
 315:inc/user_libs/usb_bsp.c **** 
 316:inc/user_libs/usb_bsp.c **** 		USB_OTG_UngateClock(&USB_OTG_dev);
 317:inc/user_libs/usb_bsp.c **** 	}
 318:inc/user_libs/usb_bsp.c **** 	EXTI_ClearITPendingBit(EXTI_Line20);
 319:inc/user_libs/usb_bsp.c **** }
 320:inc/user_libs/usb_bsp.c **** #endif
 321:inc/user_libs/usb_bsp.c **** 
 322:inc/user_libs/usb_bsp.c **** /**
 323:inc/user_libs/usb_bsp.c **** * @brief  This function handles OTG_HS Handler.
 324:inc/user_libs/usb_bsp.c **** * @param  None
 325:inc/user_libs/usb_bsp.c **** * @retval None
 326:inc/user_libs/usb_bsp.c **** */
 327:inc/user_libs/usb_bsp.c **** #ifdef USE_USB_OTG_HS  
 328:inc/user_libs/usb_bsp.c **** void OTG_HS_IRQHandler(void)
 329:inc/user_libs/usb_bsp.c **** #else
 330:inc/user_libs/usb_bsp.c **** void OTG_FS_IRQHandler(void)
 331:inc/user_libs/usb_bsp.c **** #endif
 332:inc/user_libs/usb_bsp.c **** {
 538              		.loc 1 332 0
 539              		.cfi_startproc
 540              		@ args = 0, pretend = 0, frame = 0
 541              		@ frame_needed = 0, uses_anonymous_args = 0
 542              		@ link register save eliminated.
 543              	@ inc/user_libs/usb_bsp.c:333: 	USBD_OTG_ISR_Handler(&USB_OTG_dev);
 333:inc/user_libs/usb_bsp.c **** 	USBD_OTG_ISR_Handler(&USB_OTG_dev);
 544              		.loc 1 333 0
 545 019c 0148     		ldr	r0, .L25	@,
 546 019e FFF7FEBF 		b	USBD_OTG_ISR_Handler	@
 547              	.LVL37:
 548              	.L26:
 549 01a2 00BF     		.align	2
ARM GAS  /tmp/cckT8TwQ.s 			page 17


 550              	.L25:
 551 01a4 00000000 		.word	USB_OTG_dev
 552              		.cfi_endproc
 553              	.LFE115:
 554              		.size	OTG_FS_IRQHandler, .-OTG_FS_IRQHandler
 555              	.Letext0:
 556              		.file 2 "/home/sticky/opt/gcc-arm-none-eabi-7-2017-q4-major/arm-none-eabi/include/machine/_default
 557              		.file 3 "/home/sticky/opt/gcc-arm-none-eabi-7-2017-q4-major/arm-none-eabi/include/sys/_stdint.h"
 558              		.file 4 "./inc/CMSIS/core_cm4.h"
 559              		.file 5 "./inc/system_stm32f4xx.h"
 560              		.file 6 "./inc/stm32f4xx.h"
 561              		.file 7 "STM32F4xx_StdPeriph_Driver/inc/stm32f4xx_exti.h"
 562              		.file 8 "STM32F4xx_StdPeriph_Driver/inc/stm32f4xx_gpio.h"
 563              		.file 9 "STM32F4xx_StdPeriph_Driver/inc/misc.h"
 564              		.file 10 "inc/user_libs/usb_regs.h"
 565              		.file 11 "inc/user_libs/usb_core.h"
 566              		.file 12 "inc/user_libs/usbd_hid_core.h"
 567              		.file 13 "inc/user_libs/usb_dcd_int.h"
 568              		.file 14 "STM32F4xx_StdPeriph_Driver/inc/stm32f4xx_rcc.h"