ARM GAS  /tmp/cc1VhB6Y.s 			page 1


   1              		.cpu cortex-m4
   2              		.eabi_attribute 20, 1	@ Tag_ABI_FP_denormal
   3              		.eabi_attribute 21, 1	@ Tag_ABI_FP_exceptions
   4              		.eabi_attribute 23, 3	@ Tag_ABI_FP_number_model
   5              		.eabi_attribute 24, 1	@ Tag_ABI_align8_needed
   6              		.eabi_attribute 25, 1	@ Tag_ABI_align8_preserved
   7              		.eabi_attribute 26, 1	@ Tag_ABI_enum_size
   8              		.eabi_attribute 30, 4	@ Tag_ABI_optimization_goals
   9              		.eabi_attribute 34, 1	@ Tag_CPU_unaligned_access
  10              		.eabi_attribute 18, 4	@ Tag_ABI_PCS_wchar_t
  11              		.file	"usbd_usr.c"
  12              	@ GNU C11 (GNU Tools for Arm Embedded Processors 7-2017-q4-major) version 7.2.1 20170904 (release) 
  13              	@	compiled by GNU C version 4.8.4, GMP version 6.1.0, MPFR version 3.1.4, MPC version 1.0.3, isl ve
  14              	
  15              	@ GGC heuristics: --param ggc-min-expand=100 --param ggc-min-heapsize=131072
  16              	@ options passed:  -I . -I ./inc -I ./inc/CMSIS
  17              	@ -I STM32F4xx_StdPeriph_Driver/inc -I ./inc/user_libs
  18              	@ -imultilib thumb/v7e-m
  19              	@ -iprefix /home/sticky/opt/gcc-arm-none-eabi-7-2017-q4-major/bin/../lib/gcc/arm-none-eabi/7.2.1/
  20              	@ -isysroot /home/sticky/opt/gcc-arm-none-eabi-7-2017-q4-major/bin/../arm-none-eabi
  21              	@ -D__USES_INITFINI__ -D STM32F40XX -D USE_STDPERIPH_DRIVER
  22              	@ -D RUN_FROM_FLASH=1 inc/user_libs/usbd_usr.c -mcpu=cortex-m4 -mthumb
  23              	@ -auxbase-strip inc/user_libs/usbd_usr.o -g -gdwarf-2 -Os -Wall
  24              	@ -Wstrict-prototypes -fomit-frame-pointer -fverbose-asm
  25              	@ options enabled:  -faggressive-loop-optimizations -falign-jumps
  26              	@ -falign-labels -falign-loops -fauto-inc-dec -fbranch-count-reg
  27              	@ -fcaller-saves -fchkp-check-incomplete-type -fchkp-check-read
  28              	@ -fchkp-check-write -fchkp-instrument-calls -fchkp-narrow-bounds
  29              	@ -fchkp-optimize -fchkp-store-bounds -fchkp-use-static-bounds
  30              	@ -fchkp-use-static-const-bounds -fchkp-use-wrappers -fcode-hoisting
  31              	@ -fcombine-stack-adjustments -fcommon -fcompare-elim -fcprop-registers
  32              	@ -fcrossjumping -fcse-follow-jumps -fdefer-pop
  33              	@ -fdelete-null-pointer-checks -fdevirtualize -fdevirtualize-speculatively
  34              	@ -fdwarf2-cfi-asm -fearly-inlining -feliminate-unused-debug-types
  35              	@ -fexpensive-optimizations -fforward-propagate -ffp-int-builtin-inexact
  36              	@ -ffunction-cse -fgcse -fgcse-lm -fgnu-runtime -fgnu-unique
  37              	@ -fguess-branch-probability -fhoist-adjacent-loads -fident -fif-conversion
  38              	@ -fif-conversion2 -findirect-inlining -finline -finline-atomics
  39              	@ -finline-functions -finline-functions-called-once
  40              	@ -finline-small-functions -fipa-bit-cp -fipa-cp -fipa-icf
  41              	@ -fipa-icf-functions -fipa-icf-variables -fipa-profile -fipa-pure-const
  42              	@ -fipa-ra -fipa-reference -fipa-sra -fipa-vrp -fira-hoist-pressure
  43              	@ -fira-share-save-slots -fira-share-spill-slots
  44              	@ -fisolate-erroneous-paths-dereference -fivopts -fkeep-static-consts
  45              	@ -fleading-underscore -flifetime-dse -flra-remat -flto-odr-type-merging
  46              	@ -fmath-errno -fmerge-constants -fmerge-debug-strings
  47              	@ -fmove-loop-invariants -fomit-frame-pointer -foptimize-sibling-calls
  48              	@ -fpartial-inlining -fpeephole -fpeephole2 -fplt -fprefetch-loop-arrays
  49              	@ -freg-struct-return -freorder-blocks -freorder-functions
  50              	@ -frerun-cse-after-loop -fsched-critical-path-heuristic
  51              	@ -fsched-dep-count-heuristic -fsched-group-heuristic -fsched-interblock
  52              	@ -fsched-last-insn-heuristic -fsched-pressure -fsched-rank-heuristic
  53              	@ -fsched-spec -fsched-spec-insn-heuristic -fsched-stalled-insns-dep
  54              	@ -fschedule-insns2 -fsection-anchors -fsemantic-interposition
  55              	@ -fshow-column -fshrink-wrap-separate -fsigned-zeros
  56              	@ -fsplit-ivs-in-unroller -fsplit-wide-types -fssa-backprop -fssa-phiopt
  57              	@ -fstdarg-opt -fstore-merging -fstrict-aliasing -fstrict-overflow
ARM GAS  /tmp/cc1VhB6Y.s 			page 2


  58              	@ -fstrict-volatile-bitfields -fsync-libcalls -fthread-jumps
  59              	@ -ftoplevel-reorder -ftrapping-math -ftree-bit-ccp -ftree-builtin-call-dce
  60              	@ -ftree-ccp -ftree-ch -ftree-coalesce-vars -ftree-copy-prop -ftree-cselim
  61              	@ -ftree-dce -ftree-dominator-opts -ftree-dse -ftree-forwprop -ftree-fre
  62              	@ -ftree-loop-if-convert -ftree-loop-im -ftree-loop-ivcanon
  63              	@ -ftree-loop-optimize -ftree-parallelize-loops= -ftree-phiprop -ftree-pre
  64              	@ -ftree-pta -ftree-reassoc -ftree-scev-cprop -ftree-sink -ftree-slsr
  65              	@ -ftree-sra -ftree-switch-conversion -ftree-tail-merge -ftree-ter
  66              	@ -ftree-vrp -funit-at-a-time -fvar-tracking -fvar-tracking-assignments
  67              	@ -fverbose-asm -fzero-initialized-in-bss -masm-syntax-unified
  68              	@ -mlittle-endian -mpic-data-is-text-relative -msched-prolog -mthumb
  69              	@ -munaligned-access -mvectorize-with-neon-quad
  70              	
  71              		.text
  72              	.Ltext0:
  73              		.cfi_sections	.debug_frame
  74              		.align	1
  75              		.global	USBD_USR_Init
  76              		.syntax unified
  77              		.thumb
  78              		.thumb_func
  79              		.fpu softvfp
  80              		.type	USBD_USR_Init, %function
  81              	USBD_USR_Init:
  82              	.LFB110:
  83              		.file 1 "inc/user_libs/usbd_usr.c"
   1:inc/user_libs/usbd_usr.c **** /**
   2:inc/user_libs/usbd_usr.c ****   ******************************************************************************
   3:inc/user_libs/usbd_usr.c ****   * @file    usbd_usr.c
   4:inc/user_libs/usbd_usr.c ****   * @author  MCD Application Team
   5:inc/user_libs/usbd_usr.c ****   * @version V1.1.0
   6:inc/user_libs/usbd_usr.c ****   * @date    19-March-2012
   7:inc/user_libs/usbd_usr.c ****   * @brief   This file includes the user application layer
   8:inc/user_libs/usbd_usr.c ****   ******************************************************************************
   9:inc/user_libs/usbd_usr.c ****   * @attention
  10:inc/user_libs/usbd_usr.c ****   *
  11:inc/user_libs/usbd_usr.c ****   * <h2><center>&copy; COPYRIGHT 2012 STMicroelectronics</center></h2>
  12:inc/user_libs/usbd_usr.c ****   *
  13:inc/user_libs/usbd_usr.c ****   * Licensed under MCD-ST Liberty SW License Agreement V2, (the "License");
  14:inc/user_libs/usbd_usr.c ****   * You may not use this file except in compliance with the License.
  15:inc/user_libs/usbd_usr.c ****   * You may obtain a copy of the License at:
  16:inc/user_libs/usbd_usr.c ****   *
  17:inc/user_libs/usbd_usr.c ****   *        http://www.st.com/software_license_agreement_liberty_v2
  18:inc/user_libs/usbd_usr.c ****   *
  19:inc/user_libs/usbd_usr.c ****   * Unless required by applicable law or agreed to in writing, software 
  20:inc/user_libs/usbd_usr.c ****   * distributed under the License is distributed on an "AS IS" BASIS, 
  21:inc/user_libs/usbd_usr.c ****   * WITHOUT WARRANTIES OR CONDITIONS OF ANY KIND, either express or implied.
  22:inc/user_libs/usbd_usr.c ****   * See the License for the specific language governing permissions and
  23:inc/user_libs/usbd_usr.c ****   * limitations under the License.
  24:inc/user_libs/usbd_usr.c ****   *
  25:inc/user_libs/usbd_usr.c ****   ******************************************************************************
  26:inc/user_libs/usbd_usr.c ****   */ 
  27:inc/user_libs/usbd_usr.c **** 
  28:inc/user_libs/usbd_usr.c **** /* Includes ------------------------------------------------------------------*/
  29:inc/user_libs/usbd_usr.c **** #include "usbd_usr.h"
  30:inc/user_libs/usbd_usr.c **** #include "usbd_ioreq.h"
  31:inc/user_libs/usbd_usr.c **** #include "usb_conf.h"
ARM GAS  /tmp/cc1VhB6Y.s 			page 3


  32:inc/user_libs/usbd_usr.c **** #include "tm_stm32f4_usb_hid_device.h"
  33:inc/user_libs/usbd_usr.c **** 
  34:inc/user_libs/usbd_usr.c **** USBD_Usr_cb_TypeDef USR_cb = {
  35:inc/user_libs/usbd_usr.c **** 	USBD_USR_Init,
  36:inc/user_libs/usbd_usr.c **** 	USBD_USR_DeviceReset,
  37:inc/user_libs/usbd_usr.c **** 	USBD_USR_DeviceConfigured,
  38:inc/user_libs/usbd_usr.c **** 	USBD_USR_DeviceSuspended,
  39:inc/user_libs/usbd_usr.c **** 	USBD_USR_DeviceResumed,
  40:inc/user_libs/usbd_usr.c **** 
  41:inc/user_libs/usbd_usr.c **** 	USBD_USR_DeviceConnected,
  42:inc/user_libs/usbd_usr.c **** 	USBD_USR_DeviceDisconnected,
  43:inc/user_libs/usbd_usr.c **** };
  44:inc/user_libs/usbd_usr.c **** 
  45:inc/user_libs/usbd_usr.c **** USB_OTG_CORE_HANDLE USB_OTG_dev;
  46:inc/user_libs/usbd_usr.c **** TM_USB_HIDDEVICE_Status_t TM_USB_HIDDEVICE_INT_Status = TM_USB_HIDDEVICE_Status_LibraryNotInitializ
  47:inc/user_libs/usbd_usr.c **** 
  48:inc/user_libs/usbd_usr.c **** /**
  49:inc/user_libs/usbd_usr.c **** * @brief  USBD_USR_Init 
  50:inc/user_libs/usbd_usr.c **** *         Displays the message on LCD for host lib initialization
  51:inc/user_libs/usbd_usr.c **** * @param  None
  52:inc/user_libs/usbd_usr.c **** * @retval None
  53:inc/user_libs/usbd_usr.c **** */
  54:inc/user_libs/usbd_usr.c **** void USBD_USR_Init(void) {
  84              		.loc 1 54 0
  85              		.cfi_startproc
  86              		@ args = 0, pretend = 0, frame = 0
  87              		@ frame_needed = 0, uses_anonymous_args = 0
  88              		@ link register save eliminated.
  89              	@ inc/user_libs/usbd_usr.c:55: 	TM_USB_HIDDEVICE_INT_Status = TM_USB_HIDDEVICE_Status_Disconnected;
  55:inc/user_libs/usbd_usr.c **** 	TM_USB_HIDDEVICE_INT_Status = TM_USB_HIDDEVICE_Status_Disconnected;	
  90              		.loc 1 55 0
  91 0000 014B     		ldr	r3, .L2	@ tmp110,
  92 0002 0222     		movs	r2, #2	@ tmp111,
  93 0004 1A70     		strb	r2, [r3]	@ tmp111, TM_USB_HIDDEVICE_INT_Status
  94              	@ inc/user_libs/usbd_usr.c:56: }
  56:inc/user_libs/usbd_usr.c **** }
  95              		.loc 1 56 0
  96 0006 7047     		bx	lr	@
  97              	.L3:
  98              		.align	2
  99              	.L2:
 100 0008 00000000 		.word	.LANCHOR0
 101              		.cfi_endproc
 102              	.LFE110:
 103              		.size	USBD_USR_Init, .-USBD_USR_Init
 104              		.align	1
 105              		.global	USBD_USR_DeviceReset
 106              		.syntax unified
 107              		.thumb
 108              		.thumb_func
 109              		.fpu softvfp
 110              		.type	USBD_USR_DeviceReset, %function
 111              	USBD_USR_DeviceReset:
 112              	.LFB111:
  57:inc/user_libs/usbd_usr.c **** 
  58:inc/user_libs/usbd_usr.c **** /**
  59:inc/user_libs/usbd_usr.c **** * @brief  USBD_USR_DeviceReset 
ARM GAS  /tmp/cc1VhB6Y.s 			page 4


  60:inc/user_libs/usbd_usr.c **** *         Displays the message on LCD on device Reset Event
  61:inc/user_libs/usbd_usr.c **** * @param  speed : device speed
  62:inc/user_libs/usbd_usr.c **** * @retval None
  63:inc/user_libs/usbd_usr.c **** */
  64:inc/user_libs/usbd_usr.c **** void USBD_USR_DeviceReset(uint8_t speed) {
 113              		.loc 1 64 0
 114              		.cfi_startproc
 115              		@ args = 0, pretend = 0, frame = 0
 116              		@ frame_needed = 0, uses_anonymous_args = 0
 117              		@ link register save eliminated.
 118              	.LVL0:
 119              	@ inc/user_libs/usbd_usr.c:65: 	TM_USB_HIDDEVICE_INT_Status = TM_USB_HIDDEVICE_Status_Disconnected;
  65:inc/user_libs/usbd_usr.c **** 	TM_USB_HIDDEVICE_INT_Status = TM_USB_HIDDEVICE_Status_Disconnected;
 120              		.loc 1 65 0
 121 000c 014B     		ldr	r3, .L5	@ tmp111,
 122 000e 0222     		movs	r2, #2	@ tmp112,
 123 0010 1A70     		strb	r2, [r3]	@ tmp112, TM_USB_HIDDEVICE_INT_Status
 124              	@ inc/user_libs/usbd_usr.c:66: }
  66:inc/user_libs/usbd_usr.c **** }
 125              		.loc 1 66 0
 126 0012 7047     		bx	lr	@
 127              	.L6:
 128              		.align	2
 129              	.L5:
 130 0014 00000000 		.word	.LANCHOR0
 131              		.cfi_endproc
 132              	.LFE111:
 133              		.size	USBD_USR_DeviceReset, .-USBD_USR_DeviceReset
 134              		.align	1
 135              		.global	USBD_USR_DeviceConfigured
 136              		.syntax unified
 137              		.thumb
 138              		.thumb_func
 139              		.fpu softvfp
 140              		.type	USBD_USR_DeviceConfigured, %function
 141              	USBD_USR_DeviceConfigured:
 142              	.LFB112:
  67:inc/user_libs/usbd_usr.c **** 
  68:inc/user_libs/usbd_usr.c **** /**
  69:inc/user_libs/usbd_usr.c **** * @brief  USBD_USR_DeviceConfigured
  70:inc/user_libs/usbd_usr.c **** *         Displays the message on LCD on device configuration Event
  71:inc/user_libs/usbd_usr.c **** * @param  None
  72:inc/user_libs/usbd_usr.c **** * @retval Staus
  73:inc/user_libs/usbd_usr.c **** */
  74:inc/user_libs/usbd_usr.c **** void USBD_USR_DeviceConfigured(void) {
 143              		.loc 1 74 0
 144              		.cfi_startproc
 145              		@ args = 0, pretend = 0, frame = 0
 146              		@ frame_needed = 0, uses_anonymous_args = 0
 147              		@ link register save eliminated.
 148              	@ inc/user_libs/usbd_usr.c:75: 	TM_USB_HIDDEVICE_INT_Status = TM_USB_HIDDEVICE_Status_Connected;
  75:inc/user_libs/usbd_usr.c **** 	TM_USB_HIDDEVICE_INT_Status = TM_USB_HIDDEVICE_Status_Connected;
 149              		.loc 1 75 0
 150 0018 014B     		ldr	r3, .L8	@ tmp110,
 151 001a 0122     		movs	r2, #1	@ tmp111,
 152 001c 1A70     		strb	r2, [r3]	@ tmp111, TM_USB_HIDDEVICE_INT_Status
 153              	@ inc/user_libs/usbd_usr.c:76: }
ARM GAS  /tmp/cc1VhB6Y.s 			page 5


  76:inc/user_libs/usbd_usr.c **** }
 154              		.loc 1 76 0
 155 001e 7047     		bx	lr	@
 156              	.L9:
 157              		.align	2
 158              	.L8:
 159 0020 00000000 		.word	.LANCHOR0
 160              		.cfi_endproc
 161              	.LFE112:
 162              		.size	USBD_USR_DeviceConfigured, .-USBD_USR_DeviceConfigured
 163              		.align	1
 164              		.global	USBD_USR_DeviceResumed
 165              		.syntax unified
 166              		.thumb
 167              		.thumb_func
 168              		.fpu softvfp
 169              		.type	USBD_USR_DeviceResumed, %function
 170              	USBD_USR_DeviceResumed:
 171              	.LFB120:
 172              		.cfi_startproc
 173              		@ args = 0, pretend = 0, frame = 0
 174              		@ frame_needed = 0, uses_anonymous_args = 0
 175              		@ link register save eliminated.
 176 0024 014B     		ldr	r3, .L11	@ tmp110,
 177 0026 0222     		movs	r2, #2	@ tmp111,
 178 0028 1A70     		strb	r2, [r3]	@ tmp111, TM_USB_HIDDEVICE_INT_Status
 179 002a 7047     		bx	lr	@
 180              	.L12:
 181              		.align	2
 182              	.L11:
 183 002c 00000000 		.word	.LANCHOR0
 184              		.cfi_endproc
 185              	.LFE120:
 186              		.size	USBD_USR_DeviceResumed, .-USBD_USR_DeviceResumed
 187              		.align	1
 188              		.global	USBD_USR_DeviceConnected
 189              		.syntax unified
 190              		.thumb
 191              		.thumb_func
 192              		.fpu softvfp
 193              		.type	USBD_USR_DeviceConnected, %function
 194              	USBD_USR_DeviceConnected:
 195              	.LFB122:
 196              		.cfi_startproc
 197              		@ args = 0, pretend = 0, frame = 0
 198              		@ frame_needed = 0, uses_anonymous_args = 0
 199              		@ link register save eliminated.
 200 0030 014B     		ldr	r3, .L14	@ tmp110,
 201 0032 0222     		movs	r2, #2	@ tmp111,
 202 0034 1A70     		strb	r2, [r3]	@ tmp111, TM_USB_HIDDEVICE_INT_Status
 203 0036 7047     		bx	lr	@
 204              	.L15:
 205              		.align	2
 206              	.L14:
 207 0038 00000000 		.word	.LANCHOR0
 208              		.cfi_endproc
 209              	.LFE122:
ARM GAS  /tmp/cc1VhB6Y.s 			page 6


 210              		.size	USBD_USR_DeviceConnected, .-USBD_USR_DeviceConnected
 211              		.align	1
 212              		.global	USBD_USR_DeviceDisconnected
 213              		.syntax unified
 214              		.thumb
 215              		.thumb_func
 216              		.fpu softvfp
 217              		.type	USBD_USR_DeviceDisconnected, %function
 218              	USBD_USR_DeviceDisconnected:
 219              	.LFB124:
 220              		.cfi_startproc
 221              		@ args = 0, pretend = 0, frame = 0
 222              		@ frame_needed = 0, uses_anonymous_args = 0
 223              		@ link register save eliminated.
 224 003c 014B     		ldr	r3, .L17	@ tmp110,
 225 003e 0222     		movs	r2, #2	@ tmp111,
 226 0040 1A70     		strb	r2, [r3]	@ tmp111, TM_USB_HIDDEVICE_INT_Status
 227 0042 7047     		bx	lr	@
 228              	.L18:
 229              		.align	2
 230              	.L17:
 231 0044 00000000 		.word	.LANCHOR0
 232              		.cfi_endproc
 233              	.LFE124:
 234              		.size	USBD_USR_DeviceDisconnected, .-USBD_USR_DeviceDisconnected
 235              		.align	1
 236              		.global	USBD_USR_DeviceSuspended
 237              		.syntax unified
 238              		.thumb
 239              		.thumb_func
 240              		.fpu softvfp
 241              		.type	USBD_USR_DeviceSuspended, %function
 242              	USBD_USR_DeviceSuspended:
 243              	.LFB118:
 244              		.cfi_startproc
 245              		@ args = 0, pretend = 0, frame = 0
 246              		@ frame_needed = 0, uses_anonymous_args = 0
 247              		@ link register save eliminated.
 248 0048 014B     		ldr	r3, .L20	@ tmp110,
 249 004a 0222     		movs	r2, #2	@ tmp111,
 250 004c 1A70     		strb	r2, [r3]	@ tmp111, TM_USB_HIDDEVICE_INT_Status
 251 004e 7047     		bx	lr	@
 252              	.L21:
 253              		.align	2
 254              	.L20:
 255 0050 00000000 		.word	.LANCHOR0
 256              		.cfi_endproc
 257              	.LFE118:
 258              		.size	USBD_USR_DeviceSuspended, .-USBD_USR_DeviceSuspended
 259              		.global	TM_USB_HIDDEVICE_INT_Status
 260              		.comm	USB_OTG_dev,1524,4
 261              		.global	USR_cb
 262              		.data
 263              		.align	2
 264              		.type	USR_cb, %object
 265              		.size	USR_cb, 28
 266              	USR_cb:
ARM GAS  /tmp/cc1VhB6Y.s 			page 7


 267              	@ Init:
 268 0000 00000000 		.word	USBD_USR_Init
 269              	@ DeviceReset:
 270 0004 00000000 		.word	USBD_USR_DeviceReset
 271              	@ DeviceConfigured:
 272 0008 00000000 		.word	USBD_USR_DeviceConfigured
 273              	@ DeviceSuspended:
 274 000c 00000000 		.word	USBD_USR_DeviceSuspended
 275              	@ DeviceResumed:
 276 0010 00000000 		.word	USBD_USR_DeviceResumed
 277              	@ DeviceConnected:
 278 0014 00000000 		.word	USBD_USR_DeviceConnected
 279              	@ DeviceDisconnected:
 280 0018 00000000 		.word	USBD_USR_DeviceDisconnected
 281              		.bss
 282              		.set	.LANCHOR0,. + 0
 283              		.type	TM_USB_HIDDEVICE_INT_Status, %object
 284              		.size	TM_USB_HIDDEVICE_INT_Status, 1
 285              	TM_USB_HIDDEVICE_INT_Status:
 286 0000 00       		.space	1
 287              		.text
 288              	.Letext0:
 289              		.file 2 "/home/sticky/opt/gcc-arm-none-eabi-7-2017-q4-major/arm-none-eabi/include/machine/_default
 290              		.file 3 "/home/sticky/opt/gcc-arm-none-eabi-7-2017-q4-major/arm-none-eabi/include/sys/_stdint.h"
 291              		.file 4 "./inc/CMSIS/core_cm4.h"
 292              		.file 5 "./inc/system_stm32f4xx.h"
 293              		.file 6 "inc/user_libs/usb_regs.h"
 294              		.file 7 "inc/user_libs/usb_core.h"
 295              		.file 8 "inc/user_libs/usbd_usr.h"
 296              		.file 9 "inc/user_libs/usbd_hid_core.h"
 297              		.file 10 "inc/user_libs/usbd_desc.h"
 298              		.file 11 "inc/user_libs/tm_stm32f4_usb_hid_device.h"