ARM GAS  /tmp/ccDi7Mwx.s 			page 1


   1              		.cpu cortex-m4
   2              		.eabi_attribute 20, 1	@ Tag_ABI_FP_denormal
   3              		.eabi_attribute 21, 1	@ Tag_ABI_FP_exceptions
   4              		.eabi_attribute 23, 3	@ Tag_ABI_FP_number_model
   5              		.eabi_attribute 24, 1	@ Tag_ABI_align8_needed
   6              		.eabi_attribute 25, 1	@ Tag_ABI_align8_preserved
   7              		.eabi_attribute 26, 1	@ Tag_ABI_enum_size
   8              		.eabi_attribute 30, 4	@ Tag_ABI_optimization_goals
   9              		.eabi_attribute 34, 1	@ Tag_CPU_unaligned_access
  10              		.eabi_attribute 18, 4	@ Tag_ABI_PCS_wchar_t
  11              		.file	"usbd_desc.c"
  12              	@ GNU C11 (GNU Tools for Arm Embedded Processors 7-2017-q4-major) version 7.2.1 20170904 (release) 
  13              	@	compiled by GNU C version 4.8.4, GMP version 6.1.0, MPFR version 3.1.4, MPC version 1.0.3, isl ve
  14              	
  15              	@ GGC heuristics: --param ggc-min-expand=100 --param ggc-min-heapsize=131072
  16              	@ options passed:  -I . -I ./inc -I ./inc/CMSIS
  17              	@ -I STM32F4xx_StdPeriph_Driver/inc -I ./inc/user_libs
  18              	@ -imultilib thumb/v7e-m
  19              	@ -iprefix /home/sticky/opt/gcc-arm-none-eabi-7-2017-q4-major/bin/../lib/gcc/arm-none-eabi/7.2.1/
  20              	@ -isysroot /home/sticky/opt/gcc-arm-none-eabi-7-2017-q4-major/bin/../arm-none-eabi
  21              	@ -D__USES_INITFINI__ -D STM32F40XX -D USE_STDPERIPH_DRIVER
  22              	@ -D RUN_FROM_FLASH=1 inc/user_libs/usbd_desc.c -mcpu=cortex-m4 -mthumb
  23              	@ -auxbase-strip inc/user_libs/usbd_desc.o -g -gdwarf-2 -Os -Wall
  24              	@ -Wstrict-prototypes -fomit-frame-pointer -fverbose-asm
  25              	@ options enabled:  -faggressive-loop-optimizations -falign-jumps
  26              	@ -falign-labels -falign-loops -fauto-inc-dec -fbranch-count-reg
  27              	@ -fcaller-saves -fchkp-check-incomplete-type -fchkp-check-read
  28              	@ -fchkp-check-write -fchkp-instrument-calls -fchkp-narrow-bounds
  29              	@ -fchkp-optimize -fchkp-store-bounds -fchkp-use-static-bounds
  30              	@ -fchkp-use-static-const-bounds -fchkp-use-wrappers -fcode-hoisting
  31              	@ -fcombine-stack-adjustments -fcommon -fcompare-elim -fcprop-registers
  32              	@ -fcrossjumping -fcse-follow-jumps -fdefer-pop
  33              	@ -fdelete-null-pointer-checks -fdevirtualize -fdevirtualize-speculatively
  34              	@ -fdwarf2-cfi-asm -fearly-inlining -feliminate-unused-debug-types
  35              	@ -fexpensive-optimizations -fforward-propagate -ffp-int-builtin-inexact
  36              	@ -ffunction-cse -fgcse -fgcse-lm -fgnu-runtime -fgnu-unique
  37              	@ -fguess-branch-probability -fhoist-adjacent-loads -fident -fif-conversion
  38              	@ -fif-conversion2 -findirect-inlining -finline -finline-atomics
  39              	@ -finline-functions -finline-functions-called-once
  40              	@ -finline-small-functions -fipa-bit-cp -fipa-cp -fipa-icf
  41              	@ -fipa-icf-functions -fipa-icf-variables -fipa-profile -fipa-pure-const
  42              	@ -fipa-ra -fipa-reference -fipa-sra -fipa-vrp -fira-hoist-pressure
  43              	@ -fira-share-save-slots -fira-share-spill-slots
  44              	@ -fisolate-erroneous-paths-dereference -fivopts -fkeep-static-consts
  45              	@ -fleading-underscore -flifetime-dse -flra-remat -flto-odr-type-merging
  46              	@ -fmath-errno -fmerge-constants -fmerge-debug-strings
  47              	@ -fmove-loop-invariants -fomit-frame-pointer -foptimize-sibling-calls
  48              	@ -fpartial-inlining -fpeephole -fpeephole2 -fplt -fprefetch-loop-arrays
  49              	@ -freg-struct-return -freorder-blocks -freorder-functions
  50              	@ -frerun-cse-after-loop -fsched-critical-path-heuristic
  51              	@ -fsched-dep-count-heuristic -fsched-group-heuristic -fsched-interblock
  52              	@ -fsched-last-insn-heuristic -fsched-pressure -fsched-rank-heuristic
  53              	@ -fsched-spec -fsched-spec-insn-heuristic -fsched-stalled-insns-dep
  54              	@ -fschedule-insns2 -fsection-anchors -fsemantic-interposition
  55              	@ -fshow-column -fshrink-wrap-separate -fsigned-zeros
  56              	@ -fsplit-ivs-in-unroller -fsplit-wide-types -fssa-backprop -fssa-phiopt
  57              	@ -fstdarg-opt -fstore-merging -fstrict-aliasing -fstrict-overflow
ARM GAS  /tmp/ccDi7Mwx.s 			page 2


  58              	@ -fstrict-volatile-bitfields -fsync-libcalls -fthread-jumps
  59              	@ -ftoplevel-reorder -ftrapping-math -ftree-bit-ccp -ftree-builtin-call-dce
  60              	@ -ftree-ccp -ftree-ch -ftree-coalesce-vars -ftree-copy-prop -ftree-cselim
  61              	@ -ftree-dce -ftree-dominator-opts -ftree-dse -ftree-forwprop -ftree-fre
  62              	@ -ftree-loop-if-convert -ftree-loop-im -ftree-loop-ivcanon
  63              	@ -ftree-loop-optimize -ftree-parallelize-loops= -ftree-phiprop -ftree-pre
  64              	@ -ftree-pta -ftree-reassoc -ftree-scev-cprop -ftree-sink -ftree-slsr
  65              	@ -ftree-sra -ftree-switch-conversion -ftree-tail-merge -ftree-ter
  66              	@ -ftree-vrp -funit-at-a-time -fvar-tracking -fvar-tracking-assignments
  67              	@ -fverbose-asm -fzero-initialized-in-bss -masm-syntax-unified
  68              	@ -mlittle-endian -mpic-data-is-text-relative -msched-prolog -mthumb
  69              	@ -munaligned-access -mvectorize-with-neon-quad
  70              	
  71              		.text
  72              	.Ltext0:
  73              		.cfi_sections	.debug_frame
  74              		.align	1
  75              		.global	USBD_USR_DeviceDescriptor
  76              		.syntax unified
  77              		.thumb
  78              		.thumb_func
  79              		.fpu softvfp
  80              		.type	USBD_USR_DeviceDescriptor, %function
  81              	USBD_USR_DeviceDescriptor:
  82              	.LFB110:
  83              		.file 1 "inc/user_libs/usbd_desc.c"
   1:inc/user_libs/usbd_desc.c **** /**
   2:inc/user_libs/usbd_desc.c ****   ******************************************************************************
   3:inc/user_libs/usbd_desc.c ****   * @file    usbd_desc.c
   4:inc/user_libs/usbd_desc.c ****   * @author  MCD Application Team
   5:inc/user_libs/usbd_desc.c ****   * @version V1.1.0
   6:inc/user_libs/usbd_desc.c ****   * @date    19-March-2012
   7:inc/user_libs/usbd_desc.c ****   * @brief   This file provides the USBD descriptors and string formating method.
   8:inc/user_libs/usbd_desc.c ****   ******************************************************************************
   9:inc/user_libs/usbd_desc.c ****   * @attention
  10:inc/user_libs/usbd_desc.c ****   *
  11:inc/user_libs/usbd_desc.c ****   * <h2><center>&copy; COPYRIGHT 2012 STMicroelectronics</center></h2>
  12:inc/user_libs/usbd_desc.c ****   *
  13:inc/user_libs/usbd_desc.c ****   * Licensed under MCD-ST Liberty SW License Agreement V2, (the "License");
  14:inc/user_libs/usbd_desc.c ****   * You may not use this file except in compliance with the License.
  15:inc/user_libs/usbd_desc.c ****   * You may obtain a copy of the License at:
  16:inc/user_libs/usbd_desc.c ****   *
  17:inc/user_libs/usbd_desc.c ****   *        http://www.st.com/software_license_agreement_liberty_v2
  18:inc/user_libs/usbd_desc.c ****   *
  19:inc/user_libs/usbd_desc.c ****   * Unless required by applicable law or agreed to in writing, software 
  20:inc/user_libs/usbd_desc.c ****   * distributed under the License is distributed on an "AS IS" BASIS, 
  21:inc/user_libs/usbd_desc.c ****   * WITHOUT WARRANTIES OR CONDITIONS OF ANY KIND, either express or implied.
  22:inc/user_libs/usbd_desc.c ****   * See the License for the specific language governing permissions and
  23:inc/user_libs/usbd_desc.c ****   * limitations under the License.
  24:inc/user_libs/usbd_desc.c ****   *
  25:inc/user_libs/usbd_desc.c ****   ******************************************************************************
  26:inc/user_libs/usbd_desc.c ****   */ 
  27:inc/user_libs/usbd_desc.c **** 
  28:inc/user_libs/usbd_desc.c **** /* Includes ------------------------------------------------------------------*/
  29:inc/user_libs/usbd_desc.c **** #include "usbd_core.h"
  30:inc/user_libs/usbd_desc.c **** #include "usbd_desc.h"
  31:inc/user_libs/usbd_desc.c **** #include "usbd_req.h"
ARM GAS  /tmp/ccDi7Mwx.s 			page 3


  32:inc/user_libs/usbd_desc.c **** #include "usbd_conf.h"
  33:inc/user_libs/usbd_desc.c **** #include "usb_regs.h"
  34:inc/user_libs/usbd_desc.c **** 
  35:inc/user_libs/usbd_desc.c **** /** @addtogroup STM32_USB_OTG_DEVICE_LIBRARY
  36:inc/user_libs/usbd_desc.c ****   * @{
  37:inc/user_libs/usbd_desc.c ****   */
  38:inc/user_libs/usbd_desc.c **** 
  39:inc/user_libs/usbd_desc.c **** 
  40:inc/user_libs/usbd_desc.c **** /** @defgroup USBD_DESC 
  41:inc/user_libs/usbd_desc.c ****   * @brief USBD descriptors module
  42:inc/user_libs/usbd_desc.c ****   * @{
  43:inc/user_libs/usbd_desc.c ****   */ 
  44:inc/user_libs/usbd_desc.c **** 
  45:inc/user_libs/usbd_desc.c **** /** @defgroup USBD_DESC_Private_TypesDefinitions
  46:inc/user_libs/usbd_desc.c ****   * @{
  47:inc/user_libs/usbd_desc.c ****   */ 
  48:inc/user_libs/usbd_desc.c **** /**
  49:inc/user_libs/usbd_desc.c ****   * @}
  50:inc/user_libs/usbd_desc.c ****   */ 
  51:inc/user_libs/usbd_desc.c **** 
  52:inc/user_libs/usbd_desc.c **** 
  53:inc/user_libs/usbd_desc.c **** /** @defgroup USBD_DESC_Private_Defines
  54:inc/user_libs/usbd_desc.c ****   * @{
  55:inc/user_libs/usbd_desc.c ****   */ 
  56:inc/user_libs/usbd_desc.c **** 
  57:inc/user_libs/usbd_desc.c **** #define USBD_VID                     	0x0483
  58:inc/user_libs/usbd_desc.c **** #define USBD_PID                     	0x5710
  59:inc/user_libs/usbd_desc.c **** 
  60:inc/user_libs/usbd_desc.c **** #define USBD_LANGID_STRING            	0x409
  61:inc/user_libs/usbd_desc.c **** #define USBD_MANUFACTURER_STRING      	"STicroelectronics"
  62:inc/user_libs/usbd_desc.c **** 
  63:inc/user_libs/usbd_desc.c **** #define USBD_PRODUCT_HS_STRING        	"TM USB HID device in HS mode"
  64:inc/user_libs/usbd_desc.c **** #define USBD_SERIALNUMBER_HS_STRING   	"00000000011B"
  65:inc/user_libs/usbd_desc.c **** 
  66:inc/user_libs/usbd_desc.c **** #define USBD_PRODUCT_FS_STRING        	"TM USB HID device in FS mode"
  67:inc/user_libs/usbd_desc.c **** #define USBD_SERIALNUMBER_FS_STRING   	"00000000011C"
  68:inc/user_libs/usbd_desc.c **** 
  69:inc/user_libs/usbd_desc.c **** #define USBD_CONFIGURATION_HS_STRING  	"HID Config"
  70:inc/user_libs/usbd_desc.c **** #define USBD_INTERFACE_HS_STRING      	"HID Interface"
  71:inc/user_libs/usbd_desc.c **** 
  72:inc/user_libs/usbd_desc.c **** #define USBD_CONFIGURATION_FS_STRING  	"HID Config"
  73:inc/user_libs/usbd_desc.c **** #define USBD_INTERFACE_FS_STRING      	"HID Interface"
  74:inc/user_libs/usbd_desc.c **** /**
  75:inc/user_libs/usbd_desc.c ****   * @}
  76:inc/user_libs/usbd_desc.c ****   */ 
  77:inc/user_libs/usbd_desc.c **** 
  78:inc/user_libs/usbd_desc.c **** 
  79:inc/user_libs/usbd_desc.c **** /** @defgroup USBD_DESC_Private_Macros
  80:inc/user_libs/usbd_desc.c ****   * @{
  81:inc/user_libs/usbd_desc.c ****   */ 
  82:inc/user_libs/usbd_desc.c **** /**
  83:inc/user_libs/usbd_desc.c ****   * @}
  84:inc/user_libs/usbd_desc.c ****   */ 
  85:inc/user_libs/usbd_desc.c **** 
  86:inc/user_libs/usbd_desc.c **** 
  87:inc/user_libs/usbd_desc.c **** /** @defgroup USBD_DESC_Private_Variables
  88:inc/user_libs/usbd_desc.c ****   * @{
ARM GAS  /tmp/ccDi7Mwx.s 			page 4


  89:inc/user_libs/usbd_desc.c ****   */ 
  90:inc/user_libs/usbd_desc.c **** 
  91:inc/user_libs/usbd_desc.c **** USBD_DEVICE USR_desc =
  92:inc/user_libs/usbd_desc.c **** {
  93:inc/user_libs/usbd_desc.c ****   USBD_USR_DeviceDescriptor,
  94:inc/user_libs/usbd_desc.c ****   USBD_USR_LangIDStrDescriptor, 
  95:inc/user_libs/usbd_desc.c ****   USBD_USR_ManufacturerStrDescriptor,
  96:inc/user_libs/usbd_desc.c ****   USBD_USR_ProductStrDescriptor,
  97:inc/user_libs/usbd_desc.c ****   USBD_USR_SerialStrDescriptor,
  98:inc/user_libs/usbd_desc.c ****   USBD_USR_ConfigStrDescriptor,
  99:inc/user_libs/usbd_desc.c ****   USBD_USR_InterfaceStrDescriptor,
 100:inc/user_libs/usbd_desc.c ****   
 101:inc/user_libs/usbd_desc.c **** };
 102:inc/user_libs/usbd_desc.c **** 
 103:inc/user_libs/usbd_desc.c **** #ifdef USB_OTG_HS_INTERNAL_DMA_ENABLED
 104:inc/user_libs/usbd_desc.c ****   #if defined ( __ICCARM__ ) /*!< IAR Compiler */
 105:inc/user_libs/usbd_desc.c ****     #pragma data_alignment=4   
 106:inc/user_libs/usbd_desc.c ****   #endif
 107:inc/user_libs/usbd_desc.c **** #endif /* USB_OTG_HS_INTERNAL_DMA_ENABLED */
 108:inc/user_libs/usbd_desc.c **** /* USB Standard Device Descriptor */
 109:inc/user_libs/usbd_desc.c **** __ALIGN_BEGIN uint8_t USBD_DeviceDesc[USB_SIZ_DEVICE_DESC] __ALIGN_END =
 110:inc/user_libs/usbd_desc.c ****   {
 111:inc/user_libs/usbd_desc.c ****     0x12,                       /*bLength */
 112:inc/user_libs/usbd_desc.c ****     USB_DEVICE_DESCRIPTOR_TYPE, /*bDescriptorType*/
 113:inc/user_libs/usbd_desc.c ****     0x00,                       /*bcdUSB */
 114:inc/user_libs/usbd_desc.c ****     0x02,
 115:inc/user_libs/usbd_desc.c ****     0x00,                       /*bDeviceClass*/
 116:inc/user_libs/usbd_desc.c ****     0x00,                       /*bDeviceSubClass*/
 117:inc/user_libs/usbd_desc.c ****     0x00,                       /*bDeviceProtocol*/
 118:inc/user_libs/usbd_desc.c ****     USB_OTG_MAX_EP0_SIZE,      /*bMaxPacketSize*/
 119:inc/user_libs/usbd_desc.c ****     LOBYTE(USBD_VID),           /*idVendor*/
 120:inc/user_libs/usbd_desc.c ****     HIBYTE(USBD_VID),           /*idVendor*/
 121:inc/user_libs/usbd_desc.c ****     LOBYTE(USBD_PID),           /*idVendor*/
 122:inc/user_libs/usbd_desc.c ****     HIBYTE(USBD_PID),           /*idVendor*/
 123:inc/user_libs/usbd_desc.c ****     0x00,                       /*bcdDevice rel. 2.00*/
 124:inc/user_libs/usbd_desc.c ****     0x02,
 125:inc/user_libs/usbd_desc.c ****     USBD_IDX_MFC_STR,           /*Index of manufacturer  string*/
 126:inc/user_libs/usbd_desc.c ****     USBD_IDX_PRODUCT_STR,       /*Index of product string*/
 127:inc/user_libs/usbd_desc.c ****     USBD_IDX_SERIAL_STR,        /*Index of serial number string*/
 128:inc/user_libs/usbd_desc.c ****     USBD_CFG_MAX_NUM            /*bNumConfigurations*/
 129:inc/user_libs/usbd_desc.c ****   } ; /* USB_DeviceDescriptor */
 130:inc/user_libs/usbd_desc.c **** 
 131:inc/user_libs/usbd_desc.c **** #ifdef USB_OTG_HS_INTERNAL_DMA_ENABLED
 132:inc/user_libs/usbd_desc.c ****   #if defined ( __ICCARM__ ) /*!< IAR Compiler */
 133:inc/user_libs/usbd_desc.c ****     #pragma data_alignment=4   
 134:inc/user_libs/usbd_desc.c ****   #endif
 135:inc/user_libs/usbd_desc.c **** #endif /* USB_OTG_HS_INTERNAL_DMA_ENABLED */
 136:inc/user_libs/usbd_desc.c **** /* USB Standard Device Descriptor */
 137:inc/user_libs/usbd_desc.c **** __ALIGN_BEGIN uint8_t USBD_DeviceQualifierDesc[USB_LEN_DEV_QUALIFIER_DESC] __ALIGN_END =
 138:inc/user_libs/usbd_desc.c **** {
 139:inc/user_libs/usbd_desc.c ****   USB_LEN_DEV_QUALIFIER_DESC,
 140:inc/user_libs/usbd_desc.c ****   USB_DESC_TYPE_DEVICE_QUALIFIER,
 141:inc/user_libs/usbd_desc.c ****   0x00,
 142:inc/user_libs/usbd_desc.c ****   0x02,
 143:inc/user_libs/usbd_desc.c ****   0x00,
 144:inc/user_libs/usbd_desc.c ****   0x00,
 145:inc/user_libs/usbd_desc.c ****   0x00,
ARM GAS  /tmp/ccDi7Mwx.s 			page 5


 146:inc/user_libs/usbd_desc.c ****   0x40,
 147:inc/user_libs/usbd_desc.c ****   0x01,
 148:inc/user_libs/usbd_desc.c ****   0x00,
 149:inc/user_libs/usbd_desc.c **** };
 150:inc/user_libs/usbd_desc.c **** 
 151:inc/user_libs/usbd_desc.c **** #ifdef USB_OTG_HS_INTERNAL_DMA_ENABLED
 152:inc/user_libs/usbd_desc.c ****   #if defined ( __ICCARM__ ) /*!< IAR Compiler */
 153:inc/user_libs/usbd_desc.c ****     #pragma data_alignment=4   
 154:inc/user_libs/usbd_desc.c ****   #endif
 155:inc/user_libs/usbd_desc.c **** #endif /* USB_OTG_HS_INTERNAL_DMA_ENABLED */
 156:inc/user_libs/usbd_desc.c **** /* USB Standard Device Descriptor */
 157:inc/user_libs/usbd_desc.c **** __ALIGN_BEGIN uint8_t USBD_LangIDDesc[USB_SIZ_STRING_LANGID] __ALIGN_END =
 158:inc/user_libs/usbd_desc.c **** {
 159:inc/user_libs/usbd_desc.c ****      USB_SIZ_STRING_LANGID,         
 160:inc/user_libs/usbd_desc.c ****      USB_DESC_TYPE_STRING,       
 161:inc/user_libs/usbd_desc.c ****      LOBYTE(USBD_LANGID_STRING),
 162:inc/user_libs/usbd_desc.c ****      HIBYTE(USBD_LANGID_STRING), 
 163:inc/user_libs/usbd_desc.c **** };
 164:inc/user_libs/usbd_desc.c **** /**
 165:inc/user_libs/usbd_desc.c ****   * @}
 166:inc/user_libs/usbd_desc.c ****   */ 
 167:inc/user_libs/usbd_desc.c **** 
 168:inc/user_libs/usbd_desc.c **** 
 169:inc/user_libs/usbd_desc.c **** /** @defgroup USBD_DESC_Private_FunctionPrototypes
 170:inc/user_libs/usbd_desc.c ****   * @{
 171:inc/user_libs/usbd_desc.c ****   */ 
 172:inc/user_libs/usbd_desc.c **** /**
 173:inc/user_libs/usbd_desc.c ****   * @}
 174:inc/user_libs/usbd_desc.c ****   */ 
 175:inc/user_libs/usbd_desc.c **** 
 176:inc/user_libs/usbd_desc.c **** 
 177:inc/user_libs/usbd_desc.c **** /** @defgroup USBD_DESC_Private_Functions
 178:inc/user_libs/usbd_desc.c ****   * @{
 179:inc/user_libs/usbd_desc.c ****   */ 
 180:inc/user_libs/usbd_desc.c **** 
 181:inc/user_libs/usbd_desc.c **** /**
 182:inc/user_libs/usbd_desc.c **** * @brief  USBD_USR_DeviceDescriptor 
 183:inc/user_libs/usbd_desc.c **** *         return the device descriptor
 184:inc/user_libs/usbd_desc.c **** * @param  speed : current device speed
 185:inc/user_libs/usbd_desc.c **** * @param  length : pointer to data length variable
 186:inc/user_libs/usbd_desc.c **** * @retval pointer to descriptor buffer
 187:inc/user_libs/usbd_desc.c **** */
 188:inc/user_libs/usbd_desc.c **** uint8_t *  USBD_USR_DeviceDescriptor( uint8_t speed , uint16_t *length)
 189:inc/user_libs/usbd_desc.c **** {
  84              		.loc 1 189 0
  85              		.cfi_startproc
  86              		@ args = 0, pretend = 0, frame = 0
  87              		@ frame_needed = 0, uses_anonymous_args = 0
  88              		@ link register save eliminated.
  89              	.LVL0:
  90              	@ inc/user_libs/usbd_desc.c:190:   *length = sizeof(USBD_DeviceDesc);
 190:inc/user_libs/usbd_desc.c ****   *length = sizeof(USBD_DeviceDesc);
  91              		.loc 1 190 0
  92 0000 1223     		movs	r3, #18	@ tmp114,
  93 0002 0B80     		strh	r3, [r1]	@ movhi	@ tmp114, *length_2(D)
  94              	@ inc/user_libs/usbd_desc.c:192: }
 191:inc/user_libs/usbd_desc.c ****   return USBD_DeviceDesc;
ARM GAS  /tmp/ccDi7Mwx.s 			page 6


 192:inc/user_libs/usbd_desc.c **** }
  95              		.loc 1 192 0
  96 0004 0048     		ldr	r0, .L2	@,
  97              	.LVL1:
  98 0006 7047     		bx	lr	@
  99              	.L3:
 100              		.align	2
 101              	.L2:
 102 0008 00000000 		.word	.LANCHOR0
 103              		.cfi_endproc
 104              	.LFE110:
 105              		.size	USBD_USR_DeviceDescriptor, .-USBD_USR_DeviceDescriptor
 106              		.align	1
 107              		.global	USBD_USR_LangIDStrDescriptor
 108              		.syntax unified
 109              		.thumb
 110              		.thumb_func
 111              		.fpu softvfp
 112              		.type	USBD_USR_LangIDStrDescriptor, %function
 113              	USBD_USR_LangIDStrDescriptor:
 114              	.LFB111:
 193:inc/user_libs/usbd_desc.c **** 
 194:inc/user_libs/usbd_desc.c **** /**
 195:inc/user_libs/usbd_desc.c **** * @brief  USBD_USR_LangIDStrDescriptor 
 196:inc/user_libs/usbd_desc.c **** *         return the LangID string descriptor
 197:inc/user_libs/usbd_desc.c **** * @param  speed : current device speed
 198:inc/user_libs/usbd_desc.c **** * @param  length : pointer to data length variable
 199:inc/user_libs/usbd_desc.c **** * @retval pointer to descriptor buffer
 200:inc/user_libs/usbd_desc.c **** */
 201:inc/user_libs/usbd_desc.c **** uint8_t *  USBD_USR_LangIDStrDescriptor( uint8_t speed , uint16_t *length)
 202:inc/user_libs/usbd_desc.c **** {
 115              		.loc 1 202 0
 116              		.cfi_startproc
 117              		@ args = 0, pretend = 0, frame = 0
 118              		@ frame_needed = 0, uses_anonymous_args = 0
 119              		@ link register save eliminated.
 120              	.LVL2:
 121              	@ inc/user_libs/usbd_desc.c:203:   *length =  sizeof(USBD_LangIDDesc);  
 203:inc/user_libs/usbd_desc.c ****   *length =  sizeof(USBD_LangIDDesc);  
 122              		.loc 1 203 0
 123 000c 0423     		movs	r3, #4	@ tmp114,
 124 000e 0B80     		strh	r3, [r1]	@ movhi	@ tmp114, *length_2(D)
 125              	@ inc/user_libs/usbd_desc.c:205: }
 204:inc/user_libs/usbd_desc.c ****   return USBD_LangIDDesc;
 205:inc/user_libs/usbd_desc.c **** }
 126              		.loc 1 205 0
 127 0010 0048     		ldr	r0, .L5	@,
 128              	.LVL3:
 129 0012 7047     		bx	lr	@
 130              	.L6:
 131              		.align	2
 132              	.L5:
 133 0014 12000000 		.word	.LANCHOR0+18
 134              		.cfi_endproc
 135              	.LFE111:
 136              		.size	USBD_USR_LangIDStrDescriptor, .-USBD_USR_LangIDStrDescriptor
 137              		.align	1
ARM GAS  /tmp/ccDi7Mwx.s 			page 7


 138              		.global	USBD_USR_ManufacturerStrDescriptor
 139              		.syntax unified
 140              		.thumb
 141              		.thumb_func
 142              		.fpu softvfp
 143              		.type	USBD_USR_ManufacturerStrDescriptor, %function
 144              	USBD_USR_ManufacturerStrDescriptor:
 145              	.LFB113:
 206:inc/user_libs/usbd_desc.c **** 
 207:inc/user_libs/usbd_desc.c **** 
 208:inc/user_libs/usbd_desc.c **** /**
 209:inc/user_libs/usbd_desc.c **** * @brief  USBD_USR_ProductStrDescriptor 
 210:inc/user_libs/usbd_desc.c **** *         return the product string descriptor
 211:inc/user_libs/usbd_desc.c **** * @param  speed : current device speed
 212:inc/user_libs/usbd_desc.c **** * @param  length : pointer to data length variable
 213:inc/user_libs/usbd_desc.c **** * @retval pointer to descriptor buffer
 214:inc/user_libs/usbd_desc.c **** */
 215:inc/user_libs/usbd_desc.c **** uint8_t *  USBD_USR_ProductStrDescriptor( uint8_t speed , uint16_t *length)
 216:inc/user_libs/usbd_desc.c **** {
 217:inc/user_libs/usbd_desc.c ****  
 218:inc/user_libs/usbd_desc.c ****   
 219:inc/user_libs/usbd_desc.c ****   if(speed == 0)
 220:inc/user_libs/usbd_desc.c ****   {   
 221:inc/user_libs/usbd_desc.c ****     USBD_GetString (USBD_PRODUCT_HS_STRING, USBD_StrDesc, length);
 222:inc/user_libs/usbd_desc.c ****   }
 223:inc/user_libs/usbd_desc.c ****   else
 224:inc/user_libs/usbd_desc.c ****   {
 225:inc/user_libs/usbd_desc.c ****     USBD_GetString (USBD_PRODUCT_FS_STRING, USBD_StrDesc, length);    
 226:inc/user_libs/usbd_desc.c ****   }
 227:inc/user_libs/usbd_desc.c ****   return USBD_StrDesc;
 228:inc/user_libs/usbd_desc.c **** }
 229:inc/user_libs/usbd_desc.c **** 
 230:inc/user_libs/usbd_desc.c **** /**
 231:inc/user_libs/usbd_desc.c **** * @brief  USBD_USR_ManufacturerStrDescriptor 
 232:inc/user_libs/usbd_desc.c **** *         return the manufacturer string descriptor
 233:inc/user_libs/usbd_desc.c **** * @param  speed : current device speed
 234:inc/user_libs/usbd_desc.c **** * @param  length : pointer to data length variable
 235:inc/user_libs/usbd_desc.c **** * @retval pointer to descriptor buffer
 236:inc/user_libs/usbd_desc.c **** */
 237:inc/user_libs/usbd_desc.c **** uint8_t *  USBD_USR_ManufacturerStrDescriptor( uint8_t speed , uint16_t *length)
 238:inc/user_libs/usbd_desc.c **** {
 146              		.loc 1 238 0
 147              		.cfi_startproc
 148              		@ args = 0, pretend = 0, frame = 0
 149              		@ frame_needed = 0, uses_anonymous_args = 0
 150              	.LVL4:
 151 0018 10B5     		push	{r4, lr}	@
 152              	.LCFI0:
 153              		.cfi_def_cfa_offset 8
 154              		.cfi_offset 4, -8
 155              		.cfi_offset 14, -4
 156              	@ inc/user_libs/usbd_desc.c:239:   USBD_GetString (USBD_MANUFACTURER_STRING, USBD_StrDesc, length);
 239:inc/user_libs/usbd_desc.c ****   USBD_GetString (USBD_MANUFACTURER_STRING, USBD_StrDesc, length);
 157              		.loc 1 239 0
 158 001a 044C     		ldr	r4, .L8	@ tmp113,
 159 001c 0448     		ldr	r0, .L8+4	@,
 160              	.LVL5:
ARM GAS  /tmp/ccDi7Mwx.s 			page 8


 161 001e 0A46     		mov	r2, r1	@, length
 162 0020 2146     		mov	r1, r4	@, tmp113
 163              	.LVL6:
 164 0022 FFF7FEFF 		bl	USBD_GetString	@
 165              	.LVL7:
 166              	@ inc/user_libs/usbd_desc.c:241: }
 240:inc/user_libs/usbd_desc.c ****   return USBD_StrDesc;
 241:inc/user_libs/usbd_desc.c **** }
 167              		.loc 1 241 0
 168 0026 2046     		mov	r0, r4	@, tmp113
 169 0028 10BD     		pop	{r4, pc}	@
 170              	.L9:
 171 002a 00BF     		.align	2
 172              	.L8:
 173 002c 00000000 		.word	USBD_StrDesc
 174 0030 00000000 		.word	.LC0
 175              		.cfi_endproc
 176              	.LFE113:
 177              		.size	USBD_USR_ManufacturerStrDescriptor, .-USBD_USR_ManufacturerStrDescriptor
 178              		.align	1
 179              		.global	USBD_USR_ProductStrDescriptor
 180              		.syntax unified
 181              		.thumb
 182              		.thumb_func
 183              		.fpu softvfp
 184              		.type	USBD_USR_ProductStrDescriptor, %function
 185              	USBD_USR_ProductStrDescriptor:
 186              	.LFB112:
 216:inc/user_libs/usbd_desc.c ****  
 187              		.loc 1 216 0
 188              		.cfi_startproc
 189              		@ args = 0, pretend = 0, frame = 0
 190              		@ frame_needed = 0, uses_anonymous_args = 0
 191              	.LVL8:
 192 0034 0A46     		mov	r2, r1	@ length, length
 193 0036 08B5     		push	{r3, lr}	@
 194              	.LCFI1:
 195              		.cfi_def_cfa_offset 8
 196              		.cfi_offset 3, -8
 197              		.cfi_offset 14, -4
 198              	.LBB4:
 199              	.LBB5:
 200              	@ inc/user_libs/usbd_desc.c:221:     USBD_GetString (USBD_PRODUCT_HS_STRING, USBD_StrDesc, length);
 221:inc/user_libs/usbd_desc.c ****   }
 201              		.loc 1 221 0
 202 0038 0449     		ldr	r1, .L14	@,
 203              	.LVL9:
 204              	.LBE5:
 205              	.LBE4:
 206              	@ inc/user_libs/usbd_desc.c:219:   if(speed == 0)
 219:inc/user_libs/usbd_desc.c ****   {   
 207              		.loc 1 219 0
 208 003a 20B9     		cbnz	r0, .L11	@ speed,
 209              	.LVL10:
 210              	.LBB7:
 211              	.LBB6:
 212              	@ inc/user_libs/usbd_desc.c:221:     USBD_GetString (USBD_PRODUCT_HS_STRING, USBD_StrDesc, length);
ARM GAS  /tmp/ccDi7Mwx.s 			page 9


 221:inc/user_libs/usbd_desc.c ****   }
 213              		.loc 1 221 0
 214 003c 0448     		ldr	r0, .L14+4	@,
 215              	.LVL11:
 216              	.L13:
 217              	.LBE6:
 218              	.LBE7:
 219              	@ inc/user_libs/usbd_desc.c:225:     USBD_GetString (USBD_PRODUCT_FS_STRING, USBD_StrDesc, length);
 225:inc/user_libs/usbd_desc.c ****   }
 220              		.loc 1 225 0
 221 003e FFF7FEFF 		bl	USBD_GetString	@
 222              	.LVL12:
 223              	@ inc/user_libs/usbd_desc.c:228: }
 228:inc/user_libs/usbd_desc.c **** 
 224              		.loc 1 228 0
 225 0042 0248     		ldr	r0, .L14	@,
 226 0044 08BD     		pop	{r3, pc}	@
 227              	.LVL13:
 228              	.L11:
 229              	@ inc/user_libs/usbd_desc.c:225:     USBD_GetString (USBD_PRODUCT_FS_STRING, USBD_StrDesc, length);
 225:inc/user_libs/usbd_desc.c ****   }
 230              		.loc 1 225 0
 231 0046 0348     		ldr	r0, .L14+8	@,
 232              	.LVL14:
 233 0048 F9E7     		b	.L13	@
 234              	.L15:
 235 004a 00BF     		.align	2
 236              	.L14:
 237 004c 00000000 		.word	USBD_StrDesc
 238 0050 12000000 		.word	.LC1
 239 0054 2F000000 		.word	.LC2
 240              		.cfi_endproc
 241              	.LFE112:
 242              		.size	USBD_USR_ProductStrDescriptor, .-USBD_USR_ProductStrDescriptor
 243              		.align	1
 244              		.global	USBD_USR_SerialStrDescriptor
 245              		.syntax unified
 246              		.thumb
 247              		.thumb_func
 248              		.fpu softvfp
 249              		.type	USBD_USR_SerialStrDescriptor, %function
 250              	USBD_USR_SerialStrDescriptor:
 251              	.LFB114:
 242:inc/user_libs/usbd_desc.c **** 
 243:inc/user_libs/usbd_desc.c **** /**
 244:inc/user_libs/usbd_desc.c **** * @brief  USBD_USR_SerialStrDescriptor 
 245:inc/user_libs/usbd_desc.c **** *         return the serial number string descriptor
 246:inc/user_libs/usbd_desc.c **** * @param  speed : current device speed
 247:inc/user_libs/usbd_desc.c **** * @param  length : pointer to data length variable
 248:inc/user_libs/usbd_desc.c **** * @retval pointer to descriptor buffer
 249:inc/user_libs/usbd_desc.c **** */
 250:inc/user_libs/usbd_desc.c **** uint8_t *  USBD_USR_SerialStrDescriptor( uint8_t speed , uint16_t *length)
 251:inc/user_libs/usbd_desc.c **** {
 252              		.loc 1 251 0
 253              		.cfi_startproc
 254              		@ args = 0, pretend = 0, frame = 0
 255              		@ frame_needed = 0, uses_anonymous_args = 0
ARM GAS  /tmp/ccDi7Mwx.s 			page 10


 256              	.LVL15:
 257 0058 0A46     		mov	r2, r1	@ length, length
 258 005a 08B5     		push	{r3, lr}	@
 259              	.LCFI2:
 260              		.cfi_def_cfa_offset 8
 261              		.cfi_offset 3, -8
 262              		.cfi_offset 14, -4
 263              	.LBB10:
 264              	.LBB11:
 265              	@ inc/user_libs/usbd_desc.c:254:     USBD_GetString (USBD_SERIALNUMBER_HS_STRING, USBD_StrDesc, len
 252:inc/user_libs/usbd_desc.c ****   if(speed  == USB_OTG_SPEED_HIGH)
 253:inc/user_libs/usbd_desc.c ****   {    
 254:inc/user_libs/usbd_desc.c ****     USBD_GetString (USBD_SERIALNUMBER_HS_STRING, USBD_StrDesc, length);
 266              		.loc 1 254 0
 267 005c 0449     		ldr	r1, .L20	@,
 268              	.LVL16:
 269              	.LBE11:
 270              	.LBE10:
 271              	@ inc/user_libs/usbd_desc.c:252:   if(speed  == USB_OTG_SPEED_HIGH)
 252:inc/user_libs/usbd_desc.c ****   if(speed  == USB_OTG_SPEED_HIGH)
 272              		.loc 1 252 0
 273 005e 20B9     		cbnz	r0, .L17	@ speed,
 274              	.LVL17:
 275              	.LBB13:
 276              	.LBB12:
 277              	@ inc/user_libs/usbd_desc.c:254:     USBD_GetString (USBD_SERIALNUMBER_HS_STRING, USBD_StrDesc, len
 278              		.loc 1 254 0
 279 0060 0448     		ldr	r0, .L20+4	@,
 280              	.LVL18:
 281              	.L19:
 282              	.LBE12:
 283              	.LBE13:
 284              	@ inc/user_libs/usbd_desc.c:258:     USBD_GetString (USBD_SERIALNUMBER_FS_STRING, USBD_StrDesc, len
 255:inc/user_libs/usbd_desc.c ****   }
 256:inc/user_libs/usbd_desc.c ****   else
 257:inc/user_libs/usbd_desc.c ****   {
 258:inc/user_libs/usbd_desc.c ****     USBD_GetString (USBD_SERIALNUMBER_FS_STRING, USBD_StrDesc, length);    
 285              		.loc 1 258 0
 286 0062 FFF7FEFF 		bl	USBD_GetString	@
 287              	.LVL19:
 288              	@ inc/user_libs/usbd_desc.c:261: }
 259:inc/user_libs/usbd_desc.c ****   }
 260:inc/user_libs/usbd_desc.c ****   return USBD_StrDesc;
 261:inc/user_libs/usbd_desc.c **** }
 289              		.loc 1 261 0
 290 0066 0248     		ldr	r0, .L20	@,
 291 0068 08BD     		pop	{r3, pc}	@
 292              	.LVL20:
 293              	.L17:
 294              	@ inc/user_libs/usbd_desc.c:258:     USBD_GetString (USBD_SERIALNUMBER_FS_STRING, USBD_StrDesc, len
 258:inc/user_libs/usbd_desc.c ****   }
 295              		.loc 1 258 0
 296 006a 0348     		ldr	r0, .L20+8	@,
 297              	.LVL21:
 298 006c F9E7     		b	.L19	@
 299              	.L21:
 300 006e 00BF     		.align	2
ARM GAS  /tmp/ccDi7Mwx.s 			page 11


 301              	.L20:
 302 0070 00000000 		.word	USBD_StrDesc
 303 0074 4C000000 		.word	.LC3
 304 0078 59000000 		.word	.LC4
 305              		.cfi_endproc
 306              	.LFE114:
 307              		.size	USBD_USR_SerialStrDescriptor, .-USBD_USR_SerialStrDescriptor
 308              		.align	1
 309              		.global	USBD_USR_ConfigStrDescriptor
 310              		.syntax unified
 311              		.thumb
 312              		.thumb_func
 313              		.fpu softvfp
 314              		.type	USBD_USR_ConfigStrDescriptor, %function
 315              	USBD_USR_ConfigStrDescriptor:
 316              	.LFB115:
 262:inc/user_libs/usbd_desc.c **** 
 263:inc/user_libs/usbd_desc.c **** /**
 264:inc/user_libs/usbd_desc.c **** * @brief  USBD_USR_ConfigStrDescriptor 
 265:inc/user_libs/usbd_desc.c **** *         return the configuration string descriptor
 266:inc/user_libs/usbd_desc.c **** * @param  speed : current device speed
 267:inc/user_libs/usbd_desc.c **** * @param  length : pointer to data length variable
 268:inc/user_libs/usbd_desc.c **** * @retval pointer to descriptor buffer
 269:inc/user_libs/usbd_desc.c **** */
 270:inc/user_libs/usbd_desc.c **** uint8_t *  USBD_USR_ConfigStrDescriptor( uint8_t speed , uint16_t *length)
 271:inc/user_libs/usbd_desc.c **** {
 317              		.loc 1 271 0
 318              		.cfi_startproc
 319              		@ args = 0, pretend = 0, frame = 0
 320              		@ frame_needed = 0, uses_anonymous_args = 0
 321              	.LVL22:
 322 007c 10B5     		push	{r4, lr}	@
 323              	.LCFI3:
 324              		.cfi_def_cfa_offset 8
 325              		.cfi_offset 4, -8
 326              		.cfi_offset 14, -4
 327              	.LBB16:
 328              	.LBB17:
 329              	@ inc/user_libs/usbd_desc.c:274:     USBD_GetString (USBD_CONFIGURATION_HS_STRING, USBD_StrDesc, le
 272:inc/user_libs/usbd_desc.c ****   if(speed  == USB_OTG_SPEED_HIGH)
 273:inc/user_libs/usbd_desc.c ****   {  
 274:inc/user_libs/usbd_desc.c ****     USBD_GetString (USBD_CONFIGURATION_HS_STRING, USBD_StrDesc, length);
 330              		.loc 1 274 0
 331 007e 044C     		ldr	r4, .L23	@ tmp113,
 332 0080 0448     		ldr	r0, .L23+4	@,
 333              	.LVL23:
 334 0082 0A46     		mov	r2, r1	@, length
 335 0084 2146     		mov	r1, r4	@, tmp113
 336              	.LVL24:
 337 0086 FFF7FEFF 		bl	USBD_GetString	@
 338              	.LVL25:
 339              	.LBE17:
 340              	.LBE16:
 341              	@ inc/user_libs/usbd_desc.c:281: }
 275:inc/user_libs/usbd_desc.c ****   }
 276:inc/user_libs/usbd_desc.c ****   else
 277:inc/user_libs/usbd_desc.c ****   {
ARM GAS  /tmp/ccDi7Mwx.s 			page 12


 278:inc/user_libs/usbd_desc.c ****     USBD_GetString (USBD_CONFIGURATION_FS_STRING, USBD_StrDesc, length); 
 279:inc/user_libs/usbd_desc.c ****   }
 280:inc/user_libs/usbd_desc.c ****   return USBD_StrDesc;  
 281:inc/user_libs/usbd_desc.c **** }
 342              		.loc 1 281 0
 343 008a 2046     		mov	r0, r4	@, tmp113
 344 008c 10BD     		pop	{r4, pc}	@
 345              	.L24:
 346 008e 00BF     		.align	2
 347              	.L23:
 348 0090 00000000 		.word	USBD_StrDesc
 349 0094 66000000 		.word	.LC5
 350              		.cfi_endproc
 351              	.LFE115:
 352              		.size	USBD_USR_ConfigStrDescriptor, .-USBD_USR_ConfigStrDescriptor
 353              		.align	1
 354              		.global	USBD_USR_InterfaceStrDescriptor
 355              		.syntax unified
 356              		.thumb
 357              		.thumb_func
 358              		.fpu softvfp
 359              		.type	USBD_USR_InterfaceStrDescriptor, %function
 360              	USBD_USR_InterfaceStrDescriptor:
 361              	.LFB116:
 282:inc/user_libs/usbd_desc.c **** 
 283:inc/user_libs/usbd_desc.c **** 
 284:inc/user_libs/usbd_desc.c **** /**
 285:inc/user_libs/usbd_desc.c **** * @brief  USBD_USR_InterfaceStrDescriptor 
 286:inc/user_libs/usbd_desc.c **** *         return the interface string descriptor
 287:inc/user_libs/usbd_desc.c **** * @param  speed : current device speed
 288:inc/user_libs/usbd_desc.c **** * @param  length : pointer to data length variable
 289:inc/user_libs/usbd_desc.c **** * @retval pointer to descriptor buffer
 290:inc/user_libs/usbd_desc.c **** */
 291:inc/user_libs/usbd_desc.c **** uint8_t *  USBD_USR_InterfaceStrDescriptor( uint8_t speed , uint16_t *length)
 292:inc/user_libs/usbd_desc.c **** {
 362              		.loc 1 292 0
 363              		.cfi_startproc
 364              		@ args = 0, pretend = 0, frame = 0
 365              		@ frame_needed = 0, uses_anonymous_args = 0
 366              	.LVL26:
 367 0098 10B5     		push	{r4, lr}	@
 368              	.LCFI4:
 369              		.cfi_def_cfa_offset 8
 370              		.cfi_offset 4, -8
 371              		.cfi_offset 14, -4
 372              	.LBB20:
 373              	.LBB21:
 374              	@ inc/user_libs/usbd_desc.c:295:     USBD_GetString (USBD_INTERFACE_HS_STRING, USBD_StrDesc, length
 293:inc/user_libs/usbd_desc.c ****   if(speed == 0)
 294:inc/user_libs/usbd_desc.c ****   {
 295:inc/user_libs/usbd_desc.c ****     USBD_GetString (USBD_INTERFACE_HS_STRING, USBD_StrDesc, length);
 375              		.loc 1 295 0
 376 009a 044C     		ldr	r4, .L26	@ tmp113,
 377 009c 0448     		ldr	r0, .L26+4	@,
 378              	.LVL27:
 379 009e 0A46     		mov	r2, r1	@, length
 380 00a0 2146     		mov	r1, r4	@, tmp113
ARM GAS  /tmp/ccDi7Mwx.s 			page 13


 381              	.LVL28:
 382 00a2 FFF7FEFF 		bl	USBD_GetString	@
 383              	.LVL29:
 384              	.LBE21:
 385              	.LBE20:
 386              	@ inc/user_libs/usbd_desc.c:302: }
 296:inc/user_libs/usbd_desc.c ****   }
 297:inc/user_libs/usbd_desc.c ****   else
 298:inc/user_libs/usbd_desc.c ****   {
 299:inc/user_libs/usbd_desc.c ****     USBD_GetString (USBD_INTERFACE_FS_STRING, USBD_StrDesc, length);
 300:inc/user_libs/usbd_desc.c ****   }
 301:inc/user_libs/usbd_desc.c ****   return USBD_StrDesc;  
 302:inc/user_libs/usbd_desc.c **** }
 387              		.loc 1 302 0
 388 00a6 2046     		mov	r0, r4	@, tmp113
 389 00a8 10BD     		pop	{r4, pc}	@
 390              	.L27:
 391 00aa 00BF     		.align	2
 392              	.L26:
 393 00ac 00000000 		.word	USBD_StrDesc
 394 00b0 71000000 		.word	.LC6
 395              		.cfi_endproc
 396              	.LFE116:
 397              		.size	USBD_USR_InterfaceStrDescriptor, .-USBD_USR_InterfaceStrDescriptor
 398              		.global	USBD_LangIDDesc
 399              		.global	USBD_DeviceQualifierDesc
 400              		.global	USBD_DeviceDesc
 401              		.global	USR_desc
 402              		.data
 403              		.align	2
 404              		.set	.LANCHOR0,. + 0
 405              		.type	USBD_DeviceDesc, %object
 406              		.size	USBD_DeviceDesc, 18
 407              	USBD_DeviceDesc:
 408 0000 12       		.byte	18
 409 0001 01       		.byte	1
 410 0002 00       		.byte	0
 411 0003 02       		.byte	2
 412 0004 00       		.byte	0
 413 0005 00       		.byte	0
 414 0006 00       		.byte	0
 415 0007 40       		.byte	64
 416 0008 83       		.byte	-125
 417 0009 04       		.byte	4
 418 000a 10       		.byte	16
 419 000b 57       		.byte	87
 420 000c 00       		.byte	0
 421 000d 02       		.byte	2
 422 000e 01       		.byte	1
 423 000f 02       		.byte	2
 424 0010 03       		.byte	3
 425 0011 01       		.byte	1
 426              		.type	USBD_LangIDDesc, %object
 427              		.size	USBD_LangIDDesc, 4
 428              	USBD_LangIDDesc:
 429 0012 04       		.byte	4
 430 0013 03       		.byte	3
ARM GAS  /tmp/ccDi7Mwx.s 			page 14


 431 0014 09       		.byte	9
 432 0015 04       		.byte	4
 433              		.type	USBD_DeviceQualifierDesc, %object
 434              		.size	USBD_DeviceQualifierDesc, 10
 435              	USBD_DeviceQualifierDesc:
 436 0016 0A       		.byte	10
 437 0017 06       		.byte	6
 438 0018 00       		.byte	0
 439 0019 02       		.byte	2
 440 001a 00       		.byte	0
 441 001b 00       		.byte	0
 442 001c 00       		.byte	0
 443 001d 40       		.byte	64
 444 001e 01       		.byte	1
 445 001f 00       		.byte	0
 446              		.type	USR_desc, %object
 447              		.size	USR_desc, 28
 448              	USR_desc:
 449              	@ GetDeviceDescriptor:
 450 0020 00000000 		.word	USBD_USR_DeviceDescriptor
 451              	@ GetLangIDStrDescriptor:
 452 0024 00000000 		.word	USBD_USR_LangIDStrDescriptor
 453              	@ GetManufacturerStrDescriptor:
 454 0028 00000000 		.word	USBD_USR_ManufacturerStrDescriptor
 455              	@ GetProductStrDescriptor:
 456 002c 00000000 		.word	USBD_USR_ProductStrDescriptor
 457              	@ GetSerialStrDescriptor:
 458 0030 00000000 		.word	USBD_USR_SerialStrDescriptor
 459              	@ GetConfigurationStrDescriptor:
 460 0034 00000000 		.word	USBD_USR_ConfigStrDescriptor
 461              	@ GetInterfaceStrDescriptor:
 462 0038 00000000 		.word	USBD_USR_InterfaceStrDescriptor
 463              		.section	.rodata.str1.1,"aMS",%progbits,1
 464              	.LC0:
 465 0000 53546963 		.ascii	"STicroelectronics\000"
 465      726F656C 
 465      65637472 
 465      6F6E6963 
 465      7300
 466              	.LC1:
 467 0012 544D2055 		.ascii	"TM USB HID device in HS mode\000"
 467      53422048 
 467      49442064 
 467      65766963 
 467      6520696E 
 468              	.LC2:
 469 002f 544D2055 		.ascii	"TM USB HID device in FS mode\000"
 469      53422048 
 469      49442064 
 469      65766963 
 469      6520696E 
 470              	.LC3:
 471 004c 30303030 		.ascii	"00000000011B\000"
 471      30303030 
 471      30313142 
 471      00
 472              	.LC4:
ARM GAS  /tmp/ccDi7Mwx.s 			page 15


 473 0059 30303030 		.ascii	"00000000011C\000"
 473      30303030 
 473      30313143 
 473      00
 474              	.LC5:
 475 0066 48494420 		.ascii	"HID Config\000"
 475      436F6E66 
 475      696700
 476              	.LC6:
 477 0071 48494420 		.ascii	"HID Interface\000"
 477      496E7465 
 477      72666163 
 477      6500
 478              		.text
 479              	.Letext0:
 480              		.file 2 "/home/sticky/opt/gcc-arm-none-eabi-7-2017-q4-major/arm-none-eabi/include/machine/_default
 481              		.file 3 "/home/sticky/opt/gcc-arm-none-eabi-7-2017-q4-major/arm-none-eabi/include/sys/_stdint.h"
 482              		.file 4 "./inc/CMSIS/core_cm4.h"
 483              		.file 5 "./inc/system_stm32f4xx.h"
 484              		.file 6 "inc/user_libs/usb_core.h"
 485              		.file 7 "inc/user_libs/usbd_desc.h"
 486              		.file 8 "inc/user_libs/usbd_req.h"