ARM GAS  /tmp/ccH36hjN.s 			page 1


   1              		.cpu cortex-m4
   2              		.eabi_attribute 20, 1	@ Tag_ABI_FP_denormal
   3              		.eabi_attribute 21, 1	@ Tag_ABI_FP_exceptions
   4              		.eabi_attribute 23, 3	@ Tag_ABI_FP_number_model
   5              		.eabi_attribute 24, 1	@ Tag_ABI_align8_needed
   6              		.eabi_attribute 25, 1	@ Tag_ABI_align8_preserved
   7              		.eabi_attribute 26, 1	@ Tag_ABI_enum_size
   8              		.eabi_attribute 30, 4	@ Tag_ABI_optimization_goals
   9              		.eabi_attribute 34, 1	@ Tag_CPU_unaligned_access
  10              		.eabi_attribute 18, 4	@ Tag_ABI_PCS_wchar_t
  11              		.file	"usbd_req.c"
  12              	@ GNU C11 (GNU Tools for Arm Embedded Processors 7-2017-q4-major) version 7.2.1 20170904 (release) 
  13              	@	compiled by GNU C version 4.8.4, GMP version 6.1.0, MPFR version 3.1.4, MPC version 1.0.3, isl ve
  14              	
  15              	@ GGC heuristics: --param ggc-min-expand=100 --param ggc-min-heapsize=131072
  16              	@ options passed:  -I . -I ./inc -I ./inc/CMSIS
  17              	@ -I STM32F4xx_StdPeriph_Driver/inc -I ./inc/user_libs
  18              	@ -imultilib thumb/v7e-m
  19              	@ -iprefix /home/sticky/opt/gcc-arm-none-eabi-7-2017-q4-major/bin/../lib/gcc/arm-none-eabi/7.2.1/
  20              	@ -isysroot /home/sticky/opt/gcc-arm-none-eabi-7-2017-q4-major/bin/../arm-none-eabi
  21              	@ -D__USES_INITFINI__ -D STM32F40XX -D USE_STDPERIPH_DRIVER
  22              	@ -D RUN_FROM_FLASH=1 inc/user_libs/usbd_req.c -mcpu=cortex-m4 -mthumb
  23              	@ -auxbase-strip inc/user_libs/usbd_req.o -g -gdwarf-2 -Os -Wall
  24              	@ -Wstrict-prototypes -fomit-frame-pointer -fverbose-asm
  25              	@ options enabled:  -faggressive-loop-optimizations -falign-jumps
  26              	@ -falign-labels -falign-loops -fauto-inc-dec -fbranch-count-reg
  27              	@ -fcaller-saves -fchkp-check-incomplete-type -fchkp-check-read
  28              	@ -fchkp-check-write -fchkp-instrument-calls -fchkp-narrow-bounds
  29              	@ -fchkp-optimize -fchkp-store-bounds -fchkp-use-static-bounds
  30              	@ -fchkp-use-static-const-bounds -fchkp-use-wrappers -fcode-hoisting
  31              	@ -fcombine-stack-adjustments -fcommon -fcompare-elim -fcprop-registers
  32              	@ -fcrossjumping -fcse-follow-jumps -fdefer-pop
  33              	@ -fdelete-null-pointer-checks -fdevirtualize -fdevirtualize-speculatively
  34              	@ -fdwarf2-cfi-asm -fearly-inlining -feliminate-unused-debug-types
  35              	@ -fexpensive-optimizations -fforward-propagate -ffp-int-builtin-inexact
  36              	@ -ffunction-cse -fgcse -fgcse-lm -fgnu-runtime -fgnu-unique
  37              	@ -fguess-branch-probability -fhoist-adjacent-loads -fident -fif-conversion
  38              	@ -fif-conversion2 -findirect-inlining -finline -finline-atomics
  39              	@ -finline-functions -finline-functions-called-once
  40              	@ -finline-small-functions -fipa-bit-cp -fipa-cp -fipa-icf
  41              	@ -fipa-icf-functions -fipa-icf-variables -fipa-profile -fipa-pure-const
  42              	@ -fipa-ra -fipa-reference -fipa-sra -fipa-vrp -fira-hoist-pressure
  43              	@ -fira-share-save-slots -fira-share-spill-slots
  44              	@ -fisolate-erroneous-paths-dereference -fivopts -fkeep-static-consts
  45              	@ -fleading-underscore -flifetime-dse -flra-remat -flto-odr-type-merging
  46              	@ -fmath-errno -fmerge-constants -fmerge-debug-strings
  47              	@ -fmove-loop-invariants -fomit-frame-pointer -foptimize-sibling-calls
  48              	@ -fpartial-inlining -fpeephole -fpeephole2 -fplt -fprefetch-loop-arrays
  49              	@ -freg-struct-return -freorder-blocks -freorder-functions
  50              	@ -frerun-cse-after-loop -fsched-critical-path-heuristic
  51              	@ -fsched-dep-count-heuristic -fsched-group-heuristic -fsched-interblock
  52              	@ -fsched-last-insn-heuristic -fsched-pressure -fsched-rank-heuristic
  53              	@ -fsched-spec -fsched-spec-insn-heuristic -fsched-stalled-insns-dep
  54              	@ -fschedule-insns2 -fsection-anchors -fsemantic-interposition
  55              	@ -fshow-column -fshrink-wrap-separate -fsigned-zeros
  56              	@ -fsplit-ivs-in-unroller -fsplit-wide-types -fssa-backprop -fssa-phiopt
  57              	@ -fstdarg-opt -fstore-merging -fstrict-aliasing -fstrict-overflow
ARM GAS  /tmp/ccH36hjN.s 			page 2


  58              	@ -fstrict-volatile-bitfields -fsync-libcalls -fthread-jumps
  59              	@ -ftoplevel-reorder -ftrapping-math -ftree-bit-ccp -ftree-builtin-call-dce
  60              	@ -ftree-ccp -ftree-ch -ftree-coalesce-vars -ftree-copy-prop -ftree-cselim
  61              	@ -ftree-dce -ftree-dominator-opts -ftree-dse -ftree-forwprop -ftree-fre
  62              	@ -ftree-loop-if-convert -ftree-loop-im -ftree-loop-ivcanon
  63              	@ -ftree-loop-optimize -ftree-parallelize-loops= -ftree-phiprop -ftree-pre
  64              	@ -ftree-pta -ftree-reassoc -ftree-scev-cprop -ftree-sink -ftree-slsr
  65              	@ -ftree-sra -ftree-switch-conversion -ftree-tail-merge -ftree-ter
  66              	@ -ftree-vrp -funit-at-a-time -fvar-tracking -fvar-tracking-assignments
  67              	@ -fverbose-asm -fzero-initialized-in-bss -masm-syntax-unified
  68              	@ -mlittle-endian -mpic-data-is-text-relative -msched-prolog -mthumb
  69              	@ -munaligned-access -mvectorize-with-neon-quad
  70              	
  71              		.text
  72              	.Ltext0:
  73              		.cfi_sections	.debug_frame
  74              		.align	1
  75              		.syntax unified
  76              		.thumb
  77              		.thumb_func
  78              		.fpu softvfp
  79              		.type	USBD_CtlError.constprop.0, %function
  80              	USBD_CtlError.constprop.0:
  81              	.LFB124:
  82              		.file 1 "inc/user_libs/usbd_req.c"
   1:inc/user_libs/usbd_req.c **** /**
   2:inc/user_libs/usbd_req.c ****   ******************************************************************************
   3:inc/user_libs/usbd_req.c ****   * @file    usbd_req.c
   4:inc/user_libs/usbd_req.c ****   * @author  MCD Application Team
   5:inc/user_libs/usbd_req.c ****   * @version V1.1.0
   6:inc/user_libs/usbd_req.c ****   * @date    19-March-2012 
   7:inc/user_libs/usbd_req.c ****   * @brief   This file provides the standard USB requests following chapter 9.
   8:inc/user_libs/usbd_req.c ****   ******************************************************************************
   9:inc/user_libs/usbd_req.c ****   * @attention
  10:inc/user_libs/usbd_req.c ****   *
  11:inc/user_libs/usbd_req.c ****   * <h2><center>&copy; COPYRIGHT 2012 STMicroelectronics</center></h2>
  12:inc/user_libs/usbd_req.c ****   *
  13:inc/user_libs/usbd_req.c ****   * Licensed under MCD-ST Liberty SW License Agreement V2, (the "License");
  14:inc/user_libs/usbd_req.c ****   * You may not use this file except in compliance with the License.
  15:inc/user_libs/usbd_req.c ****   * You may obtain a copy of the License at:
  16:inc/user_libs/usbd_req.c ****   *
  17:inc/user_libs/usbd_req.c ****   *        http://www.st.com/software_license_agreement_liberty_v2
  18:inc/user_libs/usbd_req.c ****   *
  19:inc/user_libs/usbd_req.c ****   * Unless required by applicable law or agreed to in writing, software 
  20:inc/user_libs/usbd_req.c ****   * distributed under the License is distributed on an "AS IS" BASIS, 
  21:inc/user_libs/usbd_req.c ****   * WITHOUT WARRANTIES OR CONDITIONS OF ANY KIND, either express or implied.
  22:inc/user_libs/usbd_req.c ****   * See the License for the specific language governing permissions and
  23:inc/user_libs/usbd_req.c ****   * limitations under the License.
  24:inc/user_libs/usbd_req.c ****   *
  25:inc/user_libs/usbd_req.c ****   ******************************************************************************
  26:inc/user_libs/usbd_req.c ****   */ 
  27:inc/user_libs/usbd_req.c **** 
  28:inc/user_libs/usbd_req.c **** /* Includes ------------------------------------------------------------------*/
  29:inc/user_libs/usbd_req.c **** #include "usbd_req.h"
  30:inc/user_libs/usbd_req.c **** #include "usbd_ioreq.h"
  31:inc/user_libs/usbd_req.c **** #include "usbd_desc.h"
  32:inc/user_libs/usbd_req.c **** 
ARM GAS  /tmp/ccH36hjN.s 			page 3


  33:inc/user_libs/usbd_req.c **** 
  34:inc/user_libs/usbd_req.c **** /** @addtogroup STM32_USB_OTG_DEVICE_LIBRARY
  35:inc/user_libs/usbd_req.c ****   * @{
  36:inc/user_libs/usbd_req.c ****   */
  37:inc/user_libs/usbd_req.c **** 
  38:inc/user_libs/usbd_req.c **** 
  39:inc/user_libs/usbd_req.c **** /** @defgroup USBD_REQ 
  40:inc/user_libs/usbd_req.c ****   * @brief USB standard requests module
  41:inc/user_libs/usbd_req.c ****   * @{
  42:inc/user_libs/usbd_req.c ****   */ 
  43:inc/user_libs/usbd_req.c **** 
  44:inc/user_libs/usbd_req.c **** /** @defgroup USBD_REQ_Private_TypesDefinitions
  45:inc/user_libs/usbd_req.c ****   * @{
  46:inc/user_libs/usbd_req.c ****   */ 
  47:inc/user_libs/usbd_req.c **** /**
  48:inc/user_libs/usbd_req.c ****   * @}
  49:inc/user_libs/usbd_req.c ****   */ 
  50:inc/user_libs/usbd_req.c **** 
  51:inc/user_libs/usbd_req.c **** 
  52:inc/user_libs/usbd_req.c **** /** @defgroup USBD_REQ_Private_Defines
  53:inc/user_libs/usbd_req.c ****   * @{
  54:inc/user_libs/usbd_req.c ****   */ 
  55:inc/user_libs/usbd_req.c **** 
  56:inc/user_libs/usbd_req.c **** /**
  57:inc/user_libs/usbd_req.c ****   * @}
  58:inc/user_libs/usbd_req.c ****   */ 
  59:inc/user_libs/usbd_req.c **** 
  60:inc/user_libs/usbd_req.c **** 
  61:inc/user_libs/usbd_req.c **** /** @defgroup USBD_REQ_Private_Macros
  62:inc/user_libs/usbd_req.c ****   * @{
  63:inc/user_libs/usbd_req.c ****   */ 
  64:inc/user_libs/usbd_req.c **** /**
  65:inc/user_libs/usbd_req.c ****   * @}
  66:inc/user_libs/usbd_req.c ****   */ 
  67:inc/user_libs/usbd_req.c **** 
  68:inc/user_libs/usbd_req.c **** 
  69:inc/user_libs/usbd_req.c **** /** @defgroup USBD_REQ_Private_Variables
  70:inc/user_libs/usbd_req.c ****   * @{
  71:inc/user_libs/usbd_req.c ****   */ 
  72:inc/user_libs/usbd_req.c **** extern __IO USB_OTG_DCTL_TypeDef SET_TEST_MODE;
  73:inc/user_libs/usbd_req.c **** 
  74:inc/user_libs/usbd_req.c **** #ifdef USB_OTG_HS_INTERNAL_DMA_ENABLED
  75:inc/user_libs/usbd_req.c ****   #if defined ( __ICCARM__ ) /*!< IAR Compiler */
  76:inc/user_libs/usbd_req.c ****     #pragma data_alignment=4   
  77:inc/user_libs/usbd_req.c ****   #endif
  78:inc/user_libs/usbd_req.c **** #endif /* USB_OTG_HS_INTERNAL_DMA_ENABLED */  
  79:inc/user_libs/usbd_req.c **** __ALIGN_BEGIN uint32_t USBD_ep_status __ALIGN_END  = 0; 
  80:inc/user_libs/usbd_req.c **** 
  81:inc/user_libs/usbd_req.c **** #ifdef USB_OTG_HS_INTERNAL_DMA_ENABLED
  82:inc/user_libs/usbd_req.c ****   #if defined ( __ICCARM__ ) /*!< IAR Compiler */
  83:inc/user_libs/usbd_req.c ****     #pragma data_alignment=4   
  84:inc/user_libs/usbd_req.c ****   #endif
  85:inc/user_libs/usbd_req.c **** #endif /* USB_OTG_HS_INTERNAL_DMA_ENABLED */
  86:inc/user_libs/usbd_req.c **** __ALIGN_BEGIN uint32_t  USBD_default_cfg __ALIGN_END  = 0;
  87:inc/user_libs/usbd_req.c **** 
  88:inc/user_libs/usbd_req.c **** #ifdef USB_OTG_HS_INTERNAL_DMA_ENABLED
  89:inc/user_libs/usbd_req.c ****   #if defined ( __ICCARM__ ) /*!< IAR Compiler */
ARM GAS  /tmp/ccH36hjN.s 			page 4


  90:inc/user_libs/usbd_req.c ****     #pragma data_alignment=4   
  91:inc/user_libs/usbd_req.c ****   #endif
  92:inc/user_libs/usbd_req.c **** #endif /* USB_OTG_HS_INTERNAL_DMA_ENABLED */
  93:inc/user_libs/usbd_req.c **** __ALIGN_BEGIN uint32_t  USBD_cfg_status __ALIGN_END  = 0;  
  94:inc/user_libs/usbd_req.c **** 
  95:inc/user_libs/usbd_req.c **** #ifdef USB_OTG_HS_INTERNAL_DMA_ENABLED
  96:inc/user_libs/usbd_req.c ****   #if defined ( __ICCARM__ ) /*!< IAR Compiler */
  97:inc/user_libs/usbd_req.c ****     #pragma data_alignment=4   
  98:inc/user_libs/usbd_req.c ****   #endif
  99:inc/user_libs/usbd_req.c **** #endif /* USB_OTG_HS_INTERNAL_DMA_ENABLED */
 100:inc/user_libs/usbd_req.c **** __ALIGN_BEGIN uint8_t USBD_StrDesc[USB_MAX_STR_DESC_SIZ] __ALIGN_END ;
 101:inc/user_libs/usbd_req.c **** /**
 102:inc/user_libs/usbd_req.c ****   * @}
 103:inc/user_libs/usbd_req.c ****   */ 
 104:inc/user_libs/usbd_req.c **** 
 105:inc/user_libs/usbd_req.c **** 
 106:inc/user_libs/usbd_req.c **** /** @defgroup USBD_REQ_Private_FunctionPrototypes
 107:inc/user_libs/usbd_req.c ****   * @{
 108:inc/user_libs/usbd_req.c ****   */ 
 109:inc/user_libs/usbd_req.c **** static void USBD_GetDescriptor(USB_OTG_CORE_HANDLE  *pdev, 
 110:inc/user_libs/usbd_req.c ****                                USB_SETUP_REQ *req);
 111:inc/user_libs/usbd_req.c **** 
 112:inc/user_libs/usbd_req.c **** static void USBD_SetAddress(USB_OTG_CORE_HANDLE  *pdev, 
 113:inc/user_libs/usbd_req.c ****                             USB_SETUP_REQ *req);
 114:inc/user_libs/usbd_req.c **** 
 115:inc/user_libs/usbd_req.c **** static void USBD_SetConfig(USB_OTG_CORE_HANDLE  *pdev, 
 116:inc/user_libs/usbd_req.c ****                            USB_SETUP_REQ *req);
 117:inc/user_libs/usbd_req.c **** 
 118:inc/user_libs/usbd_req.c **** static void USBD_GetConfig(USB_OTG_CORE_HANDLE  *pdev, 
 119:inc/user_libs/usbd_req.c ****                            USB_SETUP_REQ *req);
 120:inc/user_libs/usbd_req.c **** 
 121:inc/user_libs/usbd_req.c **** static void USBD_GetStatus(USB_OTG_CORE_HANDLE  *pdev, 
 122:inc/user_libs/usbd_req.c ****                            USB_SETUP_REQ *req);
 123:inc/user_libs/usbd_req.c **** 
 124:inc/user_libs/usbd_req.c **** static void USBD_SetFeature(USB_OTG_CORE_HANDLE  *pdev, 
 125:inc/user_libs/usbd_req.c ****                             USB_SETUP_REQ *req);
 126:inc/user_libs/usbd_req.c **** 
 127:inc/user_libs/usbd_req.c **** static void USBD_ClrFeature(USB_OTG_CORE_HANDLE  *pdev, 
 128:inc/user_libs/usbd_req.c ****                             USB_SETUP_REQ *req);
 129:inc/user_libs/usbd_req.c **** 
 130:inc/user_libs/usbd_req.c **** static uint8_t USBD_GetLen(uint8_t *buf);
 131:inc/user_libs/usbd_req.c **** /**
 132:inc/user_libs/usbd_req.c ****   * @}
 133:inc/user_libs/usbd_req.c ****   */ 
 134:inc/user_libs/usbd_req.c **** 
 135:inc/user_libs/usbd_req.c **** 
 136:inc/user_libs/usbd_req.c **** /** @defgroup USBD_REQ_Private_Functions
 137:inc/user_libs/usbd_req.c ****   * @{
 138:inc/user_libs/usbd_req.c ****   */ 
 139:inc/user_libs/usbd_req.c **** 
 140:inc/user_libs/usbd_req.c **** 
 141:inc/user_libs/usbd_req.c **** /**
 142:inc/user_libs/usbd_req.c **** * @brief  USBD_StdDevReq
 143:inc/user_libs/usbd_req.c **** *         Handle standard usb device requests
 144:inc/user_libs/usbd_req.c **** * @param  pdev: device instance
 145:inc/user_libs/usbd_req.c **** * @param  req: usb request
 146:inc/user_libs/usbd_req.c **** * @retval status
ARM GAS  /tmp/ccH36hjN.s 			page 5


 147:inc/user_libs/usbd_req.c **** */
 148:inc/user_libs/usbd_req.c **** USBD_Status  USBD_StdDevReq (USB_OTG_CORE_HANDLE  *pdev, USB_SETUP_REQ  *req)
 149:inc/user_libs/usbd_req.c **** {
 150:inc/user_libs/usbd_req.c ****   USBD_Status ret = USBD_OK;  
 151:inc/user_libs/usbd_req.c ****   
 152:inc/user_libs/usbd_req.c ****   switch (req->bRequest) 
 153:inc/user_libs/usbd_req.c ****   {
 154:inc/user_libs/usbd_req.c ****   case USB_REQ_GET_DESCRIPTOR: 
 155:inc/user_libs/usbd_req.c ****     
 156:inc/user_libs/usbd_req.c ****     USBD_GetDescriptor (pdev, req) ;
 157:inc/user_libs/usbd_req.c ****     break;
 158:inc/user_libs/usbd_req.c ****     
 159:inc/user_libs/usbd_req.c ****   case USB_REQ_SET_ADDRESS:                      
 160:inc/user_libs/usbd_req.c ****     USBD_SetAddress(pdev, req);
 161:inc/user_libs/usbd_req.c ****     break;
 162:inc/user_libs/usbd_req.c ****     
 163:inc/user_libs/usbd_req.c ****   case USB_REQ_SET_CONFIGURATION:                    
 164:inc/user_libs/usbd_req.c ****     USBD_SetConfig (pdev , req);
 165:inc/user_libs/usbd_req.c ****     break;
 166:inc/user_libs/usbd_req.c ****     
 167:inc/user_libs/usbd_req.c ****   case USB_REQ_GET_CONFIGURATION:                 
 168:inc/user_libs/usbd_req.c ****     USBD_GetConfig (pdev , req);
 169:inc/user_libs/usbd_req.c ****     break;
 170:inc/user_libs/usbd_req.c ****     
 171:inc/user_libs/usbd_req.c ****   case USB_REQ_GET_STATUS:                                  
 172:inc/user_libs/usbd_req.c ****     USBD_GetStatus (pdev , req);
 173:inc/user_libs/usbd_req.c ****     break;
 174:inc/user_libs/usbd_req.c ****     
 175:inc/user_libs/usbd_req.c ****     
 176:inc/user_libs/usbd_req.c ****   case USB_REQ_SET_FEATURE:   
 177:inc/user_libs/usbd_req.c ****     USBD_SetFeature (pdev , req);    
 178:inc/user_libs/usbd_req.c ****     break;
 179:inc/user_libs/usbd_req.c ****     
 180:inc/user_libs/usbd_req.c ****   case USB_REQ_CLEAR_FEATURE:                                   
 181:inc/user_libs/usbd_req.c ****     USBD_ClrFeature (pdev , req);
 182:inc/user_libs/usbd_req.c ****     break;
 183:inc/user_libs/usbd_req.c ****     
 184:inc/user_libs/usbd_req.c ****   default:  
 185:inc/user_libs/usbd_req.c ****     USBD_CtlError(pdev , req);
 186:inc/user_libs/usbd_req.c ****     break;
 187:inc/user_libs/usbd_req.c ****   }
 188:inc/user_libs/usbd_req.c ****   
 189:inc/user_libs/usbd_req.c ****   return ret;
 190:inc/user_libs/usbd_req.c **** }
 191:inc/user_libs/usbd_req.c **** 
 192:inc/user_libs/usbd_req.c **** /**
 193:inc/user_libs/usbd_req.c **** * @brief  USBD_StdItfReq
 194:inc/user_libs/usbd_req.c **** *         Handle standard usb interface requests
 195:inc/user_libs/usbd_req.c **** * @param  pdev: USB OTG device instance
 196:inc/user_libs/usbd_req.c **** * @param  req: usb request
 197:inc/user_libs/usbd_req.c **** * @retval status
 198:inc/user_libs/usbd_req.c **** */
 199:inc/user_libs/usbd_req.c **** USBD_Status  USBD_StdItfReq (USB_OTG_CORE_HANDLE  *pdev, USB_SETUP_REQ  *req)
 200:inc/user_libs/usbd_req.c **** {
 201:inc/user_libs/usbd_req.c ****   USBD_Status ret = USBD_OK; 
 202:inc/user_libs/usbd_req.c ****   
 203:inc/user_libs/usbd_req.c ****   switch (pdev->dev.device_status) 
ARM GAS  /tmp/ccH36hjN.s 			page 6


 204:inc/user_libs/usbd_req.c ****   {
 205:inc/user_libs/usbd_req.c ****   case USB_OTG_CONFIGURED:
 206:inc/user_libs/usbd_req.c ****     
 207:inc/user_libs/usbd_req.c ****     if (LOBYTE(req->wIndex) <= USBD_ITF_MAX_NUM) 
 208:inc/user_libs/usbd_req.c ****     {
 209:inc/user_libs/usbd_req.c ****       pdev->dev.class_cb->Setup (pdev, req); 
 210:inc/user_libs/usbd_req.c ****       
 211:inc/user_libs/usbd_req.c ****       if((req->wLength == 0)&& (ret == USBD_OK))
 212:inc/user_libs/usbd_req.c ****       {
 213:inc/user_libs/usbd_req.c ****          USBD_CtlSendStatus(pdev);
 214:inc/user_libs/usbd_req.c ****       }
 215:inc/user_libs/usbd_req.c ****     } 
 216:inc/user_libs/usbd_req.c ****     else 
 217:inc/user_libs/usbd_req.c ****     {                                               
 218:inc/user_libs/usbd_req.c ****        USBD_CtlError(pdev , req);
 219:inc/user_libs/usbd_req.c ****     }
 220:inc/user_libs/usbd_req.c ****     break;
 221:inc/user_libs/usbd_req.c ****     
 222:inc/user_libs/usbd_req.c ****   default:
 223:inc/user_libs/usbd_req.c ****      USBD_CtlError(pdev , req);
 224:inc/user_libs/usbd_req.c ****     break;
 225:inc/user_libs/usbd_req.c ****   }
 226:inc/user_libs/usbd_req.c ****   return ret;
 227:inc/user_libs/usbd_req.c **** }
 228:inc/user_libs/usbd_req.c **** 
 229:inc/user_libs/usbd_req.c **** /**
 230:inc/user_libs/usbd_req.c **** * @brief  USBD_StdEPReq
 231:inc/user_libs/usbd_req.c **** *         Handle standard usb endpoint requests
 232:inc/user_libs/usbd_req.c **** * @param  pdev: USB OTG device instance
 233:inc/user_libs/usbd_req.c **** * @param  req: usb request
 234:inc/user_libs/usbd_req.c **** * @retval status
 235:inc/user_libs/usbd_req.c **** */
 236:inc/user_libs/usbd_req.c **** USBD_Status  USBD_StdEPReq (USB_OTG_CORE_HANDLE  *pdev, USB_SETUP_REQ  *req)
 237:inc/user_libs/usbd_req.c **** {
 238:inc/user_libs/usbd_req.c ****   
 239:inc/user_libs/usbd_req.c ****   uint8_t   ep_addr;
 240:inc/user_libs/usbd_req.c ****   USBD_Status ret = USBD_OK; 
 241:inc/user_libs/usbd_req.c ****   
 242:inc/user_libs/usbd_req.c ****   ep_addr  = LOBYTE(req->wIndex);   
 243:inc/user_libs/usbd_req.c ****   
 244:inc/user_libs/usbd_req.c ****   switch (req->bRequest) 
 245:inc/user_libs/usbd_req.c ****   {
 246:inc/user_libs/usbd_req.c ****     
 247:inc/user_libs/usbd_req.c ****   case USB_REQ_SET_FEATURE :
 248:inc/user_libs/usbd_req.c ****     
 249:inc/user_libs/usbd_req.c ****     switch (pdev->dev.device_status) 
 250:inc/user_libs/usbd_req.c ****     {
 251:inc/user_libs/usbd_req.c ****     case USB_OTG_ADDRESSED:          
 252:inc/user_libs/usbd_req.c ****       if ((ep_addr != 0x00) && (ep_addr != 0x80)) 
 253:inc/user_libs/usbd_req.c ****       {
 254:inc/user_libs/usbd_req.c ****         DCD_EP_Stall(pdev , ep_addr);
 255:inc/user_libs/usbd_req.c ****       }
 256:inc/user_libs/usbd_req.c ****       break;	
 257:inc/user_libs/usbd_req.c ****       
 258:inc/user_libs/usbd_req.c ****     case USB_OTG_CONFIGURED:   
 259:inc/user_libs/usbd_req.c ****       if (req->wValue == USB_FEATURE_EP_HALT)
 260:inc/user_libs/usbd_req.c ****       {
ARM GAS  /tmp/ccH36hjN.s 			page 7


 261:inc/user_libs/usbd_req.c ****         if ((ep_addr != 0x00) && (ep_addr != 0x80)) 
 262:inc/user_libs/usbd_req.c ****         { 
 263:inc/user_libs/usbd_req.c ****           DCD_EP_Stall(pdev , ep_addr);
 264:inc/user_libs/usbd_req.c ****           
 265:inc/user_libs/usbd_req.c ****         }
 266:inc/user_libs/usbd_req.c ****       }
 267:inc/user_libs/usbd_req.c ****       pdev->dev.class_cb->Setup (pdev, req);   
 268:inc/user_libs/usbd_req.c ****       USBD_CtlSendStatus(pdev);
 269:inc/user_libs/usbd_req.c ****       
 270:inc/user_libs/usbd_req.c ****       break;
 271:inc/user_libs/usbd_req.c ****       
 272:inc/user_libs/usbd_req.c ****     default:                         
 273:inc/user_libs/usbd_req.c ****       USBD_CtlError(pdev , req);
 274:inc/user_libs/usbd_req.c ****       break;    
 275:inc/user_libs/usbd_req.c ****     }
 276:inc/user_libs/usbd_req.c ****     break;
 277:inc/user_libs/usbd_req.c ****     
 278:inc/user_libs/usbd_req.c ****   case USB_REQ_CLEAR_FEATURE :
 279:inc/user_libs/usbd_req.c ****     
 280:inc/user_libs/usbd_req.c ****     switch (pdev->dev.device_status) 
 281:inc/user_libs/usbd_req.c ****     {
 282:inc/user_libs/usbd_req.c ****     case USB_OTG_ADDRESSED:          
 283:inc/user_libs/usbd_req.c ****       if ((ep_addr != 0x00) && (ep_addr != 0x80)) 
 284:inc/user_libs/usbd_req.c ****       {
 285:inc/user_libs/usbd_req.c ****         DCD_EP_Stall(pdev , ep_addr);
 286:inc/user_libs/usbd_req.c ****       }
 287:inc/user_libs/usbd_req.c ****       break;	
 288:inc/user_libs/usbd_req.c ****       
 289:inc/user_libs/usbd_req.c ****     case USB_OTG_CONFIGURED:   
 290:inc/user_libs/usbd_req.c ****       if (req->wValue == USB_FEATURE_EP_HALT)
 291:inc/user_libs/usbd_req.c ****       {
 292:inc/user_libs/usbd_req.c ****         if ((ep_addr != 0x00) && (ep_addr != 0x80)) 
 293:inc/user_libs/usbd_req.c ****         {        
 294:inc/user_libs/usbd_req.c ****           DCD_EP_ClrStall(pdev , ep_addr);
 295:inc/user_libs/usbd_req.c ****           pdev->dev.class_cb->Setup (pdev, req);
 296:inc/user_libs/usbd_req.c ****         }
 297:inc/user_libs/usbd_req.c ****         USBD_CtlSendStatus(pdev);
 298:inc/user_libs/usbd_req.c ****       }
 299:inc/user_libs/usbd_req.c ****       break;
 300:inc/user_libs/usbd_req.c ****       
 301:inc/user_libs/usbd_req.c ****     default:                         
 302:inc/user_libs/usbd_req.c ****        USBD_CtlError(pdev , req);
 303:inc/user_libs/usbd_req.c ****       break;    
 304:inc/user_libs/usbd_req.c ****     }
 305:inc/user_libs/usbd_req.c ****     break;
 306:inc/user_libs/usbd_req.c ****     
 307:inc/user_libs/usbd_req.c ****   case USB_REQ_GET_STATUS:                  
 308:inc/user_libs/usbd_req.c ****     switch (pdev->dev.device_status) 
 309:inc/user_libs/usbd_req.c ****     {
 310:inc/user_libs/usbd_req.c ****     case USB_OTG_ADDRESSED:          
 311:inc/user_libs/usbd_req.c ****       if ((ep_addr != 0x00) && (ep_addr != 0x80)) 
 312:inc/user_libs/usbd_req.c ****       {
 313:inc/user_libs/usbd_req.c ****         DCD_EP_Stall(pdev , ep_addr);
 314:inc/user_libs/usbd_req.c ****       }
 315:inc/user_libs/usbd_req.c ****       break;	
 316:inc/user_libs/usbd_req.c ****       
 317:inc/user_libs/usbd_req.c ****     case USB_OTG_CONFIGURED:         
ARM GAS  /tmp/ccH36hjN.s 			page 8


 318:inc/user_libs/usbd_req.c ****       
 319:inc/user_libs/usbd_req.c ****       
 320:inc/user_libs/usbd_req.c ****       if ((ep_addr & 0x80)== 0x80)
 321:inc/user_libs/usbd_req.c ****       {
 322:inc/user_libs/usbd_req.c ****         if(pdev->dev.in_ep[ep_addr & 0x7F].is_stall)
 323:inc/user_libs/usbd_req.c ****         {
 324:inc/user_libs/usbd_req.c ****           USBD_ep_status = 0x0001;     
 325:inc/user_libs/usbd_req.c ****         }
 326:inc/user_libs/usbd_req.c ****         else
 327:inc/user_libs/usbd_req.c ****         {
 328:inc/user_libs/usbd_req.c ****           USBD_ep_status = 0x0000;  
 329:inc/user_libs/usbd_req.c ****         }
 330:inc/user_libs/usbd_req.c ****       }
 331:inc/user_libs/usbd_req.c ****       else if ((ep_addr & 0x80)== 0x00)
 332:inc/user_libs/usbd_req.c ****       {
 333:inc/user_libs/usbd_req.c ****         if(pdev->dev.out_ep[ep_addr].is_stall)
 334:inc/user_libs/usbd_req.c ****         {
 335:inc/user_libs/usbd_req.c ****           USBD_ep_status = 0x0001;     
 336:inc/user_libs/usbd_req.c ****         }
 337:inc/user_libs/usbd_req.c ****         
 338:inc/user_libs/usbd_req.c ****         else 
 339:inc/user_libs/usbd_req.c ****         {
 340:inc/user_libs/usbd_req.c ****           USBD_ep_status = 0x0000;     
 341:inc/user_libs/usbd_req.c ****         }      
 342:inc/user_libs/usbd_req.c ****       }
 343:inc/user_libs/usbd_req.c ****       USBD_CtlSendData (pdev,
 344:inc/user_libs/usbd_req.c ****                         (uint8_t *)&USBD_ep_status,
 345:inc/user_libs/usbd_req.c ****                         2);
 346:inc/user_libs/usbd_req.c ****       break;
 347:inc/user_libs/usbd_req.c ****       
 348:inc/user_libs/usbd_req.c ****     default:                         
 349:inc/user_libs/usbd_req.c ****        USBD_CtlError(pdev , req);
 350:inc/user_libs/usbd_req.c ****       break;
 351:inc/user_libs/usbd_req.c ****     }
 352:inc/user_libs/usbd_req.c ****     break;
 353:inc/user_libs/usbd_req.c ****     
 354:inc/user_libs/usbd_req.c ****   default:
 355:inc/user_libs/usbd_req.c ****     break;
 356:inc/user_libs/usbd_req.c ****   }
 357:inc/user_libs/usbd_req.c ****   return ret;
 358:inc/user_libs/usbd_req.c **** }
 359:inc/user_libs/usbd_req.c **** /**
 360:inc/user_libs/usbd_req.c **** * @brief  USBD_GetDescriptor
 361:inc/user_libs/usbd_req.c **** *         Handle Get Descriptor requests
 362:inc/user_libs/usbd_req.c **** * @param  pdev: device instance
 363:inc/user_libs/usbd_req.c **** * @param  req: usb request
 364:inc/user_libs/usbd_req.c **** * @retval status
 365:inc/user_libs/usbd_req.c **** */
 366:inc/user_libs/usbd_req.c **** static void USBD_GetDescriptor(USB_OTG_CORE_HANDLE  *pdev, 
 367:inc/user_libs/usbd_req.c ****                                USB_SETUP_REQ *req)
 368:inc/user_libs/usbd_req.c **** {
 369:inc/user_libs/usbd_req.c ****   uint16_t len;
 370:inc/user_libs/usbd_req.c ****   uint8_t *pbuf;
 371:inc/user_libs/usbd_req.c ****   
 372:inc/user_libs/usbd_req.c ****     
 373:inc/user_libs/usbd_req.c ****   switch (req->wValue >> 8)
 374:inc/user_libs/usbd_req.c ****   {
ARM GAS  /tmp/ccH36hjN.s 			page 9


 375:inc/user_libs/usbd_req.c ****   case USB_DESC_TYPE_DEVICE:
 376:inc/user_libs/usbd_req.c ****     pbuf = pdev->dev.usr_device->GetDeviceDescriptor(pdev->cfg.speed, &len);
 377:inc/user_libs/usbd_req.c ****     if ((req->wLength == 64) ||( pdev->dev.device_status == USB_OTG_DEFAULT))  
 378:inc/user_libs/usbd_req.c ****     {                  
 379:inc/user_libs/usbd_req.c ****       len = 8;
 380:inc/user_libs/usbd_req.c ****     }
 381:inc/user_libs/usbd_req.c ****     break;
 382:inc/user_libs/usbd_req.c ****     
 383:inc/user_libs/usbd_req.c ****   case USB_DESC_TYPE_CONFIGURATION:
 384:inc/user_libs/usbd_req.c ****       pbuf   = (uint8_t *)pdev->dev.class_cb->GetConfigDescriptor(pdev->cfg.speed, &len);
 385:inc/user_libs/usbd_req.c **** #ifdef USB_OTG_HS_CORE
 386:inc/user_libs/usbd_req.c ****     if((pdev->cfg.speed == USB_OTG_SPEED_FULL )&&
 387:inc/user_libs/usbd_req.c ****        (pdev->cfg.phy_itface  == USB_OTG_ULPI_PHY))
 388:inc/user_libs/usbd_req.c ****     {
 389:inc/user_libs/usbd_req.c ****       pbuf   = (uint8_t *)pdev->dev.class_cb->GetOtherConfigDescriptor(pdev->cfg.speed, &len);
 390:inc/user_libs/usbd_req.c ****     }
 391:inc/user_libs/usbd_req.c **** #endif  
 392:inc/user_libs/usbd_req.c ****     pbuf[1] = USB_DESC_TYPE_CONFIGURATION;
 393:inc/user_libs/usbd_req.c ****     pdev->dev.pConfig_descriptor = pbuf;    
 394:inc/user_libs/usbd_req.c ****     break;
 395:inc/user_libs/usbd_req.c ****     
 396:inc/user_libs/usbd_req.c ****   case USB_DESC_TYPE_STRING:
 397:inc/user_libs/usbd_req.c ****     switch ((uint8_t)(req->wValue))
 398:inc/user_libs/usbd_req.c ****     {
 399:inc/user_libs/usbd_req.c ****     case USBD_IDX_LANGID_STR:
 400:inc/user_libs/usbd_req.c ****      pbuf = pdev->dev.usr_device->GetLangIDStrDescriptor(pdev->cfg.speed, &len);        
 401:inc/user_libs/usbd_req.c ****       break;
 402:inc/user_libs/usbd_req.c ****       
 403:inc/user_libs/usbd_req.c ****     case USBD_IDX_MFC_STR:
 404:inc/user_libs/usbd_req.c ****       pbuf = pdev->dev.usr_device->GetManufacturerStrDescriptor(pdev->cfg.speed, &len);
 405:inc/user_libs/usbd_req.c ****       break;
 406:inc/user_libs/usbd_req.c ****       
 407:inc/user_libs/usbd_req.c ****     case USBD_IDX_PRODUCT_STR:
 408:inc/user_libs/usbd_req.c ****       pbuf = pdev->dev.usr_device->GetProductStrDescriptor(pdev->cfg.speed, &len);
 409:inc/user_libs/usbd_req.c ****       break;
 410:inc/user_libs/usbd_req.c ****       
 411:inc/user_libs/usbd_req.c ****     case USBD_IDX_SERIAL_STR:
 412:inc/user_libs/usbd_req.c ****       pbuf = pdev->dev.usr_device->GetSerialStrDescriptor(pdev->cfg.speed, &len);
 413:inc/user_libs/usbd_req.c ****       break;
 414:inc/user_libs/usbd_req.c ****       
 415:inc/user_libs/usbd_req.c ****     case USBD_IDX_CONFIG_STR:
 416:inc/user_libs/usbd_req.c ****       pbuf = pdev->dev.usr_device->GetConfigurationStrDescriptor(pdev->cfg.speed, &len);
 417:inc/user_libs/usbd_req.c ****       break;
 418:inc/user_libs/usbd_req.c ****       
 419:inc/user_libs/usbd_req.c ****     case USBD_IDX_INTERFACE_STR:
 420:inc/user_libs/usbd_req.c ****       pbuf = pdev->dev.usr_device->GetInterfaceStrDescriptor(pdev->cfg.speed, &len);
 421:inc/user_libs/usbd_req.c ****       break;
 422:inc/user_libs/usbd_req.c ****       
 423:inc/user_libs/usbd_req.c ****     default:
 424:inc/user_libs/usbd_req.c **** #ifdef USB_SUPPORT_USER_STRING_DESC
 425:inc/user_libs/usbd_req.c ****       pbuf = pdev->dev.class_cb->GetUsrStrDescriptor(pdev->cfg.speed, (req->wValue) , &len);
 426:inc/user_libs/usbd_req.c ****       break;
 427:inc/user_libs/usbd_req.c **** #else      
 428:inc/user_libs/usbd_req.c ****        USBD_CtlError(pdev , req);
 429:inc/user_libs/usbd_req.c ****       return;
 430:inc/user_libs/usbd_req.c **** #endif /* USBD_CtlError(pdev , req); */      
 431:inc/user_libs/usbd_req.c ****     }
ARM GAS  /tmp/ccH36hjN.s 			page 10


 432:inc/user_libs/usbd_req.c ****     break;
 433:inc/user_libs/usbd_req.c ****   case USB_DESC_TYPE_DEVICE_QUALIFIER:                   
 434:inc/user_libs/usbd_req.c **** #ifdef USB_OTG_HS_CORE
 435:inc/user_libs/usbd_req.c ****     if(pdev->cfg.speed == USB_OTG_SPEED_HIGH  )   
 436:inc/user_libs/usbd_req.c ****     {
 437:inc/user_libs/usbd_req.c ****       
 438:inc/user_libs/usbd_req.c ****       pbuf   = (uint8_t *)pdev->dev.class_cb->GetConfigDescriptor(pdev->cfg.speed, &len);
 439:inc/user_libs/usbd_req.c ****             
 440:inc/user_libs/usbd_req.c ****       USBD_DeviceQualifierDesc[4]= pbuf[14];
 441:inc/user_libs/usbd_req.c ****       USBD_DeviceQualifierDesc[5]= pbuf[15];
 442:inc/user_libs/usbd_req.c ****       USBD_DeviceQualifierDesc[6]= pbuf[16];
 443:inc/user_libs/usbd_req.c ****       
 444:inc/user_libs/usbd_req.c ****       pbuf = USBD_DeviceQualifierDesc;
 445:inc/user_libs/usbd_req.c ****       len  = USB_LEN_DEV_QUALIFIER_DESC;
 446:inc/user_libs/usbd_req.c ****       break;
 447:inc/user_libs/usbd_req.c ****     }
 448:inc/user_libs/usbd_req.c ****     else
 449:inc/user_libs/usbd_req.c ****     {
 450:inc/user_libs/usbd_req.c ****       USBD_CtlError(pdev , req);
 451:inc/user_libs/usbd_req.c ****       return;
 452:inc/user_libs/usbd_req.c ****     }
 453:inc/user_libs/usbd_req.c **** #else
 454:inc/user_libs/usbd_req.c ****       USBD_CtlError(pdev , req);
 455:inc/user_libs/usbd_req.c ****       return;
 456:inc/user_libs/usbd_req.c **** #endif    
 457:inc/user_libs/usbd_req.c **** 
 458:inc/user_libs/usbd_req.c ****   case USB_DESC_TYPE_OTHER_SPEED_CONFIGURATION:
 459:inc/user_libs/usbd_req.c **** #ifdef USB_OTG_HS_CORE   
 460:inc/user_libs/usbd_req.c **** 
 461:inc/user_libs/usbd_req.c ****     if(pdev->cfg.speed == USB_OTG_SPEED_HIGH  )   
 462:inc/user_libs/usbd_req.c ****     {
 463:inc/user_libs/usbd_req.c ****       pbuf   = (uint8_t *)pdev->dev.class_cb->GetOtherConfigDescriptor(pdev->cfg.speed, &len);
 464:inc/user_libs/usbd_req.c ****       pbuf[1] = USB_DESC_TYPE_OTHER_SPEED_CONFIGURATION;
 465:inc/user_libs/usbd_req.c ****       break; 
 466:inc/user_libs/usbd_req.c ****     }
 467:inc/user_libs/usbd_req.c ****     else
 468:inc/user_libs/usbd_req.c ****     {
 469:inc/user_libs/usbd_req.c ****       USBD_CtlError(pdev , req);
 470:inc/user_libs/usbd_req.c ****       return;
 471:inc/user_libs/usbd_req.c ****     }
 472:inc/user_libs/usbd_req.c **** #else
 473:inc/user_libs/usbd_req.c ****       USBD_CtlError(pdev , req);
 474:inc/user_libs/usbd_req.c ****       return;
 475:inc/user_libs/usbd_req.c **** #endif     
 476:inc/user_libs/usbd_req.c **** 
 477:inc/user_libs/usbd_req.c ****     
 478:inc/user_libs/usbd_req.c ****   default: 
 479:inc/user_libs/usbd_req.c ****      USBD_CtlError(pdev , req);
 480:inc/user_libs/usbd_req.c ****     return;
 481:inc/user_libs/usbd_req.c ****   }
 482:inc/user_libs/usbd_req.c ****   
 483:inc/user_libs/usbd_req.c ****   if((len != 0)&& (req->wLength != 0))
 484:inc/user_libs/usbd_req.c ****   {
 485:inc/user_libs/usbd_req.c ****     
 486:inc/user_libs/usbd_req.c ****     len = MIN(len , req->wLength);
 487:inc/user_libs/usbd_req.c ****     
 488:inc/user_libs/usbd_req.c ****     USBD_CtlSendData (pdev, 
ARM GAS  /tmp/ccH36hjN.s 			page 11


 489:inc/user_libs/usbd_req.c ****                       pbuf,
 490:inc/user_libs/usbd_req.c ****                       len);
 491:inc/user_libs/usbd_req.c ****   }
 492:inc/user_libs/usbd_req.c ****   
 493:inc/user_libs/usbd_req.c **** }
 494:inc/user_libs/usbd_req.c **** 
 495:inc/user_libs/usbd_req.c **** /**
 496:inc/user_libs/usbd_req.c **** * @brief  USBD_SetAddress
 497:inc/user_libs/usbd_req.c **** *         Set device address
 498:inc/user_libs/usbd_req.c **** * @param  pdev: device instance
 499:inc/user_libs/usbd_req.c **** * @param  req: usb request
 500:inc/user_libs/usbd_req.c **** * @retval status
 501:inc/user_libs/usbd_req.c **** */
 502:inc/user_libs/usbd_req.c **** static void USBD_SetAddress(USB_OTG_CORE_HANDLE  *pdev, 
 503:inc/user_libs/usbd_req.c ****                             USB_SETUP_REQ *req)
 504:inc/user_libs/usbd_req.c **** {
 505:inc/user_libs/usbd_req.c ****   uint8_t  dev_addr; 
 506:inc/user_libs/usbd_req.c ****   
 507:inc/user_libs/usbd_req.c ****   if ((req->wIndex == 0) && (req->wLength == 0)) 
 508:inc/user_libs/usbd_req.c ****   {
 509:inc/user_libs/usbd_req.c ****     dev_addr = (uint8_t)(req->wValue) & 0x7F;     
 510:inc/user_libs/usbd_req.c ****     
 511:inc/user_libs/usbd_req.c ****     if (pdev->dev.device_status == USB_OTG_CONFIGURED) 
 512:inc/user_libs/usbd_req.c ****     {
 513:inc/user_libs/usbd_req.c ****       USBD_CtlError(pdev , req);
 514:inc/user_libs/usbd_req.c ****     } 
 515:inc/user_libs/usbd_req.c ****     else 
 516:inc/user_libs/usbd_req.c ****     {
 517:inc/user_libs/usbd_req.c ****       pdev->dev.device_address = dev_addr;
 518:inc/user_libs/usbd_req.c ****       DCD_EP_SetAddress(pdev, dev_addr);               
 519:inc/user_libs/usbd_req.c ****       USBD_CtlSendStatus(pdev);                         
 520:inc/user_libs/usbd_req.c ****       
 521:inc/user_libs/usbd_req.c ****       if (dev_addr != 0) 
 522:inc/user_libs/usbd_req.c ****       {
 523:inc/user_libs/usbd_req.c ****         pdev->dev.device_status  = USB_OTG_ADDRESSED;
 524:inc/user_libs/usbd_req.c ****       } 
 525:inc/user_libs/usbd_req.c ****       else 
 526:inc/user_libs/usbd_req.c ****       {
 527:inc/user_libs/usbd_req.c ****         pdev->dev.device_status  = USB_OTG_DEFAULT; 
 528:inc/user_libs/usbd_req.c ****       }
 529:inc/user_libs/usbd_req.c ****     }
 530:inc/user_libs/usbd_req.c ****   } 
 531:inc/user_libs/usbd_req.c ****   else 
 532:inc/user_libs/usbd_req.c ****   {
 533:inc/user_libs/usbd_req.c ****      USBD_CtlError(pdev , req);                        
 534:inc/user_libs/usbd_req.c ****   } 
 535:inc/user_libs/usbd_req.c **** }
 536:inc/user_libs/usbd_req.c **** 
 537:inc/user_libs/usbd_req.c **** /**
 538:inc/user_libs/usbd_req.c **** * @brief  USBD_SetConfig
 539:inc/user_libs/usbd_req.c **** *         Handle Set device configuration request
 540:inc/user_libs/usbd_req.c **** * @param  pdev: device instance
 541:inc/user_libs/usbd_req.c **** * @param  req: usb request
 542:inc/user_libs/usbd_req.c **** * @retval status
 543:inc/user_libs/usbd_req.c **** */
 544:inc/user_libs/usbd_req.c **** static void USBD_SetConfig(USB_OTG_CORE_HANDLE  *pdev, 
 545:inc/user_libs/usbd_req.c ****                            USB_SETUP_REQ *req)
ARM GAS  /tmp/ccH36hjN.s 			page 12


 546:inc/user_libs/usbd_req.c **** {
 547:inc/user_libs/usbd_req.c ****   
 548:inc/user_libs/usbd_req.c ****   static uint8_t  cfgidx;
 549:inc/user_libs/usbd_req.c ****   
 550:inc/user_libs/usbd_req.c ****   cfgidx = (uint8_t)(req->wValue);                 
 551:inc/user_libs/usbd_req.c ****   
 552:inc/user_libs/usbd_req.c ****   if (cfgidx > USBD_CFG_MAX_NUM ) 
 553:inc/user_libs/usbd_req.c ****   {            
 554:inc/user_libs/usbd_req.c ****      USBD_CtlError(pdev , req);                              
 555:inc/user_libs/usbd_req.c ****   } 
 556:inc/user_libs/usbd_req.c ****   else 
 557:inc/user_libs/usbd_req.c ****   {
 558:inc/user_libs/usbd_req.c ****     switch (pdev->dev.device_status) 
 559:inc/user_libs/usbd_req.c ****     {
 560:inc/user_libs/usbd_req.c ****     case USB_OTG_ADDRESSED:
 561:inc/user_libs/usbd_req.c ****       if (cfgidx) 
 562:inc/user_libs/usbd_req.c ****       {                                			   							   							   				
 563:inc/user_libs/usbd_req.c ****         pdev->dev.device_config = cfgidx;
 564:inc/user_libs/usbd_req.c ****         pdev->dev.device_status = USB_OTG_CONFIGURED;
 565:inc/user_libs/usbd_req.c ****         USBD_SetCfg(pdev , cfgidx);
 566:inc/user_libs/usbd_req.c ****         USBD_CtlSendStatus(pdev);
 567:inc/user_libs/usbd_req.c ****       }
 568:inc/user_libs/usbd_req.c ****       else 
 569:inc/user_libs/usbd_req.c ****       {
 570:inc/user_libs/usbd_req.c ****          USBD_CtlSendStatus(pdev);
 571:inc/user_libs/usbd_req.c ****       }
 572:inc/user_libs/usbd_req.c ****       break;
 573:inc/user_libs/usbd_req.c ****       
 574:inc/user_libs/usbd_req.c ****     case USB_OTG_CONFIGURED:
 575:inc/user_libs/usbd_req.c ****       if (cfgidx == 0) 
 576:inc/user_libs/usbd_req.c ****       {                           
 577:inc/user_libs/usbd_req.c ****         pdev->dev.device_status = USB_OTG_ADDRESSED;
 578:inc/user_libs/usbd_req.c ****         pdev->dev.device_config = cfgidx;          
 579:inc/user_libs/usbd_req.c ****         USBD_ClrCfg(pdev , cfgidx);
 580:inc/user_libs/usbd_req.c ****         USBD_CtlSendStatus(pdev);
 581:inc/user_libs/usbd_req.c ****         
 582:inc/user_libs/usbd_req.c ****       } 
 583:inc/user_libs/usbd_req.c ****       else  if (cfgidx != pdev->dev.device_config) 
 584:inc/user_libs/usbd_req.c ****       {
 585:inc/user_libs/usbd_req.c ****         /* Clear old configuration */
 586:inc/user_libs/usbd_req.c ****         USBD_ClrCfg(pdev , pdev->dev.device_config);
 587:inc/user_libs/usbd_req.c ****         
 588:inc/user_libs/usbd_req.c ****         /* set new configuration */
 589:inc/user_libs/usbd_req.c ****         pdev->dev.device_config = cfgidx;
 590:inc/user_libs/usbd_req.c ****         USBD_SetCfg(pdev , cfgidx);
 591:inc/user_libs/usbd_req.c ****         USBD_CtlSendStatus(pdev);
 592:inc/user_libs/usbd_req.c ****       }
 593:inc/user_libs/usbd_req.c ****       else
 594:inc/user_libs/usbd_req.c ****       {
 595:inc/user_libs/usbd_req.c ****         USBD_CtlSendStatus(pdev);
 596:inc/user_libs/usbd_req.c ****       }
 597:inc/user_libs/usbd_req.c ****       break;
 598:inc/user_libs/usbd_req.c ****       
 599:inc/user_libs/usbd_req.c ****     default:					
 600:inc/user_libs/usbd_req.c ****        USBD_CtlError(pdev , req);                     
 601:inc/user_libs/usbd_req.c ****       break;
 602:inc/user_libs/usbd_req.c ****     }
ARM GAS  /tmp/ccH36hjN.s 			page 13


 603:inc/user_libs/usbd_req.c ****   }
 604:inc/user_libs/usbd_req.c **** }
 605:inc/user_libs/usbd_req.c **** 
 606:inc/user_libs/usbd_req.c **** /**
 607:inc/user_libs/usbd_req.c **** * @brief  USBD_GetConfig
 608:inc/user_libs/usbd_req.c **** *         Handle Get device configuration request
 609:inc/user_libs/usbd_req.c **** * @param  pdev: device instance
 610:inc/user_libs/usbd_req.c **** * @param  req: usb request
 611:inc/user_libs/usbd_req.c **** * @retval status
 612:inc/user_libs/usbd_req.c **** */
 613:inc/user_libs/usbd_req.c **** static void USBD_GetConfig(USB_OTG_CORE_HANDLE  *pdev, 
 614:inc/user_libs/usbd_req.c ****                            USB_SETUP_REQ *req)
 615:inc/user_libs/usbd_req.c **** {
 616:inc/user_libs/usbd_req.c ****  
 617:inc/user_libs/usbd_req.c ****   if (req->wLength != 1) 
 618:inc/user_libs/usbd_req.c ****   {                   
 619:inc/user_libs/usbd_req.c ****      USBD_CtlError(pdev , req);
 620:inc/user_libs/usbd_req.c ****   }
 621:inc/user_libs/usbd_req.c ****   else 
 622:inc/user_libs/usbd_req.c ****   {
 623:inc/user_libs/usbd_req.c ****     switch (pdev->dev.device_status )  
 624:inc/user_libs/usbd_req.c ****     {
 625:inc/user_libs/usbd_req.c ****     case USB_OTG_ADDRESSED:                     
 626:inc/user_libs/usbd_req.c ****       
 627:inc/user_libs/usbd_req.c ****       USBD_CtlSendData (pdev, 
 628:inc/user_libs/usbd_req.c ****                         (uint8_t *)&USBD_default_cfg,
 629:inc/user_libs/usbd_req.c ****                         1);
 630:inc/user_libs/usbd_req.c ****       break;
 631:inc/user_libs/usbd_req.c ****       
 632:inc/user_libs/usbd_req.c ****     case USB_OTG_CONFIGURED:                   
 633:inc/user_libs/usbd_req.c ****       
 634:inc/user_libs/usbd_req.c ****       USBD_CtlSendData (pdev, 
 635:inc/user_libs/usbd_req.c ****                         &pdev->dev.device_config,
 636:inc/user_libs/usbd_req.c ****                         1);
 637:inc/user_libs/usbd_req.c ****       break;
 638:inc/user_libs/usbd_req.c ****       
 639:inc/user_libs/usbd_req.c ****     default:
 640:inc/user_libs/usbd_req.c ****        USBD_CtlError(pdev , req);
 641:inc/user_libs/usbd_req.c ****       break;
 642:inc/user_libs/usbd_req.c ****     }
 643:inc/user_libs/usbd_req.c ****   }
 644:inc/user_libs/usbd_req.c **** }
 645:inc/user_libs/usbd_req.c **** 
 646:inc/user_libs/usbd_req.c **** /**
 647:inc/user_libs/usbd_req.c **** * @brief  USBD_GetStatus
 648:inc/user_libs/usbd_req.c **** *         Handle Get Status request
 649:inc/user_libs/usbd_req.c **** * @param  pdev: device instance
 650:inc/user_libs/usbd_req.c **** * @param  req: usb request
 651:inc/user_libs/usbd_req.c **** * @retval status
 652:inc/user_libs/usbd_req.c **** */
 653:inc/user_libs/usbd_req.c **** static void USBD_GetStatus(USB_OTG_CORE_HANDLE  *pdev, 
 654:inc/user_libs/usbd_req.c ****                            USB_SETUP_REQ *req)
 655:inc/user_libs/usbd_req.c **** {
 656:inc/user_libs/usbd_req.c ****   
 657:inc/user_libs/usbd_req.c ****     
 658:inc/user_libs/usbd_req.c ****   switch (pdev->dev.device_status) 
 659:inc/user_libs/usbd_req.c ****   {
ARM GAS  /tmp/ccH36hjN.s 			page 14


 660:inc/user_libs/usbd_req.c ****   case USB_OTG_ADDRESSED:
 661:inc/user_libs/usbd_req.c ****   case USB_OTG_CONFIGURED:
 662:inc/user_libs/usbd_req.c ****     
 663:inc/user_libs/usbd_req.c **** #ifdef USBD_SELF_POWERED
 664:inc/user_libs/usbd_req.c ****     USBD_cfg_status = USB_CONFIG_SELF_POWERED;                                    
 665:inc/user_libs/usbd_req.c **** #else
 666:inc/user_libs/usbd_req.c ****     USBD_cfg_status = 0x00;                                    
 667:inc/user_libs/usbd_req.c **** #endif
 668:inc/user_libs/usbd_req.c ****                       
 669:inc/user_libs/usbd_req.c ****     if (pdev->dev.DevRemoteWakeup) 
 670:inc/user_libs/usbd_req.c ****     {
 671:inc/user_libs/usbd_req.c ****       USBD_cfg_status |= USB_CONFIG_REMOTE_WAKEUP;                                
 672:inc/user_libs/usbd_req.c ****     }
 673:inc/user_libs/usbd_req.c ****     
 674:inc/user_libs/usbd_req.c ****     USBD_CtlSendData (pdev, 
 675:inc/user_libs/usbd_req.c ****                       (uint8_t *)&USBD_cfg_status,
 676:inc/user_libs/usbd_req.c ****                       2);
 677:inc/user_libs/usbd_req.c ****     break;
 678:inc/user_libs/usbd_req.c ****     
 679:inc/user_libs/usbd_req.c ****   default :
 680:inc/user_libs/usbd_req.c ****     USBD_CtlError(pdev , req);                        
 681:inc/user_libs/usbd_req.c ****     break;
 682:inc/user_libs/usbd_req.c ****   }
 683:inc/user_libs/usbd_req.c **** }
 684:inc/user_libs/usbd_req.c **** 
 685:inc/user_libs/usbd_req.c **** 
 686:inc/user_libs/usbd_req.c **** /**
 687:inc/user_libs/usbd_req.c **** * @brief  USBD_SetFeature
 688:inc/user_libs/usbd_req.c **** *         Handle Set device feature request
 689:inc/user_libs/usbd_req.c **** * @param  pdev: device instance
 690:inc/user_libs/usbd_req.c **** * @param  req: usb request
 691:inc/user_libs/usbd_req.c **** * @retval status
 692:inc/user_libs/usbd_req.c **** */
 693:inc/user_libs/usbd_req.c **** static void USBD_SetFeature(USB_OTG_CORE_HANDLE  *pdev, 
 694:inc/user_libs/usbd_req.c ****                             USB_SETUP_REQ *req)
 695:inc/user_libs/usbd_req.c **** {
 696:inc/user_libs/usbd_req.c **** 
 697:inc/user_libs/usbd_req.c ****   USB_OTG_DCTL_TypeDef     dctl;
 698:inc/user_libs/usbd_req.c ****   uint8_t test_mode = 0;
 699:inc/user_libs/usbd_req.c ****  
 700:inc/user_libs/usbd_req.c ****   if (req->wValue == USB_FEATURE_REMOTE_WAKEUP)
 701:inc/user_libs/usbd_req.c ****   {
 702:inc/user_libs/usbd_req.c ****     pdev->dev.DevRemoteWakeup = 1;  
 703:inc/user_libs/usbd_req.c ****     pdev->dev.class_cb->Setup (pdev, req);   
 704:inc/user_libs/usbd_req.c ****     USBD_CtlSendStatus(pdev);
 705:inc/user_libs/usbd_req.c ****   }
 706:inc/user_libs/usbd_req.c **** 
 707:inc/user_libs/usbd_req.c ****   else if ((req->wValue == USB_FEATURE_TEST_MODE) && 
 708:inc/user_libs/usbd_req.c ****            ((req->wIndex & 0xFF) == 0))
 709:inc/user_libs/usbd_req.c ****   {
 710:inc/user_libs/usbd_req.c ****     dctl.d32 = USB_OTG_READ_REG32(&pdev->regs.DREGS->DCTL);
 711:inc/user_libs/usbd_req.c ****     
 712:inc/user_libs/usbd_req.c ****     test_mode = req->wIndex >> 8;
 713:inc/user_libs/usbd_req.c ****     switch (test_mode) 
 714:inc/user_libs/usbd_req.c ****     {
 715:inc/user_libs/usbd_req.c ****     case 1: // TEST_J
 716:inc/user_libs/usbd_req.c ****       dctl.b.tstctl = 1;
ARM GAS  /tmp/ccH36hjN.s 			page 15


 717:inc/user_libs/usbd_req.c ****       break;
 718:inc/user_libs/usbd_req.c ****       
 719:inc/user_libs/usbd_req.c ****     case 2: // TEST_K	
 720:inc/user_libs/usbd_req.c ****       dctl.b.tstctl = 2;
 721:inc/user_libs/usbd_req.c ****       break;
 722:inc/user_libs/usbd_req.c ****       
 723:inc/user_libs/usbd_req.c ****     case 3: // TEST_SE0_NAK
 724:inc/user_libs/usbd_req.c ****       dctl.b.tstctl = 3;
 725:inc/user_libs/usbd_req.c ****       break;
 726:inc/user_libs/usbd_req.c ****       
 727:inc/user_libs/usbd_req.c ****     case 4: // TEST_PACKET
 728:inc/user_libs/usbd_req.c ****       dctl.b.tstctl = 4;
 729:inc/user_libs/usbd_req.c ****       break;
 730:inc/user_libs/usbd_req.c ****       
 731:inc/user_libs/usbd_req.c ****     case 5: // TEST_FORCE_ENABLE
 732:inc/user_libs/usbd_req.c ****       dctl.b.tstctl = 5;
 733:inc/user_libs/usbd_req.c ****       break;
 734:inc/user_libs/usbd_req.c ****     }
 735:inc/user_libs/usbd_req.c ****     SET_TEST_MODE = dctl;
 736:inc/user_libs/usbd_req.c ****     pdev->dev.test_mode = 1;
 737:inc/user_libs/usbd_req.c ****     USBD_CtlSendStatus(pdev);
 738:inc/user_libs/usbd_req.c ****   }
 739:inc/user_libs/usbd_req.c **** 
 740:inc/user_libs/usbd_req.c **** }
 741:inc/user_libs/usbd_req.c **** 
 742:inc/user_libs/usbd_req.c **** 
 743:inc/user_libs/usbd_req.c **** /**
 744:inc/user_libs/usbd_req.c **** * @brief  USBD_ClrFeature
 745:inc/user_libs/usbd_req.c **** *         Handle clear device feature request
 746:inc/user_libs/usbd_req.c **** * @param  pdev: device instance
 747:inc/user_libs/usbd_req.c **** * @param  req: usb request
 748:inc/user_libs/usbd_req.c **** * @retval status
 749:inc/user_libs/usbd_req.c **** */
 750:inc/user_libs/usbd_req.c **** static void USBD_ClrFeature(USB_OTG_CORE_HANDLE  *pdev, 
 751:inc/user_libs/usbd_req.c ****                             USB_SETUP_REQ *req)
 752:inc/user_libs/usbd_req.c **** {
 753:inc/user_libs/usbd_req.c ****   switch (pdev->dev.device_status)
 754:inc/user_libs/usbd_req.c ****   {
 755:inc/user_libs/usbd_req.c ****   case USB_OTG_ADDRESSED:
 756:inc/user_libs/usbd_req.c ****   case USB_OTG_CONFIGURED:
 757:inc/user_libs/usbd_req.c ****     if (req->wValue == USB_FEATURE_REMOTE_WAKEUP) 
 758:inc/user_libs/usbd_req.c ****     {
 759:inc/user_libs/usbd_req.c ****       pdev->dev.DevRemoteWakeup = 0; 
 760:inc/user_libs/usbd_req.c ****       pdev->dev.class_cb->Setup (pdev, req);   
 761:inc/user_libs/usbd_req.c ****       USBD_CtlSendStatus(pdev);
 762:inc/user_libs/usbd_req.c ****     }
 763:inc/user_libs/usbd_req.c ****     break;
 764:inc/user_libs/usbd_req.c ****     
 765:inc/user_libs/usbd_req.c ****   default :
 766:inc/user_libs/usbd_req.c ****      USBD_CtlError(pdev , req);
 767:inc/user_libs/usbd_req.c ****     break;
 768:inc/user_libs/usbd_req.c ****   }
 769:inc/user_libs/usbd_req.c **** }
 770:inc/user_libs/usbd_req.c **** 
 771:inc/user_libs/usbd_req.c **** /**
 772:inc/user_libs/usbd_req.c **** * @brief  USBD_ParseSetupRequest 
 773:inc/user_libs/usbd_req.c **** *         Copy buffer into setup structure
ARM GAS  /tmp/ccH36hjN.s 			page 16


 774:inc/user_libs/usbd_req.c **** * @param  pdev: device instance
 775:inc/user_libs/usbd_req.c **** * @param  req: usb request
 776:inc/user_libs/usbd_req.c **** * @retval None
 777:inc/user_libs/usbd_req.c **** */
 778:inc/user_libs/usbd_req.c **** 
 779:inc/user_libs/usbd_req.c **** void USBD_ParseSetupRequest( USB_OTG_CORE_HANDLE  *pdev,
 780:inc/user_libs/usbd_req.c ****                             USB_SETUP_REQ *req)
 781:inc/user_libs/usbd_req.c **** {
 782:inc/user_libs/usbd_req.c ****   req->bmRequest     = *(uint8_t *)  (pdev->dev.setup_packet);
 783:inc/user_libs/usbd_req.c ****   req->bRequest      = *(uint8_t *)  (pdev->dev.setup_packet +  1);
 784:inc/user_libs/usbd_req.c ****   req->wValue        = SWAPBYTE      (pdev->dev.setup_packet +  2);
 785:inc/user_libs/usbd_req.c ****   req->wIndex        = SWAPBYTE      (pdev->dev.setup_packet +  4);
 786:inc/user_libs/usbd_req.c ****   req->wLength       = SWAPBYTE      (pdev->dev.setup_packet +  6);
 787:inc/user_libs/usbd_req.c ****   
 788:inc/user_libs/usbd_req.c ****   pdev->dev.in_ep[0].ctl_data_len = req->wLength  ;
 789:inc/user_libs/usbd_req.c ****   pdev->dev.device_state = USB_OTG_EP0_SETUP;
 790:inc/user_libs/usbd_req.c **** }
 791:inc/user_libs/usbd_req.c **** 
 792:inc/user_libs/usbd_req.c **** /**
 793:inc/user_libs/usbd_req.c **** * @brief  USBD_CtlError 
 794:inc/user_libs/usbd_req.c **** *         Handle USB low level Error
 795:inc/user_libs/usbd_req.c **** * @param  pdev: device instance
 796:inc/user_libs/usbd_req.c **** * @param  req: usb request
 797:inc/user_libs/usbd_req.c **** * @retval None
 798:inc/user_libs/usbd_req.c **** */
 799:inc/user_libs/usbd_req.c **** 
 800:inc/user_libs/usbd_req.c **** void USBD_CtlError( USB_OTG_CORE_HANDLE  *pdev,
  83              		.loc 1 800 0
  84              		.cfi_startproc
  85              		@ args = 0, pretend = 0, frame = 0
  86              		@ frame_needed = 0, uses_anonymous_args = 0
  87              	.LVL0:
  88 0000 10B5     		push	{r4, lr}	@
  89              	.LCFI0:
  90              		.cfi_def_cfa_offset 8
  91              		.cfi_offset 4, -8
  92              		.cfi_offset 14, -4
  93              	@ inc/user_libs/usbd_req.c:804:   DCD_EP_Stall(pdev , 0x80);
 801:inc/user_libs/usbd_req.c ****                             USB_SETUP_REQ *req)
 802:inc/user_libs/usbd_req.c **** {
 803:inc/user_libs/usbd_req.c ****   
 804:inc/user_libs/usbd_req.c ****   DCD_EP_Stall(pdev , 0x80);
  94              		.loc 1 804 0
  95 0002 8021     		movs	r1, #128	@,
  96              	@ inc/user_libs/usbd_req.c:800: void USBD_CtlError( USB_OTG_CORE_HANDLE  *pdev,
 800:inc/user_libs/usbd_req.c ****                             USB_SETUP_REQ *req)
  97              		.loc 1 800 0
  98 0004 0446     		mov	r4, r0	@ pdev, pdev
  99              	@ inc/user_libs/usbd_req.c:804:   DCD_EP_Stall(pdev , 0x80);
 100              		.loc 1 804 0
 101 0006 FFF7FEFF 		bl	DCD_EP_Stall	@
 102              	.LVL1:
 103              	@ inc/user_libs/usbd_req.c:805:   DCD_EP_Stall(pdev , 0);
 805:inc/user_libs/usbd_req.c ****   DCD_EP_Stall(pdev , 0);
 104              		.loc 1 805 0
 105 000a 2046     		mov	r0, r4	@, pdev
 106 000c 0021     		movs	r1, #0	@,
ARM GAS  /tmp/ccH36hjN.s 			page 17


 107 000e FFF7FEFF 		bl	DCD_EP_Stall	@
 108              	.LVL2:
 109              	@ inc/user_libs/usbd_req.c:806:   USB_OTG_EP0_OutStart(pdev);  
 806:inc/user_libs/usbd_req.c ****   USB_OTG_EP0_OutStart(pdev);  
 110              		.loc 1 806 0
 111 0012 2046     		mov	r0, r4	@, pdev
 112              	@ inc/user_libs/usbd_req.c:807: }
 807:inc/user_libs/usbd_req.c **** }
 113              		.loc 1 807 0
 114 0014 BDE81040 		pop	{r4, lr}	@
 115              	.LCFI1:
 116              		.cfi_restore 14
 117              		.cfi_restore 4
 118              		.cfi_def_cfa_offset 0
 119              	.LVL3:
 120              	@ inc/user_libs/usbd_req.c:806:   USB_OTG_EP0_OutStart(pdev);  
 806:inc/user_libs/usbd_req.c ****   USB_OTG_EP0_OutStart(pdev);  
 121              		.loc 1 806 0
 122 0018 FFF7FEBF 		b	USB_OTG_EP0_OutStart	@
 123              	.LVL4:
 124              		.cfi_endproc
 125              	.LFE124:
 126              		.size	USBD_CtlError.constprop.0, .-USBD_CtlError.constprop.0
 127              		.align	1
 128              		.global	USBD_StdDevReq
 129              		.syntax unified
 130              		.thumb
 131              		.thumb_func
 132              		.fpu softvfp
 133              		.type	USBD_StdDevReq, %function
 134              	USBD_StdDevReq:
 135              	.LFB110:
 149:inc/user_libs/usbd_req.c ****   USBD_Status ret = USBD_OK;  
 136              		.loc 1 149 0
 137              		.cfi_startproc
 138              		@ args = 0, pretend = 0, frame = 8
 139              		@ frame_needed = 0, uses_anonymous_args = 0
 140              	.LVL5:
 141 001c 73B5     		push	{r0, r1, r4, r5, r6, lr}	@
 142              	.LCFI2:
 143              		.cfi_def_cfa_offset 24
 144              		.cfi_offset 4, -16
 145              		.cfi_offset 5, -12
 146              		.cfi_offset 6, -8
 147              		.cfi_offset 14, -4
 148              	@ inc/user_libs/usbd_req.c:152:   switch (req->bRequest) 
 152:inc/user_libs/usbd_req.c ****   {
 149              		.loc 1 152 0
 150 001e 4B78     		ldrb	r3, [r1, #1]	@ zero_extendqisi2	@ req_4(D)->bRequest, req_4(D)->bRequest
 151              	@ inc/user_libs/usbd_req.c:149: {
 149:inc/user_libs/usbd_req.c ****   USBD_Status ret = USBD_OK;  
 152              		.loc 1 149 0
 153 0020 0446     		mov	r4, r0	@ pdev, pdev
 154              	.LVL6:
 155 0022 0D46     		mov	r5, r1	@ req, req
 156              	@ inc/user_libs/usbd_req.c:152:   switch (req->bRequest) 
 152:inc/user_libs/usbd_req.c ****   {
ARM GAS  /tmp/ccH36hjN.s 			page 18


 157              		.loc 1 152 0
 158 0024 092B     		cmp	r3, #9	@ req_4(D)->bRequest,
 159 0026 6CD8     		bhi	.L3	@
 160 0028 DFE813F0 		tbh	[pc, r3, lsl #1]	@ req_4(D)->bRequest
 161              	.L5:
 162 002c BE00     		.2byte	(.L4-.L5)/2
 163 002e FC00     		.2byte	(.L6-.L5)/2
 164 0030 6B00     		.2byte	(.L3-.L5)/2
 165 0032 CE00     		.2byte	(.L7-.L5)/2
 166 0034 6B00     		.2byte	(.L3-.L5)/2
 167 0036 6300     		.2byte	(.L8-.L5)/2
 168 0038 0A00     		.2byte	(.L9-.L5)/2
 169 003a 6B00     		.2byte	(.L3-.L5)/2
 170 003c B000     		.2byte	(.L10-.L5)/2
 171 003e 8300     		.2byte	(.L11-.L5)/2
 172              		.p2align 1
 173              	.L9:
 174              	.LVL7:
 175              	.LBB16:
 176              	.LBB17:
 177              	@ inc/user_libs/usbd_req.c:373:   switch (req->wValue >> 8)
 373:inc/user_libs/usbd_req.c ****   {
 178              		.loc 1 373 0
 179 0040 4B88     		ldrh	r3, [r1, #2]	@ _14, req_4(D)->wValue
 180 0042 1E0A     		lsrs	r6, r3, #8	@ tmp179, _14,
 181 0044 022E     		cmp	r6, #2	@ tmp179,
 182 0046 25D0     		beq	.L13	@,
 183 0048 032E     		cmp	r6, #3	@ tmp179,
 184 004a 2ED0     		beq	.L14	@,
 185 004c 012E     		cmp	r6, #1	@ tmp179,
 186 004e 58D1     		bne	.L3	@,
 187              	@ inc/user_libs/usbd_req.c:376:     pbuf = pdev->dev.usr_device->GetDeviceDescriptor(pdev->cfg.spee
 376:inc/user_libs/usbd_req.c ****     if ((req->wLength == 64) ||( pdev->dev.device_status == USB_OTG_DEFAULT))  
 188              		.loc 1 376 0
 189 0050 D0F8EC35 		ldr	r3, [r0, #1516]	@ pdev_5(D)->dev.usr_device, pdev_5(D)->dev.usr_device
 190 0054 8078     		ldrb	r0, [r0, #2]	@ zero_extendqisi2	@, pdev_5(D)->cfg.speed
 191              	.LVL8:
 192 0056 1B68     		ldr	r3, [r3]	@ _16->GetDeviceDescriptor, _16->GetDeviceDescriptor
 193 0058 0DF10601 		add	r1, sp, #6	@,,
 194              	.LVL9:
 195 005c 9847     		blx	r3	@ _16->GetDeviceDescriptor
 196              	.LVL10:
 197              	@ inc/user_libs/usbd_req.c:377:     if ((req->wLength == 64) ||( pdev->dev.device_status == USB_OTG
 377:inc/user_libs/usbd_req.c ****     {                  
 198              		.loc 1 377 0
 199 005e EB88     		ldrh	r3, [r5, #6]	@ req_4(D)->wLength, req_4(D)->wLength
 200 0060 402B     		cmp	r3, #64	@ req_4(D)->wLength,
 201 0062 03D0     		beq	.L16	@,
 202 0064 94F81231 		ldrb	r3, [r4, #274]	@ zero_extendqisi2	@ pdev_5(D)->dev.device_status, pdev_5(D)->dev.device_statu
 203 0068 012B     		cmp	r3, #1	@ pdev_5(D)->dev.device_status,
 204 006a 02D1     		bne	.L17	@,
 205              	.L16:
 206              	@ inc/user_libs/usbd_req.c:379:       len = 8;
 379:inc/user_libs/usbd_req.c ****     }
 207              		.loc 1 379 0
 208 006c 0823     		movs	r3, #8	@ tmp187,
 209 006e ADF80630 		strh	r3, [sp, #6]	@ movhi	@ tmp187, len
ARM GAS  /tmp/ccH36hjN.s 			page 19


 210              	.L17:
 211              	@ inc/user_libs/usbd_req.c:483:   if((len != 0)&& (req->wLength != 0))
 483:inc/user_libs/usbd_req.c ****   {
 212              		.loc 1 483 0
 213 0072 BDF80620 		ldrh	r2, [sp, #6]	@ len.0_51, len
 214 0076 002A     		cmp	r2, #0	@ len.0_51
 215 0078 56D0     		beq	.L26	@
 216 007a EB88     		ldrh	r3, [r5, #6]	@ _52, req_4(D)->wLength
 217 007c 002B     		cmp	r3, #0	@ _52
 218 007e 53D0     		beq	.L26	@
 219              	@ inc/user_libs/usbd_req.c:486:     len = MIN(len , req->wLength);
 486:inc/user_libs/usbd_req.c ****     
 220              		.loc 1 486 0
 221 0080 9A42     		cmp	r2, r3	@ len.0_51, _52
 222 0082 28BF     		it	cs
 223 0084 1A46     		movcs	r2, r3	@ _53, _52
 224 0086 ADF80620 		strh	r2, [sp, #6]	@ movhi	@ _53, len
 225              	@ inc/user_libs/usbd_req.c:488:     USBD_CtlSendData (pdev, 
 488:inc/user_libs/usbd_req.c ****                       pbuf,
 226              		.loc 1 488 0
 227 008a 0146     		mov	r1, r0	@, pbuf
 228              	.LVL11:
 229              	.L70:
 230              	.LBE17:
 231              	.LBE16:
 232              	.LBB19:
 233              	.LBB20:
 234              	@ inc/user_libs/usbd_req.c:674:     USBD_CtlSendData (pdev, 
 674:inc/user_libs/usbd_req.c ****                       (uint8_t *)&USBD_cfg_status,
 235              		.loc 1 674 0
 236 008c 2046     		mov	r0, r4	@, pdev
 237 008e FFF7FEFF 		bl	USBD_CtlSendData	@
 238              	.LVL12:
 239 0092 49E0     		b	.L26	@
 240              	.LVL13:
 241              	.L13:
 242              	.LBE20:
 243              	.LBE19:
 244              	.LBB22:
 245              	.LBB18:
 246              	@ inc/user_libs/usbd_req.c:384:       pbuf   = (uint8_t *)pdev->dev.class_cb->GetConfigDescriptor(p
 384:inc/user_libs/usbd_req.c **** #ifdef USB_OTG_HS_CORE
 247              		.loc 1 384 0
 248 0094 D0F8E435 		ldr	r3, [r0, #1508]	@ pdev_5(D)->dev.class_cb, pdev_5(D)->dev.class_cb
 249 0098 8078     		ldrb	r0, [r0, #2]	@ zero_extendqisi2	@, pdev_5(D)->cfg.speed
 250              	.LVL14:
 251 009a 9B6A     		ldr	r3, [r3, #40]	@ _22->GetConfigDescriptor, _22->GetConfigDescriptor
 252 009c 0DF10601 		add	r1, sp, #6	@,,
 253              	.LVL15:
 254 00a0 9847     		blx	r3	@ _22->GetConfigDescriptor
 255              	.LVL16:
 256              	@ inc/user_libs/usbd_req.c:392:     pbuf[1] = USB_DESC_TYPE_CONFIGURATION;
 392:inc/user_libs/usbd_req.c ****     pdev->dev.pConfig_descriptor = pbuf;    
 257              		.loc 1 392 0
 258 00a2 4670     		strb	r6, [r0, #1]	@ tmp179, MEM[(uint8_t *)pbuf_25 + 1B]
 259              	@ inc/user_libs/usbd_req.c:393:     pdev->dev.pConfig_descriptor = pbuf;    
 393:inc/user_libs/usbd_req.c ****     break;
ARM GAS  /tmp/ccH36hjN.s 			page 20


 260              		.loc 1 393 0
 261 00a4 C4F8F005 		str	r0, [r4, #1520]	@ pbuf, pdev_5(D)->dev.pConfig_descriptor
 262 00a8 E3E7     		b	.L17	@
 263              	.LVL17:
 264              	.L14:
 265              	@ inc/user_libs/usbd_req.c:397:     switch ((uint8_t)(req->wValue))
 397:inc/user_libs/usbd_req.c ****     {
 266              		.loc 1 397 0
 267 00aa DBB2     		uxtb	r3, r3	@ _14, _14
 268 00ac 052B     		cmp	r3, #5	@ _14,
 269 00ae 28D8     		bhi	.L3	@
 270 00b0 DFE803F0 		tbb	[pc, r3]	@ _14
 271              	.L19:
 272 00b4 03       		.byte	(.L18-.L19)/2
 273 00b5 0B       		.byte	(.L20-.L19)/2
 274 00b6 0F       		.byte	(.L21-.L19)/2
 275 00b7 13       		.byte	(.L22-.L19)/2
 276 00b8 17       		.byte	(.L23-.L19)/2
 277 00b9 1B       		.byte	(.L24-.L19)/2
 278              		.p2align 1
 279              	.L18:
 280              	@ inc/user_libs/usbd_req.c:400:      pbuf = pdev->dev.usr_device->GetLangIDStrDescriptor(pdev->cfg.
 400:inc/user_libs/usbd_req.c ****       break;
 281              		.loc 1 400 0
 282 00ba D0F8EC35 		ldr	r3, [r0, #1516]	@ pdev_5(D)->dev.usr_device, pdev_5(D)->dev.usr_device
 283 00be 5B68     		ldr	r3, [r3, #4]	@ _27->GetLangIDStrDescriptor, _27->GetLangIDStrDescriptor
 284              	.L66:
 285              	@ inc/user_libs/usbd_req.c:420:       pbuf = pdev->dev.usr_device->GetInterfaceStrDescriptor(pdev->
 420:inc/user_libs/usbd_req.c ****       break;
 286              		.loc 1 420 0
 287 00c0 A078     		ldrb	r0, [r4, #2]	@ zero_extendqisi2	@, pdev_5(D)->cfg.speed
 288              	.LVL18:
 289 00c2 0DF10601 		add	r1, sp, #6	@,,
 290              	.LVL19:
 291 00c6 9847     		blx	r3	@ _47->GetInterfaceStrDescriptor
 292              	.LVL20:
 293 00c8 D3E7     		b	.L17	@
 294              	.LVL21:
 295              	.L20:
 296              	@ inc/user_libs/usbd_req.c:404:       pbuf = pdev->dev.usr_device->GetManufacturerStrDescriptor(pde
 404:inc/user_libs/usbd_req.c ****       break;
 297              		.loc 1 404 0
 298 00ca D0F8EC35 		ldr	r3, [r0, #1516]	@ pdev_5(D)->dev.usr_device, pdev_5(D)->dev.usr_device
 299 00ce 9B68     		ldr	r3, [r3, #8]	@ _31->GetManufacturerStrDescriptor, _31->GetManufacturerStrDescriptor
 300 00d0 F6E7     		b	.L66	@
 301              	.L21:
 302              	@ inc/user_libs/usbd_req.c:408:       pbuf = pdev->dev.usr_device->GetProductStrDescriptor(pdev->cf
 408:inc/user_libs/usbd_req.c ****       break;
 303              		.loc 1 408 0
 304 00d2 D0F8EC35 		ldr	r3, [r0, #1516]	@ pdev_5(D)->dev.usr_device, pdev_5(D)->dev.usr_device
 305 00d6 DB68     		ldr	r3, [r3, #12]	@ _35->GetProductStrDescriptor, _35->GetProductStrDescriptor
 306 00d8 F2E7     		b	.L66	@
 307              	.L22:
 308              	@ inc/user_libs/usbd_req.c:412:       pbuf = pdev->dev.usr_device->GetSerialStrDescriptor(pdev->cfg
 412:inc/user_libs/usbd_req.c ****       break;
 309              		.loc 1 412 0
 310 00da D0F8EC35 		ldr	r3, [r0, #1516]	@ pdev_5(D)->dev.usr_device, pdev_5(D)->dev.usr_device
ARM GAS  /tmp/ccH36hjN.s 			page 21


 311 00de 1B69     		ldr	r3, [r3, #16]	@ _39->GetSerialStrDescriptor, _39->GetSerialStrDescriptor
 312 00e0 EEE7     		b	.L66	@
 313              	.L23:
 314              	@ inc/user_libs/usbd_req.c:416:       pbuf = pdev->dev.usr_device->GetConfigurationStrDescriptor(pd
 416:inc/user_libs/usbd_req.c ****       break;
 315              		.loc 1 416 0
 316 00e2 D0F8EC35 		ldr	r3, [r0, #1516]	@ pdev_5(D)->dev.usr_device, pdev_5(D)->dev.usr_device
 317 00e6 5B69     		ldr	r3, [r3, #20]	@ _43->GetConfigurationStrDescriptor, _43->GetConfigurationStrDescriptor
 318 00e8 EAE7     		b	.L66	@
 319              	.L24:
 320              	@ inc/user_libs/usbd_req.c:420:       pbuf = pdev->dev.usr_device->GetInterfaceStrDescriptor(pdev->
 420:inc/user_libs/usbd_req.c ****       break;
 321              		.loc 1 420 0
 322 00ea D0F8EC35 		ldr	r3, [r0, #1516]	@ pdev_5(D)->dev.usr_device, pdev_5(D)->dev.usr_device
 323 00ee 9B69     		ldr	r3, [r3, #24]	@ _47->GetInterfaceStrDescriptor, _47->GetInterfaceStrDescriptor
 324 00f0 E6E7     		b	.L66	@
 325              	.LVL22:
 326              	.L8:
 327              	.LBE18:
 328              	.LBE22:
 329              	.LBB23:
 330              	.LBB24:
 331              	@ inc/user_libs/usbd_req.c:507:   if ((req->wIndex == 0) && (req->wLength == 0)) 
 507:inc/user_libs/usbd_req.c ****   {
 332              		.loc 1 507 0
 333 00f2 8B88     		ldrh	r3, [r1, #4]	@ req_4(D)->wIndex, req_4(D)->wIndex
 334 00f4 2BB9     		cbnz	r3, .L3	@ req_4(D)->wIndex,
 335 00f6 CB88     		ldrh	r3, [r1, #6]	@ req_4(D)->wLength, req_4(D)->wLength
 336 00f8 1BB9     		cbnz	r3, .L3	@ req_4(D)->wLength,
 337              	.LVL23:
 338              	@ inc/user_libs/usbd_req.c:511:     if (pdev->dev.device_status == USB_OTG_CONFIGURED) 
 511:inc/user_libs/usbd_req.c ****     {
 339              		.loc 1 511 0
 340 00fa 90F81231 		ldrb	r3, [r0, #274]	@ zero_extendqisi2	@ pdev_5(D)->dev.device_status, pdev_5(D)->dev.device_statu
 341 00fe 032B     		cmp	r3, #3	@ pdev_5(D)->dev.device_status,
 342 0100 03D1     		bne	.L28	@,
 343              	.LVL24:
 344              	.L3:
 345              	.LBE24:
 346              	.LBE23:
 347              	.LBB27:
 348              	.LBB28:
 349              	@ inc/user_libs/usbd_req.c:600:        USBD_CtlError(pdev , req);                     
 600:inc/user_libs/usbd_req.c ****       break;
 350              		.loc 1 600 0
 351 0102 2046     		mov	r0, r4	@, pdev
 352              	.LVL25:
 353 0104 FFF77CFF 		bl	USBD_CtlError.constprop.0	@
 354              	.LVL26:
 355 0108 0EE0     		b	.L26	@
 356              	.LVL27:
 357              	.L28:
 358              	.LBE28:
 359              	.LBE27:
 360              	.LBB31:
 361              	.LBB25:
 362              	@ inc/user_libs/usbd_req.c:509:     dev_addr = (uint8_t)(req->wValue) & 0x7F;     
ARM GAS  /tmp/ccH36hjN.s 			page 22


 509:inc/user_libs/usbd_req.c ****     
 363              		.loc 1 509 0
 364 010a 8D78     		ldrb	r5, [r1, #2]	@ zero_extendqisi2	@, req_4(D)->wValue
 365 010c 05F07F05 		and	r5, r5, #127	@ dev_addr, req_4(D)->wValue,
 366              	@ inc/user_libs/usbd_req.c:517:       pdev->dev.device_address = dev_addr;
 517:inc/user_libs/usbd_req.c ****       DCD_EP_SetAddress(pdev, dev_addr);               
 367              		.loc 1 517 0
 368 0110 80F81451 		strb	r5, [r0, #276]	@ dev_addr, pdev_5(D)->dev.device_address
 369              	.LVL28:
 370              	@ inc/user_libs/usbd_req.c:518:       DCD_EP_SetAddress(pdev, dev_addr);               
 518:inc/user_libs/usbd_req.c ****       USBD_CtlSendStatus(pdev);                         
 371              		.loc 1 518 0
 372 0114 2946     		mov	r1, r5	@, dev_addr
 373              	.LVL29:
 374 0116 FFF7FEFF 		bl	DCD_EP_SetAddress	@
 375              	.LVL30:
 376              	@ inc/user_libs/usbd_req.c:519:       USBD_CtlSendStatus(pdev);                         
 519:inc/user_libs/usbd_req.c ****       
 377              		.loc 1 519 0
 378 011a 2046     		mov	r0, r4	@, pdev
 379 011c FFF7FEFF 		bl	USBD_CtlSendStatus	@
 380              	.LVL31:
 381              	@ inc/user_libs/usbd_req.c:521:       if (dev_addr != 0) 
 521:inc/user_libs/usbd_req.c ****       {
 382              		.loc 1 521 0
 383 0120 2DB1     		cbz	r5, .L29	@ dev_addr,
 384              	@ inc/user_libs/usbd_req.c:523:         pdev->dev.device_status  = USB_OTG_ADDRESSED;
 523:inc/user_libs/usbd_req.c ****       } 
 385              		.loc 1 523 0
 386 0122 0223     		movs	r3, #2	@ tmp229,
 387              	.L71:
 388              	@ inc/user_libs/usbd_req.c:527:         pdev->dev.device_status  = USB_OTG_DEFAULT; 
 527:inc/user_libs/usbd_req.c ****       }
 389              		.loc 1 527 0
 390 0124 84F81231 		strb	r3, [r4, #274]	@ tmp231, pdev_5(D)->dev.device_status
 391              	.LVL32:
 392              	.L26:
 393              	.LBE25:
 394              	.LBE31:
 395              	@ inc/user_libs/usbd_req.c:190: }
 190:inc/user_libs/usbd_req.c **** 
 396              		.loc 1 190 0
 397 0128 0020     		movs	r0, #0	@,
 398 012a 02B0     		add	sp, sp, #8	@,,
 399              	.LCFI3:
 400              		.cfi_remember_state
 401              		.cfi_def_cfa_offset 16
 402              		@ sp needed	@
 403 012c 70BD     		pop	{r4, r5, r6, pc}	@
 404              	.LVL33:
 405              	.L29:
 406              	.LCFI4:
 407              		.cfi_restore_state
 408              	.LBB32:
 409              	.LBB26:
 410              	@ inc/user_libs/usbd_req.c:527:         pdev->dev.device_status  = USB_OTG_DEFAULT; 
 527:inc/user_libs/usbd_req.c ****       }
ARM GAS  /tmp/ccH36hjN.s 			page 23


 411              		.loc 1 527 0
 412 012e 0123     		movs	r3, #1	@ tmp231,
 413 0130 F8E7     		b	.L71	@
 414              	.LVL34:
 415              	.L11:
 416              	.LBE26:
 417              	.LBE32:
 418              	.LBB33:
 419              	.LBB29:
 420              	@ inc/user_libs/usbd_req.c:550:   cfgidx = (uint8_t)(req->wValue);                 
 550:inc/user_libs/usbd_req.c ****   
 421              		.loc 1 550 0
 422 0132 8978     		ldrb	r1, [r1, #2]	@ zero_extendqisi2	@ _62, req_4(D)->wValue
 423              	.LVL35:
 424 0134 414D     		ldr	r5, .L73	@ tmp234,
 425              	.LVL36:
 426              	@ inc/user_libs/usbd_req.c:552:   if (cfgidx > USBD_CFG_MAX_NUM ) 
 552:inc/user_libs/usbd_req.c ****   {            
 427              		.loc 1 552 0
 428 0136 0129     		cmp	r1, #1	@ _62,
 429              	@ inc/user_libs/usbd_req.c:550:   cfgidx = (uint8_t)(req->wValue);                 
 550:inc/user_libs/usbd_req.c ****   
 430              		.loc 1 550 0
 431 0138 2970     		strb	r1, [r5]	@ _62, cfgidx
 432              	@ inc/user_libs/usbd_req.c:552:   if (cfgidx > USBD_CFG_MAX_NUM ) 
 552:inc/user_libs/usbd_req.c ****   {            
 433              		.loc 1 552 0
 434 013a E2D8     		bhi	.L3	@,
 435              	@ inc/user_libs/usbd_req.c:558:     switch (pdev->dev.device_status) 
 558:inc/user_libs/usbd_req.c ****     {
 436              		.loc 1 558 0
 437 013c 90F81231 		ldrb	r3, [r0, #274]	@ zero_extendqisi2	@ pdev_5(D)->dev.device_status, pdev_5(D)->dev.device_statu
 438 0140 022B     		cmp	r3, #2	@ pdev_5(D)->dev.device_status,
 439 0142 0DD0     		beq	.L30	@,
 440 0144 032B     		cmp	r3, #3	@ pdev_5(D)->dev.device_status,
 441 0146 DCD1     		bne	.L3	@,
 442              	@ inc/user_libs/usbd_req.c:575:       if (cfgidx == 0) 
 575:inc/user_libs/usbd_req.c ****       {                           
 443              		.loc 1 575 0
 444 0148 B1B9     		cbnz	r1, .L33	@ _62,
 445              	@ inc/user_libs/usbd_req.c:577:         pdev->dev.device_status = USB_OTG_ADDRESSED;
 577:inc/user_libs/usbd_req.c ****         pdev->dev.device_config = cfgidx;          
 446              		.loc 1 577 0
 447 014a 0223     		movs	r3, #2	@ tmp241,
 448 014c 80F81231 		strb	r3, [r0, #274]	@ tmp241, pdev_5(D)->dev.device_status
 449              	@ inc/user_libs/usbd_req.c:578:         pdev->dev.device_config = cfgidx;          
 578:inc/user_libs/usbd_req.c ****         USBD_ClrCfg(pdev , cfgidx);
 450              		.loc 1 578 0
 451 0150 80F81011 		strb	r1, [r0, #272]	@ _62, pdev_5(D)->dev.device_config
 452              	@ inc/user_libs/usbd_req.c:579:         USBD_ClrCfg(pdev , cfgidx);
 579:inc/user_libs/usbd_req.c ****         USBD_CtlSendStatus(pdev);
 453              		.loc 1 579 0
 454 0154 FFF7FEFF 		bl	USBD_ClrCfg	@
 455              	.LVL37:
 456              	.L68:
 457              	.LBE29:
 458              	.LBE33:
ARM GAS  /tmp/ccH36hjN.s 			page 24


 459              	.LBB34:
 460              	.LBB35:
 461              	@ inc/user_libs/usbd_req.c:761:       USBD_CtlSendStatus(pdev);
 761:inc/user_libs/usbd_req.c ****     }
 462              		.loc 1 761 0
 463 0158 2046     		mov	r0, r4	@, pdev
 464 015a FFF7FEFF 		bl	USBD_CtlSendStatus	@
 465              	.LVL38:
 466 015e E3E7     		b	.L26	@
 467              	.LVL39:
 468              	.L30:
 469              	.LBE35:
 470              	.LBE34:
 471              	.LBB38:
 472              	.LBB30:
 473              	@ inc/user_libs/usbd_req.c:561:       if (cfgidx) 
 561:inc/user_libs/usbd_req.c ****       {                                			   							   							   				
 474              		.loc 1 561 0
 475 0160 0029     		cmp	r1, #0	@ _62
 476 0162 F9D0     		beq	.L68	@
 477              	@ inc/user_libs/usbd_req.c:563:         pdev->dev.device_config = cfgidx;
 563:inc/user_libs/usbd_req.c ****         pdev->dev.device_status = USB_OTG_CONFIGURED;
 478              		.loc 1 563 0
 479 0164 0121     		movs	r1, #1	@ tmp237,
 480              	@ inc/user_libs/usbd_req.c:564:         pdev->dev.device_status = USB_OTG_CONFIGURED;
 564:inc/user_libs/usbd_req.c ****         USBD_SetCfg(pdev , cfgidx);
 481              		.loc 1 564 0
 482 0166 0323     		movs	r3, #3	@ tmp239,
 483              	@ inc/user_libs/usbd_req.c:563:         pdev->dev.device_config = cfgidx;
 563:inc/user_libs/usbd_req.c ****         pdev->dev.device_status = USB_OTG_CONFIGURED;
 484              		.loc 1 563 0
 485 0168 80F81011 		strb	r1, [r0, #272]	@ tmp237, pdev_5(D)->dev.device_config
 486              	@ inc/user_libs/usbd_req.c:564:         pdev->dev.device_status = USB_OTG_CONFIGURED;
 564:inc/user_libs/usbd_req.c ****         USBD_SetCfg(pdev , cfgidx);
 487              		.loc 1 564 0
 488 016c 80F81231 		strb	r3, [r0, #274]	@ tmp239, pdev_5(D)->dev.device_status
 489              	.LVL40:
 490              	.L72:
 491              	@ inc/user_libs/usbd_req.c:590:         USBD_SetCfg(pdev , cfgidx);
 590:inc/user_libs/usbd_req.c ****         USBD_CtlSendStatus(pdev);
 492              		.loc 1 590 0
 493 0170 2046     		mov	r0, r4	@, pdev
 494 0172 FFF7FEFF 		bl	USBD_SetCfg	@
 495              	.LVL41:
 496 0176 EFE7     		b	.L68	@
 497              	.LVL42:
 498              	.L33:
 499              	@ inc/user_libs/usbd_req.c:583:       else  if (cfgidx != pdev->dev.device_config) 
 583:inc/user_libs/usbd_req.c ****       {
 500              		.loc 1 583 0
 501 0178 90F81011 		ldrb	r1, [r0, #272]	@ zero_extendqisi2	@ _64, pdev_5(D)->dev.device_config
 502 017c 0129     		cmp	r1, #1	@ _64,
 503 017e EBD0     		beq	.L68	@,
 504              	@ inc/user_libs/usbd_req.c:586:         USBD_ClrCfg(pdev , pdev->dev.device_config);
 586:inc/user_libs/usbd_req.c ****         
 505              		.loc 1 586 0
 506 0180 FFF7FEFF 		bl	USBD_ClrCfg	@
ARM GAS  /tmp/ccH36hjN.s 			page 25


 507              	.LVL43:
 508              	@ inc/user_libs/usbd_req.c:589:         pdev->dev.device_config = cfgidx;
 589:inc/user_libs/usbd_req.c ****         USBD_SetCfg(pdev , cfgidx);
 509              		.loc 1 589 0
 510 0184 2978     		ldrb	r1, [r5]	@ zero_extendqisi2	@ cfgidx.11_65, cfgidx
 511 0186 84F81011 		strb	r1, [r4, #272]	@ cfgidx.11_65, pdev_5(D)->dev.device_config
 512 018a F1E7     		b	.L72	@
 513              	.LVL44:
 514              	.L10:
 515              	.LBE30:
 516              	.LBE38:
 517              	.LBB39:
 518              	.LBB40:
 519              	@ inc/user_libs/usbd_req.c:617:   if (req->wLength != 1) 
 617:inc/user_libs/usbd_req.c ****   {                   
 520              		.loc 1 617 0
 521 018c CA88     		ldrh	r2, [r1, #6]	@ req_4(D)->wLength, req_4(D)->wLength
 522 018e 012A     		cmp	r2, #1	@ req_4(D)->wLength,
 523 0190 B7D1     		bne	.L3	@,
 524              	@ inc/user_libs/usbd_req.c:623:     switch (pdev->dev.device_status )  
 623:inc/user_libs/usbd_req.c ****     {
 525              		.loc 1 623 0
 526 0192 90F81231 		ldrb	r3, [r0, #274]	@ zero_extendqisi2	@ pdev_5(D)->dev.device_status, pdev_5(D)->dev.device_statu
 527 0196 022B     		cmp	r3, #2	@ pdev_5(D)->dev.device_status,
 528 0198 04D0     		beq	.L34	@,
 529 019a 032B     		cmp	r3, #3	@ pdev_5(D)->dev.device_status,
 530 019c B1D1     		bne	.L3	@,
 531              	@ inc/user_libs/usbd_req.c:634:       USBD_CtlSendData (pdev, 
 634:inc/user_libs/usbd_req.c ****                         &pdev->dev.device_config,
 532              		.loc 1 634 0
 533 019e 00F58871 		add	r1, r0, #272	@, pdev,
 534              	.LVL45:
 535 01a2 73E7     		b	.L70	@
 536              	.LVL46:
 537              	.L34:
 538              	@ inc/user_libs/usbd_req.c:627:       USBD_CtlSendData (pdev, 
 627:inc/user_libs/usbd_req.c ****                         (uint8_t *)&USBD_default_cfg,
 539              		.loc 1 627 0
 540 01a4 2649     		ldr	r1, .L73+4	@,
 541              	.LVL47:
 542 01a6 71E7     		b	.L70	@
 543              	.LVL48:
 544              	.L4:
 545              	.LBE40:
 546              	.LBE39:
 547              	.LBB41:
 548              	.LBB21:
 549              	@ inc/user_libs/usbd_req.c:658:   switch (pdev->dev.device_status) 
 658:inc/user_libs/usbd_req.c ****   {
 550              		.loc 1 658 0
 551 01a8 90F81231 		ldrb	r3, [r0, #274]	@ zero_extendqisi2	@ pdev_5(D)->dev.device_status, pdev_5(D)->dev.device_statu
 552 01ac 023B     		subs	r3, r3, #2	@ tmp253, pdev_5(D)->dev.device_status,
 553 01ae 012B     		cmp	r3, #1	@ tmp253,
 554 01b0 A7D8     		bhi	.L3	@,
 555              	@ inc/user_libs/usbd_req.c:664:     USBD_cfg_status = USB_CONFIG_SELF_POWERED;                     
 664:inc/user_libs/usbd_req.c **** #else
 556              		.loc 1 664 0
ARM GAS  /tmp/ccH36hjN.s 			page 26


 557 01b2 224B     		ldr	r3, .L73	@ tmp256,
 558 01b4 0122     		movs	r2, #1	@ tmp254,
 559 01b6 9A60     		str	r2, [r3, #8]	@ tmp254, USBD_cfg_status
 560              	@ inc/user_libs/usbd_req.c:669:     if (pdev->dev.DevRemoteWakeup) 
 669:inc/user_libs/usbd_req.c ****     {
 561              		.loc 1 669 0
 562 01b8 D0F81821 		ldr	r2, [r0, #280]	@ pdev_5(D)->dev.DevRemoteWakeup, pdev_5(D)->dev.DevRemoteWakeup
 563 01bc 0AB1     		cbz	r2, .L37	@ pdev_5(D)->dev.DevRemoteWakeup,
 564              	@ inc/user_libs/usbd_req.c:671:       USBD_cfg_status |= USB_CONFIG_REMOTE_WAKEUP;                 
 671:inc/user_libs/usbd_req.c ****     }
 565              		.loc 1 671 0
 566 01be 0322     		movs	r2, #3	@ tmp255,
 567 01c0 9A60     		str	r2, [r3, #8]	@ tmp255, USBD_cfg_status
 568              	.L37:
 569              	@ inc/user_libs/usbd_req.c:674:     USBD_CtlSendData (pdev, 
 674:inc/user_libs/usbd_req.c ****                       (uint8_t *)&USBD_cfg_status,
 570              		.loc 1 674 0
 571 01c2 0222     		movs	r2, #2	@,
 572 01c4 1F49     		ldr	r1, .L73+8	@,
 573              	.LVL49:
 574 01c6 61E7     		b	.L70	@
 575              	.LVL50:
 576              	.L7:
 577              	.LBE21:
 578              	.LBE41:
 579              	.LBB42:
 580              	.LBB43:
 581              	@ inc/user_libs/usbd_req.c:700:   if (req->wValue == USB_FEATURE_REMOTE_WAKEUP)
 700:inc/user_libs/usbd_req.c ****   {
 582              		.loc 1 700 0
 583 01c8 4B88     		ldrh	r3, [r1, #2]	@ _71, req_4(D)->wValue
 584 01ca 012B     		cmp	r3, #1	@ _71,
 585 01cc 08D1     		bne	.L38	@,
 586              	.LVL51:
 587              	.L69:
 588              	.LBE43:
 589              	.LBE42:
 590              	.LBB45:
 591              	.LBB36:
 592              	@ inc/user_libs/usbd_req.c:759:       pdev->dev.DevRemoteWakeup = 0; 
 759:inc/user_libs/usbd_req.c ****       pdev->dev.class_cb->Setup (pdev, req);   
 593              		.loc 1 759 0
 594 01ce C4F81831 		str	r3, [r4, #280]	@ tmp286, pdev_5(D)->dev.DevRemoteWakeup
 595              	@ inc/user_libs/usbd_req.c:760:       pdev->dev.class_cb->Setup (pdev, req);   
 760:inc/user_libs/usbd_req.c ****       USBD_CtlSendStatus(pdev);
 596              		.loc 1 760 0
 597 01d2 D4F8E435 		ldr	r3, [r4, #1508]	@ pdev_5(D)->dev.class_cb, pdev_5(D)->dev.class_cb
 598 01d6 2946     		mov	r1, r5	@, req
 599              	.LVL52:
 600 01d8 9B68     		ldr	r3, [r3, #8]	@ _82->Setup,
 601 01da 2046     		mov	r0, r4	@, pdev
 602              	.LVL53:
 603 01dc 9847     		blx	r3	@ _82->Setup
 604              	.LVL54:
 605 01de BBE7     		b	.L68	@
 606              	.LVL55:
 607              	.L38:
ARM GAS  /tmp/ccH36hjN.s 			page 27


 608              	.LBE36:
 609              	.LBE45:
 610              	.LBB46:
 611              	.LBB44:
 612              	@ inc/user_libs/usbd_req.c:707:   else if ((req->wValue == USB_FEATURE_TEST_MODE) && 
 707:inc/user_libs/usbd_req.c ****            ((req->wIndex & 0xFF) == 0))
 613              		.loc 1 707 0
 614 01e0 022B     		cmp	r3, #2	@ _71,
 615 01e2 A1D1     		bne	.L26	@,
 616              	@ inc/user_libs/usbd_req.c:708:            ((req->wIndex & 0xFF) == 0))
 708:inc/user_libs/usbd_req.c ****   {
 617              		.loc 1 708 0
 618 01e4 8B88     		ldrh	r3, [r1, #4]	@ _74, req_4(D)->wIndex
 619              	@ inc/user_libs/usbd_req.c:707:   else if ((req->wValue == USB_FEATURE_TEST_MODE) && 
 707:inc/user_libs/usbd_req.c ****            ((req->wIndex & 0xFF) == 0))
 620              		.loc 1 707 0
 621 01e6 13F0FF0F 		tst	r3, #255	@ _74
 622 01ea 9DD1     		bne	.L26	@,
 623              	@ inc/user_libs/usbd_req.c:710:     dctl.d32 = USB_OTG_READ_REG32(&pdev->regs.DREGS->DCTL);
 710:inc/user_libs/usbd_req.c ****     
 624              		.loc 1 710 0
 625 01ec 0269     		ldr	r2, [r0, #16]	@ _76, pdev_5(D)->regs.DREGS
 626              	@ inc/user_libs/usbd_req.c:713:     switch (test_mode) 
 713:inc/user_libs/usbd_req.c ****     {
 627              		.loc 1 713 0
 628 01ee 1B0A     		lsrs	r3, r3, #8	@ test_mode, _74,
 629 01f0 013B     		subs	r3, r3, #1	@ tmp272, test_mode,
 630              	@ inc/user_libs/usbd_req.c:710:     dctl.d32 = USB_OTG_READ_REG32(&pdev->regs.DREGS->DCTL);
 710:inc/user_libs/usbd_req.c ****     
 631              		.loc 1 710 0
 632 01f2 5268     		ldr	r2, [r2, #4]	@ dctl, _76->DCTL
 633              	.LVL56:
 634              	@ inc/user_libs/usbd_req.c:713:     switch (test_mode) 
 713:inc/user_libs/usbd_req.c ****     {
 635              		.loc 1 713 0
 636 01f4 042B     		cmp	r3, #4	@ tmp272,
 637 01f6 07D8     		bhi	.L40	@
 638 01f8 DFE803F0 		tbb	[pc, r3]	@ tmp272
 639              	.LVL57:
 640              	.L42:
 641 01fc 03       		.byte	(.L41-.L42)/2
 642 01fd 0C       		.byte	(.L43-.L42)/2
 643 01fe 0E       		.byte	(.L44-.L42)/2
 644 01ff 10       		.byte	(.L45-.L42)/2
 645 0200 12       		.byte	(.L46-.L42)/2
 646 0201 00       		.p2align 1
 647              	.L41:
 648              	@ inc/user_libs/usbd_req.c:716:       dctl.b.tstctl = 1;
 716:inc/user_libs/usbd_req.c ****       break;
 649              		.loc 1 716 0
 650 0202 0123     		movs	r3, #1	@ tmp273,
 651              	.L67:
 652              	@ inc/user_libs/usbd_req.c:732:       dctl.b.tstctl = 5;
 732:inc/user_libs/usbd_req.c ****       break;
 653              		.loc 1 732 0
 654 0204 63F30612 		bfi	r2, r3, #4, #3	@ dctl, tmp277,,
 655              	.L40:
ARM GAS  /tmp/ccH36hjN.s 			page 28


 656              	@ inc/user_libs/usbd_req.c:735:     SET_TEST_MODE = dctl;
 735:inc/user_libs/usbd_req.c ****     pdev->dev.test_mode = 1;
 657              		.loc 1 735 0
 658 0208 0F4B     		ldr	r3, .L73+12	@ tmp278,
 659 020a 1A60     		str	r2, [r3]	@ dctl, SET_TEST_MODE
 660              	@ inc/user_libs/usbd_req.c:736:     pdev->dev.test_mode = 1;
 736:inc/user_libs/usbd_req.c ****     USBD_CtlSendStatus(pdev);
 661              		.loc 1 736 0
 662 020c 0123     		movs	r3, #1	@ tmp279,
 663 020e 84F81631 		strb	r3, [r4, #278]	@ tmp279, pdev_5(D)->dev.test_mode
 664 0212 A1E7     		b	.L68	@
 665              	.L43:
 666              	@ inc/user_libs/usbd_req.c:720:       dctl.b.tstctl = 2;
 720:inc/user_libs/usbd_req.c ****       break;
 667              		.loc 1 720 0
 668 0214 0223     		movs	r3, #2	@ tmp274,
 669 0216 F5E7     		b	.L67	@
 670              	.L44:
 671              	@ inc/user_libs/usbd_req.c:724:       dctl.b.tstctl = 3;
 724:inc/user_libs/usbd_req.c ****       break;
 672              		.loc 1 724 0
 673 0218 0323     		movs	r3, #3	@ tmp275,
 674 021a F3E7     		b	.L67	@
 675              	.L45:
 676              	@ inc/user_libs/usbd_req.c:728:       dctl.b.tstctl = 4;
 728:inc/user_libs/usbd_req.c ****       break;
 677              		.loc 1 728 0
 678 021c 0423     		movs	r3, #4	@ tmp276,
 679 021e F1E7     		b	.L67	@
 680              	.L46:
 681              	@ inc/user_libs/usbd_req.c:732:       dctl.b.tstctl = 5;
 732:inc/user_libs/usbd_req.c ****       break;
 682              		.loc 1 732 0
 683 0220 0523     		movs	r3, #5	@ tmp277,
 684 0222 EFE7     		b	.L67	@
 685              	.LVL58:
 686              	.L6:
 687              	.LBE44:
 688              	.LBE46:
 689              	.LBB47:
 690              	.LBB37:
 691              	@ inc/user_libs/usbd_req.c:753:   switch (pdev->dev.device_status)
 753:inc/user_libs/usbd_req.c ****   {
 692              		.loc 1 753 0
 693 0224 90F81231 		ldrb	r3, [r0, #274]	@ zero_extendqisi2	@ pdev_5(D)->dev.device_status, pdev_5(D)->dev.device_statu
 694 0228 023B     		subs	r3, r3, #2	@ tmp282, pdev_5(D)->dev.device_status,
 695 022a 012B     		cmp	r3, #1	@ tmp282,
 696 022c 3FF669AF 		bhi	.L3	@,
 697              	@ inc/user_libs/usbd_req.c:757:     if (req->wValue == USB_FEATURE_REMOTE_WAKEUP) 
 757:inc/user_libs/usbd_req.c ****     {
 698              		.loc 1 757 0
 699 0230 4B88     		ldrh	r3, [r1, #2]	@ req_4(D)->wValue, req_4(D)->wValue
 700 0232 012B     		cmp	r3, #1	@ req_4(D)->wValue,
 701 0234 7FF478AF 		bne	.L26	@,
 702              	@ inc/user_libs/usbd_req.c:759:       pdev->dev.DevRemoteWakeup = 0; 
 759:inc/user_libs/usbd_req.c ****       pdev->dev.class_cb->Setup (pdev, req);   
 703              		.loc 1 759 0
ARM GAS  /tmp/ccH36hjN.s 			page 29


 704 0238 0023     		movs	r3, #0	@ tmp286,
 705 023a C8E7     		b	.L69	@
 706              	.L74:
 707              		.align	2
 708              	.L73:
 709 023c 00000000 		.word	.LANCHOR0
 710 0240 04000000 		.word	.LANCHOR0+4
 711 0244 08000000 		.word	.LANCHOR0+8
 712 0248 00000000 		.word	SET_TEST_MODE
 713              	.LBE37:
 714              	.LBE47:
 715              		.cfi_endproc
 716              	.LFE110:
 717              		.size	USBD_StdDevReq, .-USBD_StdDevReq
 718              		.align	1
 719              		.global	USBD_StdItfReq
 720              		.syntax unified
 721              		.thumb
 722              		.thumb_func
 723              		.fpu softvfp
 724              		.type	USBD_StdItfReq, %function
 725              	USBD_StdItfReq:
 726              	.LFB111:
 200:inc/user_libs/usbd_req.c ****   USBD_Status ret = USBD_OK; 
 727              		.loc 1 200 0
 728              		.cfi_startproc
 729              		@ args = 0, pretend = 0, frame = 0
 730              		@ frame_needed = 0, uses_anonymous_args = 0
 731              	.LVL59:
 732 024c 38B5     		push	{r3, r4, r5, lr}	@
 733              	.LCFI5:
 734              		.cfi_def_cfa_offset 16
 735              		.cfi_offset 3, -16
 736              		.cfi_offset 4, -12
 737              		.cfi_offset 5, -8
 738              		.cfi_offset 14, -4
 739              	@ inc/user_libs/usbd_req.c:203:   switch (pdev->dev.device_status) 
 203:inc/user_libs/usbd_req.c ****   {
 740              		.loc 1 203 0
 741 024e 90F81231 		ldrb	r3, [r0, #274]	@ zero_extendqisi2	@ pdev_9(D)->dev.device_status, pdev_9(D)->dev.device_statu
 742 0252 032B     		cmp	r3, #3	@ pdev_9(D)->dev.device_status,
 743              	@ inc/user_libs/usbd_req.c:200: {
 200:inc/user_libs/usbd_req.c ****   USBD_Status ret = USBD_OK; 
 744              		.loc 1 200 0
 745 0254 0446     		mov	r4, r0	@ pdev, pdev
 746              	.LVL60:
 747 0256 0D46     		mov	r5, r1	@ req, req
 748              	@ inc/user_libs/usbd_req.c:203:   switch (pdev->dev.device_status) 
 203:inc/user_libs/usbd_req.c ****   {
 749              		.loc 1 203 0
 750 0258 0DD1     		bne	.L80	@,
 751              	@ inc/user_libs/usbd_req.c:207:     if (LOBYTE(req->wIndex) <= USBD_ITF_MAX_NUM) 
 207:inc/user_libs/usbd_req.c ****     {
 752              		.loc 1 207 0
 753 025a 0B79     		ldrb	r3, [r1, #4]	@ zero_extendqisi2	@ req_10(D)->wIndex, req_10(D)->wIndex
 754 025c 012B     		cmp	r3, #1	@ req_10(D)->wIndex,
 755 025e 0AD8     		bhi	.L80	@,
ARM GAS  /tmp/ccH36hjN.s 			page 30


 756              	@ inc/user_libs/usbd_req.c:209:       pdev->dev.class_cb->Setup (pdev, req); 
 209:inc/user_libs/usbd_req.c ****       
 757              		.loc 1 209 0
 758 0260 D0F8E435 		ldr	r3, [r0, #1508]	@ pdev_9(D)->dev.class_cb, pdev_9(D)->dev.class_cb
 759 0264 9B68     		ldr	r3, [r3, #8]	@ _4->Setup, _4->Setup
 760 0266 9847     		blx	r3	@ _4->Setup
 761              	.LVL61:
 762              	@ inc/user_libs/usbd_req.c:211:       if((req->wLength == 0)&& (ret == USBD_OK))
 211:inc/user_libs/usbd_req.c ****       {
 763              		.loc 1 211 0
 764 0268 EB88     		ldrh	r3, [r5, #6]	@ req_10(D)->wLength, req_10(D)->wLength
 765 026a 13B9     		cbnz	r3, .L79	@ req_10(D)->wLength,
 766              	@ inc/user_libs/usbd_req.c:213:          USBD_CtlSendStatus(pdev);
 213:inc/user_libs/usbd_req.c ****       }
 767              		.loc 1 213 0
 768 026c 2046     		mov	r0, r4	@, pdev
 769 026e FFF7FEFF 		bl	USBD_CtlSendStatus	@
 770              	.LVL62:
 771              	.L79:
 772              	@ inc/user_libs/usbd_req.c:227: }
 227:inc/user_libs/usbd_req.c **** 
 773              		.loc 1 227 0
 774 0272 0020     		movs	r0, #0	@,
 775 0274 38BD     		pop	{r3, r4, r5, pc}	@
 776              	.LVL63:
 777              	.L80:
 778              	@ inc/user_libs/usbd_req.c:223:      USBD_CtlError(pdev , req);
 223:inc/user_libs/usbd_req.c ****     break;
 779              		.loc 1 223 0
 780 0276 FFF7C3FE 		bl	USBD_CtlError.constprop.0	@
 781              	.LVL64:
 782              	@ inc/user_libs/usbd_req.c:224:     break;
 224:inc/user_libs/usbd_req.c ****   }
 783              		.loc 1 224 0
 784 027a FAE7     		b	.L79	@
 785              		.cfi_endproc
 786              	.LFE111:
 787              		.size	USBD_StdItfReq, .-USBD_StdItfReq
 788              		.align	1
 789              		.global	USBD_StdEPReq
 790              		.syntax unified
 791              		.thumb
 792              		.thumb_func
 793              		.fpu softvfp
 794              		.type	USBD_StdEPReq, %function
 795              	USBD_StdEPReq:
 796              	.LFB112:
 237:inc/user_libs/usbd_req.c ****   
 797              		.loc 1 237 0
 798              		.cfi_startproc
 799              		@ args = 0, pretend = 0, frame = 0
 800              		@ frame_needed = 0, uses_anonymous_args = 0
 801              	.LVL65:
 802 027c 38B5     		push	{r3, r4, r5, lr}	@
 803              	.LCFI6:
 804              		.cfi_def_cfa_offset 16
 805              		.cfi_offset 3, -16
ARM GAS  /tmp/ccH36hjN.s 			page 31


 806              		.cfi_offset 4, -12
 807              		.cfi_offset 5, -8
 808              		.cfi_offset 14, -4
 809              	@ inc/user_libs/usbd_req.c:237: {
 237:inc/user_libs/usbd_req.c ****   
 810              		.loc 1 237 0
 811 027e 0D46     		mov	r5, r1	@ req, req
 812              	@ inc/user_libs/usbd_req.c:242:   ep_addr  = LOBYTE(req->wIndex);   
 242:inc/user_libs/usbd_req.c ****   
 813              		.loc 1 242 0
 814 0280 8B88     		ldrh	r3, [r1, #4]	@ _1, req_23(D)->wIndex
 815              	@ inc/user_libs/usbd_req.c:244:   switch (req->bRequest) 
 244:inc/user_libs/usbd_req.c ****   {
 816              		.loc 1 244 0
 817 0282 6A78     		ldrb	r2, [r5, #1]	@ zero_extendqisi2	@ req_23(D)->bRequest, req_23(D)->bRequest
 818 0284 012A     		cmp	r2, #1	@ req_23(D)->bRequest,
 819              	@ inc/user_libs/usbd_req.c:237: {
 237:inc/user_libs/usbd_req.c ****   
 820              		.loc 1 237 0
 821 0286 0446     		mov	r4, r0	@ pdev, pdev
 822              	.LVL66:
 823              	@ inc/user_libs/usbd_req.c:242:   ep_addr  = LOBYTE(req->wIndex);   
 242:inc/user_libs/usbd_req.c ****   
 824              		.loc 1 242 0
 825 0288 D9B2     		uxtb	r1, r3	@ ep_addr, _1
 826              	.LVL67:
 827              	@ inc/user_libs/usbd_req.c:244:   switch (req->bRequest) 
 244:inc/user_libs/usbd_req.c ****   {
 828              		.loc 1 244 0
 829 028a 1DD0     		beq	.L83	@,
 830 028c 2AD3     		bcc	.L84	@,
 831 028e 032A     		cmp	r2, #3	@ req_23(D)->bRequest,
 832 0290 08D1     		bne	.L82	@,
 833              	@ inc/user_libs/usbd_req.c:249:     switch (pdev->dev.device_status) 
 249:inc/user_libs/usbd_req.c ****     {
 834              		.loc 1 249 0
 835 0292 90F81231 		ldrb	r3, [r0, #274]	@ zero_extendqisi2	@ pdev_25(D)->dev.device_status, pdev_25(D)->dev.device_sta
 836 0296 022B     		cmp	r3, #2	@ pdev_25(D)->dev.device_status,
 837 0298 3FD0     		beq	.L93	@,
 838 029a 032B     		cmp	r3, #3	@ pdev_25(D)->dev.device_status,
 839 029c 04D0     		beq	.L88	@,
 840              	.L86:
 841              	@ inc/user_libs/usbd_req.c:273:       USBD_CtlError(pdev , req);
 273:inc/user_libs/usbd_req.c ****       break;    
 842              		.loc 1 273 0
 843 029e 2046     		mov	r0, r4	@, pdev
 844              	.LVL68:
 845 02a0 FFF7AEFE 		bl	USBD_CtlError.constprop.0	@
 846              	.LVL69:
 847              	.L82:
 848              	@ inc/user_libs/usbd_req.c:358: }
 358:inc/user_libs/usbd_req.c **** /**
 849              		.loc 1 358 0
 850 02a4 0020     		movs	r0, #0	@,
 851 02a6 38BD     		pop	{r3, r4, r5, pc}	@
 852              	.LVL70:
 853              	.L88:
ARM GAS  /tmp/ccH36hjN.s 			page 32


 854              	@ inc/user_libs/usbd_req.c:259:       if (req->wValue == USB_FEATURE_EP_HALT)
 259:inc/user_libs/usbd_req.c ****       {
 855              		.loc 1 259 0
 856 02a8 6B88     		ldrh	r3, [r5, #2]	@ req_23(D)->wValue, req_23(D)->wValue
 857 02aa 1BB9     		cbnz	r3, .L121	@ req_23(D)->wValue,
 858              	@ inc/user_libs/usbd_req.c:261:         if ((ep_addr != 0x00) && (ep_addr != 0x80)) 
 261:inc/user_libs/usbd_req.c ****         { 
 859              		.loc 1 261 0
 860 02ac 4B06     		lsls	r3, r1, #25	@, ep_addr,
 861 02ae 01D0     		beq	.L121	@,
 862              	@ inc/user_libs/usbd_req.c:263:           DCD_EP_Stall(pdev , ep_addr);
 263:inc/user_libs/usbd_req.c ****           
 863              		.loc 1 263 0
 864 02b0 FFF7FEFF 		bl	DCD_EP_Stall	@
 865              	.LVL71:
 866              	.L121:
 867              	@ inc/user_libs/usbd_req.c:295:           pdev->dev.class_cb->Setup (pdev, req);
 295:inc/user_libs/usbd_req.c ****         }
 868              		.loc 1 295 0
 869 02b4 D4F8E435 		ldr	r3, [r4, #1508]	@ pdev_25(D)->dev.class_cb, pdev_25(D)->dev.class_cb
 870 02b8 2946     		mov	r1, r5	@, req
 871 02ba 9B68     		ldr	r3, [r3, #8]	@ _9->Setup,
 872 02bc 2046     		mov	r0, r4	@, pdev
 873 02be 9847     		blx	r3	@ _9->Setup
 874              	.LVL72:
 875              	.L92:
 876              	@ inc/user_libs/usbd_req.c:297:         USBD_CtlSendStatus(pdev);
 297:inc/user_libs/usbd_req.c ****       }
 877              		.loc 1 297 0
 878 02c0 2046     		mov	r0, r4	@, pdev
 879 02c2 FFF7FEFF 		bl	USBD_CtlSendStatus	@
 880              	.LVL73:
 881 02c6 EDE7     		b	.L82	@
 882              	.LVL74:
 883              	.L83:
 884              	@ inc/user_libs/usbd_req.c:280:     switch (pdev->dev.device_status) 
 280:inc/user_libs/usbd_req.c ****     {
 885              		.loc 1 280 0
 886 02c8 90F81231 		ldrb	r3, [r0, #274]	@ zero_extendqisi2	@ pdev_25(D)->dev.device_status, pdev_25(D)->dev.device_sta
 887 02cc 022B     		cmp	r3, #2	@ pdev_25(D)->dev.device_status,
 888 02ce 24D0     		beq	.L93	@,
 889 02d0 032B     		cmp	r3, #3	@ pdev_25(D)->dev.device_status,
 890 02d2 E4D1     		bne	.L86	@,
 891              	@ inc/user_libs/usbd_req.c:290:       if (req->wValue == USB_FEATURE_EP_HALT)
 290:inc/user_libs/usbd_req.c ****       {
 892              		.loc 1 290 0
 893 02d4 6B88     		ldrh	r3, [r5, #2]	@ req_23(D)->wValue, req_23(D)->wValue
 894 02d6 002B     		cmp	r3, #0	@ req_23(D)->wValue
 895 02d8 E4D1     		bne	.L82	@
 896              	@ inc/user_libs/usbd_req.c:292:         if ((ep_addr != 0x00) && (ep_addr != 0x80)) 
 292:inc/user_libs/usbd_req.c ****         {        
 897              		.loc 1 292 0
 898 02da 4A06     		lsls	r2, r1, #25	@, ep_addr,
 899 02dc F0D0     		beq	.L92	@,
 900              	@ inc/user_libs/usbd_req.c:294:           DCD_EP_ClrStall(pdev , ep_addr);
 294:inc/user_libs/usbd_req.c ****           pdev->dev.class_cb->Setup (pdev, req);
 901              		.loc 1 294 0
ARM GAS  /tmp/ccH36hjN.s 			page 33


 902 02de FFF7FEFF 		bl	DCD_EP_ClrStall	@
 903              	.LVL75:
 904 02e2 E7E7     		b	.L121	@
 905              	.LVL76:
 906              	.L84:
 907              	@ inc/user_libs/usbd_req.c:308:     switch (pdev->dev.device_status) 
 308:inc/user_libs/usbd_req.c ****     {
 908              		.loc 1 308 0
 909 02e4 90F81221 		ldrb	r2, [r0, #274]	@ zero_extendqisi2	@ pdev_25(D)->dev.device_status, pdev_25(D)->dev.device_sta
 910 02e8 022A     		cmp	r2, #2	@ pdev_25(D)->dev.device_status,
 911 02ea 16D0     		beq	.L93	@,
 912 02ec 032A     		cmp	r2, #3	@ pdev_25(D)->dev.device_status,
 913 02ee D6D1     		bne	.L86	@,
 914              	@ inc/user_libs/usbd_req.c:320:       if ((ep_addr & 0x80)== 0x80)
 320:inc/user_libs/usbd_req.c ****       {
 915              		.loc 1 320 0
 916 02f0 13F0800F 		tst	r3, #128	@ _1,
 917 02f4 4FF02802 		mov	r2, #40	@ tmp181,
 918 02f8 0E4B     		ldr	r3, .L124	@ tmp182,
 919 02fa 15D0     		beq	.L95	@,
 920              	@ inc/user_libs/usbd_req.c:322:         if(pdev->dev.in_ep[ep_addr & 0x7F].is_stall)
 322:inc/user_libs/usbd_req.c ****         {
 921              		.loc 1 322 0
 922 02fc 01F07F01 		and	r1, r1, #127	@ tmp163, ep_addr,
 923              	.LVL77:
 924 0300 02FB0101 		mla	r1, r2, r1, r0	@ tmp166, tmp181, tmp163, pdev
 925 0304 91F81E21 		ldrb	r2, [r1, #286]	@ zero_extendqisi2	@ pdev_25(D)->dev.in_ep[_13].is_stall, pdev_25(D)->dev.in_e
 926              	.L117:
 927 0308 62B1     		cbz	r2, .L96	@ pdev_25(D)->dev.in_ep[_13].is_stall,
 928              	@ inc/user_libs/usbd_req.c:324:           USBD_ep_status = 0x0001;     
 324:inc/user_libs/usbd_req.c ****         }
 929              		.loc 1 324 0
 930 030a 0122     		movs	r2, #1	@ tmp170,
 931              	.L118:
 932              	@ inc/user_libs/usbd_req.c:328:           USBD_ep_status = 0x0000;  
 328:inc/user_libs/usbd_req.c ****         }
 933              		.loc 1 328 0
 934 030c DA60     		str	r2, [r3, #12]	@ tmp172, USBD_ep_status
 935              	@ inc/user_libs/usbd_req.c:343:       USBD_CtlSendData (pdev,
 343:inc/user_libs/usbd_req.c ****                         (uint8_t *)&USBD_ep_status,
 936              		.loc 1 343 0
 937 030e 0A49     		ldr	r1, .L124+4	@,
 938 0310 0222     		movs	r2, #2	@,
 939 0312 2046     		mov	r0, r4	@, pdev
 940              	.LVL78:
 941 0314 FFF7FEFF 		bl	USBD_CtlSendData	@
 942              	.LVL79:
 943              	@ inc/user_libs/usbd_req.c:346:       break;
 346:inc/user_libs/usbd_req.c ****       
 944              		.loc 1 346 0
 945 0318 C4E7     		b	.L82	@
 946              	.LVL80:
 947              	.L93:
 948              	@ inc/user_libs/usbd_req.c:311:       if ((ep_addr != 0x00) && (ep_addr != 0x80)) 
 311:inc/user_libs/usbd_req.c ****       {
 949              		.loc 1 311 0
 950 031a 4B06     		lsls	r3, r1, #25	@, ep_addr,
ARM GAS  /tmp/ccH36hjN.s 			page 34


 951 031c C2D0     		beq	.L82	@,
 952              	@ inc/user_libs/usbd_req.c:313:         DCD_EP_Stall(pdev , ep_addr);
 313:inc/user_libs/usbd_req.c ****       }
 953              		.loc 1 313 0
 954 031e FFF7FEFF 		bl	DCD_EP_Stall	@
 955              	.LVL81:
 956 0322 BFE7     		b	.L82	@
 957              	.LVL82:
 958              	.L96:
 959              	@ inc/user_libs/usbd_req.c:328:           USBD_ep_status = 0x0000;  
 328:inc/user_libs/usbd_req.c ****         }
 960              		.loc 1 328 0
 961 0324 0022     		movs	r2, #0	@ tmp172,
 962 0326 F1E7     		b	.L118	@
 963              	.LVL83:
 964              	.L95:
 965              	@ inc/user_libs/usbd_req.c:333:         if(pdev->dev.out_ep[ep_addr].is_stall)
 333:inc/user_libs/usbd_req.c ****         {
 966              		.loc 1 333 0
 967 0328 02FB0101 		mla	r1, r2, r1, r0	@ tmp175, tmp181, ep_addr, pdev
 968              	.LVL84:
 969 032c 91F87623 		ldrb	r2, [r1, #886]	@ zero_extendqisi2	@ pdev_25(D)->dev.out_ep[_15].is_stall, pdev_25(D)->dev.out
 970 0330 EAE7     		b	.L117	@
 971              	.L125:
 972 0332 00BF     		.align	2
 973              	.L124:
 974 0334 00000000 		.word	.LANCHOR0
 975 0338 0C000000 		.word	.LANCHOR0+12
 976              		.cfi_endproc
 977              	.LFE112:
 978              		.size	USBD_StdEPReq, .-USBD_StdEPReq
 979              		.align	1
 980              		.global	USBD_ParseSetupRequest
 981              		.syntax unified
 982              		.thumb
 983              		.thumb_func
 984              		.fpu softvfp
 985              		.type	USBD_ParseSetupRequest, %function
 986              	USBD_ParseSetupRequest:
 987              	.LFB120:
 781:inc/user_libs/usbd_req.c ****   req->bmRequest     = *(uint8_t *)  (pdev->dev.setup_packet);
 988              		.loc 1 781 0
 989              		.cfi_startproc
 990              		@ args = 0, pretend = 0, frame = 0
 991              		@ frame_needed = 0, uses_anonymous_args = 0
 992              		@ link register save eliminated.
 993              	.LVL85:
 994              	@ inc/user_libs/usbd_req.c:782:   req->bmRequest     = *(uint8_t *)  (pdev->dev.setup_packet);
 782:inc/user_libs/usbd_req.c ****   req->bRequest      = *(uint8_t *)  (pdev->dev.setup_packet +  1);
 995              		.loc 1 782 0
 996 033c 90F8CC35 		ldrb	r3, [r0, #1484]	@ zero_extendqisi2	@ pdev_23(D)->dev.setup_packet, pdev_23(D)->dev.setup_pack
 997 0340 0B70     		strb	r3, [r1]	@ pdev_23(D)->dev.setup_packet, req_24(D)->bmRequest
 998              	@ inc/user_libs/usbd_req.c:783:   req->bRequest      = *(uint8_t *)  (pdev->dev.setup_packet +  1);
 783:inc/user_libs/usbd_req.c ****   req->wValue        = SWAPBYTE      (pdev->dev.setup_packet +  2);
 999              		.loc 1 783 0
 1000 0342 90F8CD35 		ldrb	r3, [r0, #1485]	@ zero_extendqisi2	@ pdev_23(D)->dev.setup_packet, pdev_23(D)->dev.setup_pack
 1001 0346 4B70     		strb	r3, [r1, #1]	@ pdev_23(D)->dev.setup_packet, req_24(D)->bRequest
ARM GAS  /tmp/ccH36hjN.s 			page 35


 1002              	@ inc/user_libs/usbd_req.c:784:   req->wValue        = SWAPBYTE      (pdev->dev.setup_packet +  2);
 784:inc/user_libs/usbd_req.c ****   req->wIndex        = SWAPBYTE      (pdev->dev.setup_packet +  4);
 1003              		.loc 1 784 0
 1004 0348 90F8CF25 		ldrb	r2, [r0, #1487]	@ zero_extendqisi2	@ pdev_23(D)->dev.setup_packet, pdev_23(D)->dev.setup_pack
 1005 034c 90F8CE35 		ldrb	r3, [r0, #1486]	@ zero_extendqisi2	@ pdev_23(D)->dev.setup_packet, pdev_23(D)->dev.setup_pack
 1006 0350 03EB0223 		add	r3, r3, r2, lsl #8	@ tmp143, pdev_23(D)->dev.setup_packet, pdev_23(D)->dev.setup_packet,
 1007 0354 4B80     		strh	r3, [r1, #2]	@ movhi	@ tmp143, req_24(D)->wValue
 1008              	@ inc/user_libs/usbd_req.c:785:   req->wIndex        = SWAPBYTE      (pdev->dev.setup_packet +  4);
 785:inc/user_libs/usbd_req.c ****   req->wLength       = SWAPBYTE      (pdev->dev.setup_packet +  6);
 1009              		.loc 1 785 0
 1010 0356 90F8D125 		ldrb	r2, [r0, #1489]	@ zero_extendqisi2	@ pdev_23(D)->dev.setup_packet, pdev_23(D)->dev.setup_pack
 1011 035a 90F8D035 		ldrb	r3, [r0, #1488]	@ zero_extendqisi2	@ pdev_23(D)->dev.setup_packet, pdev_23(D)->dev.setup_pack
 1012 035e 03EB0223 		add	r3, r3, r2, lsl #8	@ tmp151, pdev_23(D)->dev.setup_packet, pdev_23(D)->dev.setup_packet,
 1013 0362 8B80     		strh	r3, [r1, #4]	@ movhi	@ tmp151, req_24(D)->wIndex
 1014              	@ inc/user_libs/usbd_req.c:786:   req->wLength       = SWAPBYTE      (pdev->dev.setup_packet +  6);
 786:inc/user_libs/usbd_req.c ****   
 1015              		.loc 1 786 0
 1016 0364 90F8D325 		ldrb	r2, [r0, #1491]	@ zero_extendqisi2	@ pdev_23(D)->dev.setup_packet, pdev_23(D)->dev.setup_pack
 1017 0368 90F8D235 		ldrb	r3, [r0, #1490]	@ zero_extendqisi2	@ pdev_23(D)->dev.setup_packet, pdev_23(D)->dev.setup_pack
 1018 036c 03EB0223 		add	r3, r3, r2, lsl #8	@ tmp159, pdev_23(D)->dev.setup_packet, pdev_23(D)->dev.setup_packet,
 1019 0370 9BB2     		uxth	r3, r3	@ _20, tmp159
 1020 0372 CB80     		strh	r3, [r1, #6]	@ movhi	@ _20, req_24(D)->wLength
 1021              	@ inc/user_libs/usbd_req.c:788:   pdev->dev.in_ep[0].ctl_data_len = req->wLength  ;
 788:inc/user_libs/usbd_req.c ****   pdev->dev.device_state = USB_OTG_EP0_SETUP;
 1022              		.loc 1 788 0
 1023 0374 C0F84031 		str	r3, [r0, #320]	@ _20, pdev_23(D)->dev.in_ep[0].ctl_data_len
 1024              	@ inc/user_libs/usbd_req.c:789:   pdev->dev.device_state = USB_OTG_EP0_SETUP;
 789:inc/user_libs/usbd_req.c **** }
 1025              		.loc 1 789 0
 1026 0378 0123     		movs	r3, #1	@ tmp161,
 1027 037a 80F81131 		strb	r3, [r0, #273]	@ tmp161, pdev_23(D)->dev.device_state
 1028              	@ inc/user_libs/usbd_req.c:790: }
 790:inc/user_libs/usbd_req.c **** 
 1029              		.loc 1 790 0
 1030 037e 7047     		bx	lr	@
 1031              		.cfi_endproc
 1032              	.LFE120:
 1033              		.size	USBD_ParseSetupRequest, .-USBD_ParseSetupRequest
 1034              		.align	1
 1035              		.global	USBD_CtlError
 1036              		.syntax unified
 1037              		.thumb
 1038              		.thumb_func
 1039              		.fpu softvfp
 1040              		.type	USBD_CtlError, %function
 1041              	USBD_CtlError:
 1042              	.LFB121:
 802:inc/user_libs/usbd_req.c ****   
 1043              		.loc 1 802 0
 1044              		.cfi_startproc
 1045              		@ args = 0, pretend = 0, frame = 0
 1046              		@ frame_needed = 0, uses_anonymous_args = 0
 1047              	.LVL86:
 1048 0380 10B5     		push	{r4, lr}	@
 1049              	.LCFI7:
 1050              		.cfi_def_cfa_offset 8
 1051              		.cfi_offset 4, -8
ARM GAS  /tmp/ccH36hjN.s 			page 36


 1052              		.cfi_offset 14, -4
 1053              	@ inc/user_libs/usbd_req.c:804:   DCD_EP_Stall(pdev , 0x80);
 804:inc/user_libs/usbd_req.c ****   DCD_EP_Stall(pdev , 0);
 1054              		.loc 1 804 0
 1055 0382 8021     		movs	r1, #128	@,
 1056              	.LVL87:
 1057              	@ inc/user_libs/usbd_req.c:802: {
 802:inc/user_libs/usbd_req.c ****   
 1058              		.loc 1 802 0
 1059 0384 0446     		mov	r4, r0	@ pdev, pdev
 1060              	@ inc/user_libs/usbd_req.c:804:   DCD_EP_Stall(pdev , 0x80);
 804:inc/user_libs/usbd_req.c ****   DCD_EP_Stall(pdev , 0);
 1061              		.loc 1 804 0
 1062 0386 FFF7FEFF 		bl	DCD_EP_Stall	@
 1063              	.LVL88:
 1064              	@ inc/user_libs/usbd_req.c:805:   DCD_EP_Stall(pdev , 0);
 805:inc/user_libs/usbd_req.c ****   USB_OTG_EP0_OutStart(pdev);  
 1065              		.loc 1 805 0
 1066 038a 2046     		mov	r0, r4	@, pdev
 1067 038c 0021     		movs	r1, #0	@,
 1068 038e FFF7FEFF 		bl	DCD_EP_Stall	@
 1069              	.LVL89:
 1070              	@ inc/user_libs/usbd_req.c:806:   USB_OTG_EP0_OutStart(pdev);  
 806:inc/user_libs/usbd_req.c **** }
 1071              		.loc 1 806 0
 1072 0392 2046     		mov	r0, r4	@, pdev
 1073              	@ inc/user_libs/usbd_req.c:807: }
 1074              		.loc 1 807 0
 1075 0394 BDE81040 		pop	{r4, lr}	@
 1076              	.LCFI8:
 1077              		.cfi_restore 14
 1078              		.cfi_restore 4
 1079              		.cfi_def_cfa_offset 0
 1080              	.LVL90:
 1081              	@ inc/user_libs/usbd_req.c:806:   USB_OTG_EP0_OutStart(pdev);  
 806:inc/user_libs/usbd_req.c **** }
 1082              		.loc 1 806 0
 1083 0398 FFF7FEBF 		b	USB_OTG_EP0_OutStart	@
 1084              	.LVL91:
 1085              		.cfi_endproc
 1086              	.LFE121:
 1087              		.size	USBD_CtlError, .-USBD_CtlError
 1088              		.align	1
 1089              		.global	USBD_GetString
 1090              		.syntax unified
 1091              		.thumb
 1092              		.thumb_func
 1093              		.fpu softvfp
 1094              		.type	USBD_GetString, %function
 1095              	USBD_GetString:
 1096              	.LFB122:
 808:inc/user_libs/usbd_req.c **** 
 809:inc/user_libs/usbd_req.c **** 
 810:inc/user_libs/usbd_req.c **** /**
 811:inc/user_libs/usbd_req.c ****   * @brief  USBD_GetString
 812:inc/user_libs/usbd_req.c ****   *         Convert Ascii string into unicode one
 813:inc/user_libs/usbd_req.c ****   * @param  desc : descriptor buffer
ARM GAS  /tmp/ccH36hjN.s 			page 37


 814:inc/user_libs/usbd_req.c ****   * @param  unicode : Formatted string buffer (unicode)
 815:inc/user_libs/usbd_req.c ****   * @param  len : descriptor length
 816:inc/user_libs/usbd_req.c ****   * @retval None
 817:inc/user_libs/usbd_req.c ****   */
 818:inc/user_libs/usbd_req.c **** void USBD_GetString(uint8_t *desc, uint8_t *unicode, uint16_t *len)
 819:inc/user_libs/usbd_req.c **** {
 1097              		.loc 1 819 0
 1098              		.cfi_startproc
 1099              		@ args = 0, pretend = 0, frame = 0
 1100              		@ frame_needed = 0, uses_anonymous_args = 0
 1101              	.LVL92:
 1102 039c 30B5     		push	{r4, r5, lr}	@
 1103              	.LCFI9:
 1104              		.cfi_def_cfa_offset 12
 1105              		.cfi_offset 4, -12
 1106              		.cfi_offset 5, -8
 1107              		.cfi_offset 14, -4
 1108              	@ inc/user_libs/usbd_req.c:822:   if (desc != NULL) 
 820:inc/user_libs/usbd_req.c ****   uint8_t idx = 0;
 821:inc/user_libs/usbd_req.c ****   
 822:inc/user_libs/usbd_req.c ****   if (desc != NULL) 
 1109              		.loc 1 822 0
 1110 039e 88B1     		cbz	r0, .L128	@ desc,
 1111 03a0 0546     		mov	r5, r0	@ ivtmp.78, desc
 1112              	.L130:
 1113 03a2 2B1A     		subs	r3, r5, r0	@ tmp381, ivtmp.78, desc
 1114              	.LBB50:
 1115              	.LBB51:
 1116              	@ inc/user_libs/usbd_req.c:846:     while (*buf != NULL) 
 823:inc/user_libs/usbd_req.c ****   {
 824:inc/user_libs/usbd_req.c ****     *len =  USBD_GetLen(desc) * 2 + 2;    
 825:inc/user_libs/usbd_req.c ****     unicode[idx++] = *len;
 826:inc/user_libs/usbd_req.c ****     unicode[idx++] =  USB_DESC_TYPE_STRING;
 827:inc/user_libs/usbd_req.c ****     
 828:inc/user_libs/usbd_req.c ****     while (*desc != NULL) 
 829:inc/user_libs/usbd_req.c ****     {
 830:inc/user_libs/usbd_req.c ****       unicode[idx++] = *desc++;
 831:inc/user_libs/usbd_req.c ****       unicode[idx++] =  0x00;
 832:inc/user_libs/usbd_req.c ****     }
 833:inc/user_libs/usbd_req.c ****   } 
 834:inc/user_libs/usbd_req.c **** }
 835:inc/user_libs/usbd_req.c **** 
 836:inc/user_libs/usbd_req.c **** /**
 837:inc/user_libs/usbd_req.c ****   * @brief  USBD_GetLen
 838:inc/user_libs/usbd_req.c ****   *         return the string length
 839:inc/user_libs/usbd_req.c ****    * @param  buf : pointer to the ascii string buffer
 840:inc/user_libs/usbd_req.c ****   * @retval string length
 841:inc/user_libs/usbd_req.c ****   */
 842:inc/user_libs/usbd_req.c **** static uint8_t USBD_GetLen(uint8_t *buf)
 843:inc/user_libs/usbd_req.c **** {
 844:inc/user_libs/usbd_req.c ****     uint8_t  len = 0;
 845:inc/user_libs/usbd_req.c **** 
 846:inc/user_libs/usbd_req.c ****     while (*buf != NULL) 
 1117              		.loc 1 846 0
 1118 03a4 15F8014B 		ldrb	r4, [r5], #1	@ zero_extendqisi2	@ _32, MEM[base: _45, offset: 0B]
 1119 03a8 DBB2     		uxtb	r3, r3	@ _44, tmp381
 1120              	.LVL93:
ARM GAS  /tmp/ccH36hjN.s 			page 38


 1121 03aa 002C     		cmp	r4, #0	@ _32
 1122 03ac F9D1     		bne	.L130	@
 1123              	.LVL94:
 1124              	.LBE51:
 1125              	.LBE50:
 1126              	@ inc/user_libs/usbd_req.c:824:     *len =  USBD_GetLen(desc) * 2 + 2;    
 824:inc/user_libs/usbd_req.c ****     unicode[idx++] = *len;
 1127              		.loc 1 824 0
 1128 03ae 0133     		adds	r3, r3, #1	@ tmp382, _44,
 1129 03b0 5B00     		lsls	r3, r3, #1	@ _5, tmp382,
 1130 03b2 1380     		strh	r3, [r2]	@ movhi	@ _5, *len_18(D)
 1131              	.LVL95:
 1132              	@ inc/user_libs/usbd_req.c:825:     unicode[idx++] = *len;
 825:inc/user_libs/usbd_req.c ****     unicode[idx++] =  USB_DESC_TYPE_STRING;
 1133              		.loc 1 825 0
 1134 03b4 0B70     		strb	r3, [r1]	@ _5, *unicode_20(D)
 1135              	.LVL96:
 1136              	@ inc/user_libs/usbd_req.c:826:     unicode[idx++] =  USB_DESC_TYPE_STRING;
 826:inc/user_libs/usbd_req.c ****     
 1137              		.loc 1 826 0
 1138 03b6 0323     		movs	r3, #3	@ tmp387,
 1139 03b8 4B70     		strb	r3, [r1, #1]	@ tmp387, MEM[(uint8_t *)unicode_20(D) + 1B]
 1140 03ba 0138     		subs	r0, r0, #1	@ ivtmp.62, desc,
 1141              	.LVL97:
 1142 03bc 0223     		movs	r3, #2	@ idx,
 1143              	.LVL98:
 1144              	.L131:
 1145              	@ inc/user_libs/usbd_req.c:828:     while (*desc != NULL) 
 828:inc/user_libs/usbd_req.c ****     {
 1146              		.loc 1 828 0
 1147 03be 10F8015F 		ldrb	r5, [r0, #1]!	@ zero_extendqisi2	@ _11, MEM[base: _35, offset: 0B]
 1148              	.LVL99:
 1149 03c2 05B9     		cbnz	r5, .L132	@ _11,
 1150              	.LVL100:
 1151              	.L128:
 1152              	@ inc/user_libs/usbd_req.c:834: }
 834:inc/user_libs/usbd_req.c **** 
 1153              		.loc 1 834 0
 1154 03c4 30BD     		pop	{r4, r5, pc}	@
 1155              	.LVL101:
 1156              	.L132:
 1157              	@ inc/user_libs/usbd_req.c:830:       unicode[idx++] = *desc++;
 830:inc/user_libs/usbd_req.c ****       unicode[idx++] =  0x00;
 1158              		.loc 1 830 0
 1159 03c6 5A1C     		adds	r2, r3, #1	@ tmp389, idx,
 1160 03c8 D2B2     		uxtb	r2, r2	@ idx, tmp389
 1161              	.LVL102:
 1162 03ca CD54     		strb	r5, [r1, r3]	@ _11, *_8
 1163              	@ inc/user_libs/usbd_req.c:831:       unicode[idx++] =  0x00;
 831:inc/user_libs/usbd_req.c ****     }
 1164              		.loc 1 831 0
 1165 03cc 0233     		adds	r3, r3, #2	@ tmp391, idx,
 1166 03ce DBB2     		uxtb	r3, r3	@ idx, tmp391
 1167              	.LVL103:
 1168 03d0 8C54     		strb	r4, [r1, r2]	@ tmp394, *_10
 1169 03d2 F4E7     		b	.L131	@
 1170              		.cfi_endproc
ARM GAS  /tmp/ccH36hjN.s 			page 39


 1171              	.LFE122:
 1172              		.size	USBD_GetString, .-USBD_GetString
 1173              		.comm	USBD_StrDesc,64,1
 1174              		.global	USBD_cfg_status
 1175              		.global	USBD_default_cfg
 1176              		.global	USBD_ep_status
 1177              		.bss
 1178              		.align	2
 1179              		.set	.LANCHOR0,. + 0
 1180              		.type	cfgidx.8624, %object
 1181              		.size	cfgidx.8624, 1
 1182              	cfgidx.8624:
 1183 0000 00       		.space	1
 1184 0001 000000   		.space	3
 1185              		.type	USBD_default_cfg, %object
 1186              		.size	USBD_default_cfg, 4
 1187              	USBD_default_cfg:
 1188 0004 00000000 		.space	4
 1189              		.type	USBD_cfg_status, %object
 1190              		.size	USBD_cfg_status, 4
 1191              	USBD_cfg_status:
 1192 0008 00000000 		.space	4
 1193              		.type	USBD_ep_status, %object
 1194              		.size	USBD_ep_status, 4
 1195              	USBD_ep_status:
 1196 000c 00000000 		.space	4
 1197              		.text
 1198              	.Letext0:
 1199              		.file 2 "/home/sticky/opt/gcc-arm-none-eabi-7-2017-q4-major/arm-none-eabi/include/machine/_default
 1200              		.file 3 "/home/sticky/opt/gcc-arm-none-eabi-7-2017-q4-major/arm-none-eabi/include/sys/_stdint.h"
 1201              		.file 4 "./inc/CMSIS/core_cm4.h"
 1202              		.file 5 "./inc/system_stm32f4xx.h"
 1203              		.file 6 "inc/user_libs/usb_regs.h"
 1204              		.file 7 "inc/user_libs/usb_core.h"
 1205              		.file 8 "inc/user_libs/usbd_core.h"
 1206              		.file 9 "inc/user_libs/usbd_desc.h"
 1207              		.file 10 "inc/user_libs/usb_dcd.h"
 1208              		.file 11 "inc/user_libs/usbd_ioreq.h"