ARM GAS  /tmp/ccXhNIeK.s 			page 1


   1              		.cpu cortex-m4
   2              		.eabi_attribute 20, 1	@ Tag_ABI_FP_denormal
   3              		.eabi_attribute 21, 1	@ Tag_ABI_FP_exceptions
   4              		.eabi_attribute 23, 3	@ Tag_ABI_FP_number_model
   5              		.eabi_attribute 24, 1	@ Tag_ABI_align8_needed
   6              		.eabi_attribute 25, 1	@ Tag_ABI_align8_preserved
   7              		.eabi_attribute 26, 1	@ Tag_ABI_enum_size
   8              		.eabi_attribute 30, 4	@ Tag_ABI_optimization_goals
   9              		.eabi_attribute 34, 1	@ Tag_CPU_unaligned_access
  10              		.eabi_attribute 18, 4	@ Tag_ABI_PCS_wchar_t
  11              		.file	"usbd_ioreq.c"
  12              	@ GNU C11 (GNU Tools for Arm Embedded Processors 7-2017-q4-major) version 7.2.1 20170904 (release) 
  13              	@	compiled by GNU C version 4.8.4, GMP version 6.1.0, MPFR version 3.1.4, MPC version 1.0.3, isl ve
  14              	
  15              	@ GGC heuristics: --param ggc-min-expand=100 --param ggc-min-heapsize=131072
  16              	@ options passed:  -I . -I ./inc -I ./inc/CMSIS
  17              	@ -I STM32F4xx_StdPeriph_Driver/inc -I ./inc/user_libs
  18              	@ -imultilib thumb/v7e-m
  19              	@ -iprefix /home/sticky/opt/gcc-arm-none-eabi-7-2017-q4-major/bin/../lib/gcc/arm-none-eabi/7.2.1/
  20              	@ -isysroot /home/sticky/opt/gcc-arm-none-eabi-7-2017-q4-major/bin/../arm-none-eabi
  21              	@ -D__USES_INITFINI__ -D STM32F40XX -D USE_STDPERIPH_DRIVER
  22              	@ -D RUN_FROM_FLASH=1 inc/user_libs/usbd_ioreq.c -mcpu=cortex-m4 -mthumb
  23              	@ -auxbase-strip inc/user_libs/usbd_ioreq.o -g -gdwarf-2 -Os -Wall
  24              	@ -Wstrict-prototypes -fomit-frame-pointer -fverbose-asm
  25              	@ options enabled:  -faggressive-loop-optimizations -falign-jumps
  26              	@ -falign-labels -falign-loops -fauto-inc-dec -fbranch-count-reg
  27              	@ -fcaller-saves -fchkp-check-incomplete-type -fchkp-check-read
  28              	@ -fchkp-check-write -fchkp-instrument-calls -fchkp-narrow-bounds
  29              	@ -fchkp-optimize -fchkp-store-bounds -fchkp-use-static-bounds
  30              	@ -fchkp-use-static-const-bounds -fchkp-use-wrappers -fcode-hoisting
  31              	@ -fcombine-stack-adjustments -fcommon -fcompare-elim -fcprop-registers
  32              	@ -fcrossjumping -fcse-follow-jumps -fdefer-pop
  33              	@ -fdelete-null-pointer-checks -fdevirtualize -fdevirtualize-speculatively
  34              	@ -fdwarf2-cfi-asm -fearly-inlining -feliminate-unused-debug-types
  35              	@ -fexpensive-optimizations -fforward-propagate -ffp-int-builtin-inexact
  36              	@ -ffunction-cse -fgcse -fgcse-lm -fgnu-runtime -fgnu-unique
  37              	@ -fguess-branch-probability -fhoist-adjacent-loads -fident -fif-conversion
  38              	@ -fif-conversion2 -findirect-inlining -finline -finline-atomics
  39              	@ -finline-functions -finline-functions-called-once
  40              	@ -finline-small-functions -fipa-bit-cp -fipa-cp -fipa-icf
  41              	@ -fipa-icf-functions -fipa-icf-variables -fipa-profile -fipa-pure-const
  42              	@ -fipa-ra -fipa-reference -fipa-sra -fipa-vrp -fira-hoist-pressure
  43              	@ -fira-share-save-slots -fira-share-spill-slots
  44              	@ -fisolate-erroneous-paths-dereference -fivopts -fkeep-static-consts
  45              	@ -fleading-underscore -flifetime-dse -flra-remat -flto-odr-type-merging
  46              	@ -fmath-errno -fmerge-constants -fmerge-debug-strings
  47              	@ -fmove-loop-invariants -fomit-frame-pointer -foptimize-sibling-calls
  48              	@ -fpartial-inlining -fpeephole -fpeephole2 -fplt -fprefetch-loop-arrays
  49              	@ -freg-struct-return -freorder-blocks -freorder-functions
  50              	@ -frerun-cse-after-loop -fsched-critical-path-heuristic
  51              	@ -fsched-dep-count-heuristic -fsched-group-heuristic -fsched-interblock
  52              	@ -fsched-last-insn-heuristic -fsched-pressure -fsched-rank-heuristic
  53              	@ -fsched-spec -fsched-spec-insn-heuristic -fsched-stalled-insns-dep
  54              	@ -fschedule-insns2 -fsection-anchors -fsemantic-interposition
  55              	@ -fshow-column -fshrink-wrap-separate -fsigned-zeros
  56              	@ -fsplit-ivs-in-unroller -fsplit-wide-types -fssa-backprop -fssa-phiopt
  57              	@ -fstdarg-opt -fstore-merging -fstrict-aliasing -fstrict-overflow
ARM GAS  /tmp/ccXhNIeK.s 			page 2


  58              	@ -fstrict-volatile-bitfields -fsync-libcalls -fthread-jumps
  59              	@ -ftoplevel-reorder -ftrapping-math -ftree-bit-ccp -ftree-builtin-call-dce
  60              	@ -ftree-ccp -ftree-ch -ftree-coalesce-vars -ftree-copy-prop -ftree-cselim
  61              	@ -ftree-dce -ftree-dominator-opts -ftree-dse -ftree-forwprop -ftree-fre
  62              	@ -ftree-loop-if-convert -ftree-loop-im -ftree-loop-ivcanon
  63              	@ -ftree-loop-optimize -ftree-parallelize-loops= -ftree-phiprop -ftree-pre
  64              	@ -ftree-pta -ftree-reassoc -ftree-scev-cprop -ftree-sink -ftree-slsr
  65              	@ -ftree-sra -ftree-switch-conversion -ftree-tail-merge -ftree-ter
  66              	@ -ftree-vrp -funit-at-a-time -fvar-tracking -fvar-tracking-assignments
  67              	@ -fverbose-asm -fzero-initialized-in-bss -masm-syntax-unified
  68              	@ -mlittle-endian -mpic-data-is-text-relative -msched-prolog -mthumb
  69              	@ -munaligned-access -mvectorize-with-neon-quad
  70              	
  71              		.text
  72              	.Ltext0:
  73              		.cfi_sections	.debug_frame
  74              		.align	1
  75              		.global	USBD_CtlSendData
  76              		.syntax unified
  77              		.thumb
  78              		.thumb_func
  79              		.fpu softvfp
  80              		.type	USBD_CtlSendData, %function
  81              	USBD_CtlSendData:
  82              	.LFB110:
  83              		.file 1 "inc/user_libs/usbd_ioreq.c"
   1:inc/user_libs/usbd_ioreq.c **** /**
   2:inc/user_libs/usbd_ioreq.c ****   ******************************************************************************
   3:inc/user_libs/usbd_ioreq.c ****   * @file    usbd_ioreq.c
   4:inc/user_libs/usbd_ioreq.c ****   * @author  MCD Application Team
   5:inc/user_libs/usbd_ioreq.c ****   * @version V1.1.0
   6:inc/user_libs/usbd_ioreq.c ****   * @date    19-March-2012
   7:inc/user_libs/usbd_ioreq.c ****   * @brief   This file provides the IO requests APIs for control endpoints.
   8:inc/user_libs/usbd_ioreq.c ****   ******************************************************************************
   9:inc/user_libs/usbd_ioreq.c ****   * @attention
  10:inc/user_libs/usbd_ioreq.c ****   *
  11:inc/user_libs/usbd_ioreq.c ****   * <h2><center>&copy; COPYRIGHT 2012 STMicroelectronics</center></h2>
  12:inc/user_libs/usbd_ioreq.c ****   *
  13:inc/user_libs/usbd_ioreq.c ****   * Licensed under MCD-ST Liberty SW License Agreement V2, (the "License");
  14:inc/user_libs/usbd_ioreq.c ****   * You may not use this file except in compliance with the License.
  15:inc/user_libs/usbd_ioreq.c ****   * You may obtain a copy of the License at:
  16:inc/user_libs/usbd_ioreq.c ****   *
  17:inc/user_libs/usbd_ioreq.c ****   *        http://www.st.com/software_license_agreement_liberty_v2
  18:inc/user_libs/usbd_ioreq.c ****   *
  19:inc/user_libs/usbd_ioreq.c ****   * Unless required by applicable law or agreed to in writing, software 
  20:inc/user_libs/usbd_ioreq.c ****   * distributed under the License is distributed on an "AS IS" BASIS, 
  21:inc/user_libs/usbd_ioreq.c ****   * WITHOUT WARRANTIES OR CONDITIONS OF ANY KIND, either express or implied.
  22:inc/user_libs/usbd_ioreq.c ****   * See the License for the specific language governing permissions and
  23:inc/user_libs/usbd_ioreq.c ****   * limitations under the License.
  24:inc/user_libs/usbd_ioreq.c ****   *
  25:inc/user_libs/usbd_ioreq.c ****   ******************************************************************************
  26:inc/user_libs/usbd_ioreq.c ****   */ 
  27:inc/user_libs/usbd_ioreq.c **** 
  28:inc/user_libs/usbd_ioreq.c **** /* Includes ------------------------------------------------------------------*/
  29:inc/user_libs/usbd_ioreq.c **** #include "usbd_ioreq.h"
  30:inc/user_libs/usbd_ioreq.c **** 
  31:inc/user_libs/usbd_ioreq.c **** /** @addtogroup STM32_USB_OTG_DEVICE_LIBRARY
ARM GAS  /tmp/ccXhNIeK.s 			page 3


  32:inc/user_libs/usbd_ioreq.c ****   * @{
  33:inc/user_libs/usbd_ioreq.c ****   */
  34:inc/user_libs/usbd_ioreq.c **** 
  35:inc/user_libs/usbd_ioreq.c **** 
  36:inc/user_libs/usbd_ioreq.c **** /** @defgroup USBD_IOREQ 
  37:inc/user_libs/usbd_ioreq.c ****   * @brief control I/O requests module
  38:inc/user_libs/usbd_ioreq.c ****   * @{
  39:inc/user_libs/usbd_ioreq.c ****   */ 
  40:inc/user_libs/usbd_ioreq.c **** 
  41:inc/user_libs/usbd_ioreq.c **** /** @defgroup USBD_IOREQ_Private_TypesDefinitions
  42:inc/user_libs/usbd_ioreq.c ****   * @{
  43:inc/user_libs/usbd_ioreq.c ****   */ 
  44:inc/user_libs/usbd_ioreq.c **** /**
  45:inc/user_libs/usbd_ioreq.c ****   * @}
  46:inc/user_libs/usbd_ioreq.c ****   */ 
  47:inc/user_libs/usbd_ioreq.c **** 
  48:inc/user_libs/usbd_ioreq.c **** 
  49:inc/user_libs/usbd_ioreq.c **** /** @defgroup USBD_IOREQ_Private_Defines
  50:inc/user_libs/usbd_ioreq.c ****   * @{
  51:inc/user_libs/usbd_ioreq.c ****   */ 
  52:inc/user_libs/usbd_ioreq.c **** 
  53:inc/user_libs/usbd_ioreq.c **** /**
  54:inc/user_libs/usbd_ioreq.c ****   * @}
  55:inc/user_libs/usbd_ioreq.c ****   */ 
  56:inc/user_libs/usbd_ioreq.c **** 
  57:inc/user_libs/usbd_ioreq.c **** 
  58:inc/user_libs/usbd_ioreq.c **** /** @defgroup USBD_IOREQ_Private_Macros
  59:inc/user_libs/usbd_ioreq.c ****   * @{
  60:inc/user_libs/usbd_ioreq.c ****   */ 
  61:inc/user_libs/usbd_ioreq.c **** /**
  62:inc/user_libs/usbd_ioreq.c ****   * @}
  63:inc/user_libs/usbd_ioreq.c ****   */ 
  64:inc/user_libs/usbd_ioreq.c **** 
  65:inc/user_libs/usbd_ioreq.c **** 
  66:inc/user_libs/usbd_ioreq.c **** /** @defgroup USBD_IOREQ_Private_Variables
  67:inc/user_libs/usbd_ioreq.c ****   * @{
  68:inc/user_libs/usbd_ioreq.c ****   */ 
  69:inc/user_libs/usbd_ioreq.c **** 
  70:inc/user_libs/usbd_ioreq.c **** /**
  71:inc/user_libs/usbd_ioreq.c ****   * @}
  72:inc/user_libs/usbd_ioreq.c ****   */ 
  73:inc/user_libs/usbd_ioreq.c **** 
  74:inc/user_libs/usbd_ioreq.c **** 
  75:inc/user_libs/usbd_ioreq.c **** /** @defgroup USBD_IOREQ_Private_FunctionPrototypes
  76:inc/user_libs/usbd_ioreq.c ****   * @{
  77:inc/user_libs/usbd_ioreq.c ****   */ 
  78:inc/user_libs/usbd_ioreq.c **** /**
  79:inc/user_libs/usbd_ioreq.c ****   * @}
  80:inc/user_libs/usbd_ioreq.c ****   */ 
  81:inc/user_libs/usbd_ioreq.c **** 
  82:inc/user_libs/usbd_ioreq.c **** 
  83:inc/user_libs/usbd_ioreq.c **** /** @defgroup USBD_IOREQ_Private_Functions
  84:inc/user_libs/usbd_ioreq.c ****   * @{
  85:inc/user_libs/usbd_ioreq.c ****   */ 
  86:inc/user_libs/usbd_ioreq.c **** 
  87:inc/user_libs/usbd_ioreq.c **** /**
  88:inc/user_libs/usbd_ioreq.c **** * @brief  USBD_CtlSendData
ARM GAS  /tmp/ccXhNIeK.s 			page 4


  89:inc/user_libs/usbd_ioreq.c **** *         send data on the ctl pipe
  90:inc/user_libs/usbd_ioreq.c **** * @param  pdev: device instance
  91:inc/user_libs/usbd_ioreq.c **** * @param  buff: pointer to data buffer
  92:inc/user_libs/usbd_ioreq.c **** * @param  len: length of data to be sent
  93:inc/user_libs/usbd_ioreq.c **** * @retval status
  94:inc/user_libs/usbd_ioreq.c **** */
  95:inc/user_libs/usbd_ioreq.c **** USBD_Status  USBD_CtlSendData (USB_OTG_CORE_HANDLE  *pdev, 
  96:inc/user_libs/usbd_ioreq.c ****                                uint8_t *pbuf,
  97:inc/user_libs/usbd_ioreq.c ****                                uint16_t len)
  98:inc/user_libs/usbd_ioreq.c **** {
  84              		.loc 1 98 0
  85              		.cfi_startproc
  86              		@ args = 0, pretend = 0, frame = 0
  87              		@ frame_needed = 0, uses_anonymous_args = 0
  88              	.LVL0:
  89 0000 10B5     		push	{r4, lr}	@
  90              	.LCFI0:
  91              		.cfi_def_cfa_offset 8
  92              		.cfi_offset 4, -8
  93              		.cfi_offset 14, -4
  94              	@ inc/user_libs/usbd_ioreq.c:98: {
  95              		.loc 1 98 0
  96 0002 0446     		mov	r4, r0	@ pdev, pdev
  97 0004 1346     		mov	r3, r2	@ len, len
  98              	@ inc/user_libs/usbd_ioreq.c:101:   pdev->dev.in_ep[0].total_data_len = len;
  99:inc/user_libs/usbd_ioreq.c ****   USBD_Status ret = USBD_OK;
 100:inc/user_libs/usbd_ioreq.c ****   
 101:inc/user_libs/usbd_ioreq.c ****   pdev->dev.in_ep[0].total_data_len = len;
  99              		.loc 1 101 0
 100 0006 C4F83C21 		str	r2, [r4, #316]	@ len, pdev_4(D)->dev.in_ep[0].total_data_len
 101              	@ inc/user_libs/usbd_ioreq.c:102:   pdev->dev.in_ep[0].rem_data_len   = len;
 102:inc/user_libs/usbd_ioreq.c ****   pdev->dev.in_ep[0].rem_data_len   = len;
 102              		.loc 1 102 0
 103 000a C4F83821 		str	r2, [r4, #312]	@ len, pdev_4(D)->dev.in_ep[0].rem_data_len
 104              	@ inc/user_libs/usbd_ioreq.c:103:   pdev->dev.device_state = USB_OTG_EP0_DATA_IN;
 103:inc/user_libs/usbd_ioreq.c ****   pdev->dev.device_state = USB_OTG_EP0_DATA_IN;
 105              		.loc 1 103 0
 106 000e 0222     		movs	r2, #2	@ tmp115,
 107              	.LVL1:
 108 0010 80F81121 		strb	r2, [r0, #273]	@ tmp115, pdev_4(D)->dev.device_state
 109              	@ inc/user_libs/usbd_ioreq.c:105:   DCD_EP_Tx (pdev, 0, pbuf, len);
 104:inc/user_libs/usbd_ioreq.c **** 
 105:inc/user_libs/usbd_ioreq.c ****   DCD_EP_Tx (pdev, 0, pbuf, len);
 110              		.loc 1 105 0
 111 0014 0A46     		mov	r2, r1	@, pbuf
 112 0016 0021     		movs	r1, #0	@,
 113              	.LVL2:
 114 0018 FFF7FEFF 		bl	DCD_EP_Tx	@
 115              	.LVL3:
 116              	@ inc/user_libs/usbd_ioreq.c:108: }
 106:inc/user_libs/usbd_ioreq.c ****  
 107:inc/user_libs/usbd_ioreq.c ****   return ret;
 108:inc/user_libs/usbd_ioreq.c **** }
 117              		.loc 1 108 0
 118 001c 0020     		movs	r0, #0	@,
 119 001e 10BD     		pop	{r4, pc}	@
 120              		.cfi_endproc
ARM GAS  /tmp/ccXhNIeK.s 			page 5


 121              	.LFE110:
 122              		.size	USBD_CtlSendData, .-USBD_CtlSendData
 123              		.align	1
 124              		.global	USBD_CtlContinueSendData
 125              		.syntax unified
 126              		.thumb
 127              		.thumb_func
 128              		.fpu softvfp
 129              		.type	USBD_CtlContinueSendData, %function
 130              	USBD_CtlContinueSendData:
 131              	.LFB111:
 109:inc/user_libs/usbd_ioreq.c **** 
 110:inc/user_libs/usbd_ioreq.c **** /**
 111:inc/user_libs/usbd_ioreq.c **** * @brief  USBD_CtlContinueSendData
 112:inc/user_libs/usbd_ioreq.c **** *         continue sending data on the ctl pipe
 113:inc/user_libs/usbd_ioreq.c **** * @param  pdev: device instance
 114:inc/user_libs/usbd_ioreq.c **** * @param  buff: pointer to data buffer
 115:inc/user_libs/usbd_ioreq.c **** * @param  len: length of data to be sent
 116:inc/user_libs/usbd_ioreq.c **** * @retval status
 117:inc/user_libs/usbd_ioreq.c **** */
 118:inc/user_libs/usbd_ioreq.c **** USBD_Status  USBD_CtlContinueSendData (USB_OTG_CORE_HANDLE  *pdev, 
 119:inc/user_libs/usbd_ioreq.c ****                                        uint8_t *pbuf,
 120:inc/user_libs/usbd_ioreq.c ****                                        uint16_t len)
 121:inc/user_libs/usbd_ioreq.c **** {
 132              		.loc 1 121 0
 133              		.cfi_startproc
 134              		@ args = 0, pretend = 0, frame = 0
 135              		@ frame_needed = 0, uses_anonymous_args = 0
 136              	.LVL4:
 137 0020 08B5     		push	{r3, lr}	@
 138              	.LCFI1:
 139              		.cfi_def_cfa_offset 8
 140              		.cfi_offset 3, -8
 141              		.cfi_offset 14, -4
 142              	@ inc/user_libs/usbd_ioreq.c:124:   DCD_EP_Tx (pdev, 0, pbuf, len);
 122:inc/user_libs/usbd_ioreq.c ****   USBD_Status ret = USBD_OK;
 123:inc/user_libs/usbd_ioreq.c ****   
 124:inc/user_libs/usbd_ioreq.c ****   DCD_EP_Tx (pdev, 0, pbuf, len);
 143              		.loc 1 124 0
 144 0022 1346     		mov	r3, r2	@, len
 145 0024 0A46     		mov	r2, r1	@, pbuf
 146              	.LVL5:
 147 0026 0021     		movs	r1, #0	@,
 148              	.LVL6:
 149 0028 FFF7FEFF 		bl	DCD_EP_Tx	@
 150              	.LVL7:
 151              	@ inc/user_libs/usbd_ioreq.c:128: }
 125:inc/user_libs/usbd_ioreq.c ****   
 126:inc/user_libs/usbd_ioreq.c ****   
 127:inc/user_libs/usbd_ioreq.c ****   return ret;
 128:inc/user_libs/usbd_ioreq.c **** }
 152              		.loc 1 128 0
 153 002c 0020     		movs	r0, #0	@,
 154 002e 08BD     		pop	{r3, pc}	@
 155              		.cfi_endproc
 156              	.LFE111:
 157              		.size	USBD_CtlContinueSendData, .-USBD_CtlContinueSendData
ARM GAS  /tmp/ccXhNIeK.s 			page 6


 158              		.align	1
 159              		.global	USBD_CtlPrepareRx
 160              		.syntax unified
 161              		.thumb
 162              		.thumb_func
 163              		.fpu softvfp
 164              		.type	USBD_CtlPrepareRx, %function
 165              	USBD_CtlPrepareRx:
 166              	.LFB112:
 129:inc/user_libs/usbd_ioreq.c **** 
 130:inc/user_libs/usbd_ioreq.c **** /**
 131:inc/user_libs/usbd_ioreq.c **** * @brief  USBD_CtlPrepareRx
 132:inc/user_libs/usbd_ioreq.c **** *         receive data on the ctl pipe
 133:inc/user_libs/usbd_ioreq.c **** * @param  pdev: USB OTG device instance
 134:inc/user_libs/usbd_ioreq.c **** * @param  buff: pointer to data buffer
 135:inc/user_libs/usbd_ioreq.c **** * @param  len: length of data to be received
 136:inc/user_libs/usbd_ioreq.c **** * @retval status
 137:inc/user_libs/usbd_ioreq.c **** */
 138:inc/user_libs/usbd_ioreq.c **** USBD_Status  USBD_CtlPrepareRx (USB_OTG_CORE_HANDLE  *pdev,
 139:inc/user_libs/usbd_ioreq.c ****                                   uint8_t *pbuf,                                  
 140:inc/user_libs/usbd_ioreq.c ****                                   uint16_t len)
 141:inc/user_libs/usbd_ioreq.c **** {
 167              		.loc 1 141 0
 168              		.cfi_startproc
 169              		@ args = 0, pretend = 0, frame = 0
 170              		@ frame_needed = 0, uses_anonymous_args = 0
 171              	.LVL8:
 172 0030 10B5     		push	{r4, lr}	@
 173              	.LCFI2:
 174              		.cfi_def_cfa_offset 8
 175              		.cfi_offset 4, -8
 176              		.cfi_offset 14, -4
 177              	@ inc/user_libs/usbd_ioreq.c:141: {
 178              		.loc 1 141 0
 179 0032 0446     		mov	r4, r0	@ pdev, pdev
 180 0034 1346     		mov	r3, r2	@ len, len
 181              	@ inc/user_libs/usbd_ioreq.c:144:   pdev->dev.out_ep[0].total_data_len = len;
 142:inc/user_libs/usbd_ioreq.c ****   USBD_Status ret = USBD_OK;
 143:inc/user_libs/usbd_ioreq.c ****   
 144:inc/user_libs/usbd_ioreq.c ****   pdev->dev.out_ep[0].total_data_len = len;
 182              		.loc 1 144 0
 183 0036 C4F89423 		str	r2, [r4, #916]	@ len, pdev_4(D)->dev.out_ep[0].total_data_len
 184              	@ inc/user_libs/usbd_ioreq.c:145:   pdev->dev.out_ep[0].rem_data_len   = len;
 145:inc/user_libs/usbd_ioreq.c ****   pdev->dev.out_ep[0].rem_data_len   = len;
 185              		.loc 1 145 0
 186 003a C4F89023 		str	r2, [r4, #912]	@ len, pdev_4(D)->dev.out_ep[0].rem_data_len
 187              	@ inc/user_libs/usbd_ioreq.c:146:   pdev->dev.device_state = USB_OTG_EP0_DATA_OUT;
 146:inc/user_libs/usbd_ioreq.c ****   pdev->dev.device_state = USB_OTG_EP0_DATA_OUT;
 188              		.loc 1 146 0
 189 003e 0322     		movs	r2, #3	@ tmp115,
 190              	.LVL9:
 191 0040 80F81121 		strb	r2, [r0, #273]	@ tmp115, pdev_4(D)->dev.device_state
 192              	@ inc/user_libs/usbd_ioreq.c:148:   DCD_EP_PrepareRx (pdev,
 147:inc/user_libs/usbd_ioreq.c ****   
 148:inc/user_libs/usbd_ioreq.c ****   DCD_EP_PrepareRx (pdev,
 193              		.loc 1 148 0
 194 0044 0A46     		mov	r2, r1	@, pbuf
ARM GAS  /tmp/ccXhNIeK.s 			page 7


 195 0046 0021     		movs	r1, #0	@,
 196              	.LVL10:
 197 0048 FFF7FEFF 		bl	DCD_EP_PrepareRx	@
 198              	.LVL11:
 199              	@ inc/user_libs/usbd_ioreq.c:155: }
 149:inc/user_libs/usbd_ioreq.c ****                     0,
 150:inc/user_libs/usbd_ioreq.c ****                     pbuf,
 151:inc/user_libs/usbd_ioreq.c ****                     len);
 152:inc/user_libs/usbd_ioreq.c ****   
 153:inc/user_libs/usbd_ioreq.c **** 
 154:inc/user_libs/usbd_ioreq.c ****   return ret;
 155:inc/user_libs/usbd_ioreq.c **** }
 200              		.loc 1 155 0
 201 004c 0020     		movs	r0, #0	@,
 202 004e 10BD     		pop	{r4, pc}	@
 203              		.cfi_endproc
 204              	.LFE112:
 205              		.size	USBD_CtlPrepareRx, .-USBD_CtlPrepareRx
 206              		.align	1
 207              		.global	USBD_CtlContinueRx
 208              		.syntax unified
 209              		.thumb
 210              		.thumb_func
 211              		.fpu softvfp
 212              		.type	USBD_CtlContinueRx, %function
 213              	USBD_CtlContinueRx:
 214              	.LFB113:
 156:inc/user_libs/usbd_ioreq.c **** 
 157:inc/user_libs/usbd_ioreq.c **** /**
 158:inc/user_libs/usbd_ioreq.c **** * @brief  USBD_CtlContinueRx
 159:inc/user_libs/usbd_ioreq.c **** *         continue receive data on the ctl pipe
 160:inc/user_libs/usbd_ioreq.c **** * @param  pdev: USB OTG device instance
 161:inc/user_libs/usbd_ioreq.c **** * @param  buff: pointer to data buffer
 162:inc/user_libs/usbd_ioreq.c **** * @param  len: length of data to be received
 163:inc/user_libs/usbd_ioreq.c **** * @retval status
 164:inc/user_libs/usbd_ioreq.c **** */
 165:inc/user_libs/usbd_ioreq.c **** USBD_Status  USBD_CtlContinueRx (USB_OTG_CORE_HANDLE  *pdev, 
 166:inc/user_libs/usbd_ioreq.c ****                                           uint8_t *pbuf,                                          
 167:inc/user_libs/usbd_ioreq.c ****                                           uint16_t len)
 168:inc/user_libs/usbd_ioreq.c **** {
 215              		.loc 1 168 0
 216              		.cfi_startproc
 217              		@ args = 0, pretend = 0, frame = 0
 218              		@ frame_needed = 0, uses_anonymous_args = 0
 219              	.LVL12:
 220 0050 08B5     		push	{r3, lr}	@
 221              	.LCFI3:
 222              		.cfi_def_cfa_offset 8
 223              		.cfi_offset 3, -8
 224              		.cfi_offset 14, -4
 225              	@ inc/user_libs/usbd_ioreq.c:171:   DCD_EP_PrepareRx (pdev,
 169:inc/user_libs/usbd_ioreq.c ****   USBD_Status ret = USBD_OK;
 170:inc/user_libs/usbd_ioreq.c ****   
 171:inc/user_libs/usbd_ioreq.c ****   DCD_EP_PrepareRx (pdev,
 226              		.loc 1 171 0
 227 0052 1346     		mov	r3, r2	@, len
 228 0054 0A46     		mov	r2, r1	@, pbuf
ARM GAS  /tmp/ccXhNIeK.s 			page 8


 229              	.LVL13:
 230 0056 0021     		movs	r1, #0	@,
 231              	.LVL14:
 232 0058 FFF7FEFF 		bl	DCD_EP_PrepareRx	@
 233              	.LVL15:
 234              	@ inc/user_libs/usbd_ioreq.c:176: }
 172:inc/user_libs/usbd_ioreq.c ****                     0,                     
 173:inc/user_libs/usbd_ioreq.c ****                     pbuf,                         
 174:inc/user_libs/usbd_ioreq.c ****                     len);
 175:inc/user_libs/usbd_ioreq.c ****   return ret;
 176:inc/user_libs/usbd_ioreq.c **** }
 235              		.loc 1 176 0
 236 005c 0020     		movs	r0, #0	@,
 237 005e 08BD     		pop	{r3, pc}	@
 238              		.cfi_endproc
 239              	.LFE113:
 240              		.size	USBD_CtlContinueRx, .-USBD_CtlContinueRx
 241              		.align	1
 242              		.global	USBD_CtlSendStatus
 243              		.syntax unified
 244              		.thumb
 245              		.thumb_func
 246              		.fpu softvfp
 247              		.type	USBD_CtlSendStatus, %function
 248              	USBD_CtlSendStatus:
 249              	.LFB114:
 177:inc/user_libs/usbd_ioreq.c **** /**
 178:inc/user_libs/usbd_ioreq.c **** * @brief  USBD_CtlSendStatus
 179:inc/user_libs/usbd_ioreq.c **** *         send zero lzngth packet on the ctl pipe
 180:inc/user_libs/usbd_ioreq.c **** * @param  pdev: USB OTG device instance
 181:inc/user_libs/usbd_ioreq.c **** * @retval status
 182:inc/user_libs/usbd_ioreq.c **** */
 183:inc/user_libs/usbd_ioreq.c **** USBD_Status  USBD_CtlSendStatus (USB_OTG_CORE_HANDLE  *pdev)
 184:inc/user_libs/usbd_ioreq.c **** {
 250              		.loc 1 184 0
 251              		.cfi_startproc
 252              		@ args = 0, pretend = 0, frame = 0
 253              		@ frame_needed = 0, uses_anonymous_args = 0
 254              	.LVL16:
 255 0060 10B5     		push	{r4, lr}	@
 256              	.LCFI4:
 257              		.cfi_def_cfa_offset 8
 258              		.cfi_offset 4, -8
 259              		.cfi_offset 14, -4
 260              	@ inc/user_libs/usbd_ioreq.c:186:   pdev->dev.device_state = USB_OTG_EP0_STATUS_IN;
 185:inc/user_libs/usbd_ioreq.c ****   USBD_Status ret = USBD_OK;
 186:inc/user_libs/usbd_ioreq.c ****   pdev->dev.device_state = USB_OTG_EP0_STATUS_IN;
 261              		.loc 1 186 0
 262 0062 0423     		movs	r3, #4	@ tmp112,
 263 0064 80F81131 		strb	r3, [r0, #273]	@ tmp112, pdev_2(D)->dev.device_state
 264              	@ inc/user_libs/usbd_ioreq.c:187:   DCD_EP_Tx (pdev,
 187:inc/user_libs/usbd_ioreq.c ****   DCD_EP_Tx (pdev,
 265              		.loc 1 187 0
 266 0068 0023     		movs	r3, #0	@,
 267              	@ inc/user_libs/usbd_ioreq.c:184: {
 184:inc/user_libs/usbd_ioreq.c ****   USBD_Status ret = USBD_OK;
 268              		.loc 1 184 0
ARM GAS  /tmp/ccXhNIeK.s 			page 9


 269 006a 0446     		mov	r4, r0	@ pdev, pdev
 270              	@ inc/user_libs/usbd_ioreq.c:187:   DCD_EP_Tx (pdev,
 271              		.loc 1 187 0
 272 006c 1A46     		mov	r2, r3	@,
 273 006e 1946     		mov	r1, r3	@,
 274 0070 FFF7FEFF 		bl	DCD_EP_Tx	@
 275              	.LVL17:
 276              	@ inc/user_libs/usbd_ioreq.c:192:   USB_OTG_EP0_OutStart(pdev);  
 188:inc/user_libs/usbd_ioreq.c ****              0,
 189:inc/user_libs/usbd_ioreq.c ****              NULL, 
 190:inc/user_libs/usbd_ioreq.c ****              0); 
 191:inc/user_libs/usbd_ioreq.c ****   
 192:inc/user_libs/usbd_ioreq.c ****   USB_OTG_EP0_OutStart(pdev);  
 277              		.loc 1 192 0
 278 0074 2046     		mov	r0, r4	@, pdev
 279 0076 FFF7FEFF 		bl	USB_OTG_EP0_OutStart	@
 280              	.LVL18:
 281              	@ inc/user_libs/usbd_ioreq.c:195: }
 193:inc/user_libs/usbd_ioreq.c ****   
 194:inc/user_libs/usbd_ioreq.c ****   return ret;
 195:inc/user_libs/usbd_ioreq.c **** }
 282              		.loc 1 195 0
 283 007a 0020     		movs	r0, #0	@,
 284 007c 10BD     		pop	{r4, pc}	@
 285              		.cfi_endproc
 286              	.LFE114:
 287              		.size	USBD_CtlSendStatus, .-USBD_CtlSendStatus
 288              		.align	1
 289              		.global	USBD_CtlReceiveStatus
 290              		.syntax unified
 291              		.thumb
 292              		.thumb_func
 293              		.fpu softvfp
 294              		.type	USBD_CtlReceiveStatus, %function
 295              	USBD_CtlReceiveStatus:
 296              	.LFB115:
 196:inc/user_libs/usbd_ioreq.c **** 
 197:inc/user_libs/usbd_ioreq.c **** /**
 198:inc/user_libs/usbd_ioreq.c **** * @brief  USBD_CtlReceiveStatus
 199:inc/user_libs/usbd_ioreq.c **** *         receive zero lzngth packet on the ctl pipe
 200:inc/user_libs/usbd_ioreq.c **** * @param  pdev: USB OTG device instance
 201:inc/user_libs/usbd_ioreq.c **** * @retval status
 202:inc/user_libs/usbd_ioreq.c **** */
 203:inc/user_libs/usbd_ioreq.c **** USBD_Status  USBD_CtlReceiveStatus (USB_OTG_CORE_HANDLE  *pdev)
 204:inc/user_libs/usbd_ioreq.c **** {
 297              		.loc 1 204 0
 298              		.cfi_startproc
 299              		@ args = 0, pretend = 0, frame = 0
 300              		@ frame_needed = 0, uses_anonymous_args = 0
 301              	.LVL19:
 302 007e 10B5     		push	{r4, lr}	@
 303              	.LCFI5:
 304              		.cfi_def_cfa_offset 8
 305              		.cfi_offset 4, -8
 306              		.cfi_offset 14, -4
 307              	@ inc/user_libs/usbd_ioreq.c:206:   pdev->dev.device_state = USB_OTG_EP0_STATUS_OUT;  
 205:inc/user_libs/usbd_ioreq.c ****   USBD_Status ret = USBD_OK;
ARM GAS  /tmp/ccXhNIeK.s 			page 10


 206:inc/user_libs/usbd_ioreq.c ****   pdev->dev.device_state = USB_OTG_EP0_STATUS_OUT;  
 308              		.loc 1 206 0
 309 0080 0523     		movs	r3, #5	@ tmp112,
 310 0082 80F81131 		strb	r3, [r0, #273]	@ tmp112, pdev_2(D)->dev.device_state
 311              	@ inc/user_libs/usbd_ioreq.c:207:   DCD_EP_PrepareRx ( pdev,
 207:inc/user_libs/usbd_ioreq.c ****   DCD_EP_PrepareRx ( pdev,
 312              		.loc 1 207 0
 313 0086 0023     		movs	r3, #0	@,
 314              	@ inc/user_libs/usbd_ioreq.c:204: {
 204:inc/user_libs/usbd_ioreq.c ****   USBD_Status ret = USBD_OK;
 315              		.loc 1 204 0
 316 0088 0446     		mov	r4, r0	@ pdev, pdev
 317              	@ inc/user_libs/usbd_ioreq.c:207:   DCD_EP_PrepareRx ( pdev,
 318              		.loc 1 207 0
 319 008a 1A46     		mov	r2, r3	@,
 320 008c 1946     		mov	r1, r3	@,
 321 008e FFF7FEFF 		bl	DCD_EP_PrepareRx	@
 322              	.LVL20:
 323              	@ inc/user_libs/usbd_ioreq.c:212:   USB_OTG_EP0_OutStart(pdev);
 208:inc/user_libs/usbd_ioreq.c ****                     0,
 209:inc/user_libs/usbd_ioreq.c ****                     NULL,
 210:inc/user_libs/usbd_ioreq.c ****                     0);  
 211:inc/user_libs/usbd_ioreq.c **** 
 212:inc/user_libs/usbd_ioreq.c ****   USB_OTG_EP0_OutStart(pdev);
 324              		.loc 1 212 0
 325 0092 2046     		mov	r0, r4	@, pdev
 326 0094 FFF7FEFF 		bl	USB_OTG_EP0_OutStart	@
 327              	.LVL21:
 328              	@ inc/user_libs/usbd_ioreq.c:215: }
 213:inc/user_libs/usbd_ioreq.c ****   
 214:inc/user_libs/usbd_ioreq.c ****   return ret;
 215:inc/user_libs/usbd_ioreq.c **** }
 329              		.loc 1 215 0
 330 0098 0020     		movs	r0, #0	@,
 331 009a 10BD     		pop	{r4, pc}	@
 332              		.cfi_endproc
 333              	.LFE115:
 334              		.size	USBD_CtlReceiveStatus, .-USBD_CtlReceiveStatus
 335              		.align	1
 336              		.global	USBD_GetRxCount
 337              		.syntax unified
 338              		.thumb
 339              		.thumb_func
 340              		.fpu softvfp
 341              		.type	USBD_GetRxCount, %function
 342              	USBD_GetRxCount:
 343              	.LFB116:
 216:inc/user_libs/usbd_ioreq.c **** 
 217:inc/user_libs/usbd_ioreq.c **** 
 218:inc/user_libs/usbd_ioreq.c **** /**
 219:inc/user_libs/usbd_ioreq.c **** * @brief  USBD_GetRxCount
 220:inc/user_libs/usbd_ioreq.c **** *         returns the received data length
 221:inc/user_libs/usbd_ioreq.c **** * @param  pdev: USB OTG device instance
 222:inc/user_libs/usbd_ioreq.c **** *         epnum: endpoint index
 223:inc/user_libs/usbd_ioreq.c **** * @retval Rx Data blength
 224:inc/user_libs/usbd_ioreq.c **** */
 225:inc/user_libs/usbd_ioreq.c **** uint16_t  USBD_GetRxCount (USB_OTG_CORE_HANDLE  *pdev , uint8_t epnum)
ARM GAS  /tmp/ccXhNIeK.s 			page 11


 226:inc/user_libs/usbd_ioreq.c **** {
 344              		.loc 1 226 0
 345              		.cfi_startproc
 346              		@ args = 0, pretend = 0, frame = 0
 347              		@ frame_needed = 0, uses_anonymous_args = 0
 348              		@ link register save eliminated.
 349              	.LVL22:
 350              	@ inc/user_libs/usbd_ioreq.c:227:   return pdev->dev.out_ep[epnum].xfer_count;
 227:inc/user_libs/usbd_ioreq.c ****   return pdev->dev.out_ep[epnum].xfer_count;
 351              		.loc 1 227 0
 352 009c 2823     		movs	r3, #40	@ tmp117,
 353 009e 03FB0101 		mla	r1, r3, r1, r0	@ tmp118, tmp117, epnum, pdev
 354              	.LVL23:
 355              	@ inc/user_libs/usbd_ioreq.c:228: }
 228:inc/user_libs/usbd_ioreq.c **** }
 356              		.loc 1 228 0
 357 00a2 B1F88C03 		ldrh	r0, [r1, #908]	@, pdev_5(D)->dev.out_ep[_1].xfer_count
 358              	.LVL24:
 359 00a6 7047     		bx	lr	@
 360              		.cfi_endproc
 361              	.LFE116:
 362              		.size	USBD_GetRxCount, .-USBD_GetRxCount
 363              	.Letext0:
 364              		.file 2 "/home/sticky/opt/gcc-arm-none-eabi-7-2017-q4-major/arm-none-eabi/include/machine/_default
 365              		.file 3 "/home/sticky/opt/gcc-arm-none-eabi-7-2017-q4-major/arm-none-eabi/include/sys/_stdint.h"
 366              		.file 4 "./inc/CMSIS/core_cm4.h"
 367              		.file 5 "./inc/system_stm32f4xx.h"
 368              		.file 6 "inc/user_libs/usb_regs.h"
 369              		.file 7 "inc/user_libs/usb_core.h"
 370              		.file 8 "inc/user_libs/usbd_core.h"
 371              		.file 9 "inc/user_libs/usb_dcd.h"