ARM GAS  /tmp/ccY7Z8QA.s 			page 1


   1              		.cpu cortex-m4
   2              		.eabi_attribute 20, 1	@ Tag_ABI_FP_denormal
   3              		.eabi_attribute 21, 1	@ Tag_ABI_FP_exceptions
   4              		.eabi_attribute 23, 3	@ Tag_ABI_FP_number_model
   5              		.eabi_attribute 24, 1	@ Tag_ABI_align8_needed
   6              		.eabi_attribute 25, 1	@ Tag_ABI_align8_preserved
   7              		.eabi_attribute 26, 1	@ Tag_ABI_enum_size
   8              		.eabi_attribute 30, 4	@ Tag_ABI_optimization_goals
   9              		.eabi_attribute 34, 1	@ Tag_CPU_unaligned_access
  10              		.eabi_attribute 18, 4	@ Tag_ABI_PCS_wchar_t
  11              		.file	"usbd_hid_core.c"
  12              	@ GNU C11 (GNU Tools for Arm Embedded Processors 7-2017-q4-major) version 7.2.1 20170904 (release) 
  13              	@	compiled by GNU C version 4.8.4, GMP version 6.1.0, MPFR version 3.1.4, MPC version 1.0.3, isl ve
  14              	
  15              	@ GGC heuristics: --param ggc-min-expand=100 --param ggc-min-heapsize=131072
  16              	@ options passed:  -I . -I ./inc -I ./inc/CMSIS
  17              	@ -I STM32F4xx_StdPeriph_Driver/inc -I ./inc/user_libs
  18              	@ -imultilib thumb/v7e-m
  19              	@ -iprefix /home/sticky/opt/gcc-arm-none-eabi-7-2017-q4-major/bin/../lib/gcc/arm-none-eabi/7.2.1/
  20              	@ -isysroot /home/sticky/opt/gcc-arm-none-eabi-7-2017-q4-major/bin/../arm-none-eabi
  21              	@ -D__USES_INITFINI__ -D STM32F40XX -D USE_STDPERIPH_DRIVER
  22              	@ -D RUN_FROM_FLASH=1 inc/user_libs/usbd_hid_core.c -mcpu=cortex-m4 -mthumb
  23              	@ -auxbase-strip inc/user_libs/usbd_hid_core.o -g -gdwarf-2 -Os -Wall
  24              	@ -Wstrict-prototypes -fomit-frame-pointer -fverbose-asm
  25              	@ options enabled:  -faggressive-loop-optimizations -falign-jumps
  26              	@ -falign-labels -falign-loops -fauto-inc-dec -fbranch-count-reg
  27              	@ -fcaller-saves -fchkp-check-incomplete-type -fchkp-check-read
  28              	@ -fchkp-check-write -fchkp-instrument-calls -fchkp-narrow-bounds
  29              	@ -fchkp-optimize -fchkp-store-bounds -fchkp-use-static-bounds
  30              	@ -fchkp-use-static-const-bounds -fchkp-use-wrappers -fcode-hoisting
  31              	@ -fcombine-stack-adjustments -fcommon -fcompare-elim -fcprop-registers
  32              	@ -fcrossjumping -fcse-follow-jumps -fdefer-pop
  33              	@ -fdelete-null-pointer-checks -fdevirtualize -fdevirtualize-speculatively
  34              	@ -fdwarf2-cfi-asm -fearly-inlining -feliminate-unused-debug-types
  35              	@ -fexpensive-optimizations -fforward-propagate -ffp-int-builtin-inexact
  36              	@ -ffunction-cse -fgcse -fgcse-lm -fgnu-runtime -fgnu-unique
  37              	@ -fguess-branch-probability -fhoist-adjacent-loads -fident -fif-conversion
  38              	@ -fif-conversion2 -findirect-inlining -finline -finline-atomics
  39              	@ -finline-functions -finline-functions-called-once
  40              	@ -finline-small-functions -fipa-bit-cp -fipa-cp -fipa-icf
  41              	@ -fipa-icf-functions -fipa-icf-variables -fipa-profile -fipa-pure-const
  42              	@ -fipa-ra -fipa-reference -fipa-sra -fipa-vrp -fira-hoist-pressure
  43              	@ -fira-share-save-slots -fira-share-spill-slots
  44              	@ -fisolate-erroneous-paths-dereference -fivopts -fkeep-static-consts
  45              	@ -fleading-underscore -flifetime-dse -flra-remat -flto-odr-type-merging
  46              	@ -fmath-errno -fmerge-constants -fmerge-debug-strings
  47              	@ -fmove-loop-invariants -fomit-frame-pointer -foptimize-sibling-calls
  48              	@ -fpartial-inlining -fpeephole -fpeephole2 -fplt -fprefetch-loop-arrays
  49              	@ -freg-struct-return -freorder-blocks -freorder-functions
  50              	@ -frerun-cse-after-loop -fsched-critical-path-heuristic
  51              	@ -fsched-dep-count-heuristic -fsched-group-heuristic -fsched-interblock
  52              	@ -fsched-last-insn-heuristic -fsched-pressure -fsched-rank-heuristic
  53              	@ -fsched-spec -fsched-spec-insn-heuristic -fsched-stalled-insns-dep
  54              	@ -fschedule-insns2 -fsection-anchors -fsemantic-interposition
  55              	@ -fshow-column -fshrink-wrap-separate -fsigned-zeros
  56              	@ -fsplit-ivs-in-unroller -fsplit-wide-types -fssa-backprop -fssa-phiopt
  57              	@ -fstdarg-opt -fstore-merging -fstrict-aliasing -fstrict-overflow
ARM GAS  /tmp/ccY7Z8QA.s 			page 2


  58              	@ -fstrict-volatile-bitfields -fsync-libcalls -fthread-jumps
  59              	@ -ftoplevel-reorder -ftrapping-math -ftree-bit-ccp -ftree-builtin-call-dce
  60              	@ -ftree-ccp -ftree-ch -ftree-coalesce-vars -ftree-copy-prop -ftree-cselim
  61              	@ -ftree-dce -ftree-dominator-opts -ftree-dse -ftree-forwprop -ftree-fre
  62              	@ -ftree-loop-if-convert -ftree-loop-im -ftree-loop-ivcanon
  63              	@ -ftree-loop-optimize -ftree-parallelize-loops= -ftree-phiprop -ftree-pre
  64              	@ -ftree-pta -ftree-reassoc -ftree-scev-cprop -ftree-sink -ftree-slsr
  65              	@ -ftree-sra -ftree-switch-conversion -ftree-tail-merge -ftree-ter
  66              	@ -ftree-vrp -funit-at-a-time -fvar-tracking -fvar-tracking-assignments
  67              	@ -fverbose-asm -fzero-initialized-in-bss -masm-syntax-unified
  68              	@ -mlittle-endian -mpic-data-is-text-relative -msched-prolog -mthumb
  69              	@ -munaligned-access -mvectorize-with-neon-quad
  70              	
  71              		.text
  72              	.Ltext0:
  73              		.cfi_sections	.debug_frame
  74              		.align	1
  75              		.syntax unified
  76              		.thumb
  77              		.thumb_func
  78              		.fpu softvfp
  79              		.type	USBD_HID_GetCfgDesc, %function
  80              	USBD_HID_GetCfgDesc:
  81              	.LFB114:
  82              		.file 1 "inc/user_libs/usbd_hid_core.c"
   1:inc/user_libs/usbd_hid_core.c **** /**
   2:inc/user_libs/usbd_hid_core.c ****   ******************************************************************************
   3:inc/user_libs/usbd_hid_core.c ****   * @file    usbd_hid_core.c
   4:inc/user_libs/usbd_hid_core.c ****   * @author  MCD Application Team
   5:inc/user_libs/usbd_hid_core.c ****   * @version V1.1.0
   6:inc/user_libs/usbd_hid_core.c ****   * @date    19-March-2012
   7:inc/user_libs/usbd_hid_core.c ****   * @brief   This file provides the HID core functions.
   8:inc/user_libs/usbd_hid_core.c ****   *
   9:inc/user_libs/usbd_hid_core.c ****   * @verbatim
  10:inc/user_libs/usbd_hid_core.c ****   *      
  11:inc/user_libs/usbd_hid_core.c ****   *          ===================================================================      
  12:inc/user_libs/usbd_hid_core.c ****   *                                HID Class  Description
  13:inc/user_libs/usbd_hid_core.c ****   *          =================================================================== 
  14:inc/user_libs/usbd_hid_core.c ****   *           This module manages the HID class V1.11 following the "Device Class Definition
  15:inc/user_libs/usbd_hid_core.c ****   *           for Human Interface Devices (HID) Version 1.11 Jun 27, 2001".
  16:inc/user_libs/usbd_hid_core.c ****   *           This driver implements the following aspects of the specification:
  17:inc/user_libs/usbd_hid_core.c ****   *             - The Boot Interface Subclass
  18:inc/user_libs/usbd_hid_core.c ****   *             - The Mouse protocol
  19:inc/user_libs/usbd_hid_core.c ****   *             - Usage Page : Generic Desktop
  20:inc/user_libs/usbd_hid_core.c ****   *             - Usage : Joystick)
  21:inc/user_libs/usbd_hid_core.c ****   *             - Collection : Application 
  22:inc/user_libs/usbd_hid_core.c ****   *      
  23:inc/user_libs/usbd_hid_core.c ****   * @note     In HS mode and when the DMA is used, all variables and data structures
  24:inc/user_libs/usbd_hid_core.c ****   *           dealing with the DMA during the transaction process should be 32-bit aligned.
  25:inc/user_libs/usbd_hid_core.c ****   *           
  26:inc/user_libs/usbd_hid_core.c ****   *      
  27:inc/user_libs/usbd_hid_core.c ****   *  @endverbatim
  28:inc/user_libs/usbd_hid_core.c ****   *
  29:inc/user_libs/usbd_hid_core.c ****   ******************************************************************************
  30:inc/user_libs/usbd_hid_core.c ****   * @attention
  31:inc/user_libs/usbd_hid_core.c ****   *
  32:inc/user_libs/usbd_hid_core.c ****   * <h2><center>&copy; COPYRIGHT 2012 STMicroelectronics</center></h2>
ARM GAS  /tmp/ccY7Z8QA.s 			page 3


  33:inc/user_libs/usbd_hid_core.c ****   *
  34:inc/user_libs/usbd_hid_core.c ****   * Licensed under MCD-ST Liberty SW License Agreement V2, (the "License");
  35:inc/user_libs/usbd_hid_core.c ****   * You may not use this file except in compliance with the License.
  36:inc/user_libs/usbd_hid_core.c ****   * You may obtain a copy of the License at:
  37:inc/user_libs/usbd_hid_core.c ****   *
  38:inc/user_libs/usbd_hid_core.c ****   *        http://www.st.com/software_license_agreement_liberty_v2
  39:inc/user_libs/usbd_hid_core.c ****   *
  40:inc/user_libs/usbd_hid_core.c ****   * Unless required by applicable law or agreed to in writing, software 
  41:inc/user_libs/usbd_hid_core.c ****   * distributed under the License is distributed on an "AS IS" BASIS, 
  42:inc/user_libs/usbd_hid_core.c ****   * WITHOUT WARRANTIES OR CONDITIONS OF ANY KIND, either express or implied.
  43:inc/user_libs/usbd_hid_core.c ****   * See the License for the specific language governing permissions and
  44:inc/user_libs/usbd_hid_core.c ****   * limitations under the License.
  45:inc/user_libs/usbd_hid_core.c ****   *
  46:inc/user_libs/usbd_hid_core.c ****   ******************************************************************************
  47:inc/user_libs/usbd_hid_core.c ****   */ 
  48:inc/user_libs/usbd_hid_core.c **** 
  49:inc/user_libs/usbd_hid_core.c **** /* Includes ------------------------------------------------------------------*/
  50:inc/user_libs/usbd_hid_core.c **** #include "usbd_hid_core.h"
  51:inc/user_libs/usbd_hid_core.c **** #include "usbd_desc.h"
  52:inc/user_libs/usbd_hid_core.c **** #include "usbd_req.h"
  53:inc/user_libs/usbd_hid_core.c **** 
  54:inc/user_libs/usbd_hid_core.c **** 
  55:inc/user_libs/usbd_hid_core.c **** /** @addtogroup STM32_USB_OTG_DEVICE_LIBRARY
  56:inc/user_libs/usbd_hid_core.c ****   * @{
  57:inc/user_libs/usbd_hid_core.c ****   */
  58:inc/user_libs/usbd_hid_core.c **** 
  59:inc/user_libs/usbd_hid_core.c **** 
  60:inc/user_libs/usbd_hid_core.c **** /** @defgroup USBD_HID 
  61:inc/user_libs/usbd_hid_core.c ****   * @brief usbd core module
  62:inc/user_libs/usbd_hid_core.c ****   * @{
  63:inc/user_libs/usbd_hid_core.c ****   */ 
  64:inc/user_libs/usbd_hid_core.c **** 
  65:inc/user_libs/usbd_hid_core.c **** /** @defgroup USBD_HID_Private_TypesDefinitions
  66:inc/user_libs/usbd_hid_core.c ****   * @{
  67:inc/user_libs/usbd_hid_core.c ****   */ 
  68:inc/user_libs/usbd_hid_core.c **** /**
  69:inc/user_libs/usbd_hid_core.c ****   * @}
  70:inc/user_libs/usbd_hid_core.c ****   */ 
  71:inc/user_libs/usbd_hid_core.c **** 
  72:inc/user_libs/usbd_hid_core.c **** 
  73:inc/user_libs/usbd_hid_core.c **** /** @defgroup USBD_HID_Private_Defines
  74:inc/user_libs/usbd_hid_core.c ****   * @{
  75:inc/user_libs/usbd_hid_core.c ****   */ 
  76:inc/user_libs/usbd_hid_core.c **** 
  77:inc/user_libs/usbd_hid_core.c **** /**
  78:inc/user_libs/usbd_hid_core.c ****   * @}
  79:inc/user_libs/usbd_hid_core.c ****   */ 
  80:inc/user_libs/usbd_hid_core.c **** 
  81:inc/user_libs/usbd_hid_core.c **** 
  82:inc/user_libs/usbd_hid_core.c **** /** @defgroup USBD_HID_Private_Macros
  83:inc/user_libs/usbd_hid_core.c ****   * @{
  84:inc/user_libs/usbd_hid_core.c ****   */ 
  85:inc/user_libs/usbd_hid_core.c **** /**
  86:inc/user_libs/usbd_hid_core.c ****   * @}
  87:inc/user_libs/usbd_hid_core.c ****   */ 
  88:inc/user_libs/usbd_hid_core.c **** 
  89:inc/user_libs/usbd_hid_core.c **** 
ARM GAS  /tmp/ccY7Z8QA.s 			page 4


  90:inc/user_libs/usbd_hid_core.c **** 
  91:inc/user_libs/usbd_hid_core.c **** 
  92:inc/user_libs/usbd_hid_core.c **** /** @defgroup USBD_HID_Private_FunctionPrototypes
  93:inc/user_libs/usbd_hid_core.c ****   * @{
  94:inc/user_libs/usbd_hid_core.c ****   */
  95:inc/user_libs/usbd_hid_core.c **** 
  96:inc/user_libs/usbd_hid_core.c **** 
  97:inc/user_libs/usbd_hid_core.c **** static uint8_t  USBD_HID_Init (void  *pdev, 
  98:inc/user_libs/usbd_hid_core.c ****                                uint8_t cfgidx);
  99:inc/user_libs/usbd_hid_core.c **** 
 100:inc/user_libs/usbd_hid_core.c **** static uint8_t  USBD_HID_DeInit (void  *pdev, 
 101:inc/user_libs/usbd_hid_core.c ****                                  uint8_t cfgidx);
 102:inc/user_libs/usbd_hid_core.c **** 
 103:inc/user_libs/usbd_hid_core.c **** static uint8_t  USBD_HID_Setup (void  *pdev, 
 104:inc/user_libs/usbd_hid_core.c ****                                 USB_SETUP_REQ *req);
 105:inc/user_libs/usbd_hid_core.c **** 
 106:inc/user_libs/usbd_hid_core.c **** static uint8_t  *USBD_HID_GetCfgDesc (uint8_t speed, uint16_t *length);
 107:inc/user_libs/usbd_hid_core.c **** 
 108:inc/user_libs/usbd_hid_core.c **** static uint8_t  USBD_HID_DataIn (void  *pdev, uint8_t epnum);
 109:inc/user_libs/usbd_hid_core.c **** /**
 110:inc/user_libs/usbd_hid_core.c ****   * @}
 111:inc/user_libs/usbd_hid_core.c ****   */ 
 112:inc/user_libs/usbd_hid_core.c **** 
 113:inc/user_libs/usbd_hid_core.c **** /** @defgroup USBD_HID_Private_Variables
 114:inc/user_libs/usbd_hid_core.c ****   * @{
 115:inc/user_libs/usbd_hid_core.c ****   */ 
 116:inc/user_libs/usbd_hid_core.c **** 
 117:inc/user_libs/usbd_hid_core.c **** USBD_Class_cb_TypeDef  USBD_HID_cb = 
 118:inc/user_libs/usbd_hid_core.c **** {
 119:inc/user_libs/usbd_hid_core.c ****   USBD_HID_Init,
 120:inc/user_libs/usbd_hid_core.c ****   USBD_HID_DeInit,
 121:inc/user_libs/usbd_hid_core.c ****   USBD_HID_Setup,
 122:inc/user_libs/usbd_hid_core.c ****   NULL, /*EP0_TxSent*/  
 123:inc/user_libs/usbd_hid_core.c ****   NULL, /*EP0_RxReady*/
 124:inc/user_libs/usbd_hid_core.c ****   USBD_HID_DataIn, /*DataIn*/
 125:inc/user_libs/usbd_hid_core.c ****   NULL, /*DataOut*/
 126:inc/user_libs/usbd_hid_core.c ****   NULL, /*SOF */
 127:inc/user_libs/usbd_hid_core.c ****   NULL,
 128:inc/user_libs/usbd_hid_core.c ****   NULL,      
 129:inc/user_libs/usbd_hid_core.c ****   USBD_HID_GetCfgDesc,
 130:inc/user_libs/usbd_hid_core.c **** #ifdef USB_OTG_HS_CORE  
 131:inc/user_libs/usbd_hid_core.c ****   USBD_HID_GetCfgDesc, /* use same config as per FS */
 132:inc/user_libs/usbd_hid_core.c **** #endif  
 133:inc/user_libs/usbd_hid_core.c **** };
 134:inc/user_libs/usbd_hid_core.c **** 
 135:inc/user_libs/usbd_hid_core.c **** #ifdef USB_OTG_HS_INTERNAL_DMA_ENABLED
 136:inc/user_libs/usbd_hid_core.c ****   #if defined ( __ICCARM__ ) /*!< IAR Compiler */
 137:inc/user_libs/usbd_hid_core.c ****     #pragma data_alignment=4   
 138:inc/user_libs/usbd_hid_core.c ****   #endif
 139:inc/user_libs/usbd_hid_core.c **** #endif /* USB_OTG_HS_INTERNAL_DMA_ENABLED */        
 140:inc/user_libs/usbd_hid_core.c **** __ALIGN_BEGIN static uint32_t  USBD_HID_AltSet  __ALIGN_END = 0;
 141:inc/user_libs/usbd_hid_core.c **** 
 142:inc/user_libs/usbd_hid_core.c **** #ifdef USB_OTG_HS_INTERNAL_DMA_ENABLED
 143:inc/user_libs/usbd_hid_core.c ****   #if defined ( __ICCARM__ ) /*!< IAR Compiler */
 144:inc/user_libs/usbd_hid_core.c ****     #pragma data_alignment=4   
 145:inc/user_libs/usbd_hid_core.c ****   #endif
 146:inc/user_libs/usbd_hid_core.c **** #endif /* USB_OTG_HS_INTERNAL_DMA_ENABLED */      
ARM GAS  /tmp/ccY7Z8QA.s 			page 5


 147:inc/user_libs/usbd_hid_core.c **** __ALIGN_BEGIN static uint32_t  USBD_HID_Protocol  __ALIGN_END = 0;
 148:inc/user_libs/usbd_hid_core.c **** 
 149:inc/user_libs/usbd_hid_core.c **** #ifdef USB_OTG_HS_INTERNAL_DMA_ENABLED
 150:inc/user_libs/usbd_hid_core.c ****   #if defined ( __ICCARM__ ) /*!< IAR Compiler */
 151:inc/user_libs/usbd_hid_core.c ****     #pragma data_alignment=4   
 152:inc/user_libs/usbd_hid_core.c ****   #endif
 153:inc/user_libs/usbd_hid_core.c **** #endif /* USB_OTG_HS_INTERNAL_DMA_ENABLED */  
 154:inc/user_libs/usbd_hid_core.c **** __ALIGN_BEGIN static uint32_t  USBD_HID_IdleState __ALIGN_END = 0;
 155:inc/user_libs/usbd_hid_core.c **** 
 156:inc/user_libs/usbd_hid_core.c **** #ifdef USB_OTG_HS_INTERNAL_DMA_ENABLED
 157:inc/user_libs/usbd_hid_core.c ****   #if defined ( __ICCARM__ ) /*!< IAR Compiler */
 158:inc/user_libs/usbd_hid_core.c ****     #pragma data_alignment=4   
 159:inc/user_libs/usbd_hid_core.c ****   #endif
 160:inc/user_libs/usbd_hid_core.c **** #endif /* USB_OTG_HS_INTERNAL_DMA_ENABLED */ 
 161:inc/user_libs/usbd_hid_core.c **** /* USB HID device Configuration Descriptor */
 162:inc/user_libs/usbd_hid_core.c **** __ALIGN_BEGIN static uint8_t USBD_HID_CfgDesc[USB_HID_CONFIG_DESC_SIZ] __ALIGN_END =
 163:inc/user_libs/usbd_hid_core.c **** {
 164:inc/user_libs/usbd_hid_core.c ****   0x09, /* bLength: Configuration Descriptor size */
 165:inc/user_libs/usbd_hid_core.c ****   USB_CONFIGURATION_DESCRIPTOR_TYPE, /* bDescriptorType: Configuration */
 166:inc/user_libs/usbd_hid_core.c ****   USB_HID_CONFIG_DESC_SIZ,
 167:inc/user_libs/usbd_hid_core.c ****   /* wTotalLength: Bytes returned */
 168:inc/user_libs/usbd_hid_core.c ****   0x00,
 169:inc/user_libs/usbd_hid_core.c ****   0x01,         /*bNumInterfaces: 1 interface*/
 170:inc/user_libs/usbd_hid_core.c ****   0x01,         /*bConfigurationValue: Configuration value*/
 171:inc/user_libs/usbd_hid_core.c ****   0x00,         /*iConfiguration: Index of string descriptor describing
 172:inc/user_libs/usbd_hid_core.c ****   the configuration*/
 173:inc/user_libs/usbd_hid_core.c ****   0xE0,         /*bmAttributes: bus powered and Support Remote Wake-up */
 174:inc/user_libs/usbd_hid_core.c ****   0x32,         /*MaxPower 100 mA: this current is used for detecting Vbus*/
 175:inc/user_libs/usbd_hid_core.c ****   
 176:inc/user_libs/usbd_hid_core.c ****   /************** Descriptor of Joystick Mouse interface ****************/
 177:inc/user_libs/usbd_hid_core.c ****   /* 09 */
 178:inc/user_libs/usbd_hid_core.c ****   0x09,         /*bLength: Interface Descriptor size*/
 179:inc/user_libs/usbd_hid_core.c ****   USB_INTERFACE_DESCRIPTOR_TYPE,/*bDescriptorType: Interface descriptor type*/
 180:inc/user_libs/usbd_hid_core.c ****   0x00,         /*bInterfaceNumber: Number of Interface*/
 181:inc/user_libs/usbd_hid_core.c ****   0x00,         /*bAlternateSetting: Alternate setting*/
 182:inc/user_libs/usbd_hid_core.c ****   0x01,         /*bNumEndpoints*/
 183:inc/user_libs/usbd_hid_core.c ****   0x03,         /*bInterfaceClass: HID*/
 184:inc/user_libs/usbd_hid_core.c ****   0x00,   /*0x01*/      /*bInterfaceSubClass : 1=BOOT, 0=no boot*/
 185:inc/user_libs/usbd_hid_core.c ****   0x00,   /*0x02*/      /*nInterfaceProtocol : 0=none, 1=keyboard, 2=mouse*/
 186:inc/user_libs/usbd_hid_core.c ****   0,            /*iInterface: Index of string descriptor*/
 187:inc/user_libs/usbd_hid_core.c ****   /******************** Descriptor of Joystick Mouse HID ********************/
 188:inc/user_libs/usbd_hid_core.c ****   /* 18 */
 189:inc/user_libs/usbd_hid_core.c ****   0x09,         /*bLength: HID Descriptor size*/
 190:inc/user_libs/usbd_hid_core.c ****   HID_DESCRIPTOR_TYPE, /*bDescriptorType: HID*/
 191:inc/user_libs/usbd_hid_core.c ****   0x11,         /*bcdHID: HID Class Spec release number*/
 192:inc/user_libs/usbd_hid_core.c ****   0x01,
 193:inc/user_libs/usbd_hid_core.c ****   0x00,         /*bCountryCode: Hardware target country*/
 194:inc/user_libs/usbd_hid_core.c ****   0x01,         /*bNumDescriptors: Number of HID class descriptors to follow*/
 195:inc/user_libs/usbd_hid_core.c ****   0x22,         /*bDescriptorType*/
 196:inc/user_libs/usbd_hid_core.c ****   HID_MOUSE_REPORT_DESC_SIZE,/*wItemLength: Total length of Report descriptor*/
 197:inc/user_libs/usbd_hid_core.c ****   0x00,
 198:inc/user_libs/usbd_hid_core.c ****   /******************** Descriptor of Mouse endpoint ********************/
 199:inc/user_libs/usbd_hid_core.c ****   /* 27 */
 200:inc/user_libs/usbd_hid_core.c ****   0x07,          /*bLength: Endpoint Descriptor size*/
 201:inc/user_libs/usbd_hid_core.c ****   USB_ENDPOINT_DESCRIPTOR_TYPE, /*bDescriptorType:*/
 202:inc/user_libs/usbd_hid_core.c ****   
 203:inc/user_libs/usbd_hid_core.c ****   HID_IN_EP,     /*bEndpointAddress: Endpoint Address (IN)*/
ARM GAS  /tmp/ccY7Z8QA.s 			page 6


 204:inc/user_libs/usbd_hid_core.c ****   0x03,          /*bmAttributes: Interrupt endpoint*/
 205:inc/user_libs/usbd_hid_core.c ****   HID_IN_PACKET, /*wMaxPacketSize: 4 Byte max */
 206:inc/user_libs/usbd_hid_core.c ****   0x00,
 207:inc/user_libs/usbd_hid_core.c ****   0x0A,          /*bInterval: Polling Interval (10 ms)*/
 208:inc/user_libs/usbd_hid_core.c ****   /* 34 */
 209:inc/user_libs/usbd_hid_core.c **** } ;
 210:inc/user_libs/usbd_hid_core.c **** 
 211:inc/user_libs/usbd_hid_core.c **** #ifdef USB_OTG_HS_INTERNAL_DMA_ENABLED
 212:inc/user_libs/usbd_hid_core.c ****   #if defined ( __ICCARM__ ) /*!< IAR Compiler */
 213:inc/user_libs/usbd_hid_core.c ****     #pragma data_alignment=4   
 214:inc/user_libs/usbd_hid_core.c ****   #endif
 215:inc/user_libs/usbd_hid_core.c **** /* USB HID device Configuration Descriptor */
 216:inc/user_libs/usbd_hid_core.c **** __ALIGN_BEGIN static uint8_t USBD_HID_Desc[USB_HID_DESC_SIZ] __ALIGN_END=
 217:inc/user_libs/usbd_hid_core.c **** {
 218:inc/user_libs/usbd_hid_core.c ****   /* 18 */
 219:inc/user_libs/usbd_hid_core.c ****   0x09,         /*bLength: HID Descriptor size*/
 220:inc/user_libs/usbd_hid_core.c ****   HID_DESCRIPTOR_TYPE, /*bDescriptorType: HID*/
 221:inc/user_libs/usbd_hid_core.c ****   0x11,         /*bcdHID: HID Class Spec release number*/
 222:inc/user_libs/usbd_hid_core.c ****   0x01,
 223:inc/user_libs/usbd_hid_core.c ****   0x00,         /*bCountryCode: Hardware target country*/
 224:inc/user_libs/usbd_hid_core.c ****   0x01,         /*bNumDescriptors: Number of HID class descriptors to follow*/
 225:inc/user_libs/usbd_hid_core.c ****   0x22,         /*bDescriptorType*/
 226:inc/user_libs/usbd_hid_core.c ****   HID_MOUSE_REPORT_DESC_SIZE,/*wItemLength: Total length of Report descriptor*/
 227:inc/user_libs/usbd_hid_core.c ****   0x00,
 228:inc/user_libs/usbd_hid_core.c **** };
 229:inc/user_libs/usbd_hid_core.c **** #endif 
 230:inc/user_libs/usbd_hid_core.c **** 
 231:inc/user_libs/usbd_hid_core.c **** 
 232:inc/user_libs/usbd_hid_core.c **** #ifdef USB_OTG_HS_INTERNAL_DMA_ENABLED
 233:inc/user_libs/usbd_hid_core.c ****   #if defined ( __ICCARM__ ) /*!< IAR Compiler */
 234:inc/user_libs/usbd_hid_core.c ****     #pragma data_alignment=4   
 235:inc/user_libs/usbd_hid_core.c ****   #endif
 236:inc/user_libs/usbd_hid_core.c **** #endif /* USB_OTG_HS_INTERNAL_DMA_ENABLED */  
 237:inc/user_libs/usbd_hid_core.c **** __ALIGN_BEGIN static uint8_t HID_MOUSE_ReportDesc[HID_MOUSE_REPORT_DESC_SIZE] __ALIGN_END =
 238:inc/user_libs/usbd_hid_core.c **** {
 239:inc/user_libs/usbd_hid_core.c **** 	/* 47 */
 240:inc/user_libs/usbd_hid_core.c ****     0x05, 0x01,                    // USAGE_PAGE (Generic Desktop)
 241:inc/user_libs/usbd_hid_core.c ****     0x09, 0x06,                    // USAGE (Keyboard)
 242:inc/user_libs/usbd_hid_core.c ****     0xa1, 0x01,                    // COLLECTION (Application)
 243:inc/user_libs/usbd_hid_core.c ****     0x85, 0x01,                    //   REPORT_ID (1)
 244:inc/user_libs/usbd_hid_core.c ****     0x05, 0x07,                    //   USAGE_PAGE (Keyboard)
 245:inc/user_libs/usbd_hid_core.c ****     0x19, 0xe0,                    //   USAGE_MINIMUM (Keyboard LeftControl)
 246:inc/user_libs/usbd_hid_core.c ****     0x29, 0xe7,                    //   USAGE_MAXIMUM (Keyboard Right GUI)
 247:inc/user_libs/usbd_hid_core.c ****     0x15, 0x00,                    //   LOGICAL_MINIMUM (0)
 248:inc/user_libs/usbd_hid_core.c ****     0x25, 0x01,                    //   LOGICAL_MAXIMUM (1)
 249:inc/user_libs/usbd_hid_core.c ****     0x75, 0x01,                    //   REPORT_SIZE (1)
 250:inc/user_libs/usbd_hid_core.c ****     0x95, 0x08,                    //   REPORT_COUNT (8)
 251:inc/user_libs/usbd_hid_core.c ****     0x81, 0x02,                    //   INPUT (Data,Var,Abs)
 252:inc/user_libs/usbd_hid_core.c ****     0x95, 0x01,                    //   REPORT_COUNT (1)
 253:inc/user_libs/usbd_hid_core.c ****     0x75, 0x08,                    //   REPORT_SIZE (8)
 254:inc/user_libs/usbd_hid_core.c ****     0x81, 0x03,                    //   INPUT (Cnst,Var,Abs)
 255:inc/user_libs/usbd_hid_core.c ****     0x95, 0x06,                    //   REPORT_COUNT (6)
 256:inc/user_libs/usbd_hid_core.c ****     0x75, 0x08,                    //   REPORT_SIZE (8)
 257:inc/user_libs/usbd_hid_core.c ****     0x15, 0x00,                    //   LOGICAL_MINIMUM (0)
 258:inc/user_libs/usbd_hid_core.c ****     0x25, 0x65,                    //   LOGICAL_MAXIMUM (101)
 259:inc/user_libs/usbd_hid_core.c ****     0x05, 0x07,                    //   USAGE_PAGE (Keyboard)
 260:inc/user_libs/usbd_hid_core.c ****     0x19, 0x00,                    //   USAGE_MINIMUM (Reserved (no event indicated))
ARM GAS  /tmp/ccY7Z8QA.s 			page 7


 261:inc/user_libs/usbd_hid_core.c ****     0x29, 0x65,                    //   USAGE_MAXIMUM (Keyboard Application)
 262:inc/user_libs/usbd_hid_core.c ****     0x81, 0x00,                    //   INPUT (Data,Ary,Abs)
 263:inc/user_libs/usbd_hid_core.c ****     0xc0,                          // END_COLLECTION
 264:inc/user_libs/usbd_hid_core.c **** 	
 265:inc/user_libs/usbd_hid_core.c **** 	/* 54 */
 266:inc/user_libs/usbd_hid_core.c ****     0x05, 0x01,                    // USAGE_PAGE (Generic Desktop)
 267:inc/user_libs/usbd_hid_core.c ****     0x09, 0x02,                    // USAGE (Mouse)
 268:inc/user_libs/usbd_hid_core.c ****     0xa1, 0x01,                    // COLLECTION (Application)
 269:inc/user_libs/usbd_hid_core.c ****     0x09, 0x01,                    //   USAGE (Pointer)
 270:inc/user_libs/usbd_hid_core.c ****     0xa1, 0x00,                    //   COLLECTION (Physical)
 271:inc/user_libs/usbd_hid_core.c ****     0x85, 0x02,                    //     REPORT_ID (2)
 272:inc/user_libs/usbd_hid_core.c ****     0x05, 0x09,                    //     USAGE_PAGE (Button)
 273:inc/user_libs/usbd_hid_core.c ****     0x19, 0x01,                    //     USAGE_MINIMUM (Button 1)
 274:inc/user_libs/usbd_hid_core.c ****     0x29, 0x03,                    //     USAGE_MAXIMUM (Button 3)
 275:inc/user_libs/usbd_hid_core.c ****     0x15, 0x00,                    //     LOGICAL_MINIMUM (0)
 276:inc/user_libs/usbd_hid_core.c ****     0x25, 0x01,                    //     LOGICAL_MAXIMUM (1)
 277:inc/user_libs/usbd_hid_core.c ****     0x95, 0x03,                    //     REPORT_COUNT (3)
 278:inc/user_libs/usbd_hid_core.c ****     0x75, 0x01,                    //     REPORT_SIZE (1)
 279:inc/user_libs/usbd_hid_core.c ****     0x81, 0x02,                    //     INPUT (Data,Var,Abs)
 280:inc/user_libs/usbd_hid_core.c ****     0x95, 0x01,                    //     REPORT_COUNT (1)
 281:inc/user_libs/usbd_hid_core.c ****     0x75, 0x05,                    //     REPORT_SIZE (5)
 282:inc/user_libs/usbd_hid_core.c ****     0x81, 0x03,                    //     INPUT (Cnst,Var,Abs)
 283:inc/user_libs/usbd_hid_core.c ****     0x05, 0x01,                    //     USAGE_PAGE (Generic Desktop)
 284:inc/user_libs/usbd_hid_core.c ****     0x09, 0x30,                    //     USAGE (X)
 285:inc/user_libs/usbd_hid_core.c ****     0x09, 0x31,                    //     USAGE (Y)
 286:inc/user_libs/usbd_hid_core.c ****     0x09, 0x38,                    //     USAGE (Wheel)
 287:inc/user_libs/usbd_hid_core.c ****     0x15, 0x81,                    //     LOGICAL_MINIMUM (-127)
 288:inc/user_libs/usbd_hid_core.c ****     0x25, 0x7f,                    //     LOGICAL_MAXIMUM (127)
 289:inc/user_libs/usbd_hid_core.c ****     0x75, 0x08,                    //     REPORT_SIZE (8)
 290:inc/user_libs/usbd_hid_core.c ****     0x95, 0x03,                    //     REPORT_COUNT (3)
 291:inc/user_libs/usbd_hid_core.c ****     0x81, 0x06,                    //     INPUT (Data,Var,Rel)
 292:inc/user_libs/usbd_hid_core.c ****     0xc0,                          //   END_COLLECTION
 293:inc/user_libs/usbd_hid_core.c ****     0xc0,                          // END_COLLECTION
 294:inc/user_libs/usbd_hid_core.c **** 	
 295:inc/user_libs/usbd_hid_core.c **** 	/* 48 */
 296:inc/user_libs/usbd_hid_core.c ****     0x05, 0x01,                    // USAGE_PAGE (Generic Desktop)
 297:inc/user_libs/usbd_hid_core.c ****     0x09, 0x05,                    // USAGE (Game Pad)
 298:inc/user_libs/usbd_hid_core.c ****     0xa1, 0x01,                    // COLLECTION (Application)
 299:inc/user_libs/usbd_hid_core.c ****     0xa1, 0x00,                    //   COLLECTION (Physical)
 300:inc/user_libs/usbd_hid_core.c ****     0x85, 0x03,                    //     REPORT_ID (3)
 301:inc/user_libs/usbd_hid_core.c ****     0x05, 0x09,                    //     USAGE_PAGE (Button)
 302:inc/user_libs/usbd_hid_core.c ****     0x19, 0x01,                    //     USAGE_MINIMUM (Button 1)
 303:inc/user_libs/usbd_hid_core.c ****     0x29, 0x10,                    //     USAGE_MAXIMUM (Button 16)
 304:inc/user_libs/usbd_hid_core.c ****     0x15, 0x00,                    //     LOGICAL_MINIMUM (0)
 305:inc/user_libs/usbd_hid_core.c ****     0x25, 0x01,                    //     LOGICAL_MAXIMUM (1)
 306:inc/user_libs/usbd_hid_core.c ****     0x95, 0x10,                    //     REPORT_COUNT (16)
 307:inc/user_libs/usbd_hid_core.c ****     0x75, 0x01,                    //     REPORT_SIZE (1)
 308:inc/user_libs/usbd_hid_core.c ****     0x81, 0x02,                    //     INPUT (Data,Var,Abs)
 309:inc/user_libs/usbd_hid_core.c ****     0x05, 0x01,                    //     USAGE_PAGE (Generic Desktop)
 310:inc/user_libs/usbd_hid_core.c ****     0x09, 0x30,                    //     USAGE (X)
 311:inc/user_libs/usbd_hid_core.c ****     0x09, 0x31,                    //     USAGE (Y)
 312:inc/user_libs/usbd_hid_core.c ****     0x09, 0x32,                    //     USAGE (Z)
 313:inc/user_libs/usbd_hid_core.c ****     0x09, 0x33,                    //     USAGE (Rx)
 314:inc/user_libs/usbd_hid_core.c ****     0x15, 0x81,                    //     LOGICAL_MINIMUM (-127)
 315:inc/user_libs/usbd_hid_core.c ****     0x25, 0x7f,                    //     LOGICAL_MAXIMUM (127)
 316:inc/user_libs/usbd_hid_core.c ****     0x75, 0x08,                    //     REPORT_SIZE (8)
 317:inc/user_libs/usbd_hid_core.c ****     0x95, 0x04,                    //     REPORT_COUNT (4)
ARM GAS  /tmp/ccY7Z8QA.s 			page 8


 318:inc/user_libs/usbd_hid_core.c ****     0x81, 0x02,                    //     INPUT (Data,Var,Abs)
 319:inc/user_libs/usbd_hid_core.c ****     0xc0,                          //   END_COLLECTION
 320:inc/user_libs/usbd_hid_core.c ****     0xc0,                          // END_COLLECTION
 321:inc/user_libs/usbd_hid_core.c **** 	
 322:inc/user_libs/usbd_hid_core.c **** 	/* 48 */
 323:inc/user_libs/usbd_hid_core.c ****     0x05, 0x01,                    // USAGE_PAGE (Generic Desktop)
 324:inc/user_libs/usbd_hid_core.c ****     0x09, 0x05,                    // USAGE (Game Pad)
 325:inc/user_libs/usbd_hid_core.c ****     0xa1, 0x01,                    // COLLECTION (Application)
 326:inc/user_libs/usbd_hid_core.c ****     0xa1, 0x00,                    //   COLLECTION (Physical)
 327:inc/user_libs/usbd_hid_core.c ****     0x85, 0x04,                    //     REPORT_ID (4)
 328:inc/user_libs/usbd_hid_core.c ****     0x05, 0x09,                    //     USAGE_PAGE (Button)
 329:inc/user_libs/usbd_hid_core.c ****     0x19, 0x01,                    //     USAGE_MINIMUM (Button 1)
 330:inc/user_libs/usbd_hid_core.c ****     0x29, 0x10,                    //     USAGE_MAXIMUM (Button 16)
 331:inc/user_libs/usbd_hid_core.c ****     0x15, 0x00,                    //     LOGICAL_MINIMUM (0)
 332:inc/user_libs/usbd_hid_core.c ****     0x25, 0x01,                    //     LOGICAL_MAXIMUM (1)
 333:inc/user_libs/usbd_hid_core.c ****     0x95, 0x10,                    //     REPORT_COUNT (16)
 334:inc/user_libs/usbd_hid_core.c ****     0x75, 0x01,                    //     REPORT_SIZE (1)
 335:inc/user_libs/usbd_hid_core.c ****     0x81, 0x02,                    //     INPUT (Data,Var,Abs)
 336:inc/user_libs/usbd_hid_core.c ****     0x05, 0x01,                    //     USAGE_PAGE (Generic Desktop)
 337:inc/user_libs/usbd_hid_core.c ****     0x09, 0x30,                    //     USAGE (X)
 338:inc/user_libs/usbd_hid_core.c ****     0x09, 0x31,                    //     USAGE (Y)
 339:inc/user_libs/usbd_hid_core.c ****     0x09, 0x32,                    //     USAGE (Z)
 340:inc/user_libs/usbd_hid_core.c ****     0x09, 0x33,                    //     USAGE (Rx)
 341:inc/user_libs/usbd_hid_core.c ****     0x15, 0x81,                    //     LOGICAL_MINIMUM (-127)
 342:inc/user_libs/usbd_hid_core.c ****     0x25, 0x7f,                    //     LOGICAL_MAXIMUM (127)
 343:inc/user_libs/usbd_hid_core.c ****     0x75, 0x08,                    //     REPORT_SIZE (8)
 344:inc/user_libs/usbd_hid_core.c ****     0x95, 0x04,                    //     REPORT_COUNT (4)
 345:inc/user_libs/usbd_hid_core.c ****     0x81, 0x02,                    //     INPUT (Data,Var,Abs)
 346:inc/user_libs/usbd_hid_core.c ****     0xc0,                          //     END_COLLECTION
 347:inc/user_libs/usbd_hid_core.c ****     0xc0,                           // END_COLLECTION
 348:inc/user_libs/usbd_hid_core.c **** 
 349:inc/user_libs/usbd_hid_core.c **** /*  0x05,   0x01,
 350:inc/user_libs/usbd_hid_core.c ****   0x09,   0x02,
 351:inc/user_libs/usbd_hid_core.c ****   0xA1,   0x01,
 352:inc/user_libs/usbd_hid_core.c ****   0x09,   0x01,
 353:inc/user_libs/usbd_hid_core.c ****   
 354:inc/user_libs/usbd_hid_core.c ****   0xA1,   0x00,
 355:inc/user_libs/usbd_hid_core.c ****   0x05,   0x09,
 356:inc/user_libs/usbd_hid_core.c ****   0x19,   0x01,
 357:inc/user_libs/usbd_hid_core.c ****   0x29,   0x03,
 358:inc/user_libs/usbd_hid_core.c ****   
 359:inc/user_libs/usbd_hid_core.c ****   0x15,   0x00,
 360:inc/user_libs/usbd_hid_core.c ****   0x25,   0x01,
 361:inc/user_libs/usbd_hid_core.c ****   0x95,   0x03,
 362:inc/user_libs/usbd_hid_core.c ****   0x75,   0x01,
 363:inc/user_libs/usbd_hid_core.c ****   
 364:inc/user_libs/usbd_hid_core.c ****   0x81,   0x02,
 365:inc/user_libs/usbd_hid_core.c ****   0x95,   0x01,
 366:inc/user_libs/usbd_hid_core.c ****   0x75,   0x05,
 367:inc/user_libs/usbd_hid_core.c ****   0x81,   0x01,
 368:inc/user_libs/usbd_hid_core.c ****   
 369:inc/user_libs/usbd_hid_core.c ****   0x05,   0x01,
 370:inc/user_libs/usbd_hid_core.c ****   0x09,   0x30,
 371:inc/user_libs/usbd_hid_core.c ****   0x09,   0x31,
 372:inc/user_libs/usbd_hid_core.c ****   0x09,   0x38,
 373:inc/user_libs/usbd_hid_core.c ****   
 374:inc/user_libs/usbd_hid_core.c ****   0x15,   0x81,
ARM GAS  /tmp/ccY7Z8QA.s 			page 9


 375:inc/user_libs/usbd_hid_core.c ****   0x25,   0x7F,
 376:inc/user_libs/usbd_hid_core.c ****   0x75,   0x08,
 377:inc/user_libs/usbd_hid_core.c ****   0x95,   0x03,
 378:inc/user_libs/usbd_hid_core.c ****   
 379:inc/user_libs/usbd_hid_core.c ****   0x81,   0x06,
 380:inc/user_libs/usbd_hid_core.c ****   0xC0,   0x09,
 381:inc/user_libs/usbd_hid_core.c ****   0x3c,   0x05,
 382:inc/user_libs/usbd_hid_core.c ****   0xff,   0x09,
 383:inc/user_libs/usbd_hid_core.c ****   
 384:inc/user_libs/usbd_hid_core.c ****   0x01,   0x15,
 385:inc/user_libs/usbd_hid_core.c ****   0x00,   0x25,
 386:inc/user_libs/usbd_hid_core.c ****   0x01,   0x75,
 387:inc/user_libs/usbd_hid_core.c ****   0x01,   0x95,
 388:inc/user_libs/usbd_hid_core.c ****   
 389:inc/user_libs/usbd_hid_core.c ****   0x02,   0xb1,
 390:inc/user_libs/usbd_hid_core.c ****   0x22,   0x75,
 391:inc/user_libs/usbd_hid_core.c ****   0x06,   0x95,
 392:inc/user_libs/usbd_hid_core.c ****   0x01,   0xb1,
 393:inc/user_libs/usbd_hid_core.c ****   
 394:inc/user_libs/usbd_hid_core.c ****   0x01,   0xc0*/
 395:inc/user_libs/usbd_hid_core.c **** }; 
 396:inc/user_libs/usbd_hid_core.c **** 
 397:inc/user_libs/usbd_hid_core.c **** /**
 398:inc/user_libs/usbd_hid_core.c ****   * @}
 399:inc/user_libs/usbd_hid_core.c ****   */ 
 400:inc/user_libs/usbd_hid_core.c **** 
 401:inc/user_libs/usbd_hid_core.c **** /** @defgroup USBD_HID_Private_Functions
 402:inc/user_libs/usbd_hid_core.c ****   * @{
 403:inc/user_libs/usbd_hid_core.c ****   */ 
 404:inc/user_libs/usbd_hid_core.c **** 
 405:inc/user_libs/usbd_hid_core.c **** /**
 406:inc/user_libs/usbd_hid_core.c ****   * @brief  USBD_HID_Init
 407:inc/user_libs/usbd_hid_core.c ****   *         Initialize the HID interface
 408:inc/user_libs/usbd_hid_core.c ****   * @param  pdev: device instance
 409:inc/user_libs/usbd_hid_core.c ****   * @param  cfgidx: Configuration index
 410:inc/user_libs/usbd_hid_core.c ****   * @retval status
 411:inc/user_libs/usbd_hid_core.c ****   */
 412:inc/user_libs/usbd_hid_core.c **** static uint8_t  USBD_HID_Init (void  *pdev, 
 413:inc/user_libs/usbd_hid_core.c ****                                uint8_t cfgidx)
 414:inc/user_libs/usbd_hid_core.c **** {
 415:inc/user_libs/usbd_hid_core.c ****   
 416:inc/user_libs/usbd_hid_core.c ****   /* Open EP IN */
 417:inc/user_libs/usbd_hid_core.c ****   DCD_EP_Open(pdev,
 418:inc/user_libs/usbd_hid_core.c ****               HID_IN_EP,
 419:inc/user_libs/usbd_hid_core.c ****               HID_IN_PACKET,
 420:inc/user_libs/usbd_hid_core.c ****               USB_OTG_EP_INT);
 421:inc/user_libs/usbd_hid_core.c ****   
 422:inc/user_libs/usbd_hid_core.c ****   /* Open EP OUT */
 423:inc/user_libs/usbd_hid_core.c ****   DCD_EP_Open(pdev,
 424:inc/user_libs/usbd_hid_core.c ****               HID_OUT_EP,
 425:inc/user_libs/usbd_hid_core.c ****               HID_OUT_PACKET,
 426:inc/user_libs/usbd_hid_core.c ****               USB_OTG_EP_INT);
 427:inc/user_libs/usbd_hid_core.c ****   
 428:inc/user_libs/usbd_hid_core.c ****   return USBD_OK;
 429:inc/user_libs/usbd_hid_core.c **** }
 430:inc/user_libs/usbd_hid_core.c **** 
 431:inc/user_libs/usbd_hid_core.c **** /**
ARM GAS  /tmp/ccY7Z8QA.s 			page 10


 432:inc/user_libs/usbd_hid_core.c ****   * @brief  USBD_HID_Init
 433:inc/user_libs/usbd_hid_core.c ****   *         DeInitialize the HID layer
 434:inc/user_libs/usbd_hid_core.c ****   * @param  pdev: device instance
 435:inc/user_libs/usbd_hid_core.c ****   * @param  cfgidx: Configuration index
 436:inc/user_libs/usbd_hid_core.c ****   * @retval status
 437:inc/user_libs/usbd_hid_core.c ****   */
 438:inc/user_libs/usbd_hid_core.c **** static uint8_t  USBD_HID_DeInit (void  *pdev, 
 439:inc/user_libs/usbd_hid_core.c ****                                  uint8_t cfgidx)
 440:inc/user_libs/usbd_hid_core.c **** {
 441:inc/user_libs/usbd_hid_core.c ****   /* Close HID EPs */
 442:inc/user_libs/usbd_hid_core.c ****   DCD_EP_Close (pdev , HID_IN_EP);
 443:inc/user_libs/usbd_hid_core.c ****   DCD_EP_Close (pdev , HID_OUT_EP);
 444:inc/user_libs/usbd_hid_core.c ****   
 445:inc/user_libs/usbd_hid_core.c ****   
 446:inc/user_libs/usbd_hid_core.c ****   return USBD_OK;
 447:inc/user_libs/usbd_hid_core.c **** }
 448:inc/user_libs/usbd_hid_core.c **** 
 449:inc/user_libs/usbd_hid_core.c **** /**
 450:inc/user_libs/usbd_hid_core.c ****   * @brief  USBD_HID_Setup
 451:inc/user_libs/usbd_hid_core.c ****   *         Handle the HID specific requests
 452:inc/user_libs/usbd_hid_core.c ****   * @param  pdev: instance
 453:inc/user_libs/usbd_hid_core.c ****   * @param  req: usb requests
 454:inc/user_libs/usbd_hid_core.c ****   * @retval status
 455:inc/user_libs/usbd_hid_core.c ****   */
 456:inc/user_libs/usbd_hid_core.c **** static uint8_t  USBD_HID_Setup (void  *pdev, 
 457:inc/user_libs/usbd_hid_core.c ****                                 USB_SETUP_REQ *req)
 458:inc/user_libs/usbd_hid_core.c **** {
 459:inc/user_libs/usbd_hid_core.c ****   uint16_t len = 0;
 460:inc/user_libs/usbd_hid_core.c ****   uint8_t  *pbuf = NULL;
 461:inc/user_libs/usbd_hid_core.c ****   
 462:inc/user_libs/usbd_hid_core.c ****   switch (req->bmRequest & USB_REQ_TYPE_MASK)
 463:inc/user_libs/usbd_hid_core.c ****   {
 464:inc/user_libs/usbd_hid_core.c ****   case USB_REQ_TYPE_CLASS :  
 465:inc/user_libs/usbd_hid_core.c ****     switch (req->bRequest)
 466:inc/user_libs/usbd_hid_core.c ****     {
 467:inc/user_libs/usbd_hid_core.c ****       
 468:inc/user_libs/usbd_hid_core.c ****       
 469:inc/user_libs/usbd_hid_core.c ****     case HID_REQ_SET_PROTOCOL:
 470:inc/user_libs/usbd_hid_core.c ****       USBD_HID_Protocol = (uint8_t)(req->wValue);
 471:inc/user_libs/usbd_hid_core.c ****       break;
 472:inc/user_libs/usbd_hid_core.c ****       
 473:inc/user_libs/usbd_hid_core.c ****     case HID_REQ_GET_PROTOCOL:
 474:inc/user_libs/usbd_hid_core.c ****       USBD_CtlSendData (pdev, 
 475:inc/user_libs/usbd_hid_core.c ****                         (uint8_t *)&USBD_HID_Protocol,
 476:inc/user_libs/usbd_hid_core.c ****                         1);    
 477:inc/user_libs/usbd_hid_core.c ****       break;
 478:inc/user_libs/usbd_hid_core.c ****       
 479:inc/user_libs/usbd_hid_core.c ****     case HID_REQ_SET_IDLE:
 480:inc/user_libs/usbd_hid_core.c ****       USBD_HID_IdleState = (uint8_t)(req->wValue >> 8);
 481:inc/user_libs/usbd_hid_core.c ****       break;
 482:inc/user_libs/usbd_hid_core.c ****       
 483:inc/user_libs/usbd_hid_core.c ****     case HID_REQ_GET_IDLE:
 484:inc/user_libs/usbd_hid_core.c ****       USBD_CtlSendData (pdev, 
 485:inc/user_libs/usbd_hid_core.c ****                         (uint8_t *)&USBD_HID_IdleState,
 486:inc/user_libs/usbd_hid_core.c ****                         1);        
 487:inc/user_libs/usbd_hid_core.c ****       break;      
 488:inc/user_libs/usbd_hid_core.c ****       
ARM GAS  /tmp/ccY7Z8QA.s 			page 11


 489:inc/user_libs/usbd_hid_core.c ****     default:
 490:inc/user_libs/usbd_hid_core.c ****       USBD_CtlError (pdev, req);
 491:inc/user_libs/usbd_hid_core.c ****       return USBD_FAIL; 
 492:inc/user_libs/usbd_hid_core.c ****     }
 493:inc/user_libs/usbd_hid_core.c ****     break;
 494:inc/user_libs/usbd_hid_core.c ****     
 495:inc/user_libs/usbd_hid_core.c ****   case USB_REQ_TYPE_STANDARD:
 496:inc/user_libs/usbd_hid_core.c ****     switch (req->bRequest)
 497:inc/user_libs/usbd_hid_core.c ****     {
 498:inc/user_libs/usbd_hid_core.c ****     case USB_REQ_GET_DESCRIPTOR: 
 499:inc/user_libs/usbd_hid_core.c ****       if( req->wValue >> 8 == HID_REPORT_DESC)
 500:inc/user_libs/usbd_hid_core.c ****       {
 501:inc/user_libs/usbd_hid_core.c ****         len = MIN(HID_MOUSE_REPORT_DESC_SIZE , req->wLength);
 502:inc/user_libs/usbd_hid_core.c ****         pbuf = HID_MOUSE_ReportDesc;
 503:inc/user_libs/usbd_hid_core.c ****       }
 504:inc/user_libs/usbd_hid_core.c ****       else if( req->wValue >> 8 == HID_DESCRIPTOR_TYPE)
 505:inc/user_libs/usbd_hid_core.c ****       {
 506:inc/user_libs/usbd_hid_core.c ****         
 507:inc/user_libs/usbd_hid_core.c **** #ifdef USB_OTG_HS_INTERNAL_DMA_ENABLED
 508:inc/user_libs/usbd_hid_core.c ****         pbuf = USBD_HID_Desc;   
 509:inc/user_libs/usbd_hid_core.c **** #else
 510:inc/user_libs/usbd_hid_core.c ****         pbuf = USBD_HID_CfgDesc + 0x12;
 511:inc/user_libs/usbd_hid_core.c **** #endif 
 512:inc/user_libs/usbd_hid_core.c ****         len = MIN(USB_HID_DESC_SIZ , req->wLength);
 513:inc/user_libs/usbd_hid_core.c ****       }
 514:inc/user_libs/usbd_hid_core.c ****       
 515:inc/user_libs/usbd_hid_core.c ****       USBD_CtlSendData (pdev, 
 516:inc/user_libs/usbd_hid_core.c ****                         pbuf,
 517:inc/user_libs/usbd_hid_core.c ****                         len);
 518:inc/user_libs/usbd_hid_core.c ****       
 519:inc/user_libs/usbd_hid_core.c ****       break;
 520:inc/user_libs/usbd_hid_core.c ****       
 521:inc/user_libs/usbd_hid_core.c ****     case USB_REQ_GET_INTERFACE :
 522:inc/user_libs/usbd_hid_core.c ****       USBD_CtlSendData (pdev,
 523:inc/user_libs/usbd_hid_core.c ****                         (uint8_t *)&USBD_HID_AltSet,
 524:inc/user_libs/usbd_hid_core.c ****                         1);
 525:inc/user_libs/usbd_hid_core.c ****       break;
 526:inc/user_libs/usbd_hid_core.c ****       
 527:inc/user_libs/usbd_hid_core.c ****     case USB_REQ_SET_INTERFACE :
 528:inc/user_libs/usbd_hid_core.c ****       USBD_HID_AltSet = (uint8_t)(req->wValue);
 529:inc/user_libs/usbd_hid_core.c ****       break;
 530:inc/user_libs/usbd_hid_core.c ****     }
 531:inc/user_libs/usbd_hid_core.c ****   }
 532:inc/user_libs/usbd_hid_core.c ****   return USBD_OK;
 533:inc/user_libs/usbd_hid_core.c **** }
 534:inc/user_libs/usbd_hid_core.c **** 
 535:inc/user_libs/usbd_hid_core.c **** /**
 536:inc/user_libs/usbd_hid_core.c ****   * @brief  USBD_HID_SendReport 
 537:inc/user_libs/usbd_hid_core.c ****   *         Send HID Report
 538:inc/user_libs/usbd_hid_core.c ****   * @param  pdev: device instance
 539:inc/user_libs/usbd_hid_core.c ****   * @param  buff: pointer to report
 540:inc/user_libs/usbd_hid_core.c ****   * @retval status
 541:inc/user_libs/usbd_hid_core.c ****   */
 542:inc/user_libs/usbd_hid_core.c **** uint8_t USBD_HID_SendReport     (USB_OTG_CORE_HANDLE  *pdev, 
 543:inc/user_libs/usbd_hid_core.c ****                                  uint8_t *report,
 544:inc/user_libs/usbd_hid_core.c ****                                  uint16_t len)
 545:inc/user_libs/usbd_hid_core.c **** {
ARM GAS  /tmp/ccY7Z8QA.s 			page 12


 546:inc/user_libs/usbd_hid_core.c ****   if (pdev->dev.device_status == USB_OTG_CONFIGURED )
 547:inc/user_libs/usbd_hid_core.c ****   {
 548:inc/user_libs/usbd_hid_core.c ****     DCD_EP_Tx (pdev, HID_IN_EP, report, len);
 549:inc/user_libs/usbd_hid_core.c ****   }
 550:inc/user_libs/usbd_hid_core.c ****   return USBD_OK;
 551:inc/user_libs/usbd_hid_core.c **** }
 552:inc/user_libs/usbd_hid_core.c **** 
 553:inc/user_libs/usbd_hid_core.c **** /**
 554:inc/user_libs/usbd_hid_core.c ****   * @brief  USBD_HID_GetCfgDesc 
 555:inc/user_libs/usbd_hid_core.c ****   *         return configuration descriptor
 556:inc/user_libs/usbd_hid_core.c ****   * @param  speed : current device speed
 557:inc/user_libs/usbd_hid_core.c ****   * @param  length : pointer data length
 558:inc/user_libs/usbd_hid_core.c ****   * @retval pointer to descriptor buffer
 559:inc/user_libs/usbd_hid_core.c ****   */
 560:inc/user_libs/usbd_hid_core.c **** static uint8_t  *USBD_HID_GetCfgDesc (uint8_t speed, uint16_t *length)
 561:inc/user_libs/usbd_hid_core.c **** {
  83              		.loc 1 561 0
  84              		.cfi_startproc
  85              		@ args = 0, pretend = 0, frame = 0
  86              		@ frame_needed = 0, uses_anonymous_args = 0
  87              		@ link register save eliminated.
  88              	.LVL0:
  89              	@ inc/user_libs/usbd_hid_core.c:562:   *length = sizeof (USBD_HID_CfgDesc);
 562:inc/user_libs/usbd_hid_core.c ****   *length = sizeof (USBD_HID_CfgDesc);
  90              		.loc 1 562 0
  91 0000 2223     		movs	r3, #34	@ tmp114,
  92 0002 0B80     		strh	r3, [r1]	@ movhi	@ tmp114, *length_2(D)
  93              	@ inc/user_libs/usbd_hid_core.c:564: }
 563:inc/user_libs/usbd_hid_core.c ****   return USBD_HID_CfgDesc;
 564:inc/user_libs/usbd_hid_core.c **** }
  94              		.loc 1 564 0
  95 0004 0048     		ldr	r0, .L2	@,
  96              	.LVL1:
  97 0006 7047     		bx	lr	@
  98              	.L3:
  99              		.align	2
 100              	.L2:
 101 0008 00000000 		.word	.LANCHOR0
 102              		.cfi_endproc
 103              	.LFE114:
 104              		.size	USBD_HID_GetCfgDesc, .-USBD_HID_GetCfgDesc
 105              		.align	1
 106              		.syntax unified
 107              		.thumb
 108              		.thumb_func
 109              		.fpu softvfp
 110              		.type	USBD_HID_DataIn, %function
 111              	USBD_HID_DataIn:
 112              	.LFB115:
 565:inc/user_libs/usbd_hid_core.c **** 
 566:inc/user_libs/usbd_hid_core.c **** /**
 567:inc/user_libs/usbd_hid_core.c ****   * @brief  USBD_HID_DataIn
 568:inc/user_libs/usbd_hid_core.c ****   *         handle data IN Stage
 569:inc/user_libs/usbd_hid_core.c ****   * @param  pdev: device instance
 570:inc/user_libs/usbd_hid_core.c ****   * @param  epnum: endpoint index
 571:inc/user_libs/usbd_hid_core.c ****   * @retval status
 572:inc/user_libs/usbd_hid_core.c ****   */
ARM GAS  /tmp/ccY7Z8QA.s 			page 13


 573:inc/user_libs/usbd_hid_core.c **** static uint8_t  USBD_HID_DataIn (void  *pdev, 
 574:inc/user_libs/usbd_hid_core.c ****                               uint8_t epnum)
 575:inc/user_libs/usbd_hid_core.c **** {
 113              		.loc 1 575 0
 114              		.cfi_startproc
 115              		@ args = 0, pretend = 0, frame = 0
 116              		@ frame_needed = 0, uses_anonymous_args = 0
 117              	.LVL2:
 118 000c 08B5     		push	{r3, lr}	@
 119              	.LCFI0:
 120              		.cfi_def_cfa_offset 8
 121              		.cfi_offset 3, -8
 122              		.cfi_offset 14, -4
 123              	@ inc/user_libs/usbd_hid_core.c:579:   DCD_EP_Flush(pdev, HID_IN_EP);
 576:inc/user_libs/usbd_hid_core.c ****   
 577:inc/user_libs/usbd_hid_core.c ****   /* Ensure that the FIFO is empty before a new transfer, this condition could 
 578:inc/user_libs/usbd_hid_core.c ****   be caused by  a new transfer before the end of the previous transfer */
 579:inc/user_libs/usbd_hid_core.c ****   DCD_EP_Flush(pdev, HID_IN_EP);
 124              		.loc 1 579 0
 125 000e 8121     		movs	r1, #129	@,
 126              	.LVL3:
 127 0010 FFF7FEFF 		bl	DCD_EP_Flush	@
 128              	.LVL4:
 129              	@ inc/user_libs/usbd_hid_core.c:581: }
 580:inc/user_libs/usbd_hid_core.c ****   return USBD_OK;
 581:inc/user_libs/usbd_hid_core.c **** }
 130              		.loc 1 581 0
 131 0014 0020     		movs	r0, #0	@,
 132 0016 08BD     		pop	{r3, pc}	@
 133              		.cfi_endproc
 134              	.LFE115:
 135              		.size	USBD_HID_DataIn, .-USBD_HID_DataIn
 136              		.align	1
 137              		.syntax unified
 138              		.thumb
 139              		.thumb_func
 140              		.fpu softvfp
 141              		.type	USBD_HID_Setup, %function
 142              	USBD_HID_Setup:
 143              	.LFB112:
 458:inc/user_libs/usbd_hid_core.c ****   uint16_t len = 0;
 144              		.loc 1 458 0
 145              		.cfi_startproc
 146              		@ args = 0, pretend = 0, frame = 0
 147              		@ frame_needed = 0, uses_anonymous_args = 0
 148              	.LVL5:
 149 0018 10B5     		push	{r4, lr}	@
 150              	.LCFI1:
 151              		.cfi_def_cfa_offset 8
 152              		.cfi_offset 4, -8
 153              		.cfi_offset 14, -4
 154              	@ inc/user_libs/usbd_hid_core.c:462:   switch (req->bmRequest & USB_REQ_TYPE_MASK)
 462:inc/user_libs/usbd_hid_core.c ****   {
 155              		.loc 1 462 0
 156 001a 0C78     		ldrb	r4, [r1]	@ zero_extendqisi2	@ req_24(D)->bmRequest, req_24(D)->bmRequest
 157 001c 14F06004 		ands	r4, r4, #96	@ tmp137, req_24(D)->bmRequest,
 158              	@ inc/user_libs/usbd_hid_core.c:458: {
ARM GAS  /tmp/ccY7Z8QA.s 			page 14


 458:inc/user_libs/usbd_hid_core.c ****   uint16_t len = 0;
 159              		.loc 1 458 0
 160 0020 0346     		mov	r3, r0	@ pdev, pdev
 161              	@ inc/user_libs/usbd_hid_core.c:462:   switch (req->bmRequest & USB_REQ_TYPE_MASK)
 462:inc/user_libs/usbd_hid_core.c ****   {
 162              		.loc 1 462 0
 163 0022 25D0     		beq	.L7	@,
 164 0024 202C     		cmp	r4, #32	@ tmp137,
 165 0026 0DD1     		bne	.L23	@,
 166              	@ inc/user_libs/usbd_hid_core.c:465:     switch (req->bRequest)
 465:inc/user_libs/usbd_hid_core.c ****     {
 167              		.loc 1 465 0
 168 0028 4A78     		ldrb	r2, [r1, #1]	@ zero_extendqisi2	@ req_24(D)->bRequest, req_24(D)->bRequest
 169 002a 023A     		subs	r2, r2, #2	@ tmp139, req_24(D)->bRequest,
 170 002c 092A     		cmp	r2, #9	@ tmp139,
 171 002e 19D8     		bhi	.L9	@
 172 0030 DFE802F0 		tbb	[pc, r2]	@ tmp139
 173              	.LVL6:
 174              	.L11:
 175 0034 15       		.byte	(.L10-.L11)/2
 176 0035 0A       		.byte	(.L12-.L11)/2
 177 0036 18       		.byte	(.L9-.L11)/2
 178 0037 18       		.byte	(.L9-.L11)/2
 179 0038 18       		.byte	(.L9-.L11)/2
 180 0039 18       		.byte	(.L9-.L11)/2
 181 003a 18       		.byte	(.L9-.L11)/2
 182 003b 18       		.byte	(.L9-.L11)/2
 183 003c 10       		.byte	(.L13-.L11)/2
 184 003d 05       		.byte	(.L14-.L11)/2
 185              		.p2align 1
 186              	.L14:
 187              	@ inc/user_libs/usbd_hid_core.c:470:       USBD_HID_Protocol = (uint8_t)(req->wValue);
 470:inc/user_libs/usbd_hid_core.c ****       break;
 188              		.loc 1 470 0
 189 003e 1F4B     		ldr	r3, .L25	@ tmp140,
 190              	.LVL7:
 191 0040 8A78     		ldrb	r2, [r1, #2]	@ zero_extendqisi2	@ req_24(D)->wValue, req_24(D)->wValue
 192 0042 1A60     		str	r2, [r3]	@ req_24(D)->wValue, USBD_HID_Protocol
 193              	.LVL8:
 194              	.L23:
 195              	@ inc/user_libs/usbd_hid_core.c:532:   return USBD_OK;
 532:inc/user_libs/usbd_hid_core.c **** }
 196              		.loc 1 532 0
 197 0044 0024     		movs	r4, #0	@ <retval>,
 198 0046 11E0     		b	.L6	@
 199              	.LVL9:
 200              	.L12:
 201              	@ inc/user_libs/usbd_hid_core.c:474:       USBD_CtlSendData (pdev, 
 474:inc/user_libs/usbd_hid_core.c ****                         (uint8_t *)&USBD_HID_Protocol,
 202              		.loc 1 474 0
 203 0048 1C49     		ldr	r1, .L25	@,
 204              	.LVL10:
 205 004a 0122     		movs	r2, #1	@,
 206              	.LVL11:
 207              	.L19:
 208              	@ inc/user_libs/usbd_hid_core.c:515:       USBD_CtlSendData (pdev, 
 515:inc/user_libs/usbd_hid_core.c ****                         pbuf,
ARM GAS  /tmp/ccY7Z8QA.s 			page 15


 209              		.loc 1 515 0
 210 004c 1846     		mov	r0, r3	@, pdev
 211 004e FFF7FEFF 		bl	USBD_CtlSendData	@
 212              	.LVL12:
 213 0052 F7E7     		b	.L23	@
 214              	.LVL13:
 215              	.L13:
 216              	@ inc/user_libs/usbd_hid_core.c:480:       USBD_HID_IdleState = (uint8_t)(req->wValue >> 8);
 480:inc/user_libs/usbd_hid_core.c ****       break;
 217              		.loc 1 480 0
 218 0054 4B88     		ldrh	r3, [r1, #2]	@ req_24(D)->wValue, req_24(D)->wValue
 219              	.LVL14:
 220 0056 194A     		ldr	r2, .L25	@ tmp144,
 221 0058 1B0A     		lsrs	r3, r3, #8	@ tmp147, req_24(D)->wValue,
 222 005a 5360     		str	r3, [r2, #4]	@ tmp147, USBD_HID_IdleState
 223 005c F2E7     		b	.L23	@
 224              	.LVL15:
 225              	.L10:
 226              	@ inc/user_libs/usbd_hid_core.c:484:       USBD_CtlSendData (pdev, 
 484:inc/user_libs/usbd_hid_core.c ****                         (uint8_t *)&USBD_HID_IdleState,
 227              		.loc 1 484 0
 228 005e 0122     		movs	r2, #1	@,
 229 0060 1749     		ldr	r1, .L25+4	@,
 230              	.LVL16:
 231 0062 F3E7     		b	.L19	@
 232              	.LVL17:
 233              	.L9:
 234              	@ inc/user_libs/usbd_hid_core.c:490:       USBD_CtlError (pdev, req);
 490:inc/user_libs/usbd_hid_core.c ****       return USBD_FAIL; 
 235              		.loc 1 490 0
 236 0064 1846     		mov	r0, r3	@, pdev
 237 0066 FFF7FEFF 		bl	USBD_CtlError	@
 238              	.LVL18:
 239              	@ inc/user_libs/usbd_hid_core.c:491:       return USBD_FAIL; 
 491:inc/user_libs/usbd_hid_core.c ****     }
 240              		.loc 1 491 0
 241 006a 0224     		movs	r4, #2	@ <retval>,
 242              	.LVL19:
 243              	.L6:
 244              	@ inc/user_libs/usbd_hid_core.c:533: }
 533:inc/user_libs/usbd_hid_core.c **** 
 245              		.loc 1 533 0
 246 006c 2046     		mov	r0, r4	@, <retval>
 247 006e 10BD     		pop	{r4, pc}	@
 248              	.LVL20:
 249              	.L7:
 250              	@ inc/user_libs/usbd_hid_core.c:496:     switch (req->bRequest)
 496:inc/user_libs/usbd_hid_core.c ****     {
 251              		.loc 1 496 0
 252 0070 4A78     		ldrb	r2, [r1, #1]	@ zero_extendqisi2	@ req_24(D)->bRequest, req_24(D)->bRequest
 253 0072 0A2A     		cmp	r2, #10	@ req_24(D)->bRequest,
 254 0074 18D0     		beq	.L15	@,
 255 0076 0B2A     		cmp	r2, #11	@ req_24(D)->bRequest,
 256 0078 1BD0     		beq	.L16	@,
 257 007a 062A     		cmp	r2, #6	@ req_24(D)->bRequest,
 258 007c F6D1     		bne	.L6	@,
 259              	@ inc/user_libs/usbd_hid_core.c:499:       if( req->wValue >> 8 == HID_REPORT_DESC)
ARM GAS  /tmp/ccY7Z8QA.s 			page 16


 499:inc/user_libs/usbd_hid_core.c ****       {
 260              		.loc 1 499 0
 261 007e 4A88     		ldrh	r2, [r1, #2]	@ req_24(D)->wValue, req_24(D)->wValue
 262 0080 120A     		lsrs	r2, r2, #8	@ _12, req_24(D)->wValue,
 263 0082 222A     		cmp	r2, #34	@ _12,
 264 0084 05D1     		bne	.L18	@,
 265              	@ inc/user_libs/usbd_hid_core.c:501:         len = MIN(HID_MOUSE_REPORT_DESC_SIZE , req->wLength);
 501:inc/user_libs/usbd_hid_core.c ****         pbuf = HID_MOUSE_ReportDesc;
 266              		.loc 1 501 0
 267 0086 CA88     		ldrh	r2, [r1, #6]	@ req_24(D)->wLength, req_24(D)->wLength
 268              	@ inc/user_libs/usbd_hid_core.c:502:         pbuf = HID_MOUSE_ReportDesc;
 502:inc/user_libs/usbd_hid_core.c ****       }
 269              		.loc 1 502 0
 270 0088 0E49     		ldr	r1, .L25+8	@ pbuf,
 271              	.LVL21:
 272              	@ inc/user_libs/usbd_hid_core.c:501:         len = MIN(HID_MOUSE_REPORT_DESC_SIZE , req->wLength);
 501:inc/user_libs/usbd_hid_core.c ****         pbuf = HID_MOUSE_ReportDesc;
 273              		.loc 1 501 0
 274 008a C52A     		cmp	r2, #197	@ req_24(D)->wLength,
 275 008c 28BF     		it	cs
 276 008e C522     		movcs	r2, #197	@ len,
 277              	.LVL22:
 278 0090 DCE7     		b	.L19	@
 279              	.LVL23:
 280              	.L18:
 281              	@ inc/user_libs/usbd_hid_core.c:504:       else if( req->wValue >> 8 == HID_DESCRIPTOR_TYPE)
 504:inc/user_libs/usbd_hid_core.c ****       {
 282              		.loc 1 504 0
 283 0092 212A     		cmp	r2, #33	@ _12,
 284 0094 05D1     		bne	.L22	@,
 285              	.LVL24:
 286              	@ inc/user_libs/usbd_hid_core.c:512:         len = MIN(USB_HID_DESC_SIZ , req->wLength);
 512:inc/user_libs/usbd_hid_core.c ****       }
 287              		.loc 1 512 0
 288 0096 CA88     		ldrh	r2, [r1, #6]	@ req_24(D)->wLength, req_24(D)->wLength
 289              	@ inc/user_libs/usbd_hid_core.c:510:         pbuf = USBD_HID_CfgDesc + 0x12;
 510:inc/user_libs/usbd_hid_core.c **** #endif 
 290              		.loc 1 510 0
 291 0098 0B49     		ldr	r1, .L25+12	@ pbuf,
 292              	.LVL25:
 293              	@ inc/user_libs/usbd_hid_core.c:512:         len = MIN(USB_HID_DESC_SIZ , req->wLength);
 512:inc/user_libs/usbd_hid_core.c ****       }
 294              		.loc 1 512 0
 295 009a 092A     		cmp	r2, #9	@ req_24(D)->wLength,
 296 009c 28BF     		it	cs
 297 009e 0922     		movcs	r2, #9	@ len,
 298              	.LVL26:
 299 00a0 D4E7     		b	.L19	@
 300              	.LVL27:
 301              	.L22:
 302              	@ inc/user_libs/usbd_hid_core.c:460:   uint8_t  *pbuf = NULL;
 460:inc/user_libs/usbd_hid_core.c ****   
 303              		.loc 1 460 0
 304 00a2 2146     		mov	r1, r4	@ pbuf, tmp137
 305              	.LVL28:
 306              	@ inc/user_libs/usbd_hid_core.c:459:   uint16_t len = 0;
 459:inc/user_libs/usbd_hid_core.c ****   uint8_t  *pbuf = NULL;
ARM GAS  /tmp/ccY7Z8QA.s 			page 17


 307              		.loc 1 459 0
 308 00a4 2246     		mov	r2, r4	@ len, pbuf
 309 00a6 D1E7     		b	.L19	@
 310              	.LVL29:
 311              	.L15:
 312              	@ inc/user_libs/usbd_hid_core.c:522:       USBD_CtlSendData (pdev,
 522:inc/user_libs/usbd_hid_core.c ****                         (uint8_t *)&USBD_HID_AltSet,
 313              		.loc 1 522 0
 314 00a8 0122     		movs	r2, #1	@,
 315 00aa 0849     		ldr	r1, .L25+16	@,
 316              	.LVL30:
 317 00ac FFF7FEFF 		bl	USBD_CtlSendData	@
 318              	.LVL31:
 319              	@ inc/user_libs/usbd_hid_core.c:525:       break;
 525:inc/user_libs/usbd_hid_core.c ****       
 320              		.loc 1 525 0
 321 00b0 DCE7     		b	.L6	@
 322              	.LVL32:
 323              	.L16:
 324              	@ inc/user_libs/usbd_hid_core.c:528:       USBD_HID_AltSet = (uint8_t)(req->wValue);
 528:inc/user_libs/usbd_hid_core.c ****       break;
 325              		.loc 1 528 0
 326 00b2 024B     		ldr	r3, .L25	@ tmp161,
 327 00b4 8A78     		ldrb	r2, [r1, #2]	@ zero_extendqisi2	@ req_24(D)->wValue, req_24(D)->wValue
 328 00b6 9A60     		str	r2, [r3, #8]	@ req_24(D)->wValue, USBD_HID_AltSet
 329              	@ inc/user_libs/usbd_hid_core.c:529:       break;
 529:inc/user_libs/usbd_hid_core.c ****     }
 330              		.loc 1 529 0
 331 00b8 D8E7     		b	.L6	@
 332              	.L26:
 333 00ba 00BF     		.align	2
 334              	.L25:
 335 00bc 00000000 		.word	.LANCHOR1
 336 00c0 04000000 		.word	.LANCHOR1+4
 337 00c4 22000000 		.word	.LANCHOR0+34
 338 00c8 12000000 		.word	.LANCHOR0+18
 339 00cc 08000000 		.word	.LANCHOR1+8
 340              		.cfi_endproc
 341              	.LFE112:
 342              		.size	USBD_HID_Setup, .-USBD_HID_Setup
 343              		.align	1
 344              		.syntax unified
 345              		.thumb
 346              		.thumb_func
 347              		.fpu softvfp
 348              		.type	USBD_HID_DeInit, %function
 349              	USBD_HID_DeInit:
 350              	.LFB111:
 440:inc/user_libs/usbd_hid_core.c ****   /* Close HID EPs */
 351              		.loc 1 440 0
 352              		.cfi_startproc
 353              		@ args = 0, pretend = 0, frame = 0
 354              		@ frame_needed = 0, uses_anonymous_args = 0
 355              	.LVL33:
 356 00d0 10B5     		push	{r4, lr}	@
 357              	.LCFI2:
 358              		.cfi_def_cfa_offset 8
ARM GAS  /tmp/ccY7Z8QA.s 			page 18


 359              		.cfi_offset 4, -8
 360              		.cfi_offset 14, -4
 361              	@ inc/user_libs/usbd_hid_core.c:442:   DCD_EP_Close (pdev , HID_IN_EP);
 442:inc/user_libs/usbd_hid_core.c ****   DCD_EP_Close (pdev , HID_OUT_EP);
 362              		.loc 1 442 0
 363 00d2 8121     		movs	r1, #129	@,
 364              	.LVL34:
 365              	@ inc/user_libs/usbd_hid_core.c:440: {
 440:inc/user_libs/usbd_hid_core.c ****   /* Close HID EPs */
 366              		.loc 1 440 0
 367 00d4 0446     		mov	r4, r0	@ pdev, pdev
 368              	@ inc/user_libs/usbd_hid_core.c:442:   DCD_EP_Close (pdev , HID_IN_EP);
 442:inc/user_libs/usbd_hid_core.c ****   DCD_EP_Close (pdev , HID_OUT_EP);
 369              		.loc 1 442 0
 370 00d6 FFF7FEFF 		bl	DCD_EP_Close	@
 371              	.LVL35:
 372              	@ inc/user_libs/usbd_hid_core.c:443:   DCD_EP_Close (pdev , HID_OUT_EP);
 443:inc/user_libs/usbd_hid_core.c ****   
 373              		.loc 1 443 0
 374 00da 0121     		movs	r1, #1	@,
 375 00dc 2046     		mov	r0, r4	@, pdev
 376 00de FFF7FEFF 		bl	DCD_EP_Close	@
 377              	.LVL36:
 378              	@ inc/user_libs/usbd_hid_core.c:447: }
 447:inc/user_libs/usbd_hid_core.c **** 
 379              		.loc 1 447 0
 380 00e2 0020     		movs	r0, #0	@,
 381 00e4 10BD     		pop	{r4, pc}	@
 382              		.cfi_endproc
 383              	.LFE111:
 384              		.size	USBD_HID_DeInit, .-USBD_HID_DeInit
 385              		.align	1
 386              		.syntax unified
 387              		.thumb
 388              		.thumb_func
 389              		.fpu softvfp
 390              		.type	USBD_HID_Init, %function
 391              	USBD_HID_Init:
 392              	.LFB110:
 414:inc/user_libs/usbd_hid_core.c ****   
 393              		.loc 1 414 0
 394              		.cfi_startproc
 395              		@ args = 0, pretend = 0, frame = 0
 396              		@ frame_needed = 0, uses_anonymous_args = 0
 397              	.LVL37:
 398 00e6 10B5     		push	{r4, lr}	@
 399              	.LCFI3:
 400              		.cfi_def_cfa_offset 8
 401              		.cfi_offset 4, -8
 402              		.cfi_offset 14, -4
 403              	@ inc/user_libs/usbd_hid_core.c:417:   DCD_EP_Open(pdev,
 417:inc/user_libs/usbd_hid_core.c ****               HID_IN_EP,
 404              		.loc 1 417 0
 405 00e8 0323     		movs	r3, #3	@,
 406              	@ inc/user_libs/usbd_hid_core.c:414: {
 414:inc/user_libs/usbd_hid_core.c ****   
 407              		.loc 1 414 0
ARM GAS  /tmp/ccY7Z8QA.s 			page 19


 408 00ea 0446     		mov	r4, r0	@ pdev, pdev
 409              	@ inc/user_libs/usbd_hid_core.c:417:   DCD_EP_Open(pdev,
 417:inc/user_libs/usbd_hid_core.c ****               HID_IN_EP,
 410              		.loc 1 417 0
 411 00ec 0422     		movs	r2, #4	@,
 412 00ee 8121     		movs	r1, #129	@,
 413              	.LVL38:
 414 00f0 FFF7FEFF 		bl	DCD_EP_Open	@
 415              	.LVL39:
 416              	@ inc/user_libs/usbd_hid_core.c:423:   DCD_EP_Open(pdev,
 423:inc/user_libs/usbd_hid_core.c ****               HID_OUT_EP,
 417              		.loc 1 423 0
 418 00f4 0323     		movs	r3, #3	@,
 419 00f6 0422     		movs	r2, #4	@,
 420 00f8 0121     		movs	r1, #1	@,
 421 00fa 2046     		mov	r0, r4	@, pdev
 422 00fc FFF7FEFF 		bl	DCD_EP_Open	@
 423              	.LVL40:
 424              	@ inc/user_libs/usbd_hid_core.c:429: }
 429:inc/user_libs/usbd_hid_core.c **** 
 425              		.loc 1 429 0
 426 0100 0020     		movs	r0, #0	@,
 427 0102 10BD     		pop	{r4, pc}	@
 428              		.cfi_endproc
 429              	.LFE110:
 430              		.size	USBD_HID_Init, .-USBD_HID_Init
 431              		.align	1
 432              		.global	USBD_HID_SendReport
 433              		.syntax unified
 434              		.thumb
 435              		.thumb_func
 436              		.fpu softvfp
 437              		.type	USBD_HID_SendReport, %function
 438              	USBD_HID_SendReport:
 439              	.LFB113:
 545:inc/user_libs/usbd_hid_core.c ****   if (pdev->dev.device_status == USB_OTG_CONFIGURED )
 440              		.loc 1 545 0
 441              		.cfi_startproc
 442              		@ args = 0, pretend = 0, frame = 0
 443              		@ frame_needed = 0, uses_anonymous_args = 0
 444              	.LVL41:
 445 0104 08B5     		push	{r3, lr}	@
 446              	.LCFI4:
 447              		.cfi_def_cfa_offset 8
 448              		.cfi_offset 3, -8
 449              		.cfi_offset 14, -4
 450              	@ inc/user_libs/usbd_hid_core.c:545: {
 545:inc/user_libs/usbd_hid_core.c ****   if (pdev->dev.device_status == USB_OTG_CONFIGURED )
 451              		.loc 1 545 0
 452 0106 1346     		mov	r3, r2	@ len, len
 453              	@ inc/user_libs/usbd_hid_core.c:546:   if (pdev->dev.device_status == USB_OTG_CONFIGURED )
 546:inc/user_libs/usbd_hid_core.c ****   {
 454              		.loc 1 546 0
 455 0108 90F81221 		ldrb	r2, [r0, #274]	@ zero_extendqisi2	@ pdev_5(D)->dev.device_status, pdev_5(D)->dev.device_statu
 456              	.LVL42:
 457 010c 032A     		cmp	r2, #3	@ pdev_5(D)->dev.device_status,
 458 010e 03D1     		bne	.L30	@,
ARM GAS  /tmp/ccY7Z8QA.s 			page 20


 459              	@ inc/user_libs/usbd_hid_core.c:548:     DCD_EP_Tx (pdev, HID_IN_EP, report, len);
 548:inc/user_libs/usbd_hid_core.c ****   }
 460              		.loc 1 548 0
 461 0110 0A46     		mov	r2, r1	@, report
 462 0112 8121     		movs	r1, #129	@,
 463              	.LVL43:
 464 0114 FFF7FEFF 		bl	DCD_EP_Tx	@
 465              	.LVL44:
 466              	.L30:
 467              	@ inc/user_libs/usbd_hid_core.c:551: }
 551:inc/user_libs/usbd_hid_core.c **** 
 468              		.loc 1 551 0
 469 0118 0020     		movs	r0, #0	@,
 470 011a 08BD     		pop	{r3, pc}	@
 471              		.cfi_endproc
 472              	.LFE113:
 473              		.size	USBD_HID_SendReport, .-USBD_HID_SendReport
 474              		.global	USBD_HID_cb
 475              		.data
 476              		.align	2
 477              		.set	.LANCHOR0,. + 0
 478              		.type	USBD_HID_CfgDesc, %object
 479              		.size	USBD_HID_CfgDesc, 34
 480              	USBD_HID_CfgDesc:
 481 0000 09       		.byte	9
 482 0001 02       		.byte	2
 483 0002 22       		.byte	34
 484 0003 00       		.byte	0
 485 0004 01       		.byte	1
 486 0005 01       		.byte	1
 487 0006 00       		.byte	0
 488 0007 E0       		.byte	-32
 489 0008 32       		.byte	50
 490 0009 09       		.byte	9
 491 000a 04       		.byte	4
 492 000b 00       		.byte	0
 493 000c 00       		.byte	0
 494 000d 01       		.byte	1
 495 000e 03       		.byte	3
 496 000f 00       		.byte	0
 497 0010 00       		.byte	0
 498 0011 00       		.byte	0
 499 0012 09       		.byte	9
 500 0013 21       		.byte	33
 501 0014 11       		.byte	17
 502 0015 01       		.byte	1
 503 0016 00       		.byte	0
 504 0017 01       		.byte	1
 505 0018 22       		.byte	34
 506 0019 C5       		.byte	-59
 507 001a 00       		.byte	0
 508 001b 07       		.byte	7
 509 001c 05       		.byte	5
 510 001d 81       		.byte	-127
 511 001e 03       		.byte	3
 512 001f 04       		.byte	4
 513 0020 00       		.byte	0
ARM GAS  /tmp/ccY7Z8QA.s 			page 21


 514 0021 0A       		.byte	10
 515              		.type	HID_MOUSE_ReportDesc, %object
 516              		.size	HID_MOUSE_ReportDesc, 197
 517              	HID_MOUSE_ReportDesc:
 518 0022 05       		.byte	5
 519 0023 01       		.byte	1
 520 0024 09       		.byte	9
 521 0025 06       		.byte	6
 522 0026 A1       		.byte	-95
 523 0027 01       		.byte	1
 524 0028 85       		.byte	-123
 525 0029 01       		.byte	1
 526 002a 05       		.byte	5
 527 002b 07       		.byte	7
 528 002c 19       		.byte	25
 529 002d E0       		.byte	-32
 530 002e 29       		.byte	41
 531 002f E7       		.byte	-25
 532 0030 15       		.byte	21
 533 0031 00       		.byte	0
 534 0032 25       		.byte	37
 535 0033 01       		.byte	1
 536 0034 75       		.byte	117
 537 0035 01       		.byte	1
 538 0036 95       		.byte	-107
 539 0037 08       		.byte	8
 540 0038 81       		.byte	-127
 541 0039 02       		.byte	2
 542 003a 95       		.byte	-107
 543 003b 01       		.byte	1
 544 003c 75       		.byte	117
 545 003d 08       		.byte	8
 546 003e 81       		.byte	-127
 547 003f 03       		.byte	3
 548 0040 95       		.byte	-107
 549 0041 06       		.byte	6
 550 0042 75       		.byte	117
 551 0043 08       		.byte	8
 552 0044 15       		.byte	21
 553 0045 00       		.byte	0
 554 0046 25       		.byte	37
 555 0047 65       		.byte	101
 556 0048 05       		.byte	5
 557 0049 07       		.byte	7
 558 004a 19       		.byte	25
 559 004b 00       		.byte	0
 560 004c 29       		.byte	41
 561 004d 65       		.byte	101
 562 004e 81       		.byte	-127
 563 004f 00       		.byte	0
 564 0050 C0       		.byte	-64
 565 0051 05       		.byte	5
 566 0052 01       		.byte	1
 567 0053 09       		.byte	9
 568 0054 02       		.byte	2
 569 0055 A1       		.byte	-95
 570 0056 01       		.byte	1
ARM GAS  /tmp/ccY7Z8QA.s 			page 22


 571 0057 09       		.byte	9
 572 0058 01       		.byte	1
 573 0059 A1       		.byte	-95
 574 005a 00       		.byte	0
 575 005b 85       		.byte	-123
 576 005c 02       		.byte	2
 577 005d 05       		.byte	5
 578 005e 09       		.byte	9
 579 005f 19       		.byte	25
 580 0060 01       		.byte	1
 581 0061 29       		.byte	41
 582 0062 03       		.byte	3
 583 0063 15       		.byte	21
 584 0064 00       		.byte	0
 585 0065 25       		.byte	37
 586 0066 01       		.byte	1
 587 0067 95       		.byte	-107
 588 0068 03       		.byte	3
 589 0069 75       		.byte	117
 590 006a 01       		.byte	1
 591 006b 81       		.byte	-127
 592 006c 02       		.byte	2
 593 006d 95       		.byte	-107
 594 006e 01       		.byte	1
 595 006f 75       		.byte	117
 596 0070 05       		.byte	5
 597 0071 81       		.byte	-127
 598 0072 03       		.byte	3
 599 0073 05       		.byte	5
 600 0074 01       		.byte	1
 601 0075 09       		.byte	9
 602 0076 30       		.byte	48
 603 0077 09       		.byte	9
 604 0078 31       		.byte	49
 605 0079 09       		.byte	9
 606 007a 38       		.byte	56
 607 007b 15       		.byte	21
 608 007c 81       		.byte	-127
 609 007d 25       		.byte	37
 610 007e 7F       		.byte	127
 611 007f 75       		.byte	117
 612 0080 08       		.byte	8
 613 0081 95       		.byte	-107
 614 0082 03       		.byte	3
 615 0083 81       		.byte	-127
 616 0084 06       		.byte	6
 617 0085 C0       		.byte	-64
 618 0086 C0       		.byte	-64
 619 0087 05       		.byte	5
 620 0088 01       		.byte	1
 621 0089 09       		.byte	9
 622 008a 05       		.byte	5
 623 008b A1       		.byte	-95
 624 008c 01       		.byte	1
 625 008d A1       		.byte	-95
 626 008e 00       		.byte	0
 627 008f 85       		.byte	-123
ARM GAS  /tmp/ccY7Z8QA.s 			page 23


 628 0090 03       		.byte	3
 629 0091 05       		.byte	5
 630 0092 09       		.byte	9
 631 0093 19       		.byte	25
 632 0094 01       		.byte	1
 633 0095 29       		.byte	41
 634 0096 10       		.byte	16
 635 0097 15       		.byte	21
 636 0098 00       		.byte	0
 637 0099 25       		.byte	37
 638 009a 01       		.byte	1
 639 009b 95       		.byte	-107
 640 009c 10       		.byte	16
 641 009d 75       		.byte	117
 642 009e 01       		.byte	1
 643 009f 81       		.byte	-127
 644 00a0 02       		.byte	2
 645 00a1 05       		.byte	5
 646 00a2 01       		.byte	1
 647 00a3 09       		.byte	9
 648 00a4 30       		.byte	48
 649 00a5 09       		.byte	9
 650 00a6 31       		.byte	49
 651 00a7 09       		.byte	9
 652 00a8 32       		.byte	50
 653 00a9 09       		.byte	9
 654 00aa 33       		.byte	51
 655 00ab 15       		.byte	21
 656 00ac 81       		.byte	-127
 657 00ad 25       		.byte	37
 658 00ae 7F       		.byte	127
 659 00af 75       		.byte	117
 660 00b0 08       		.byte	8
 661 00b1 95       		.byte	-107
 662 00b2 04       		.byte	4
 663 00b3 81       		.byte	-127
 664 00b4 02       		.byte	2
 665 00b5 C0       		.byte	-64
 666 00b6 C0       		.byte	-64
 667 00b7 05       		.byte	5
 668 00b8 01       		.byte	1
 669 00b9 09       		.byte	9
 670 00ba 05       		.byte	5
 671 00bb A1       		.byte	-95
 672 00bc 01       		.byte	1
 673 00bd A1       		.byte	-95
 674 00be 00       		.byte	0
 675 00bf 85       		.byte	-123
 676 00c0 04       		.byte	4
 677 00c1 05       		.byte	5
 678 00c2 09       		.byte	9
 679 00c3 19       		.byte	25
 680 00c4 01       		.byte	1
 681 00c5 29       		.byte	41
 682 00c6 10       		.byte	16
 683 00c7 15       		.byte	21
 684 00c8 00       		.byte	0
ARM GAS  /tmp/ccY7Z8QA.s 			page 24


 685 00c9 25       		.byte	37
 686 00ca 01       		.byte	1
 687 00cb 95       		.byte	-107
 688 00cc 10       		.byte	16
 689 00cd 75       		.byte	117
 690 00ce 01       		.byte	1
 691 00cf 81       		.byte	-127
 692 00d0 02       		.byte	2
 693 00d1 05       		.byte	5
 694 00d2 01       		.byte	1
 695 00d3 09       		.byte	9
 696 00d4 30       		.byte	48
 697 00d5 09       		.byte	9
 698 00d6 31       		.byte	49
 699 00d7 09       		.byte	9
 700 00d8 32       		.byte	50
 701 00d9 09       		.byte	9
 702 00da 33       		.byte	51
 703 00db 15       		.byte	21
 704 00dc 81       		.byte	-127
 705 00dd 25       		.byte	37
 706 00de 7F       		.byte	127
 707 00df 75       		.byte	117
 708 00e0 08       		.byte	8
 709 00e1 95       		.byte	-107
 710 00e2 04       		.byte	4
 711 00e3 81       		.byte	-127
 712 00e4 02       		.byte	2
 713 00e5 C0       		.byte	-64
 714 00e6 C0       		.byte	-64
 715 00e7 00       		.space	1
 716              		.type	USBD_HID_cb, %object
 717              		.size	USBD_HID_cb, 44
 718              	USBD_HID_cb:
 719              	@ Init:
 720 00e8 00000000 		.word	USBD_HID_Init
 721              	@ DeInit:
 722 00ec 00000000 		.word	USBD_HID_DeInit
 723              	@ Setup:
 724 00f0 00000000 		.word	USBD_HID_Setup
 725              	@ EP0_TxSent:
 726 00f4 00000000 		.word	0
 727              	@ EP0_RxReady:
 728 00f8 00000000 		.word	0
 729              	@ DataIn:
 730 00fc 00000000 		.word	USBD_HID_DataIn
 731              	@ DataOut:
 732 0100 00000000 		.word	0
 733              	@ SOF:
 734 0104 00000000 		.word	0
 735              	@ IsoINIncomplete:
 736 0108 00000000 		.word	0
 737              	@ IsoOUTIncomplete:
 738 010c 00000000 		.word	0
 739              	@ GetConfigDescriptor:
 740 0110 00000000 		.word	USBD_HID_GetCfgDesc
 741              		.bss
ARM GAS  /tmp/ccY7Z8QA.s 			page 25


 742              		.align	2
 743              		.set	.LANCHOR1,. + 0
 744              		.type	USBD_HID_Protocol, %object
 745              		.size	USBD_HID_Protocol, 4
 746              	USBD_HID_Protocol:
 747 0000 00000000 		.space	4
 748              		.type	USBD_HID_IdleState, %object
 749              		.size	USBD_HID_IdleState, 4
 750              	USBD_HID_IdleState:
 751 0004 00000000 		.space	4
 752              		.type	USBD_HID_AltSet, %object
 753              		.size	USBD_HID_AltSet, 4
 754              	USBD_HID_AltSet:
 755 0008 00000000 		.space	4
 756              		.text
 757              	.Letext0:
 758              		.file 2 "/home/sticky/opt/gcc-arm-none-eabi-7-2017-q4-major/arm-none-eabi/include/machine/_default
 759              		.file 3 "/home/sticky/opt/gcc-arm-none-eabi-7-2017-q4-major/arm-none-eabi/include/sys/_stdint.h"
 760              		.file 4 "./inc/CMSIS/core_cm4.h"
 761              		.file 5 "./inc/system_stm32f4xx.h"
 762              		.file 6 "inc/user_libs/usb_regs.h"
 763              		.file 7 "inc/user_libs/usb_core.h"
 764              		.file 8 "inc/user_libs/usbd_hid_core.h"
 765              		.file 9 "inc/user_libs/usbd_desc.h"
 766              		.file 10 "inc/user_libs/usb_dcd.h"
 767              		.file 11 "inc/user_libs/usbd_ioreq.h"
 768              		.file 12 "inc/user_libs/usbd_req.h"
 769              		.file 13 "inc/user_libs/usbd_core.h"