ARM GAS  /tmp/ccGDKjNp.s 			page 1


   1              		.cpu cortex-m4
   2              		.eabi_attribute 20, 1	@ Tag_ABI_FP_denormal
   3              		.eabi_attribute 21, 1	@ Tag_ABI_FP_exceptions
   4              		.eabi_attribute 23, 3	@ Tag_ABI_FP_number_model
   5              		.eabi_attribute 24, 1	@ Tag_ABI_align8_needed
   6              		.eabi_attribute 25, 1	@ Tag_ABI_align8_preserved
   7              		.eabi_attribute 26, 1	@ Tag_ABI_enum_size
   8              		.eabi_attribute 30, 4	@ Tag_ABI_optimization_goals
   9              		.eabi_attribute 34, 1	@ Tag_CPU_unaligned_access
  10              		.eabi_attribute 18, 4	@ Tag_ABI_PCS_wchar_t
  11              		.file	"usbd_core.c"
  12              	@ GNU C11 (GNU Tools for Arm Embedded Processors 7-2017-q4-major) version 7.2.1 20170904 (release) 
  13              	@	compiled by GNU C version 4.8.4, GMP version 6.1.0, MPFR version 3.1.4, MPC version 1.0.3, isl ve
  14              	
  15              	@ GGC heuristics: --param ggc-min-expand=100 --param ggc-min-heapsize=131072
  16              	@ options passed:  -I . -I ./inc -I ./inc/CMSIS
  17              	@ -I STM32F4xx_StdPeriph_Driver/inc -I ./inc/user_libs
  18              	@ -imultilib thumb/v7e-m
  19              	@ -iprefix /home/sticky/opt/gcc-arm-none-eabi-7-2017-q4-major/bin/../lib/gcc/arm-none-eabi/7.2.1/
  20              	@ -isysroot /home/sticky/opt/gcc-arm-none-eabi-7-2017-q4-major/bin/../arm-none-eabi
  21              	@ -D__USES_INITFINI__ -D STM32F40XX -D USE_STDPERIPH_DRIVER
  22              	@ -D RUN_FROM_FLASH=1 inc/user_libs/usbd_core.c -mcpu=cortex-m4 -mthumb
  23              	@ -auxbase-strip inc/user_libs/usbd_core.o -g -gdwarf-2 -Os -Wall
  24              	@ -Wstrict-prototypes -fomit-frame-pointer -fverbose-asm
  25              	@ options enabled:  -faggressive-loop-optimizations -falign-jumps
  26              	@ -falign-labels -falign-loops -fauto-inc-dec -fbranch-count-reg
  27              	@ -fcaller-saves -fchkp-check-incomplete-type -fchkp-check-read
  28              	@ -fchkp-check-write -fchkp-instrument-calls -fchkp-narrow-bounds
  29              	@ -fchkp-optimize -fchkp-store-bounds -fchkp-use-static-bounds
  30              	@ -fchkp-use-static-const-bounds -fchkp-use-wrappers -fcode-hoisting
  31              	@ -fcombine-stack-adjustments -fcommon -fcompare-elim -fcprop-registers
  32              	@ -fcrossjumping -fcse-follow-jumps -fdefer-pop
  33              	@ -fdelete-null-pointer-checks -fdevirtualize -fdevirtualize-speculatively
  34              	@ -fdwarf2-cfi-asm -fearly-inlining -feliminate-unused-debug-types
  35              	@ -fexpensive-optimizations -fforward-propagate -ffp-int-builtin-inexact
  36              	@ -ffunction-cse -fgcse -fgcse-lm -fgnu-runtime -fgnu-unique
  37              	@ -fguess-branch-probability -fhoist-adjacent-loads -fident -fif-conversion
  38              	@ -fif-conversion2 -findirect-inlining -finline -finline-atomics
  39              	@ -finline-functions -finline-functions-called-once
  40              	@ -finline-small-functions -fipa-bit-cp -fipa-cp -fipa-icf
  41              	@ -fipa-icf-functions -fipa-icf-variables -fipa-profile -fipa-pure-const
  42              	@ -fipa-ra -fipa-reference -fipa-sra -fipa-vrp -fira-hoist-pressure
  43              	@ -fira-share-save-slots -fira-share-spill-slots
  44              	@ -fisolate-erroneous-paths-dereference -fivopts -fkeep-static-consts
  45              	@ -fleading-underscore -flifetime-dse -flra-remat -flto-odr-type-merging
  46              	@ -fmath-errno -fmerge-constants -fmerge-debug-strings
  47              	@ -fmove-loop-invariants -fomit-frame-pointer -foptimize-sibling-calls
  48              	@ -fpartial-inlining -fpeephole -fpeephole2 -fplt -fprefetch-loop-arrays
  49              	@ -freg-struct-return -freorder-blocks -freorder-functions
  50              	@ -frerun-cse-after-loop -fsched-critical-path-heuristic
  51              	@ -fsched-dep-count-heuristic -fsched-group-heuristic -fsched-interblock
  52              	@ -fsched-last-insn-heuristic -fsched-pressure -fsched-rank-heuristic
  53              	@ -fsched-spec -fsched-spec-insn-heuristic -fsched-stalled-insns-dep
  54              	@ -fschedule-insns2 -fsection-anchors -fsemantic-interposition
  55              	@ -fshow-column -fshrink-wrap-separate -fsigned-zeros
  56              	@ -fsplit-ivs-in-unroller -fsplit-wide-types -fssa-backprop -fssa-phiopt
  57              	@ -fstdarg-opt -fstore-merging -fstrict-aliasing -fstrict-overflow
ARM GAS  /tmp/ccGDKjNp.s 			page 2


  58              	@ -fstrict-volatile-bitfields -fsync-libcalls -fthread-jumps
  59              	@ -ftoplevel-reorder -ftrapping-math -ftree-bit-ccp -ftree-builtin-call-dce
  60              	@ -ftree-ccp -ftree-ch -ftree-coalesce-vars -ftree-copy-prop -ftree-cselim
  61              	@ -ftree-dce -ftree-dominator-opts -ftree-dse -ftree-forwprop -ftree-fre
  62              	@ -ftree-loop-if-convert -ftree-loop-im -ftree-loop-ivcanon
  63              	@ -ftree-loop-optimize -ftree-parallelize-loops= -ftree-phiprop -ftree-pre
  64              	@ -ftree-pta -ftree-reassoc -ftree-scev-cprop -ftree-sink -ftree-slsr
  65              	@ -ftree-sra -ftree-switch-conversion -ftree-tail-merge -ftree-ter
  66              	@ -ftree-vrp -funit-at-a-time -fvar-tracking -fvar-tracking-assignments
  67              	@ -fverbose-asm -fzero-initialized-in-bss -masm-syntax-unified
  68              	@ -mlittle-endian -mpic-data-is-text-relative -msched-prolog -mthumb
  69              	@ -munaligned-access -mvectorize-with-neon-quad
  70              	
  71              		.text
  72              	.Ltext0:
  73              		.cfi_sections	.debug_frame
  74              		.align	1
  75              		.syntax unified
  76              		.thumb
  77              		.thumb_func
  78              		.fpu softvfp
  79              		.type	USBD_Resume, %function
  80              	USBD_Resume:
  81              	.LFB117:
  82              		.file 1 "inc/user_libs/usbd_core.c"
   1:inc/user_libs/usbd_core.c **** /**
   2:inc/user_libs/usbd_core.c ****   ******************************************************************************
   3:inc/user_libs/usbd_core.c ****   * @file    usbd_core.c
   4:inc/user_libs/usbd_core.c ****   * @author  MCD Application Team
   5:inc/user_libs/usbd_core.c ****   * @version V1.1.0
   6:inc/user_libs/usbd_core.c ****   * @date    19-March-2012
   7:inc/user_libs/usbd_core.c ****   * @brief   This file provides all the USBD core functions.
   8:inc/user_libs/usbd_core.c ****   ******************************************************************************
   9:inc/user_libs/usbd_core.c ****   * @attention
  10:inc/user_libs/usbd_core.c ****   *
  11:inc/user_libs/usbd_core.c ****   * <h2><center>&copy; COPYRIGHT 2012 STMicroelectronics</center></h2>
  12:inc/user_libs/usbd_core.c ****   *
  13:inc/user_libs/usbd_core.c ****   * Licensed under MCD-ST Liberty SW License Agreement V2, (the "License");
  14:inc/user_libs/usbd_core.c ****   * You may not use this file except in compliance with the License.
  15:inc/user_libs/usbd_core.c ****   * You may obtain a copy of the License at:
  16:inc/user_libs/usbd_core.c ****   *
  17:inc/user_libs/usbd_core.c ****   *        http://www.st.com/software_license_agreement_liberty_v2
  18:inc/user_libs/usbd_core.c ****   *
  19:inc/user_libs/usbd_core.c ****   * Unless required by applicable law or agreed to in writing, software 
  20:inc/user_libs/usbd_core.c ****   * distributed under the License is distributed on an "AS IS" BASIS, 
  21:inc/user_libs/usbd_core.c ****   * WITHOUT WARRANTIES OR CONDITIONS OF ANY KIND, either express or implied.
  22:inc/user_libs/usbd_core.c ****   * See the License for the specific language governing permissions and
  23:inc/user_libs/usbd_core.c ****   * limitations under the License.
  24:inc/user_libs/usbd_core.c ****   *
  25:inc/user_libs/usbd_core.c ****   ******************************************************************************
  26:inc/user_libs/usbd_core.c ****   */ 
  27:inc/user_libs/usbd_core.c **** 
  28:inc/user_libs/usbd_core.c **** /* Includes ------------------------------------------------------------------*/
  29:inc/user_libs/usbd_core.c **** #include "usbd_core.h"
  30:inc/user_libs/usbd_core.c **** #include "usbd_req.h"
  31:inc/user_libs/usbd_core.c **** #include "usbd_ioreq.h"
  32:inc/user_libs/usbd_core.c **** #include "usb_dcd_int.h"
ARM GAS  /tmp/ccGDKjNp.s 			page 3


  33:inc/user_libs/usbd_core.c **** #include "usb_bsp.h"
  34:inc/user_libs/usbd_core.c **** 
  35:inc/user_libs/usbd_core.c **** /** @addtogroup STM32_USB_OTG_DEVICE_LIBRARY
  36:inc/user_libs/usbd_core.c **** * @{
  37:inc/user_libs/usbd_core.c **** */
  38:inc/user_libs/usbd_core.c **** 
  39:inc/user_libs/usbd_core.c **** 
  40:inc/user_libs/usbd_core.c **** /** @defgroup USBD_CORE 
  41:inc/user_libs/usbd_core.c **** * @brief usbd core module
  42:inc/user_libs/usbd_core.c **** * @{
  43:inc/user_libs/usbd_core.c **** */ 
  44:inc/user_libs/usbd_core.c **** 
  45:inc/user_libs/usbd_core.c **** /** @defgroup USBD_CORE_Private_TypesDefinitions
  46:inc/user_libs/usbd_core.c **** * @{
  47:inc/user_libs/usbd_core.c **** */ 
  48:inc/user_libs/usbd_core.c **** /**
  49:inc/user_libs/usbd_core.c **** * @}
  50:inc/user_libs/usbd_core.c **** */ 
  51:inc/user_libs/usbd_core.c **** 
  52:inc/user_libs/usbd_core.c **** 
  53:inc/user_libs/usbd_core.c **** /** @defgroup USBD_CORE_Private_Defines
  54:inc/user_libs/usbd_core.c **** * @{
  55:inc/user_libs/usbd_core.c **** */ 
  56:inc/user_libs/usbd_core.c **** 
  57:inc/user_libs/usbd_core.c **** /**
  58:inc/user_libs/usbd_core.c **** * @}
  59:inc/user_libs/usbd_core.c **** */ 
  60:inc/user_libs/usbd_core.c **** 
  61:inc/user_libs/usbd_core.c **** 
  62:inc/user_libs/usbd_core.c **** /** @defgroup USBD_CORE_Private_Macros
  63:inc/user_libs/usbd_core.c **** * @{
  64:inc/user_libs/usbd_core.c **** */ 
  65:inc/user_libs/usbd_core.c **** /**
  66:inc/user_libs/usbd_core.c **** * @}
  67:inc/user_libs/usbd_core.c **** */ 
  68:inc/user_libs/usbd_core.c **** 
  69:inc/user_libs/usbd_core.c **** 
  70:inc/user_libs/usbd_core.c **** 
  71:inc/user_libs/usbd_core.c **** 
  72:inc/user_libs/usbd_core.c **** /** @defgroup USBD_CORE_Private_FunctionPrototypes
  73:inc/user_libs/usbd_core.c **** * @{
  74:inc/user_libs/usbd_core.c **** */ 
  75:inc/user_libs/usbd_core.c **** static uint8_t USBD_SetupStage(USB_OTG_CORE_HANDLE *pdev);
  76:inc/user_libs/usbd_core.c **** static uint8_t USBD_DataOutStage(USB_OTG_CORE_HANDLE *pdev , uint8_t epnum);
  77:inc/user_libs/usbd_core.c **** static uint8_t USBD_DataInStage(USB_OTG_CORE_HANDLE *pdev , uint8_t epnum);
  78:inc/user_libs/usbd_core.c **** static uint8_t USBD_SOF(USB_OTG_CORE_HANDLE  *pdev);
  79:inc/user_libs/usbd_core.c **** static uint8_t USBD_Reset(USB_OTG_CORE_HANDLE  *pdev);
  80:inc/user_libs/usbd_core.c **** static uint8_t USBD_Suspend(USB_OTG_CORE_HANDLE  *pdev);
  81:inc/user_libs/usbd_core.c **** static uint8_t USBD_Resume(USB_OTG_CORE_HANDLE  *pdev);
  82:inc/user_libs/usbd_core.c **** #ifdef VBUS_SENSING_ENABLED
  83:inc/user_libs/usbd_core.c **** static uint8_t USBD_DevConnected(USB_OTG_CORE_HANDLE  *pdev);
  84:inc/user_libs/usbd_core.c **** static uint8_t USBD_DevDisconnected(USB_OTG_CORE_HANDLE  *pdev);
  85:inc/user_libs/usbd_core.c **** #endif
  86:inc/user_libs/usbd_core.c **** static uint8_t USBD_IsoINIncomplete(USB_OTG_CORE_HANDLE  *pdev);
  87:inc/user_libs/usbd_core.c **** static uint8_t USBD_IsoOUTIncomplete(USB_OTG_CORE_HANDLE  *pdev);
  88:inc/user_libs/usbd_core.c **** static uint8_t  USBD_RunTestMode (USB_OTG_CORE_HANDLE  *pdev) ;
  89:inc/user_libs/usbd_core.c **** /**
ARM GAS  /tmp/ccGDKjNp.s 			page 4


  90:inc/user_libs/usbd_core.c **** * @}
  91:inc/user_libs/usbd_core.c **** */ 
  92:inc/user_libs/usbd_core.c **** 
  93:inc/user_libs/usbd_core.c **** /** @defgroup USBD_CORE_Private_Variables
  94:inc/user_libs/usbd_core.c **** * @{
  95:inc/user_libs/usbd_core.c **** */ 
  96:inc/user_libs/usbd_core.c **** 
  97:inc/user_libs/usbd_core.c **** __IO USB_OTG_DCTL_TypeDef SET_TEST_MODE;
  98:inc/user_libs/usbd_core.c **** 
  99:inc/user_libs/usbd_core.c **** USBD_DCD_INT_cb_TypeDef USBD_DCD_INT_cb = 
 100:inc/user_libs/usbd_core.c **** {
 101:inc/user_libs/usbd_core.c ****   USBD_DataOutStage,
 102:inc/user_libs/usbd_core.c ****   USBD_DataInStage,
 103:inc/user_libs/usbd_core.c ****   USBD_SetupStage,
 104:inc/user_libs/usbd_core.c ****   USBD_SOF,
 105:inc/user_libs/usbd_core.c ****   USBD_Reset,
 106:inc/user_libs/usbd_core.c ****   USBD_Suspend,
 107:inc/user_libs/usbd_core.c ****   USBD_Resume,
 108:inc/user_libs/usbd_core.c ****   USBD_IsoINIncomplete,
 109:inc/user_libs/usbd_core.c ****   USBD_IsoOUTIncomplete,
 110:inc/user_libs/usbd_core.c **** #ifdef VBUS_SENSING_ENABLED
 111:inc/user_libs/usbd_core.c **** USBD_DevConnected, 
 112:inc/user_libs/usbd_core.c **** USBD_DevDisconnected,    
 113:inc/user_libs/usbd_core.c **** #endif  
 114:inc/user_libs/usbd_core.c **** };
 115:inc/user_libs/usbd_core.c **** 
 116:inc/user_libs/usbd_core.c **** USBD_DCD_INT_cb_TypeDef  *USBD_DCD_INT_fops = &USBD_DCD_INT_cb;
 117:inc/user_libs/usbd_core.c **** /**
 118:inc/user_libs/usbd_core.c **** * @}
 119:inc/user_libs/usbd_core.c **** */ 
 120:inc/user_libs/usbd_core.c **** 
 121:inc/user_libs/usbd_core.c **** /** @defgroup USBD_CORE_Private_Functions
 122:inc/user_libs/usbd_core.c **** * @{
 123:inc/user_libs/usbd_core.c **** */ 
 124:inc/user_libs/usbd_core.c **** 
 125:inc/user_libs/usbd_core.c **** /**
 126:inc/user_libs/usbd_core.c **** * @brief  USBD_Init
 127:inc/user_libs/usbd_core.c **** *         Initailizes the device stack and load the class driver
 128:inc/user_libs/usbd_core.c **** * @param  pdev: device instance
 129:inc/user_libs/usbd_core.c **** * @param  core_address: USB OTG core ID
 130:inc/user_libs/usbd_core.c **** * @param  class_cb: Class callback structure address
 131:inc/user_libs/usbd_core.c **** * @param  usr_cb: User callback structure address
 132:inc/user_libs/usbd_core.c **** * @retval None
 133:inc/user_libs/usbd_core.c **** */
 134:inc/user_libs/usbd_core.c **** void USBD_Init(USB_OTG_CORE_HANDLE *pdev,
 135:inc/user_libs/usbd_core.c ****                USB_OTG_CORE_ID_TypeDef coreID,
 136:inc/user_libs/usbd_core.c ****                USBD_DEVICE *pDevice,                  
 137:inc/user_libs/usbd_core.c ****                USBD_Class_cb_TypeDef *class_cb, 
 138:inc/user_libs/usbd_core.c ****                USBD_Usr_cb_TypeDef *usr_cb)
 139:inc/user_libs/usbd_core.c **** {
 140:inc/user_libs/usbd_core.c ****   /* Hardware Init */
 141:inc/user_libs/usbd_core.c ****   USB_OTG_BSP_Init(pdev);  
 142:inc/user_libs/usbd_core.c ****   USBD_DeInit(pdev);
 143:inc/user_libs/usbd_core.c ****   
 144:inc/user_libs/usbd_core.c ****   /*Register class and user callbacks */
 145:inc/user_libs/usbd_core.c ****   pdev->dev.class_cb = class_cb;
 146:inc/user_libs/usbd_core.c ****   pdev->dev.usr_cb = usr_cb;  
ARM GAS  /tmp/ccGDKjNp.s 			page 5


 147:inc/user_libs/usbd_core.c ****   pdev->dev.usr_device = pDevice;    
 148:inc/user_libs/usbd_core.c ****   
 149:inc/user_libs/usbd_core.c ****   /* set USB OTG core params */
 150:inc/user_libs/usbd_core.c ****   DCD_Init(pdev , coreID);
 151:inc/user_libs/usbd_core.c ****   
 152:inc/user_libs/usbd_core.c ****   /* Upon Init call usr callback */
 153:inc/user_libs/usbd_core.c ****   pdev->dev.usr_cb->Init();
 154:inc/user_libs/usbd_core.c ****   
 155:inc/user_libs/usbd_core.c ****   /* Enable Interrupts */
 156:inc/user_libs/usbd_core.c ****   USB_OTG_BSP_EnableInterrupt(pdev);
 157:inc/user_libs/usbd_core.c **** }
 158:inc/user_libs/usbd_core.c **** 
 159:inc/user_libs/usbd_core.c **** /**
 160:inc/user_libs/usbd_core.c **** * @brief  USBD_DeInit 
 161:inc/user_libs/usbd_core.c **** *         Re-Initialize th device library
 162:inc/user_libs/usbd_core.c **** * @param  pdev: device instance
 163:inc/user_libs/usbd_core.c **** * @retval status: status
 164:inc/user_libs/usbd_core.c **** */
 165:inc/user_libs/usbd_core.c **** USBD_Status USBD_DeInit(USB_OTG_CORE_HANDLE *pdev)
 166:inc/user_libs/usbd_core.c **** {
 167:inc/user_libs/usbd_core.c ****   /* Software Init */
 168:inc/user_libs/usbd_core.c ****   
 169:inc/user_libs/usbd_core.c ****   return USBD_OK;
 170:inc/user_libs/usbd_core.c **** }
 171:inc/user_libs/usbd_core.c **** 
 172:inc/user_libs/usbd_core.c **** /**
 173:inc/user_libs/usbd_core.c **** * @brief  USBD_SetupStage 
 174:inc/user_libs/usbd_core.c **** *         Handle the setup stage
 175:inc/user_libs/usbd_core.c **** * @param  pdev: device instance
 176:inc/user_libs/usbd_core.c **** * @retval status
 177:inc/user_libs/usbd_core.c **** */
 178:inc/user_libs/usbd_core.c **** static uint8_t USBD_SetupStage(USB_OTG_CORE_HANDLE *pdev)
 179:inc/user_libs/usbd_core.c **** {
 180:inc/user_libs/usbd_core.c ****   USB_SETUP_REQ req;
 181:inc/user_libs/usbd_core.c ****   
 182:inc/user_libs/usbd_core.c ****   USBD_ParseSetupRequest(pdev , &req);
 183:inc/user_libs/usbd_core.c ****   
 184:inc/user_libs/usbd_core.c ****   switch (req.bmRequest & 0x1F) 
 185:inc/user_libs/usbd_core.c ****   {
 186:inc/user_libs/usbd_core.c ****   case USB_REQ_RECIPIENT_DEVICE:   
 187:inc/user_libs/usbd_core.c ****     USBD_StdDevReq (pdev, &req);
 188:inc/user_libs/usbd_core.c ****     break;
 189:inc/user_libs/usbd_core.c ****     
 190:inc/user_libs/usbd_core.c ****   case USB_REQ_RECIPIENT_INTERFACE:     
 191:inc/user_libs/usbd_core.c ****     USBD_StdItfReq(pdev, &req);
 192:inc/user_libs/usbd_core.c ****     break;
 193:inc/user_libs/usbd_core.c ****     
 194:inc/user_libs/usbd_core.c ****   case USB_REQ_RECIPIENT_ENDPOINT:        
 195:inc/user_libs/usbd_core.c ****     USBD_StdEPReq(pdev, &req);   
 196:inc/user_libs/usbd_core.c ****     break;
 197:inc/user_libs/usbd_core.c ****     
 198:inc/user_libs/usbd_core.c ****   default:           
 199:inc/user_libs/usbd_core.c ****     DCD_EP_Stall(pdev , req.bmRequest & 0x80);
 200:inc/user_libs/usbd_core.c ****     break;
 201:inc/user_libs/usbd_core.c ****   }  
 202:inc/user_libs/usbd_core.c ****   return USBD_OK;
 203:inc/user_libs/usbd_core.c **** }
ARM GAS  /tmp/ccGDKjNp.s 			page 6


 204:inc/user_libs/usbd_core.c **** 
 205:inc/user_libs/usbd_core.c **** /**
 206:inc/user_libs/usbd_core.c **** * @brief  USBD_DataOutStage 
 207:inc/user_libs/usbd_core.c **** *         Handle data out stage
 208:inc/user_libs/usbd_core.c **** * @param  pdev: device instance
 209:inc/user_libs/usbd_core.c **** * @param  epnum: endpoint index
 210:inc/user_libs/usbd_core.c **** * @retval status
 211:inc/user_libs/usbd_core.c **** */
 212:inc/user_libs/usbd_core.c **** static uint8_t USBD_DataOutStage(USB_OTG_CORE_HANDLE *pdev , uint8_t epnum)
 213:inc/user_libs/usbd_core.c **** {
 214:inc/user_libs/usbd_core.c ****   USB_OTG_EP *ep;
 215:inc/user_libs/usbd_core.c ****   
 216:inc/user_libs/usbd_core.c ****   if(epnum == 0) 
 217:inc/user_libs/usbd_core.c ****   {
 218:inc/user_libs/usbd_core.c ****     ep = &pdev->dev.out_ep[0];
 219:inc/user_libs/usbd_core.c ****     if ( pdev->dev.device_state == USB_OTG_EP0_DATA_OUT)
 220:inc/user_libs/usbd_core.c ****     {
 221:inc/user_libs/usbd_core.c ****       if(ep->rem_data_len > ep->maxpacket)
 222:inc/user_libs/usbd_core.c ****       {
 223:inc/user_libs/usbd_core.c ****         ep->rem_data_len -=  ep->maxpacket;
 224:inc/user_libs/usbd_core.c ****         
 225:inc/user_libs/usbd_core.c ****         if(pdev->cfg.dma_enable == 1)
 226:inc/user_libs/usbd_core.c ****         {
 227:inc/user_libs/usbd_core.c ****           /* in slave mode this, is handled by the RxSTSQLvl ISR */
 228:inc/user_libs/usbd_core.c ****           ep->xfer_buff += ep->maxpacket; 
 229:inc/user_libs/usbd_core.c ****         }        
 230:inc/user_libs/usbd_core.c ****         USBD_CtlContinueRx (pdev, 
 231:inc/user_libs/usbd_core.c ****                             ep->xfer_buff,
 232:inc/user_libs/usbd_core.c ****                             MIN(ep->rem_data_len ,ep->maxpacket));
 233:inc/user_libs/usbd_core.c ****       }
 234:inc/user_libs/usbd_core.c ****       else
 235:inc/user_libs/usbd_core.c ****       {
 236:inc/user_libs/usbd_core.c ****         if((pdev->dev.class_cb->EP0_RxReady != NULL)&&
 237:inc/user_libs/usbd_core.c ****            (pdev->dev.device_status == USB_OTG_CONFIGURED))
 238:inc/user_libs/usbd_core.c ****         {
 239:inc/user_libs/usbd_core.c ****           pdev->dev.class_cb->EP0_RxReady(pdev); 
 240:inc/user_libs/usbd_core.c ****         }
 241:inc/user_libs/usbd_core.c ****         USBD_CtlSendStatus(pdev);
 242:inc/user_libs/usbd_core.c ****       }
 243:inc/user_libs/usbd_core.c ****     }
 244:inc/user_libs/usbd_core.c ****   }
 245:inc/user_libs/usbd_core.c ****   else if((pdev->dev.class_cb->DataOut != NULL)&&
 246:inc/user_libs/usbd_core.c ****           (pdev->dev.device_status == USB_OTG_CONFIGURED))
 247:inc/user_libs/usbd_core.c ****   {
 248:inc/user_libs/usbd_core.c ****     pdev->dev.class_cb->DataOut(pdev, epnum); 
 249:inc/user_libs/usbd_core.c ****   }  
 250:inc/user_libs/usbd_core.c ****   return USBD_OK;
 251:inc/user_libs/usbd_core.c **** }
 252:inc/user_libs/usbd_core.c **** 
 253:inc/user_libs/usbd_core.c **** /**
 254:inc/user_libs/usbd_core.c **** * @brief  USBD_DataInStage 
 255:inc/user_libs/usbd_core.c **** *         Handle data in stage
 256:inc/user_libs/usbd_core.c **** * @param  pdev: device instance
 257:inc/user_libs/usbd_core.c **** * @param  epnum: endpoint index
 258:inc/user_libs/usbd_core.c **** * @retval status
 259:inc/user_libs/usbd_core.c **** */
 260:inc/user_libs/usbd_core.c **** static uint8_t USBD_DataInStage(USB_OTG_CORE_HANDLE *pdev , uint8_t epnum)
ARM GAS  /tmp/ccGDKjNp.s 			page 7


 261:inc/user_libs/usbd_core.c **** {
 262:inc/user_libs/usbd_core.c ****   USB_OTG_EP *ep;
 263:inc/user_libs/usbd_core.c ****   
 264:inc/user_libs/usbd_core.c ****   if(epnum == 0) 
 265:inc/user_libs/usbd_core.c ****   {
 266:inc/user_libs/usbd_core.c ****     ep = &pdev->dev.in_ep[0];
 267:inc/user_libs/usbd_core.c ****     if ( pdev->dev.device_state == USB_OTG_EP0_DATA_IN)
 268:inc/user_libs/usbd_core.c ****     {
 269:inc/user_libs/usbd_core.c ****       if(ep->rem_data_len > ep->maxpacket)
 270:inc/user_libs/usbd_core.c ****       {
 271:inc/user_libs/usbd_core.c ****         ep->rem_data_len -=  ep->maxpacket;
 272:inc/user_libs/usbd_core.c ****         if(pdev->cfg.dma_enable == 1)
 273:inc/user_libs/usbd_core.c ****         {
 274:inc/user_libs/usbd_core.c ****           /* in slave mode this, is handled by the TxFifoEmpty ISR */
 275:inc/user_libs/usbd_core.c ****           ep->xfer_buff += ep->maxpacket;
 276:inc/user_libs/usbd_core.c ****         }
 277:inc/user_libs/usbd_core.c ****         USBD_CtlContinueSendData (pdev, 
 278:inc/user_libs/usbd_core.c ****                                   ep->xfer_buff, 
 279:inc/user_libs/usbd_core.c ****                                   ep->rem_data_len);
 280:inc/user_libs/usbd_core.c ****       }
 281:inc/user_libs/usbd_core.c ****       else
 282:inc/user_libs/usbd_core.c ****       { /* last packet is MPS multiple, so send ZLP packet */
 283:inc/user_libs/usbd_core.c ****         if((ep->total_data_len % ep->maxpacket == 0) &&
 284:inc/user_libs/usbd_core.c ****            (ep->total_data_len >= ep->maxpacket) &&
 285:inc/user_libs/usbd_core.c ****              (ep->total_data_len < ep->ctl_data_len ))
 286:inc/user_libs/usbd_core.c ****         {
 287:inc/user_libs/usbd_core.c ****           
 288:inc/user_libs/usbd_core.c ****           USBD_CtlContinueSendData(pdev , NULL, 0);
 289:inc/user_libs/usbd_core.c ****           ep->ctl_data_len = 0;
 290:inc/user_libs/usbd_core.c ****         }
 291:inc/user_libs/usbd_core.c ****         else
 292:inc/user_libs/usbd_core.c ****         {
 293:inc/user_libs/usbd_core.c ****           if((pdev->dev.class_cb->EP0_TxSent != NULL)&&
 294:inc/user_libs/usbd_core.c ****              (pdev->dev.device_status == USB_OTG_CONFIGURED))
 295:inc/user_libs/usbd_core.c ****           {
 296:inc/user_libs/usbd_core.c ****             pdev->dev.class_cb->EP0_TxSent(pdev); 
 297:inc/user_libs/usbd_core.c ****           }          
 298:inc/user_libs/usbd_core.c ****           USBD_CtlReceiveStatus(pdev);
 299:inc/user_libs/usbd_core.c ****         }
 300:inc/user_libs/usbd_core.c ****       }
 301:inc/user_libs/usbd_core.c ****     }
 302:inc/user_libs/usbd_core.c ****     if (pdev->dev.test_mode == 1)
 303:inc/user_libs/usbd_core.c ****     {
 304:inc/user_libs/usbd_core.c ****       USBD_RunTestMode(pdev); 
 305:inc/user_libs/usbd_core.c ****       pdev->dev.test_mode = 0;
 306:inc/user_libs/usbd_core.c ****     }
 307:inc/user_libs/usbd_core.c ****   }
 308:inc/user_libs/usbd_core.c ****   else if((pdev->dev.class_cb->DataIn != NULL)&& 
 309:inc/user_libs/usbd_core.c ****           (pdev->dev.device_status == USB_OTG_CONFIGURED))
 310:inc/user_libs/usbd_core.c ****   {
 311:inc/user_libs/usbd_core.c ****     pdev->dev.class_cb->DataIn(pdev, epnum); 
 312:inc/user_libs/usbd_core.c ****   }  
 313:inc/user_libs/usbd_core.c ****   return USBD_OK;
 314:inc/user_libs/usbd_core.c **** }
 315:inc/user_libs/usbd_core.c **** 
 316:inc/user_libs/usbd_core.c **** 
 317:inc/user_libs/usbd_core.c **** 
ARM GAS  /tmp/ccGDKjNp.s 			page 8


 318:inc/user_libs/usbd_core.c **** 
 319:inc/user_libs/usbd_core.c **** /**
 320:inc/user_libs/usbd_core.c **** * @brief  USBD_RunTestMode 
 321:inc/user_libs/usbd_core.c **** *         Launch test mode process
 322:inc/user_libs/usbd_core.c **** * @param  pdev: device instance
 323:inc/user_libs/usbd_core.c **** * @retval status
 324:inc/user_libs/usbd_core.c **** */
 325:inc/user_libs/usbd_core.c **** static uint8_t  USBD_RunTestMode (USB_OTG_CORE_HANDLE  *pdev) 
 326:inc/user_libs/usbd_core.c **** {
 327:inc/user_libs/usbd_core.c ****   USB_OTG_WRITE_REG32(&pdev->regs.DREGS->DCTL, SET_TEST_MODE.d32);
 328:inc/user_libs/usbd_core.c ****   return USBD_OK;  
 329:inc/user_libs/usbd_core.c **** }
 330:inc/user_libs/usbd_core.c **** 
 331:inc/user_libs/usbd_core.c **** /**
 332:inc/user_libs/usbd_core.c **** * @brief  USBD_Reset 
 333:inc/user_libs/usbd_core.c **** *         Handle Reset event
 334:inc/user_libs/usbd_core.c **** * @param  pdev: device instance
 335:inc/user_libs/usbd_core.c **** * @retval status
 336:inc/user_libs/usbd_core.c **** */
 337:inc/user_libs/usbd_core.c **** 
 338:inc/user_libs/usbd_core.c **** static uint8_t USBD_Reset(USB_OTG_CORE_HANDLE  *pdev)
 339:inc/user_libs/usbd_core.c **** {
 340:inc/user_libs/usbd_core.c ****   /* Open EP0 OUT */
 341:inc/user_libs/usbd_core.c ****   DCD_EP_Open(pdev,
 342:inc/user_libs/usbd_core.c ****               0x00,
 343:inc/user_libs/usbd_core.c ****               USB_OTG_MAX_EP0_SIZE,
 344:inc/user_libs/usbd_core.c ****               EP_TYPE_CTRL);
 345:inc/user_libs/usbd_core.c ****   
 346:inc/user_libs/usbd_core.c ****   /* Open EP0 IN */
 347:inc/user_libs/usbd_core.c ****   DCD_EP_Open(pdev,
 348:inc/user_libs/usbd_core.c ****               0x80,
 349:inc/user_libs/usbd_core.c ****               USB_OTG_MAX_EP0_SIZE,
 350:inc/user_libs/usbd_core.c ****               EP_TYPE_CTRL);
 351:inc/user_libs/usbd_core.c ****   
 352:inc/user_libs/usbd_core.c ****   /* Upon Reset call usr call back */
 353:inc/user_libs/usbd_core.c ****   pdev->dev.device_status = USB_OTG_DEFAULT;
 354:inc/user_libs/usbd_core.c ****   pdev->dev.usr_cb->DeviceReset(pdev->cfg.speed);
 355:inc/user_libs/usbd_core.c ****   
 356:inc/user_libs/usbd_core.c ****   return USBD_OK;
 357:inc/user_libs/usbd_core.c **** }
 358:inc/user_libs/usbd_core.c **** 
 359:inc/user_libs/usbd_core.c **** /**
 360:inc/user_libs/usbd_core.c **** * @brief  USBD_Resume 
 361:inc/user_libs/usbd_core.c **** *         Handle Resume event
 362:inc/user_libs/usbd_core.c **** * @param  pdev: device instance
 363:inc/user_libs/usbd_core.c **** * @retval status
 364:inc/user_libs/usbd_core.c **** */
 365:inc/user_libs/usbd_core.c **** 
 366:inc/user_libs/usbd_core.c **** static uint8_t USBD_Resume(USB_OTG_CORE_HANDLE  *pdev)
 367:inc/user_libs/usbd_core.c **** {
  83              		.loc 1 367 0
  84              		.cfi_startproc
  85              		@ args = 0, pretend = 0, frame = 0
  86              		@ frame_needed = 0, uses_anonymous_args = 0
  87              	.LVL0:
  88 0000 10B5     		push	{r4, lr}	@
  89              	.LCFI0:
ARM GAS  /tmp/ccGDKjNp.s 			page 9


  90              		.cfi_def_cfa_offset 8
  91              		.cfi_offset 4, -8
  92              		.cfi_offset 14, -4
  93              	@ inc/user_libs/usbd_core.c:369:   pdev->dev.usr_cb->DeviceResumed(); 
 368:inc/user_libs/usbd_core.c ****   /* Upon Resume call usr call back */
 369:inc/user_libs/usbd_core.c ****   pdev->dev.usr_cb->DeviceResumed(); 
  94              		.loc 1 369 0
  95 0002 D0F8E835 		ldr	r3, [r0, #1512]	@ pdev_4(D)->dev.usr_cb, pdev_4(D)->dev.usr_cb
  96              	@ inc/user_libs/usbd_core.c:367: {
 367:inc/user_libs/usbd_core.c ****   /* Upon Resume call usr call back */
  97              		.loc 1 367 0
  98 0006 0446     		mov	r4, r0	@ pdev, pdev
  99              	@ inc/user_libs/usbd_core.c:369:   pdev->dev.usr_cb->DeviceResumed(); 
 100              		.loc 1 369 0
 101 0008 1B69     		ldr	r3, [r3, #16]	@ _1->DeviceResumed, _1->DeviceResumed
 102 000a 9847     		blx	r3	@ _1->DeviceResumed
 103              	.LVL1:
 104              	@ inc/user_libs/usbd_core.c:371:   pdev->dev.device_status = USB_OTG_CONFIGURED;  
 370:inc/user_libs/usbd_core.c ****   pdev->dev.device_status = pdev->dev.device_old_status;  
 371:inc/user_libs/usbd_core.c ****   pdev->dev.device_status = USB_OTG_CONFIGURED;  
 105              		.loc 1 371 0
 106 000c 0323     		movs	r3, #3	@ tmp116,
 107 000e 84F81231 		strb	r3, [r4, #274]	@ tmp116, pdev_4(D)->dev.device_status
 108              	@ inc/user_libs/usbd_core.c:373: }
 372:inc/user_libs/usbd_core.c ****   return USBD_OK;
 373:inc/user_libs/usbd_core.c **** }
 109              		.loc 1 373 0
 110 0012 0020     		movs	r0, #0	@,
 111 0014 10BD     		pop	{r4, pc}	@
 112              		.cfi_endproc
 113              	.LFE117:
 114              		.size	USBD_Resume, .-USBD_Resume
 115              		.align	1
 116              		.syntax unified
 117              		.thumb
 118              		.thumb_func
 119              		.fpu softvfp
 120              		.type	USBD_Suspend, %function
 121              	USBD_Suspend:
 122              	.LFB118:
 374:inc/user_libs/usbd_core.c **** 
 375:inc/user_libs/usbd_core.c **** 
 376:inc/user_libs/usbd_core.c **** /**
 377:inc/user_libs/usbd_core.c **** * @brief  USBD_Suspend 
 378:inc/user_libs/usbd_core.c **** *         Handle Suspend event
 379:inc/user_libs/usbd_core.c **** * @param  pdev: device instance
 380:inc/user_libs/usbd_core.c **** * @retval status
 381:inc/user_libs/usbd_core.c **** */
 382:inc/user_libs/usbd_core.c **** 
 383:inc/user_libs/usbd_core.c **** static uint8_t USBD_Suspend(USB_OTG_CORE_HANDLE  *pdev)
 384:inc/user_libs/usbd_core.c **** {
 123              		.loc 1 384 0
 124              		.cfi_startproc
 125              		@ args = 0, pretend = 0, frame = 0
 126              		@ frame_needed = 0, uses_anonymous_args = 0
 127              	.LVL2:
 128 0016 08B5     		push	{r3, lr}	@
ARM GAS  /tmp/ccGDKjNp.s 			page 10


 129              	.LCFI1:
 130              		.cfi_def_cfa_offset 8
 131              		.cfi_offset 3, -8
 132              		.cfi_offset 14, -4
 133              	@ inc/user_libs/usbd_core.c:385:   pdev->dev.device_old_status = pdev->dev.device_status;
 385:inc/user_libs/usbd_core.c ****   pdev->dev.device_old_status = pdev->dev.device_status;
 134              		.loc 1 385 0
 135 0018 90F81231 		ldrb	r3, [r0, #274]	@ zero_extendqisi2	@ pdev_5(D)->dev.device_status, pdev_5(D)->dev.device_statu
 136 001c 80F81331 		strb	r3, [r0, #275]	@ pdev_5(D)->dev.device_status, pdev_5(D)->dev.device_old_status
 137              	@ inc/user_libs/usbd_core.c:386:   pdev->dev.device_status  = USB_OTG_SUSPENDED;
 386:inc/user_libs/usbd_core.c ****   pdev->dev.device_status  = USB_OTG_SUSPENDED;
 138              		.loc 1 386 0
 139 0020 0423     		movs	r3, #4	@ tmp117,
 140 0022 80F81231 		strb	r3, [r0, #274]	@ tmp117, pdev_5(D)->dev.device_status
 141              	@ inc/user_libs/usbd_core.c:388:   pdev->dev.usr_cb->DeviceSuspended(); 
 387:inc/user_libs/usbd_core.c ****   /* Upon Resume call usr call back */
 388:inc/user_libs/usbd_core.c ****   pdev->dev.usr_cb->DeviceSuspended(); 
 142              		.loc 1 388 0
 143 0026 D0F8E835 		ldr	r3, [r0, #1512]	@ pdev_5(D)->dev.usr_cb, pdev_5(D)->dev.usr_cb
 144 002a DB68     		ldr	r3, [r3, #12]	@ _2->DeviceSuspended, _2->DeviceSuspended
 145 002c 9847     		blx	r3	@ _2->DeviceSuspended
 146              	.LVL3:
 147              	@ inc/user_libs/usbd_core.c:390: }
 389:inc/user_libs/usbd_core.c ****   return USBD_OK;
 390:inc/user_libs/usbd_core.c **** }
 148              		.loc 1 390 0
 149 002e 0020     		movs	r0, #0	@,
 150 0030 08BD     		pop	{r3, pc}	@
 151              		.cfi_endproc
 152              	.LFE118:
 153              		.size	USBD_Suspend, .-USBD_Suspend
 154              		.align	1
 155              		.syntax unified
 156              		.thumb
 157              		.thumb_func
 158              		.fpu softvfp
 159              		.type	USBD_SOF, %function
 160              	USBD_SOF:
 161              	.LFB119:
 391:inc/user_libs/usbd_core.c **** 
 392:inc/user_libs/usbd_core.c **** 
 393:inc/user_libs/usbd_core.c **** /**
 394:inc/user_libs/usbd_core.c **** * @brief  USBD_SOF 
 395:inc/user_libs/usbd_core.c **** *         Handle SOF event
 396:inc/user_libs/usbd_core.c **** * @param  pdev: device instance
 397:inc/user_libs/usbd_core.c **** * @retval status
 398:inc/user_libs/usbd_core.c **** */
 399:inc/user_libs/usbd_core.c **** 
 400:inc/user_libs/usbd_core.c **** static uint8_t USBD_SOF(USB_OTG_CORE_HANDLE  *pdev)
 401:inc/user_libs/usbd_core.c **** {
 162              		.loc 1 401 0
 163              		.cfi_startproc
 164              		@ args = 0, pretend = 0, frame = 0
 165              		@ frame_needed = 0, uses_anonymous_args = 0
 166              	.LVL4:
 167 0032 08B5     		push	{r3, lr}	@
 168              	.LCFI2:
ARM GAS  /tmp/ccGDKjNp.s 			page 11


 169              		.cfi_def_cfa_offset 8
 170              		.cfi_offset 3, -8
 171              		.cfi_offset 14, -4
 172              	@ inc/user_libs/usbd_core.c:402:   if(pdev->dev.class_cb->SOF)
 402:inc/user_libs/usbd_core.c ****   if(pdev->dev.class_cb->SOF)
 173              		.loc 1 402 0
 174 0034 D0F8E435 		ldr	r3, [r0, #1508]	@ pdev_5(D)->dev.class_cb, pdev_5(D)->dev.class_cb
 175 0038 DB69     		ldr	r3, [r3, #28]	@ _2, _1->SOF
 176 003a 03B1     		cbz	r3, .L4	@ _2,
 177              	@ inc/user_libs/usbd_core.c:404:     pdev->dev.class_cb->SOF(pdev); 
 403:inc/user_libs/usbd_core.c ****   {
 404:inc/user_libs/usbd_core.c ****     pdev->dev.class_cb->SOF(pdev); 
 178              		.loc 1 404 0
 179 003c 9847     		blx	r3	@ _2
 180              	.LVL5:
 181              	.L4:
 182              	@ inc/user_libs/usbd_core.c:407: }
 405:inc/user_libs/usbd_core.c ****   }
 406:inc/user_libs/usbd_core.c ****   return USBD_OK;
 407:inc/user_libs/usbd_core.c **** }
 183              		.loc 1 407 0
 184 003e 0020     		movs	r0, #0	@,
 185 0040 08BD     		pop	{r3, pc}	@
 186              		.cfi_endproc
 187              	.LFE119:
 188              		.size	USBD_SOF, .-USBD_SOF
 189              		.align	1
 190              		.syntax unified
 191              		.thumb
 192              		.thumb_func
 193              		.fpu softvfp
 194              		.type	USBD_IsoINIncomplete, %function
 195              	USBD_IsoINIncomplete:
 196              	.LFB122:
 408:inc/user_libs/usbd_core.c **** /**
 409:inc/user_libs/usbd_core.c **** * @brief  USBD_SetCfg 
 410:inc/user_libs/usbd_core.c **** *        Configure device and start the interface
 411:inc/user_libs/usbd_core.c **** * @param  pdev: device instance
 412:inc/user_libs/usbd_core.c **** * @param  cfgidx: configuration index
 413:inc/user_libs/usbd_core.c **** * @retval status
 414:inc/user_libs/usbd_core.c **** */
 415:inc/user_libs/usbd_core.c **** 
 416:inc/user_libs/usbd_core.c **** USBD_Status USBD_SetCfg(USB_OTG_CORE_HANDLE  *pdev, uint8_t cfgidx)
 417:inc/user_libs/usbd_core.c **** {
 418:inc/user_libs/usbd_core.c ****   pdev->dev.class_cb->Init(pdev, cfgidx); 
 419:inc/user_libs/usbd_core.c ****   
 420:inc/user_libs/usbd_core.c ****   /* Upon set config call usr call back */
 421:inc/user_libs/usbd_core.c ****   pdev->dev.usr_cb->DeviceConfigured();
 422:inc/user_libs/usbd_core.c ****   return USBD_OK; 
 423:inc/user_libs/usbd_core.c **** }
 424:inc/user_libs/usbd_core.c **** 
 425:inc/user_libs/usbd_core.c **** /**
 426:inc/user_libs/usbd_core.c **** * @brief  USBD_ClrCfg 
 427:inc/user_libs/usbd_core.c **** *         Clear current configuration
 428:inc/user_libs/usbd_core.c **** * @param  pdev: device instance
 429:inc/user_libs/usbd_core.c **** * @param  cfgidx: configuration index
 430:inc/user_libs/usbd_core.c **** * @retval status: USBD_Status
ARM GAS  /tmp/ccGDKjNp.s 			page 12


 431:inc/user_libs/usbd_core.c **** */
 432:inc/user_libs/usbd_core.c **** USBD_Status USBD_ClrCfg(USB_OTG_CORE_HANDLE  *pdev, uint8_t cfgidx)
 433:inc/user_libs/usbd_core.c **** {
 434:inc/user_libs/usbd_core.c ****   pdev->dev.class_cb->DeInit(pdev, cfgidx);   
 435:inc/user_libs/usbd_core.c ****   return USBD_OK;
 436:inc/user_libs/usbd_core.c **** }
 437:inc/user_libs/usbd_core.c **** 
 438:inc/user_libs/usbd_core.c **** /**
 439:inc/user_libs/usbd_core.c **** * @brief  USBD_IsoINIncomplete 
 440:inc/user_libs/usbd_core.c **** *         Handle iso in incomplete event
 441:inc/user_libs/usbd_core.c **** * @param  pdev: device instance
 442:inc/user_libs/usbd_core.c **** * @retval status
 443:inc/user_libs/usbd_core.c **** */
 444:inc/user_libs/usbd_core.c **** static uint8_t USBD_IsoINIncomplete(USB_OTG_CORE_HANDLE  *pdev)
 445:inc/user_libs/usbd_core.c **** {
 197              		.loc 1 445 0
 198              		.cfi_startproc
 199              		@ args = 0, pretend = 0, frame = 0
 200              		@ frame_needed = 0, uses_anonymous_args = 0
 201              	.LVL6:
 202 0042 08B5     		push	{r3, lr}	@
 203              	.LCFI3:
 204              		.cfi_def_cfa_offset 8
 205              		.cfi_offset 3, -8
 206              		.cfi_offset 14, -4
 207              	@ inc/user_libs/usbd_core.c:446:   pdev->dev.class_cb->IsoINIncomplete(pdev);   
 446:inc/user_libs/usbd_core.c ****   pdev->dev.class_cb->IsoINIncomplete(pdev);   
 208              		.loc 1 446 0
 209 0044 D0F8E435 		ldr	r3, [r0, #1508]	@ pdev_4(D)->dev.class_cb, pdev_4(D)->dev.class_cb
 210 0048 1B6A     		ldr	r3, [r3, #32]	@ _1->IsoINIncomplete, _1->IsoINIncomplete
 211 004a 9847     		blx	r3	@ _1->IsoINIncomplete
 212              	.LVL7:
 213              	@ inc/user_libs/usbd_core.c:448: }
 447:inc/user_libs/usbd_core.c ****   return USBD_OK;
 448:inc/user_libs/usbd_core.c **** }
 214              		.loc 1 448 0
 215 004c 0020     		movs	r0, #0	@,
 216 004e 08BD     		pop	{r3, pc}	@
 217              		.cfi_endproc
 218              	.LFE122:
 219              		.size	USBD_IsoINIncomplete, .-USBD_IsoINIncomplete
 220              		.align	1
 221              		.syntax unified
 222              		.thumb
 223              		.thumb_func
 224              		.fpu softvfp
 225              		.type	USBD_IsoOUTIncomplete, %function
 226              	USBD_IsoOUTIncomplete:
 227              	.LFB123:
 449:inc/user_libs/usbd_core.c **** 
 450:inc/user_libs/usbd_core.c **** /**
 451:inc/user_libs/usbd_core.c **** * @brief  USBD_IsoOUTIncomplete 
 452:inc/user_libs/usbd_core.c **** *         Handle iso out incomplete event
 453:inc/user_libs/usbd_core.c **** * @param  pdev: device instance
 454:inc/user_libs/usbd_core.c **** * @retval status
 455:inc/user_libs/usbd_core.c **** */
 456:inc/user_libs/usbd_core.c **** static uint8_t USBD_IsoOUTIncomplete(USB_OTG_CORE_HANDLE  *pdev)
ARM GAS  /tmp/ccGDKjNp.s 			page 13


 457:inc/user_libs/usbd_core.c **** {
 228              		.loc 1 457 0
 229              		.cfi_startproc
 230              		@ args = 0, pretend = 0, frame = 0
 231              		@ frame_needed = 0, uses_anonymous_args = 0
 232              	.LVL8:
 233 0050 08B5     		push	{r3, lr}	@
 234              	.LCFI4:
 235              		.cfi_def_cfa_offset 8
 236              		.cfi_offset 3, -8
 237              		.cfi_offset 14, -4
 238              	@ inc/user_libs/usbd_core.c:458:   pdev->dev.class_cb->IsoOUTIncomplete(pdev);   
 458:inc/user_libs/usbd_core.c ****   pdev->dev.class_cb->IsoOUTIncomplete(pdev);   
 239              		.loc 1 458 0
 240 0052 D0F8E435 		ldr	r3, [r0, #1508]	@ pdev_4(D)->dev.class_cb, pdev_4(D)->dev.class_cb
 241 0056 5B6A     		ldr	r3, [r3, #36]	@ _1->IsoOUTIncomplete, _1->IsoOUTIncomplete
 242 0058 9847     		blx	r3	@ _1->IsoOUTIncomplete
 243              	.LVL9:
 244              	@ inc/user_libs/usbd_core.c:460: }
 459:inc/user_libs/usbd_core.c ****   return USBD_OK;
 460:inc/user_libs/usbd_core.c **** }
 245              		.loc 1 460 0
 246 005a 0020     		movs	r0, #0	@,
 247 005c 08BD     		pop	{r3, pc}	@
 248              		.cfi_endproc
 249              	.LFE123:
 250              		.size	USBD_IsoOUTIncomplete, .-USBD_IsoOUTIncomplete
 251              		.align	1
 252              		.syntax unified
 253              		.thumb
 254              		.thumb_func
 255              		.fpu softvfp
 256              		.type	USBD_DevConnected, %function
 257              	USBD_DevConnected:
 258              	.LFB124:
 461:inc/user_libs/usbd_core.c **** 
 462:inc/user_libs/usbd_core.c **** #ifdef VBUS_SENSING_ENABLED
 463:inc/user_libs/usbd_core.c **** /**
 464:inc/user_libs/usbd_core.c **** * @brief  USBD_DevConnected 
 465:inc/user_libs/usbd_core.c **** *         Handle device connection event
 466:inc/user_libs/usbd_core.c **** * @param  pdev: device instance
 467:inc/user_libs/usbd_core.c **** * @retval status
 468:inc/user_libs/usbd_core.c **** */
 469:inc/user_libs/usbd_core.c **** static uint8_t USBD_DevConnected(USB_OTG_CORE_HANDLE  *pdev)
 470:inc/user_libs/usbd_core.c **** {
 259              		.loc 1 470 0
 260              		.cfi_startproc
 261              		@ args = 0, pretend = 0, frame = 0
 262              		@ frame_needed = 0, uses_anonymous_args = 0
 263              	.LVL10:
 264 005e 10B5     		push	{r4, lr}	@
 265              	.LCFI5:
 266              		.cfi_def_cfa_offset 8
 267              		.cfi_offset 4, -8
 268              		.cfi_offset 14, -4
 269              	@ inc/user_libs/usbd_core.c:471:   pdev->dev.usr_cb->DeviceConnected();
 471:inc/user_libs/usbd_core.c ****   pdev->dev.usr_cb->DeviceConnected();
ARM GAS  /tmp/ccGDKjNp.s 			page 14


 270              		.loc 1 471 0
 271 0060 D0F8E835 		ldr	r3, [r0, #1512]	@ pdev_4(D)->dev.usr_cb, pdev_4(D)->dev.usr_cb
 272              	@ inc/user_libs/usbd_core.c:470: {
 470:inc/user_libs/usbd_core.c ****   pdev->dev.usr_cb->DeviceConnected();
 273              		.loc 1 470 0
 274 0064 0446     		mov	r4, r0	@ pdev, pdev
 275              	@ inc/user_libs/usbd_core.c:471:   pdev->dev.usr_cb->DeviceConnected();
 276              		.loc 1 471 0
 277 0066 5B69     		ldr	r3, [r3, #20]	@ _1->DeviceConnected, _1->DeviceConnected
 278 0068 9847     		blx	r3	@ _1->DeviceConnected
 279              	.LVL11:
 280              	@ inc/user_libs/usbd_core.c:472:   pdev->dev.connection_status = 1;  
 472:inc/user_libs/usbd_core.c ****   pdev->dev.connection_status = 1;  
 281              		.loc 1 472 0
 282 006a 0123     		movs	r3, #1	@ tmp116,
 283 006c 84F81531 		strb	r3, [r4, #277]	@ tmp116, pdev_4(D)->dev.connection_status
 284              	@ inc/user_libs/usbd_core.c:474: }
 473:inc/user_libs/usbd_core.c ****   return USBD_OK;
 474:inc/user_libs/usbd_core.c **** }
 285              		.loc 1 474 0
 286 0070 0020     		movs	r0, #0	@,
 287 0072 10BD     		pop	{r4, pc}	@
 288              		.cfi_endproc
 289              	.LFE124:
 290              		.size	USBD_DevConnected, .-USBD_DevConnected
 291              		.align	1
 292              		.syntax unified
 293              		.thumb
 294              		.thumb_func
 295              		.fpu softvfp
 296              		.type	USBD_DevDisconnected, %function
 297              	USBD_DevDisconnected:
 298              	.LFB125:
 475:inc/user_libs/usbd_core.c **** 
 476:inc/user_libs/usbd_core.c **** /**
 477:inc/user_libs/usbd_core.c **** * @brief  USBD_DevDisconnected 
 478:inc/user_libs/usbd_core.c **** *         Handle device disconnection event
 479:inc/user_libs/usbd_core.c **** * @param  pdev: device instance
 480:inc/user_libs/usbd_core.c **** * @retval status
 481:inc/user_libs/usbd_core.c **** */
 482:inc/user_libs/usbd_core.c **** static uint8_t USBD_DevDisconnected(USB_OTG_CORE_HANDLE  *pdev)
 483:inc/user_libs/usbd_core.c **** {
 299              		.loc 1 483 0
 300              		.cfi_startproc
 301              		@ args = 0, pretend = 0, frame = 0
 302              		@ frame_needed = 0, uses_anonymous_args = 0
 303              	.LVL12:
 304              	@ inc/user_libs/usbd_core.c:484:   pdev->dev.usr_cb->DeviceDisconnected();
 484:inc/user_libs/usbd_core.c ****   pdev->dev.usr_cb->DeviceDisconnected();
 305              		.loc 1 484 0
 306 0074 D0F8E835 		ldr	r3, [r0, #1512]	@ pdev_6(D)->dev.usr_cb, pdev_6(D)->dev.usr_cb
 307              	@ inc/user_libs/usbd_core.c:483: {
 483:inc/user_libs/usbd_core.c ****   pdev->dev.usr_cb->DeviceDisconnected();
 308              		.loc 1 483 0
 309 0078 10B5     		push	{r4, lr}	@
 310              	.LCFI6:
 311              		.cfi_def_cfa_offset 8
ARM GAS  /tmp/ccGDKjNp.s 			page 15


 312              		.cfi_offset 4, -8
 313              		.cfi_offset 14, -4
 314              	@ inc/user_libs/usbd_core.c:483: {
 483:inc/user_libs/usbd_core.c ****   pdev->dev.usr_cb->DeviceDisconnected();
 315              		.loc 1 483 0
 316 007a 0446     		mov	r4, r0	@ pdev, pdev
 317              	@ inc/user_libs/usbd_core.c:484:   pdev->dev.usr_cb->DeviceDisconnected();
 318              		.loc 1 484 0
 319 007c 9B69     		ldr	r3, [r3, #24]	@ _1->DeviceDisconnected, _1->DeviceDisconnected
 320 007e 9847     		blx	r3	@ _1->DeviceDisconnected
 321              	.LVL13:
 322              	@ inc/user_libs/usbd_core.c:485:   pdev->dev.class_cb->DeInit(pdev, 0);
 485:inc/user_libs/usbd_core.c ****   pdev->dev.class_cb->DeInit(pdev, 0);
 323              		.loc 1 485 0
 324 0080 D4F8E435 		ldr	r3, [r4, #1508]	@ pdev_6(D)->dev.class_cb, pdev_6(D)->dev.class_cb
 325 0084 0021     		movs	r1, #0	@,
 326 0086 5B68     		ldr	r3, [r3, #4]	@ _3->DeInit, _3->DeInit
 327 0088 2046     		mov	r0, r4	@, pdev
 328 008a 9847     		blx	r3	@ _3->DeInit
 329              	.LVL14:
 330              	@ inc/user_libs/usbd_core.c:486:   pdev->dev.connection_status = 0;    
 486:inc/user_libs/usbd_core.c ****   pdev->dev.connection_status = 0;    
 331              		.loc 1 486 0
 332 008c 0020     		movs	r0, #0	@ tmp120,
 333 008e 84F81501 		strb	r0, [r4, #277]	@ tmp120, pdev_6(D)->dev.connection_status
 334              	@ inc/user_libs/usbd_core.c:488: }
 487:inc/user_libs/usbd_core.c ****   return USBD_OK;
 488:inc/user_libs/usbd_core.c **** }
 335              		.loc 1 488 0
 336 0092 10BD     		pop	{r4, pc}	@
 337              		.cfi_endproc
 338              	.LFE125:
 339              		.size	USBD_DevDisconnected, .-USBD_DevDisconnected
 340              		.align	1
 341              		.syntax unified
 342              		.thumb
 343              		.thumb_func
 344              		.fpu softvfp
 345              		.type	USBD_Reset, %function
 346              	USBD_Reset:
 347              	.LFB116:
 339:inc/user_libs/usbd_core.c ****   /* Open EP0 OUT */
 348              		.loc 1 339 0
 349              		.cfi_startproc
 350              		@ args = 0, pretend = 0, frame = 0
 351              		@ frame_needed = 0, uses_anonymous_args = 0
 352              	.LVL15:
 353              	@ inc/user_libs/usbd_core.c:341:   DCD_EP_Open(pdev,
 341:inc/user_libs/usbd_core.c ****               0x00,
 354              		.loc 1 341 0
 355 0094 0023     		movs	r3, #0	@,
 356              	@ inc/user_libs/usbd_core.c:339: {
 339:inc/user_libs/usbd_core.c ****   /* Open EP0 OUT */
 357              		.loc 1 339 0
 358 0096 10B5     		push	{r4, lr}	@
 359              	.LCFI7:
 360              		.cfi_def_cfa_offset 8
ARM GAS  /tmp/ccGDKjNp.s 			page 16


 361              		.cfi_offset 4, -8
 362              		.cfi_offset 14, -4
 363              	@ inc/user_libs/usbd_core.c:341:   DCD_EP_Open(pdev,
 341:inc/user_libs/usbd_core.c ****               0x00,
 364              		.loc 1 341 0
 365 0098 1946     		mov	r1, r3	@,
 366              	@ inc/user_libs/usbd_core.c:339: {
 339:inc/user_libs/usbd_core.c ****   /* Open EP0 OUT */
 367              		.loc 1 339 0
 368 009a 0446     		mov	r4, r0	@ pdev, pdev
 369              	@ inc/user_libs/usbd_core.c:341:   DCD_EP_Open(pdev,
 341:inc/user_libs/usbd_core.c ****               0x00,
 370              		.loc 1 341 0
 371 009c 4022     		movs	r2, #64	@,
 372 009e FFF7FEFF 		bl	DCD_EP_Open	@
 373              	.LVL16:
 374              	@ inc/user_libs/usbd_core.c:347:   DCD_EP_Open(pdev,
 347:inc/user_libs/usbd_core.c ****               0x80,
 375              		.loc 1 347 0
 376 00a2 4022     		movs	r2, #64	@,
 377 00a4 8021     		movs	r1, #128	@,
 378 00a6 0023     		movs	r3, #0	@,
 379 00a8 2046     		mov	r0, r4	@, pdev
 380 00aa FFF7FEFF 		bl	DCD_EP_Open	@
 381              	.LVL17:
 382              	@ inc/user_libs/usbd_core.c:353:   pdev->dev.device_status = USB_OTG_DEFAULT;
 353:inc/user_libs/usbd_core.c ****   pdev->dev.usr_cb->DeviceReset(pdev->cfg.speed);
 383              		.loc 1 353 0
 384 00ae 0123     		movs	r3, #1	@ tmp115,
 385 00b0 84F81231 		strb	r3, [r4, #274]	@ tmp115, pdev_5(D)->dev.device_status
 386              	@ inc/user_libs/usbd_core.c:354:   pdev->dev.usr_cb->DeviceReset(pdev->cfg.speed);
 354:inc/user_libs/usbd_core.c ****   
 387              		.loc 1 354 0
 388 00b4 D4F8E835 		ldr	r3, [r4, #1512]	@ pdev_5(D)->dev.usr_cb, pdev_5(D)->dev.usr_cb
 389 00b8 A078     		ldrb	r0, [r4, #2]	@ zero_extendqisi2	@, pdev_5(D)->cfg.speed
 390 00ba 5B68     		ldr	r3, [r3, #4]	@ _1->DeviceReset, _1->DeviceReset
 391 00bc 9847     		blx	r3	@ _1->DeviceReset
 392              	.LVL18:
 393              	@ inc/user_libs/usbd_core.c:357: }
 357:inc/user_libs/usbd_core.c **** 
 394              		.loc 1 357 0
 395 00be 0020     		movs	r0, #0	@,
 396 00c0 10BD     		pop	{r4, pc}	@
 397              		.cfi_endproc
 398              	.LFE116:
 399              		.size	USBD_Reset, .-USBD_Reset
 400              		.align	1
 401              		.syntax unified
 402              		.thumb
 403              		.thumb_func
 404              		.fpu softvfp
 405              		.type	USBD_SetupStage, %function
 406              	USBD_SetupStage:
 407              	.LFB112:
 179:inc/user_libs/usbd_core.c ****   USB_SETUP_REQ req;
 408              		.loc 1 179 0
 409              		.cfi_startproc
ARM GAS  /tmp/ccGDKjNp.s 			page 17


 410              		@ args = 0, pretend = 0, frame = 8
 411              		@ frame_needed = 0, uses_anonymous_args = 0
 412              	.LVL19:
 413 00c2 13B5     		push	{r0, r1, r4, lr}	@
 414              	.LCFI8:
 415              		.cfi_def_cfa_offset 16
 416              		.cfi_offset 4, -8
 417              		.cfi_offset 14, -4
 418              	@ inc/user_libs/usbd_core.c:182:   USBD_ParseSetupRequest(pdev , &req);
 182:inc/user_libs/usbd_core.c ****   
 419              		.loc 1 182 0
 420 00c4 6946     		mov	r1, sp	@,
 421              	@ inc/user_libs/usbd_core.c:179: {
 179:inc/user_libs/usbd_core.c ****   USB_SETUP_REQ req;
 422              		.loc 1 179 0
 423 00c6 0446     		mov	r4, r0	@ pdev, pdev
 424              	@ inc/user_libs/usbd_core.c:182:   USBD_ParseSetupRequest(pdev , &req);
 182:inc/user_libs/usbd_core.c ****   
 425              		.loc 1 182 0
 426 00c8 FFF7FEFF 		bl	USBD_ParseSetupRequest	@
 427              	.LVL20:
 428              	@ inc/user_libs/usbd_core.c:184:   switch (req.bmRequest & 0x1F) 
 184:inc/user_libs/usbd_core.c ****   {
 429              		.loc 1 184 0
 430 00cc 9DF80010 		ldrb	r1, [sp]	@ zero_extendqisi2	@ _1, req.bmRequest
 431 00d0 01F01F03 		and	r3, r1, #31	@ tmp117, _1,
 432 00d4 012B     		cmp	r3, #1	@ tmp117,
 433 00d6 0FD0     		beq	.L15	@,
 434 00d8 07D3     		bcc	.L16	@,
 435 00da 022B     		cmp	r3, #2	@ tmp117,
 436 00dc 11D0     		beq	.L17	@,
 437              	@ inc/user_libs/usbd_core.c:199:     DCD_EP_Stall(pdev , req.bmRequest & 0x80);
 199:inc/user_libs/usbd_core.c ****     break;
 438              		.loc 1 199 0
 439 00de 01F08001 		and	r1, r1, #128	@, _1,
 440 00e2 2046     		mov	r0, r4	@, pdev
 441 00e4 FFF7FEFF 		bl	DCD_EP_Stall	@
 442              	.LVL21:
 443              	@ inc/user_libs/usbd_core.c:200:     break;
 200:inc/user_libs/usbd_core.c ****   }  
 444              		.loc 1 200 0
 445 00e8 03E0     		b	.L18	@
 446              	.L16:
 447              	@ inc/user_libs/usbd_core.c:187:     USBD_StdDevReq (pdev, &req);
 187:inc/user_libs/usbd_core.c ****     break;
 448              		.loc 1 187 0
 449 00ea 6946     		mov	r1, sp	@,
 450 00ec 2046     		mov	r0, r4	@, pdev
 451 00ee FFF7FEFF 		bl	USBD_StdDevReq	@
 452              	.LVL22:
 453              	.L18:
 454              	@ inc/user_libs/usbd_core.c:203: }
 203:inc/user_libs/usbd_core.c **** 
 455              		.loc 1 203 0
 456 00f2 0020     		movs	r0, #0	@,
 457 00f4 02B0     		add	sp, sp, #8	@,,
 458              	.LCFI9:
ARM GAS  /tmp/ccGDKjNp.s 			page 18


 459              		.cfi_remember_state
 460              		.cfi_def_cfa_offset 8
 461              		@ sp needed	@
 462 00f6 10BD     		pop	{r4, pc}	@
 463              	.LVL23:
 464              	.L15:
 465              	.LCFI10:
 466              		.cfi_restore_state
 467              	@ inc/user_libs/usbd_core.c:191:     USBD_StdItfReq(pdev, &req);
 191:inc/user_libs/usbd_core.c ****     break;
 468              		.loc 1 191 0
 469 00f8 6946     		mov	r1, sp	@,
 470 00fa 2046     		mov	r0, r4	@, pdev
 471 00fc FFF7FEFF 		bl	USBD_StdItfReq	@
 472              	.LVL24:
 473              	@ inc/user_libs/usbd_core.c:192:     break;
 192:inc/user_libs/usbd_core.c ****     
 474              		.loc 1 192 0
 475 0100 F7E7     		b	.L18	@
 476              	.L17:
 477              	@ inc/user_libs/usbd_core.c:195:     USBD_StdEPReq(pdev, &req);   
 195:inc/user_libs/usbd_core.c ****     break;
 478              		.loc 1 195 0
 479 0102 6946     		mov	r1, sp	@,
 480 0104 2046     		mov	r0, r4	@, pdev
 481 0106 FFF7FEFF 		bl	USBD_StdEPReq	@
 482              	.LVL25:
 483              	@ inc/user_libs/usbd_core.c:196:     break;
 196:inc/user_libs/usbd_core.c ****     
 484              		.loc 1 196 0
 485 010a F2E7     		b	.L18	@
 486              		.cfi_endproc
 487              	.LFE112:
 488              		.size	USBD_SetupStage, .-USBD_SetupStage
 489              		.align	1
 490              		.syntax unified
 491              		.thumb
 492              		.thumb_func
 493              		.fpu softvfp
 494              		.type	USBD_DataInStage, %function
 495              	USBD_DataInStage:
 496              	.LFB114:
 261:inc/user_libs/usbd_core.c ****   USB_OTG_EP *ep;
 497              		.loc 1 261 0
 498              		.cfi_startproc
 499              		@ args = 0, pretend = 0, frame = 0
 500              		@ frame_needed = 0, uses_anonymous_args = 0
 501              	.LVL26:
 502 010c 38B5     		push	{r3, r4, r5, lr}	@
 503              	.LCFI11:
 504              		.cfi_def_cfa_offset 16
 505              		.cfi_offset 3, -16
 506              		.cfi_offset 4, -12
 507              		.cfi_offset 5, -8
 508              		.cfi_offset 14, -4
 509              	@ inc/user_libs/usbd_core.c:261: {
 261:inc/user_libs/usbd_core.c ****   USB_OTG_EP *ep;
ARM GAS  /tmp/ccGDKjNp.s 			page 19


 510              		.loc 1 261 0
 511 010e 0446     		mov	r4, r0	@ pdev, pdev
 512              	@ inc/user_libs/usbd_core.c:264:   if(epnum == 0) 
 264:inc/user_libs/usbd_core.c ****   {
 513              		.loc 1 264 0
 514 0110 0029     		cmp	r1, #0	@ epnum
 515 0112 49D1     		bne	.L21	@
 516              	.LVL27:
 517              	.LBB12:
 518              	.LBB13:
 519              	@ inc/user_libs/usbd_core.c:267:     if ( pdev->dev.device_state == USB_OTG_EP0_DATA_IN)
 267:inc/user_libs/usbd_core.c ****     {
 520              		.loc 1 267 0
 521 0114 90F81131 		ldrb	r3, [r0, #273]	@ zero_extendqisi2	@ pdev_7(D)->dev.device_state, pdev_7(D)->dev.device_state
 522 0118 022B     		cmp	r3, #2	@ pdev_7(D)->dev.device_state,
 523 011a 17D1     		bne	.L22	@,
 524              	@ inc/user_libs/usbd_core.c:269:       if(ep->rem_data_len > ep->maxpacket)
 269:inc/user_libs/usbd_core.c ****       {
 525              		.loc 1 269 0
 526 011c D0F83821 		ldr	r2, [r0, #312]	@ _11, MEM[(struct USB_OTG_EP *)pdev_7(D) + 284B].rem_data_len
 527 0120 D0F82431 		ldr	r3, [r0, #292]	@ _12, MEM[(struct USB_OTG_EP *)pdev_7(D) + 284B].maxpacket
 528 0124 9A42     		cmp	r2, r3	@ _11, _12
 529 0126 1ED9     		bls	.L23	@,
 530              	@ inc/user_libs/usbd_core.c:272:         if(pdev->cfg.dma_enable == 1)
 272:inc/user_libs/usbd_core.c ****         {
 531              		.loc 1 272 0
 532 0128 C178     		ldrb	r1, [r0, #3]	@ zero_extendqisi2	@ pdev_7(D)->cfg.dma_enable, pdev_7(D)->cfg.dma_enable
 533              	.LVL28:
 534 012a 0129     		cmp	r1, #1	@ pdev_7(D)->cfg.dma_enable,
 535              	@ inc/user_libs/usbd_core.c:275:           ep->xfer_buff += ep->maxpacket;
 275:inc/user_libs/usbd_core.c ****         }
 536              		.loc 1 275 0
 537 012c 08BF     		it	eq
 538 012e D0F82811 		ldreq	r1, [r0, #296]	@ MEM[(struct USB_OTG_EP *)pdev_7(D) + 284B].xfer_buff, MEM[(struct USB_OTG_E
 539              	@ inc/user_libs/usbd_core.c:271:         ep->rem_data_len -=  ep->maxpacket;
 271:inc/user_libs/usbd_core.c ****         if(pdev->cfg.dma_enable == 1)
 540              		.loc 1 271 0
 541 0132 A2EB0302 		sub	r2, r2, r3	@ _13, _11, _12
 542              	@ inc/user_libs/usbd_core.c:275:           ep->xfer_buff += ep->maxpacket;
 275:inc/user_libs/usbd_core.c ****         }
 543              		.loc 1 275 0
 544 0136 04BF     		itt	eq
 545 0138 5B18     		addeq	r3, r3, r1	@ tmp136, MEM[(struct USB_OTG_EP *)pdev_7(D) + 284B].xfer_buff
 546 013a C0F82831 		streq	r3, [r0, #296]	@ tmp136, MEM[(struct USB_OTG_EP *)pdev_7(D) + 284B].xfer_buff
 547              	@ inc/user_libs/usbd_core.c:271:         ep->rem_data_len -=  ep->maxpacket;
 271:inc/user_libs/usbd_core.c ****         if(pdev->cfg.dma_enable == 1)
 548              		.loc 1 271 0
 549 013e C0F83821 		str	r2, [r0, #312]	@ _13, MEM[(struct USB_OTG_EP *)pdev_7(D) + 284B].rem_data_len
 550              	@ inc/user_libs/usbd_core.c:277:         USBD_CtlContinueSendData (pdev, 
 277:inc/user_libs/usbd_core.c ****                                   ep->xfer_buff, 
 551              		.loc 1 277 0
 552 0142 D0F82811 		ldr	r1, [r0, #296]	@, MEM[(struct USB_OTG_EP *)pdev_7(D) + 284B].xfer_buff
 553 0146 92B2     		uxth	r2, r2	@, _13
 554 0148 FFF7FEFF 		bl	USBD_CtlContinueSendData	@
 555              	.LVL29:
 556              	.L22:
 557              	@ inc/user_libs/usbd_core.c:302:     if (pdev->dev.test_mode == 1)
ARM GAS  /tmp/ccGDKjNp.s 			page 20


 302:inc/user_libs/usbd_core.c ****     {
 558              		.loc 1 302 0
 559 014c 94F81631 		ldrb	r3, [r4, #278]	@ zero_extendqisi2	@ pdev_7(D)->dev.test_mode, pdev_7(D)->dev.test_mode
 560 0150 012B     		cmp	r3, #1	@ pdev_7(D)->dev.test_mode,
 561 0152 06D1     		bne	.L28	@,
 562              	.LBB14:
 563              	.LBB15:
 564              	@ inc/user_libs/usbd_core.c:327:   USB_OTG_WRITE_REG32(&pdev->regs.DREGS->DCTL, SET_TEST_MODE.d32);
 327:inc/user_libs/usbd_core.c ****   return USBD_OK;  
 565              		.loc 1 327 0
 566 0154 1A4A     		ldr	r2, .L36	@ tmp150,
 567 0156 2369     		ldr	r3, [r4, #16]	@ _26, MEM[(struct USB_OTG_DREGS * *)pdev_7(D) + 16B]
 568              	.LVL30:
 569 0158 1268     		ldr	r2, [r2]	@ _27, SET_TEST_MODE.d32
 570 015a 5A60     		str	r2, [r3, #4]	@ _27, _26->DCTL
 571              	.LBE15:
 572              	.LBE14:
 573              	@ inc/user_libs/usbd_core.c:305:       pdev->dev.test_mode = 0;
 305:inc/user_libs/usbd_core.c ****     }
 574              		.loc 1 305 0
 575 015c 0023     		movs	r3, #0	@ tmp151,
 576 015e 84F81631 		strb	r3, [r4, #278]	@ tmp151, pdev_7(D)->dev.test_mode
 577              	.LVL31:
 578              	.L28:
 579              	.LBE13:
 580              	.LBE12:
 581              	@ inc/user_libs/usbd_core.c:314: }
 314:inc/user_libs/usbd_core.c **** 
 582              		.loc 1 314 0
 583 0162 0020     		movs	r0, #0	@,
 584 0164 38BD     		pop	{r3, r4, r5, pc}	@
 585              	.LVL32:
 586              	.L23:
 587              	.LBB17:
 588              	.LBB16:
 589              	@ inc/user_libs/usbd_core.c:283:         if((ep->total_data_len % ep->maxpacket == 0) &&
 283:inc/user_libs/usbd_core.c ****            (ep->total_data_len >= ep->maxpacket) &&
 590              		.loc 1 283 0
 591 0166 D0F83C21 		ldr	r2, [r0, #316]	@ _19, MEM[(struct USB_OTG_EP *)pdev_7(D) + 284B].total_data_len
 592 016a B2FBF3F5 		udiv	r5, r2, r3	@ tmp142, _19, _12
 593 016e 03FB1525 		mls	r5, r3, r5, r2	@ tmp144, _12, tmp142, _19
 594 0172 5DB9     		cbnz	r5, .L25	@ tmp144,
 595 0174 9342     		cmp	r3, r2	@ _12, _19
 596 0176 09D8     		bhi	.L25	@,
 597              	@ inc/user_libs/usbd_core.c:284:            (ep->total_data_len >= ep->maxpacket) &&
 284:inc/user_libs/usbd_core.c ****              (ep->total_data_len < ep->ctl_data_len ))
 598              		.loc 1 284 0
 599 0178 D0F84031 		ldr	r3, [r0, #320]	@ MEM[(struct USB_OTG_EP *)pdev_7(D) + 284B].ctl_data_len, MEM[(struct USB_OTG_
 600 017c 9A42     		cmp	r2, r3	@ _19, MEM[(struct USB_OTG_EP *)pdev_7(D) + 284B].ctl_data_len
 601 017e 05D2     		bcs	.L25	@,
 602              	@ inc/user_libs/usbd_core.c:288:           USBD_CtlContinueSendData(pdev , NULL, 0);
 288:inc/user_libs/usbd_core.c ****           ep->ctl_data_len = 0;
 603              		.loc 1 288 0
 604 0180 2A46     		mov	r2, r5	@, tmp144
 605 0182 FFF7FEFF 		bl	USBD_CtlContinueSendData	@
 606              	.LVL33:
 607              	@ inc/user_libs/usbd_core.c:289:           ep->ctl_data_len = 0;
ARM GAS  /tmp/ccGDKjNp.s 			page 21


 289:inc/user_libs/usbd_core.c ****         }
 608              		.loc 1 289 0
 609 0186 C4F84051 		str	r5, [r4, #320]	@ tmp144, MEM[(struct USB_OTG_EP *)pdev_7(D) + 284B].ctl_data_len
 610 018a DFE7     		b	.L22	@
 611              	.LVL34:
 612              	.L25:
 613              	@ inc/user_libs/usbd_core.c:293:           if((pdev->dev.class_cb->EP0_TxSent != NULL)&&
 293:inc/user_libs/usbd_core.c ****              (pdev->dev.device_status == USB_OTG_CONFIGURED))
 614              		.loc 1 293 0
 615 018c D4F8E435 		ldr	r3, [r4, #1508]	@ pdev_7(D)->dev.class_cb, pdev_7(D)->dev.class_cb
 616 0190 DB68     		ldr	r3, [r3, #12]	@ _23, _22->EP0_TxSent
 617 0192 2BB1     		cbz	r3, .L26	@ _23,
 618 0194 94F81221 		ldrb	r2, [r4, #274]	@ zero_extendqisi2	@ pdev_7(D)->dev.device_status, pdev_7(D)->dev.device_statu
 619 0198 032A     		cmp	r2, #3	@ pdev_7(D)->dev.device_status,
 620 019a 01D1     		bne	.L26	@,
 621              	@ inc/user_libs/usbd_core.c:296:             pdev->dev.class_cb->EP0_TxSent(pdev); 
 296:inc/user_libs/usbd_core.c ****           }          
 622              		.loc 1 296 0
 623 019c 2046     		mov	r0, r4	@, pdev
 624              	.LVL35:
 625 019e 9847     		blx	r3	@ _23
 626              	.LVL36:
 627              	.L26:
 628              	@ inc/user_libs/usbd_core.c:298:           USBD_CtlReceiveStatus(pdev);
 298:inc/user_libs/usbd_core.c ****         }
 629              		.loc 1 298 0
 630 01a0 2046     		mov	r0, r4	@, pdev
 631 01a2 FFF7FEFF 		bl	USBD_CtlReceiveStatus	@
 632              	.LVL37:
 633 01a6 D1E7     		b	.L22	@
 634              	.LVL38:
 635              	.L21:
 636              	.LBE16:
 637              	.LBE17:
 638              	@ inc/user_libs/usbd_core.c:308:   else if((pdev->dev.class_cb->DataIn != NULL)&& 
 308:inc/user_libs/usbd_core.c ****           (pdev->dev.device_status == USB_OTG_CONFIGURED))
 639              		.loc 1 308 0
 640 01a8 D0F8E435 		ldr	r3, [r0, #1508]	@ pdev_7(D)->dev.class_cb, pdev_7(D)->dev.class_cb
 641 01ac 5B69     		ldr	r3, [r3, #20]	@ _2, _1->DataIn
 642 01ae 002B     		cmp	r3, #0	@ _2
 643 01b0 D7D0     		beq	.L28	@
 644              	@ inc/user_libs/usbd_core.c:308:   else if((pdev->dev.class_cb->DataIn != NULL)&& 
 308:inc/user_libs/usbd_core.c ****           (pdev->dev.device_status == USB_OTG_CONFIGURED))
 645              		.loc 1 308 0 is_stmt 0 discriminator 1
 646 01b2 90F81221 		ldrb	r2, [r0, #274]	@ zero_extendqisi2	@ pdev_7(D)->dev.device_status, pdev_7(D)->dev.device_statu
 647 01b6 032A     		cmp	r2, #3	@ pdev_7(D)->dev.device_status,
 648 01b8 D3D1     		bne	.L28	@,
 649              	@ inc/user_libs/usbd_core.c:311:     pdev->dev.class_cb->DataIn(pdev, epnum); 
 311:inc/user_libs/usbd_core.c ****   }  
 650              		.loc 1 311 0 is_stmt 1
 651 01ba 9847     		blx	r3	@ _2
 652              	.LVL39:
 653 01bc D1E7     		b	.L28	@
 654              	.L37:
 655 01be 00BF     		.align	2
 656              	.L36:
 657 01c0 00000000 		.word	SET_TEST_MODE
ARM GAS  /tmp/ccGDKjNp.s 			page 22


 658              		.cfi_endproc
 659              	.LFE114:
 660              		.size	USBD_DataInStage, .-USBD_DataInStage
 661              		.align	1
 662              		.syntax unified
 663              		.thumb
 664              		.thumb_func
 665              		.fpu softvfp
 666              		.type	USBD_DataOutStage, %function
 667              	USBD_DataOutStage:
 668              	.LFB113:
 213:inc/user_libs/usbd_core.c ****   USB_OTG_EP *ep;
 669              		.loc 1 213 0
 670              		.cfi_startproc
 671              		@ args = 0, pretend = 0, frame = 0
 672              		@ frame_needed = 0, uses_anonymous_args = 0
 673              	.LVL40:
 674 01c4 10B5     		push	{r4, lr}	@
 675              	.LCFI12:
 676              		.cfi_def_cfa_offset 8
 677              		.cfi_offset 4, -8
 678              		.cfi_offset 14, -4
 679              	@ inc/user_libs/usbd_core.c:213: {
 213:inc/user_libs/usbd_core.c ****   USB_OTG_EP *ep;
 680              		.loc 1 213 0
 681 01c6 0446     		mov	r4, r0	@ pdev, pdev
 682              	@ inc/user_libs/usbd_core.c:216:   if(epnum == 0) 
 216:inc/user_libs/usbd_core.c ****   {
 683              		.loc 1 216 0
 684 01c8 69BB     		cbnz	r1, .L39	@ epnum,
 685              	.LVL41:
 686              	@ inc/user_libs/usbd_core.c:219:     if ( pdev->dev.device_state == USB_OTG_EP0_DATA_OUT)
 219:inc/user_libs/usbd_core.c ****     {
 687              		.loc 1 219 0
 688 01ca 90F81131 		ldrb	r3, [r0, #273]	@ zero_extendqisi2	@ pdev_18(D)->dev.device_state, pdev_18(D)->dev.device_stat
 689 01ce 032B     		cmp	r3, #3	@ pdev_18(D)->dev.device_state,
 690 01d0 1AD1     		bne	.L40	@,
 691              	@ inc/user_libs/usbd_core.c:221:       if(ep->rem_data_len > ep->maxpacket)
 221:inc/user_libs/usbd_core.c ****       {
 692              		.loc 1 221 0
 693 01d2 D0F89033 		ldr	r3, [r0, #912]	@ _2, MEM[(struct USB_OTG_EP *)pdev_18(D) + 884B].rem_data_len
 694 01d6 D0F87C23 		ldr	r2, [r0, #892]	@ _3, MEM[(struct USB_OTG_EP *)pdev_18(D) + 884B].maxpacket
 695 01da 9342     		cmp	r3, r2	@ _2, _3
 696 01dc 16D9     		bls	.L41	@,
 697              	@ inc/user_libs/usbd_core.c:225:         if(pdev->cfg.dma_enable == 1)
 225:inc/user_libs/usbd_core.c ****         {
 698              		.loc 1 225 0
 699 01de C178     		ldrb	r1, [r0, #3]	@ zero_extendqisi2	@ pdev_18(D)->cfg.dma_enable, pdev_18(D)->cfg.dma_enable
 700              	.LVL42:
 701 01e0 0129     		cmp	r1, #1	@ pdev_18(D)->cfg.dma_enable,
 702              	@ inc/user_libs/usbd_core.c:228:           ep->xfer_buff += ep->maxpacket; 
 228:inc/user_libs/usbd_core.c ****         }        
 703              		.loc 1 228 0
 704 01e2 08BF     		it	eq
 705 01e4 D0F88013 		ldreq	r1, [r0, #896]	@ MEM[(struct USB_OTG_EP *)pdev_18(D) + 884B].xfer_buff, MEM[(struct USB_OTG_
 706              	@ inc/user_libs/usbd_core.c:223:         ep->rem_data_len -=  ep->maxpacket;
 223:inc/user_libs/usbd_core.c ****         
ARM GAS  /tmp/ccGDKjNp.s 			page 23


 707              		.loc 1 223 0
 708 01e8 A3EB0203 		sub	r3, r3, r2	@ _4, _2, _3
 709              	@ inc/user_libs/usbd_core.c:228:           ep->xfer_buff += ep->maxpacket; 
 228:inc/user_libs/usbd_core.c ****         }        
 710              		.loc 1 228 0
 711 01ec 04BF     		itt	eq
 712 01ee 8918     		addeq	r1, r1, r2	@ tmp131, _3
 713 01f0 C0F88013 		streq	r1, [r0, #896]	@ tmp131, MEM[(struct USB_OTG_EP *)pdev_18(D) + 884B].xfer_buff
 714              	@ inc/user_libs/usbd_core.c:232:                             MIN(ep->rem_data_len ,ep->maxpacket));
 232:inc/user_libs/usbd_core.c ****       }
 715              		.loc 1 232 0
 716 01f4 9A42     		cmp	r2, r3	@ _3, _4
 717 01f6 28BF     		it	cs
 718 01f8 1A46     		movcs	r2, r3	@ tmp133, _4
 719              	@ inc/user_libs/usbd_core.c:223:         ep->rem_data_len -=  ep->maxpacket;
 223:inc/user_libs/usbd_core.c ****         
 720              		.loc 1 223 0
 721 01fa C0F89033 		str	r3, [r0, #912]	@ _4, MEM[(struct USB_OTG_EP *)pdev_18(D) + 884B].rem_data_len
 722              	@ inc/user_libs/usbd_core.c:230:         USBD_CtlContinueRx (pdev, 
 230:inc/user_libs/usbd_core.c ****                             ep->xfer_buff,
 723              		.loc 1 230 0
 724 01fe 92B2     		uxth	r2, r2	@, tmp133
 725 0200 D0F88013 		ldr	r1, [r0, #896]	@, MEM[(struct USB_OTG_EP *)pdev_18(D) + 884B].xfer_buff
 726 0204 FFF7FEFF 		bl	USBD_CtlContinueRx	@
 727              	.LVL43:
 728              	.L40:
 729              	@ inc/user_libs/usbd_core.c:251: }
 251:inc/user_libs/usbd_core.c **** 
 730              		.loc 1 251 0
 731 0208 0020     		movs	r0, #0	@,
 732 020a 10BD     		pop	{r4, pc}	@
 733              	.LVL44:
 734              	.L41:
 735              	.LBB20:
 736              	.LBB21:
 737              	@ inc/user_libs/usbd_core.c:236:         if((pdev->dev.class_cb->EP0_RxReady != NULL)&&
 236:inc/user_libs/usbd_core.c ****            (pdev->dev.device_status == USB_OTG_CONFIGURED))
 738              		.loc 1 236 0
 739 020c D0F8E435 		ldr	r3, [r0, #1508]	@ pdev_18(D)->dev.class_cb, pdev_18(D)->dev.class_cb
 740 0210 1B69     		ldr	r3, [r3, #16]	@ _25, _24->EP0_RxReady
 741 0212 23B1     		cbz	r3, .L43	@ _25,
 742 0214 90F81221 		ldrb	r2, [r0, #274]	@ zero_extendqisi2	@ pdev_18(D)->dev.device_status, pdev_18(D)->dev.device_sta
 743 0218 032A     		cmp	r2, #3	@ pdev_18(D)->dev.device_status,
 744 021a 00D1     		bne	.L43	@,
 745              	@ inc/user_libs/usbd_core.c:239:           pdev->dev.class_cb->EP0_RxReady(pdev); 
 239:inc/user_libs/usbd_core.c ****         }
 746              		.loc 1 239 0
 747 021c 9847     		blx	r3	@ _25
 748              	.LVL45:
 749              	.L43:
 750              	@ inc/user_libs/usbd_core.c:241:         USBD_CtlSendStatus(pdev);
 241:inc/user_libs/usbd_core.c ****       }
 751              		.loc 1 241 0
 752 021e 2046     		mov	r0, r4	@, pdev
 753 0220 FFF7FEFF 		bl	USBD_CtlSendStatus	@
 754              	.LVL46:
 755 0224 F0E7     		b	.L40	@
ARM GAS  /tmp/ccGDKjNp.s 			page 24


 756              	.LVL47:
 757              	.L39:
 758              	.LBE21:
 759              	.LBE20:
 760              	@ inc/user_libs/usbd_core.c:245:   else if((pdev->dev.class_cb->DataOut != NULL)&&
 245:inc/user_libs/usbd_core.c ****           (pdev->dev.device_status == USB_OTG_CONFIGURED))
 761              		.loc 1 245 0
 762 0226 D0F8E435 		ldr	r3, [r0, #1508]	@ pdev_18(D)->dev.class_cb, pdev_18(D)->dev.class_cb
 763 022a 9B69     		ldr	r3, [r3, #24]	@ _12, _11->DataOut
 764 022c 002B     		cmp	r3, #0	@ _12
 765 022e EBD0     		beq	.L40	@
 766              	@ inc/user_libs/usbd_core.c:245:   else if((pdev->dev.class_cb->DataOut != NULL)&&
 245:inc/user_libs/usbd_core.c ****           (pdev->dev.device_status == USB_OTG_CONFIGURED))
 767              		.loc 1 245 0 is_stmt 0 discriminator 1
 768 0230 90F81221 		ldrb	r2, [r0, #274]	@ zero_extendqisi2	@ pdev_18(D)->dev.device_status, pdev_18(D)->dev.device_sta
 769 0234 032A     		cmp	r2, #3	@ pdev_18(D)->dev.device_status,
 770 0236 E7D1     		bne	.L40	@,
 771              	@ inc/user_libs/usbd_core.c:248:     pdev->dev.class_cb->DataOut(pdev, epnum); 
 248:inc/user_libs/usbd_core.c ****   }  
 772              		.loc 1 248 0 is_stmt 1
 773 0238 9847     		blx	r3	@ _12
 774              	.LVL48:
 775 023a E5E7     		b	.L40	@
 776              		.cfi_endproc
 777              	.LFE113:
 778              		.size	USBD_DataOutStage, .-USBD_DataOutStage
 779              		.align	1
 780              		.global	USBD_Init
 781              		.syntax unified
 782              		.thumb
 783              		.thumb_func
 784              		.fpu softvfp
 785              		.type	USBD_Init, %function
 786              	USBD_Init:
 787              	.LFB110:
 139:inc/user_libs/usbd_core.c ****   /* Hardware Init */
 788              		.loc 1 139 0
 789              		.cfi_startproc
 790              		@ args = 4, pretend = 0, frame = 0
 791              		@ frame_needed = 0, uses_anonymous_args = 0
 792              	.LVL49:
 793 023c 2DE9F041 		push	{r4, r5, r6, r7, r8, lr}	@
 794              	.LCFI13:
 795              		.cfi_def_cfa_offset 24
 796              		.cfi_offset 4, -24
 797              		.cfi_offset 5, -20
 798              		.cfi_offset 6, -16
 799              		.cfi_offset 7, -12
 800              		.cfi_offset 8, -8
 801              		.cfi_offset 14, -4
 802              	@ inc/user_libs/usbd_core.c:139: {
 139:inc/user_libs/usbd_core.c ****   /* Hardware Init */
 803              		.loc 1 139 0
 804 0240 0446     		mov	r4, r0	@ pdev, pdev
 805 0242 1646     		mov	r6, r2	@ pDevice, pDevice
 806 0244 9846     		mov	r8, r3	@ class_cb, class_cb
 807 0246 0D46     		mov	r5, r1	@ coreID, coreID
ARM GAS  /tmp/ccGDKjNp.s 			page 25


 808 0248 069F     		ldr	r7, [sp, #24]	@ usr_cb, usr_cb
 809              	@ inc/user_libs/usbd_core.c:141:   USB_OTG_BSP_Init(pdev);  
 141:inc/user_libs/usbd_core.c ****   USBD_DeInit(pdev);
 810              		.loc 1 141 0
 811 024a FFF7FEFF 		bl	USB_OTG_BSP_Init	@
 812              	.LVL50:
 813              	@ inc/user_libs/usbd_core.c:150:   DCD_Init(pdev , coreID);
 150:inc/user_libs/usbd_core.c ****   
 814              		.loc 1 150 0
 815 024e 2046     		mov	r0, r4	@, pdev
 816 0250 2946     		mov	r1, r5	@, coreID
 817              	@ inc/user_libs/usbd_core.c:145:   pdev->dev.class_cb = class_cb;
 145:inc/user_libs/usbd_core.c ****   pdev->dev.usr_cb = usr_cb;  
 818              		.loc 1 145 0
 819 0252 C4F8E485 		str	r8, [r4, #1508]	@ class_cb, pdev_4(D)->dev.class_cb
 820              	@ inc/user_libs/usbd_core.c:146:   pdev->dev.usr_cb = usr_cb;  
 146:inc/user_libs/usbd_core.c ****   pdev->dev.usr_device = pDevice;    
 821              		.loc 1 146 0
 822 0256 C4F8E875 		str	r7, [r4, #1512]	@ usr_cb, pdev_4(D)->dev.usr_cb
 823              	@ inc/user_libs/usbd_core.c:147:   pdev->dev.usr_device = pDevice;    
 147:inc/user_libs/usbd_core.c ****   
 824              		.loc 1 147 0
 825 025a C4F8EC65 		str	r6, [r4, #1516]	@ pDevice, pdev_4(D)->dev.usr_device
 826              	@ inc/user_libs/usbd_core.c:150:   DCD_Init(pdev , coreID);
 150:inc/user_libs/usbd_core.c ****   
 827              		.loc 1 150 0
 828 025e FFF7FEFF 		bl	DCD_Init	@
 829              	.LVL51:
 830              	@ inc/user_libs/usbd_core.c:153:   pdev->dev.usr_cb->Init();
 153:inc/user_libs/usbd_core.c ****   
 831              		.loc 1 153 0
 832 0262 D4F8E835 		ldr	r3, [r4, #1512]	@ pdev_4(D)->dev.usr_cb, pdev_4(D)->dev.usr_cb
 833 0266 1B68     		ldr	r3, [r3]	@ _1->Init, _1->Init
 834 0268 9847     		blx	r3	@ _1->Init
 835              	.LVL52:
 836              	@ inc/user_libs/usbd_core.c:156:   USB_OTG_BSP_EnableInterrupt(pdev);
 156:inc/user_libs/usbd_core.c **** }
 837              		.loc 1 156 0
 838 026a 2046     		mov	r0, r4	@, pdev
 839              	@ inc/user_libs/usbd_core.c:157: }
 157:inc/user_libs/usbd_core.c **** 
 840              		.loc 1 157 0
 841 026c BDE8F041 		pop	{r4, r5, r6, r7, r8, lr}	@
 842              	.LCFI14:
 843              		.cfi_restore 14
 844              		.cfi_restore 8
 845              		.cfi_restore 7
 846              		.cfi_restore 6
 847              		.cfi_restore 5
 848              		.cfi_restore 4
 849              		.cfi_def_cfa_offset 0
 850              	.LVL53:
 851              	@ inc/user_libs/usbd_core.c:156:   USB_OTG_BSP_EnableInterrupt(pdev);
 156:inc/user_libs/usbd_core.c **** }
 852              		.loc 1 156 0
 853 0270 FFF7FEBF 		b	USB_OTG_BSP_EnableInterrupt	@
 854              	.LVL54:
ARM GAS  /tmp/ccGDKjNp.s 			page 26


 855              		.cfi_endproc
 856              	.LFE110:
 857              		.size	USBD_Init, .-USBD_Init
 858              		.align	1
 859              		.global	USBD_DeInit
 860              		.syntax unified
 861              		.thumb
 862              		.thumb_func
 863              		.fpu softvfp
 864              		.type	USBD_DeInit, %function
 865              	USBD_DeInit:
 866              	.LFB111:
 166:inc/user_libs/usbd_core.c ****   /* Software Init */
 867              		.loc 1 166 0
 868              		.cfi_startproc
 869              		@ args = 0, pretend = 0, frame = 0
 870              		@ frame_needed = 0, uses_anonymous_args = 0
 871              		@ link register save eliminated.
 872              	.LVL55:
 873              	@ inc/user_libs/usbd_core.c:170: }
 170:inc/user_libs/usbd_core.c **** 
 874              		.loc 1 170 0
 875 0274 0020     		movs	r0, #0	@,
 876              	.LVL56:
 877 0276 7047     		bx	lr	@
 878              		.cfi_endproc
 879              	.LFE111:
 880              		.size	USBD_DeInit, .-USBD_DeInit
 881              		.align	1
 882              		.global	USBD_SetCfg
 883              		.syntax unified
 884              		.thumb
 885              		.thumb_func
 886              		.fpu softvfp
 887              		.type	USBD_SetCfg, %function
 888              	USBD_SetCfg:
 889              	.LFB120:
 417:inc/user_libs/usbd_core.c ****   pdev->dev.class_cb->Init(pdev, cfgidx); 
 890              		.loc 1 417 0
 891              		.cfi_startproc
 892              		@ args = 0, pretend = 0, frame = 0
 893              		@ frame_needed = 0, uses_anonymous_args = 0
 894              	.LVL57:
 895              	@ inc/user_libs/usbd_core.c:418:   pdev->dev.class_cb->Init(pdev, cfgidx); 
 418:inc/user_libs/usbd_core.c ****   
 896              		.loc 1 418 0
 897 0278 D0F8E435 		ldr	r3, [r0, #1508]	@ pdev_6(D)->dev.class_cb, pdev_6(D)->dev.class_cb
 898              	@ inc/user_libs/usbd_core.c:417: {
 417:inc/user_libs/usbd_core.c ****   pdev->dev.class_cb->Init(pdev, cfgidx); 
 899              		.loc 1 417 0
 900 027c 10B5     		push	{r4, lr}	@
 901              	.LCFI15:
 902              		.cfi_def_cfa_offset 8
 903              		.cfi_offset 4, -8
 904              		.cfi_offset 14, -4
 905              	@ inc/user_libs/usbd_core.c:417: {
 417:inc/user_libs/usbd_core.c ****   pdev->dev.class_cb->Init(pdev, cfgidx); 
ARM GAS  /tmp/ccGDKjNp.s 			page 27


 906              		.loc 1 417 0
 907 027e 0446     		mov	r4, r0	@ pdev, pdev
 908              	@ inc/user_libs/usbd_core.c:418:   pdev->dev.class_cb->Init(pdev, cfgidx); 
 418:inc/user_libs/usbd_core.c ****   
 909              		.loc 1 418 0
 910 0280 1B68     		ldr	r3, [r3]	@ _1->Init, _1->Init
 911 0282 9847     		blx	r3	@ _1->Init
 912              	.LVL58:
 913              	@ inc/user_libs/usbd_core.c:421:   pdev->dev.usr_cb->DeviceConfigured();
 421:inc/user_libs/usbd_core.c ****   return USBD_OK; 
 914              		.loc 1 421 0
 915 0284 D4F8E835 		ldr	r3, [r4, #1512]	@ pdev_6(D)->dev.usr_cb, pdev_6(D)->dev.usr_cb
 916 0288 9B68     		ldr	r3, [r3, #8]	@ _3->DeviceConfigured, _3->DeviceConfigured
 917 028a 9847     		blx	r3	@ _3->DeviceConfigured
 918              	.LVL59:
 919              	@ inc/user_libs/usbd_core.c:423: }
 423:inc/user_libs/usbd_core.c **** 
 920              		.loc 1 423 0
 921 028c 0020     		movs	r0, #0	@,
 922 028e 10BD     		pop	{r4, pc}	@
 923              		.cfi_endproc
 924              	.LFE120:
 925              		.size	USBD_SetCfg, .-USBD_SetCfg
 926              		.align	1
 927              		.global	USBD_ClrCfg
 928              		.syntax unified
 929              		.thumb
 930              		.thumb_func
 931              		.fpu softvfp
 932              		.type	USBD_ClrCfg, %function
 933              	USBD_ClrCfg:
 934              	.LFB121:
 433:inc/user_libs/usbd_core.c ****   pdev->dev.class_cb->DeInit(pdev, cfgidx);   
 935              		.loc 1 433 0
 936              		.cfi_startproc
 937              		@ args = 0, pretend = 0, frame = 0
 938              		@ frame_needed = 0, uses_anonymous_args = 0
 939              	.LVL60:
 940 0290 08B5     		push	{r3, lr}	@
 941              	.LCFI16:
 942              		.cfi_def_cfa_offset 8
 943              		.cfi_offset 3, -8
 944              		.cfi_offset 14, -4
 945              	@ inc/user_libs/usbd_core.c:434:   pdev->dev.class_cb->DeInit(pdev, cfgidx);   
 434:inc/user_libs/usbd_core.c ****   return USBD_OK;
 946              		.loc 1 434 0
 947 0292 D0F8E435 		ldr	r3, [r0, #1508]	@ pdev_4(D)->dev.class_cb, pdev_4(D)->dev.class_cb
 948 0296 5B68     		ldr	r3, [r3, #4]	@ _1->DeInit, _1->DeInit
 949 0298 9847     		blx	r3	@ _1->DeInit
 950              	.LVL61:
 951              	@ inc/user_libs/usbd_core.c:436: }
 436:inc/user_libs/usbd_core.c **** 
 952              		.loc 1 436 0
 953 029a 0020     		movs	r0, #0	@,
 954 029c 08BD     		pop	{r3, pc}	@
 955              		.cfi_endproc
 956              	.LFE121:
ARM GAS  /tmp/ccGDKjNp.s 			page 28


 957              		.size	USBD_ClrCfg, .-USBD_ClrCfg
 958              		.global	USBD_DCD_INT_fops
 959              		.global	USBD_DCD_INT_cb
 960              		.comm	SET_TEST_MODE,4,4
 961              		.data
 962              		.align	2
 963              		.type	USBD_DCD_INT_fops, %object
 964              		.size	USBD_DCD_INT_fops, 4
 965              	USBD_DCD_INT_fops:
 966 0000 00000000 		.word	USBD_DCD_INT_cb
 967              		.type	USBD_DCD_INT_cb, %object
 968              		.size	USBD_DCD_INT_cb, 44
 969              	USBD_DCD_INT_cb:
 970              	@ DataOutStage:
 971 0004 00000000 		.word	USBD_DataOutStage
 972              	@ DataInStage:
 973 0008 00000000 		.word	USBD_DataInStage
 974              	@ SetupStage:
 975 000c 00000000 		.word	USBD_SetupStage
 976              	@ SOF:
 977 0010 00000000 		.word	USBD_SOF
 978              	@ Reset:
 979 0014 00000000 		.word	USBD_Reset
 980              	@ Suspend:
 981 0018 00000000 		.word	USBD_Suspend
 982              	@ Resume:
 983 001c 00000000 		.word	USBD_Resume
 984              	@ IsoINIncomplete:
 985 0020 00000000 		.word	USBD_IsoINIncomplete
 986              	@ IsoOUTIncomplete:
 987 0024 00000000 		.word	USBD_IsoOUTIncomplete
 988              	@ DevConnected:
 989 0028 00000000 		.word	USBD_DevConnected
 990              	@ DevDisconnected:
 991 002c 00000000 		.word	USBD_DevDisconnected
 992              		.text
 993              	.Letext0:
 994              		.file 2 "/home/sticky/opt/gcc-arm-none-eabi-7-2017-q4-major/arm-none-eabi/include/machine/_default
 995              		.file 3 "/home/sticky/opt/gcc-arm-none-eabi-7-2017-q4-major/arm-none-eabi/include/sys/_stdint.h"
 996              		.file 4 "./inc/CMSIS/core_cm4.h"
 997              		.file 5 "./inc/system_stm32f4xx.h"
 998              		.file 6 "inc/user_libs/usb_regs.h"
 999              		.file 7 "inc/user_libs/usb_defines.h"
 1000              		.file 8 "inc/user_libs/usb_core.h"
 1001              		.file 9 "inc/user_libs/usbd_core.h"
 1002              		.file 10 "inc/user_libs/usb_dcd_int.h"
 1003              		.file 11 "inc/user_libs/usb_dcd.h"
 1004              		.file 12 "inc/user_libs/usbd_req.h"
 1005              		.file 13 "inc/user_libs/usb_bsp.h"
 1006              		.file 14 "inc/user_libs/usbd_ioreq.h"